LX51 LINKER/LOCATER V4.66.97.0                                                          08/03/2020  08:45:41  PAGE 1


LX51 LINKER/LOCATER V4.66.97.0, INVOKED BY:
C:\SILICONLABS\SIMPLICITYSTUDIO\V4\DEVELOPER\TOOLCHAINS\KEIL_8051\9.60\BIN\LX51.EXE ./src/Adc.OBJ, ./src/Command.OBJ, ./
>> src/Cpu.OBJ, ./src/DetectObj.OBJ, ./src/EFM8BB2_FlashPrimitives.OBJ, ./src/InitDevice.OBJ, ./src/Main.OBJ, ./src/SILA
>> BS_STARTUP.OBJ, ./src/Speaker.OBJ, ./src/Timer.OBJ, ./src/Uart.OBJ, ./src/UartCfg.OBJ TO HCXY_X30_EFM8BB21F16G-C-QFN2
>> 0_正常探芯.OMF.CRBUILD REMOVEUNUSED PRINT (.\HCXY_X30_EFM8BB21F16G-C-QFN20_正常探芯.m51) PAGEWIDTH (120) PAGELENGTH (
>> 65) CLASSES (ECODE (C:0X0-C:0X3FFE), HCONST (C:0X0-C:0X3FFE), XDATA (X:0X0-X:0X7FF), HDATA (X:0X0-X:0X7FF))


CPU MODE:     8051 MODE
MEMORY MODEL: LARGE


INPUT MODULES INCLUDED:
  ./src/Adc.OBJ (ADC)
         COMMENT TYPE 0: C51 V9.60.0.0
  ./src/Command.OBJ (COMMAND)
         COMMENT TYPE 0: C51 V9.60.0.0
  ./src/Cpu.OBJ (CPU)
         COMMENT TYPE 0: C51 V9.60.0.0
  ./src/DetectObj.OBJ (DETECTOBJ)
         COMMENT TYPE 0: C51 V9.60.0.0
  ./src/EFM8BB2_FlashPrimitives.OBJ (EFM8BB2_FLASHPRIMITIVES)
         COMMENT TYPE 0: C51 V9.60.0.0
  ./src/InitDevice.OBJ (INITDEVICE)
         COMMENT TYPE 0: C51 V9.60.0.0
  ./src/Main.OBJ (MAIN)
         COMMENT TYPE 0: C51 V9.60.0.0
  ./src/SILABS_STARTUP.OBJ (?C_STARTUP)
         COMMENT TYPE 0: AX51 V3.15.3.0
  ./src/Speaker.OBJ (SPEAKER)
         COMMENT TYPE 0: C51 V9.60.0.0
  ./src/Timer.OBJ (TIMER)
         COMMENT TYPE 0: C51 V9.60.0.0
  ./src/Uart.OBJ (UART)
         COMMENT TYPE 0: C51 V9.60.0.0
  ./src/UartCfg.OBJ (UARTCFG)
         COMMENT TYPE 0: C51 V9.60.0.0
  C:\SILICONLABS\SIMPLICITYSTUDIO\V4\DEVELOPER\TOOLCHAINS\KEIL_8051\9.60\LIB\C51L.LIB (?C_INIT)
         COMMENT TYPE 1: A51 / ASM51 Assembler
  C:\SILICONLABS\SIMPLICITYSTUDIO\V4\DEVELOPER\TOOLCHAINS\KEIL_8051\9.60\LIB\C51L.LIB (?C?CLDOPTR)
         COMMENT TYPE 1: A51 / ASM51 Assembler
  C:\SILICONLABS\SIMPLICITYSTUDIO\V4\DEVELOPER\TOOLCHAINS\KEIL_8051\9.60\LIB\C51L.LIB (?C?CSTOPTR)
         COMMENT TYPE 1: A51 / ASM51 Assembler
  C:\SILICONLABS\SIMPLICITYSTUDIO\V4\DEVELOPER\TOOLCHAINS\KEIL_8051\9.60\LIB\C51L.LIB (?C?IMUL)
         COMMENT TYPE 1: A51 / ASM51 Assembler
  C:\SILICONLABS\SIMPLICITYSTUDIO\V4\DEVELOPER\TOOLCHAINS\KEIL_8051\9.60\LIB\C51L.LIB (?C?UIDIV)
         COMMENT TYPE 1: A51 / ASM51 Assembler
  C:\SILICONLABS\SIMPLICITYSTUDIO\V4\DEVELOPER\TOOLCHAINS\KEIL_8051\9.60\LIB\C51L.LIB (?C?IILDX)
         COMMENT TYPE 1: A51 / ASM51 Assembler
  C:\SILICONLABS\SIMPLICITYSTUDIO\V4\DEVELOPER\TOOLCHAINS\KEIL_8051\9.60\LIB\C51L.LIB (?C?ULCMP)
         COMMENT TYPE 1: A51 / ASM51 Assembler
  C:\SILICONLABS\SIMPLICITYSTUDIO\V4\DEVELOPER\TOOLCHAINS\KEIL_8051\9.60\LIB\C51L.LIB (?C?LSTXDATA)
         COMMENT TYPE 1: A51 / ASM51 Assembler
  C:\SILICONLABS\SIMPLICITYSTUDIO\V4\DEVELOPER\TOOLCHAINS\KEIL_8051\9.60\LIB\C51L.LIB (?C?LSTKXDATA)
         COMMENT TYPE 1: A51 / ASM51 Assembler
  C:\SILICONLABS\SIMPLICITYSTUDIO\V4\DEVELOPER\TOOLCHAINS\KEIL_8051\9.60\LIB\C51L.LIB (?C?OFFXADD)
         COMMENT TYPE 1: A51 / ASM51 Assembler


ACTIVE MEMORY CLASSES OF MODULE:  HCXY_X30_EFM8BB21F16G-C-QFN20_正常探芯.OMF.CRBUILD (ADC)

BASE        START       END         USED      MEMORY CLASS
==========================================================
LX51 LINKER/LOCATER V4.66.97.0                                                        08/03/2020  08:45:41  PAGE 2


C:000000H   C:000000H   C:003FFEH             ECODE
C:000000H   C:000000H   C:003FFEH             HCONST
X:000000H   X:000000H   X:0007FFH   0002C5H   XDATA
X:000000H   X:000000H   X:0007FFH             HDATA
C:000000H   C:000000H   C:00FFFFH   00212BH   CODE
I:000020H.0 I:000020H.0 I:00002FH.7           BIT
I:000000H   I:000000H   I:0000FFH   000001H   IDATA
I:000000H   I:000000H   I:00007FH   000008H   DATA


MEMORY MAP OF MODULE:  HCXY_X30_EFM8BB21F16G-C-QFN20_正常探芯.OMF.CRBUILD (ADC)


START     STOP      LENGTH    ALIGN  RELOC    MEMORY CLASS   SEGMENT NAME
=========================================================================

* * * * * * * * * * *   D A T A   M E M O R Y   * * * * * * * * * * * * *
000000H   000007H   000008H   ---    AT..     DATA           "REG BANK 0"
000008H   000008H   000001H   BYTE   UNIT     IDATA          ?STACK

* * * * * * * * * * *   C O D E   M E M O R Y   * * * * * * * * * * * * *
000000H   000002H   000003H   ---    OFFS..   CODE           ?CO?SILABS_STARTUP?3
000003H   000008H   000006H   BYTE   UNIT     CODE           ?PR?DETOBJ_STOP?DETECTOBJ
000009H   000009H   000001H   BYTE   UNIT     CODE           ?PR?SILABS_STARTUP?MAIN
00000AH   00000AH   000001H   BYTE   UNIT     CODE           ?PR?TIMER0_ISR?TIMER
00000BH   00000DH   000003H   BYTE   OFFS..   CODE           ?TIMER?0000B
00000EH   00002AH   00001DH   BYTE   UNIT     CODE           ?PR?_DELAY1MS?TIMER
00002BH   00002DH   000003H   BYTE   OFFS..   CODE           ?TIMER?0002B
00002EH   000049H   00001CH   BYTE   UNIT     CODE           ?PR?ADC_INITVARIABLE?ADC
00004AH   00004AH   000001H   BYTE   UNIT     CODE           ?PR?UART1_RXERRORHOOK?UART
00004BH   00004DH   000003H   BYTE   OFFS..   CODE           ?ADC?0004B
00004EH   000050H   000003H   BYTE   UNIT     CODE           ?PR?ADC_WINDOW_ISR?ADC
000051H   000052H   000002H   ---    ---      **GAP**
000053H   000055H   000003H   BYTE   OFFS..   CODE           ?ADC?00053
000056H   000071H   00001CH   BYTE   UNIT     CODE           ?PR?CMD_UPDATADISTANCE?COMMAND
000072H   000072H   000001H   ---    ---      **GAP**
000073H   000075H   000003H   BYTE   OFFS..   CODE           ?TIMER?00073
000076H   000088H   000013H   BYTE   UNIT     CODE           ?PR?TIME_STOPADCTRIGGER?TIMER
000089H   00008AH   000002H   ---    ---      **GAP**
00008BH   00008DH   000003H   BYTE   OFFS..   CODE           ?UART?0008B
00008EH   00009AH   00000DH   BYTE   UNIT     CODE           ?PR?ADC_START?ADC
00009BH   00009DH   000003H   BYTE   OFFS..   CODE           ?TIMER?0009B
00009EH   000409H   00036CH   BYTE   UNIT     CODE           ?PR?DETOBJ_RAWECHODATAANS?DETECTOBJ
00040AH   0006E4H   0002DBH   BYTE   UNIT     CODE           ?PR?DETOBJ_COMPARETHEDATA?DETECTOBJ
0006E5H   00095BH   000277H   BYTE   UNIT     CODE           ?PR?DETOBJ_INITVARIABLE?DETECTOBJ
00095CH   000B72H   000217H   BYTE   UNIT     CODE           ?PR?DETOBJ_DETTHEOBJ?DETECTOBJ
000B73H   000D7AH   000208H   BYTE   UNIT     CODE           ?PR?DETOBJ_CALSAMPNOISE?DETECTOBJ
000D7BH   000F54H   0001DAH   BYTE   UNIT     CODE           ?PR?DETOBJ_RAWFILTER?DETECTOBJ
000F55H   0010E4H   000190H   BYTE   UNIT     CODE           ?PR?DETOBJ_GENERATETHENEARESTOBSTACLE?DETECTOBJ
0010E5H   001255H   000171H   BYTE   UNIT     CODE           ?PR?DETOBJ_DIAGNOSTICTHERINGTIME?DETECTOBJ
001256H   00139EH   000149H   BYTE   UNIT     CODE           ?PR?DETOBJ_RAWNOISEDATAANS?DETECTOBJ
00139FH   0014C4H   000126H   BYTE   UNIT     CODE           ?C?LIB_CODE
0014C5H   00158EH   0000CAH   BYTE   UNIT     CODE           ?PR?ADC_ISR?ADC
00158FH   001652H   0000C4H   BYTE   UNIT     CODE           ?PR?CMD_PROCESS?COMMAND
001653H   001712H   0000C0H   BYTE   UNIT     CODE           ?PR?DETOBJ_PROCESSTHERINGTIME?DETECTOBJ
001713H   0017A1H   00008FH   BYTE   UNIT     CODE           ?C_C51STARTUP
0017A2H   00182EH   00008DH   BYTE   UNIT     CODE           ?PR?DETOBJ_INITTHEEPD?DETECTOBJ
00182FH   0018AEH   000080H   BYTE   UNIT     CODE           ?PR?DETOBJ_HOLDTHEOBSTACLESTATE?DETECTOBJ
0018AFH   00192CH   00007EH   BYTE   UNIT     CODE           ?PR?CMD_SENDDISTANCETOBCM?COMMAND
00192DH   0019A8H   00007CH   BYTE   UNIT     CODE           ?C_INITSEG
0019A9H   001A21H   000079H   BYTE   UNIT     CODE           ?PR?DETOBJ_SENDTHE58KHZULTRASONIC?DETECTOBJ
001A22H   001A95H   000074H   BYTE   UNIT     CODE           ?PR?CMD_DISTANCETOCOMINFO?COMMAND
LX51 LINKER/LOCATER V4.66.97.0                                                        08/03/2020  08:45:41  PAGE 3


001A96H   001B08H   000073H   BYTE   UNIT     CODE           ?PR?DETOBJ_CLEARTHENOISEBUFF?DETECTOBJ
001B09H   001B6DH   000065H   BYTE   UNIT     CODE           ?PR?_GETDISTANCE?DETECTOBJ
001B6EH   001BD1H   000064H   BYTE   UNIT     CODE           ?PR?TIMER2_ISR?TIMER
001BD2H   001C2CH   00005BH   BYTE   UNIT     CODE           ?PR?DETOBJ_INITTHECCD?DETECTOBJ
001C2DH   001C81H   000055H   BYTE   UNIT     CODE           ?PR?UART1_INIT?UART
001C82H   001CCAH   000049H   BYTE   UNIT     CODE           ?PR?DETOBJ_REALTIMECLOCK?DETECTOBJ
001CCBH   001D0EH   000044H   BYTE   UNIT     CODE           ?PR?MAIN?MAIN
001D0FH   001D51H   000043H   BYTE   UNIT     CODE           ?PR?_DETOBJ_COPYSAMPLINGBUFFER?DETECTOBJ
001D52H   001D93H   000042H   BYTE   UNIT     CODE           ?PR?DETOBJ_INITALLCHANNELDISTANCE?DETECTOBJ
001D94H   001DD4H   000041H   BYTE   UNIT     CODE           ?PR?UART1_ISR?UART
001DD5H   001E13H   00003FH   BYTE   UNIT     CODE           ?PR?INITGLOBALVARIABLE?MAIN
001E14H   001E4BH   000038H   BYTE   UNIT     CODE           ?PR?_DELAY1US?TIMER
001E4CH   001E7FH   000034H   BYTE   UNIT     CODE           ?PR?_CMD_NEXTSENSORDET?COMMAND
001E80H   001EB2H   000033H   BYTE   UNIT     CODE           ?PR?ADC_INITDETECT?ADC
001EB3H   001EE2H   000030H   BYTE   UNIT     CODE           ?PR?_UART1_WRITEBYTE?UART
001EE3H   001F11H   00002FH   BYTE   UNIT     CODE           ?PR?TIMER3_ISR?TIMER
001F12H   001F3CH   00002BH   BYTE   UNIT     CODE           ?PR?TIME_INIT1MSTIMER?TIMER
001F3DH   001F67H   00002BH   BYTE   UNIT     CODE           ?PR?TIME_INITTHEDELAYTIMER?TIMER
001F68H   001F91H   00002AH   BYTE   UNIT     CODE           ?PR?DETOBJ_DIAGNOSTICTHESENSOR?DETECTOBJ
001F92H   001FBBH   00002AH   BYTE   UNIT     CODE           ?PR?DETOBJ_CLEARTHERAWDATABUFF?DETECTOBJ
001FBCH   001FE3H   000028H   BYTE   UNIT     CODE           ?PR?INITUART1ALLVAR?UARTCFG
001FE4H   00200AH   000027H   BYTE   UNIT     CODE           ?PR?CMD_SETCHANNEL?COMMAND
00200BH   002031H   000027H   BYTE   UNIT     CODE           ?PR?TIME_INITVARIABLE?TIMER
002032H   002058H   000027H   BYTE   UNIT     CODE           ?PR?TIME_INITADCTRIGGERTIMER?TIMER
002059H   00207BH   000023H   BYTE   UNIT     CODE           ?PR?CPU_INITHARDWAREPORT?CPU
00207CH   00209BH   000020H   BYTE   UNIT     CODE           ?PR?CPU_CLK_INIT?CPU
00209CH   0020B7H   00001CH   BYTE   UNIT     CODE           ?PR?_CPU_WDG_INIT?CPU
0020B8H   0020D3H   00001CH   BYTE   UNIT     CODE           ?PR?TIME_INIT32MSTIMER?TIMER
0020D4H   0020EFH   00001CH   BYTE   UNIT     CODE           ?PR?TIME_STARTADCTRIGGER?TIMER
0020F0H   00210AH   00001BH   BYTE   UNIT     CODE           ?PR?TIMER4_ISR?TIMER
00210BH   002114H   00000AH   BYTE   UNIT     CODE           ?PR?ADC_STOP?ADC
002115H   00211DH   000009H   BYTE   UNIT     CODE           ?PR?DETOBJ_START?DETECTOBJ
00211EH   002123H   000006H   BYTE   UNIT     CODE           ?PR?DETOBJ_INITTHEANALYSISDATA?DETECTOBJ
002124H   002129H   000006H   BYTE   UNIT     CODE           ?PR?_UART1_RXDATAHOOK?UART
00212AH   00212CH   000003H   BYTE   UNIT     CODE           ?PR?CPU_ENABLEINTERRUPT?CPU
00212DH   00212FH   000003H   BYTE   UNIT     CODE           ?PR?CPU_DISABLEINTERRUPT?CPU

* * * * * * * * * * *  X D A T A   M E M O R Y  * * * * * * * * * * * * *
000000H   000243H   000244H   BYTE   UNIT     XDATA          ?XD?DETECTOBJ
000244H   000263H   000020H   BYTE   UNIT     XDATA          ?XD?ADC
000264H   00027EH   00001BH   BYTE   UNIT     XDATA          _XDATA_GROUP_
00027FH   000296H   000018H   BYTE   UNIT     XDATA          ?XD?COMMAND
000297H   0002A6H   000010H   BYTE   UNIT     XDATA          ?XD?UARTCFG
0002A7H   0002B1H   00000BH   BYTE   UNIT     XDATA          ?XD?MAIN
0002B2H   0002BBH   00000AH   BYTE   UNIT     XDATA          ?XD?TIMER
0002BCH   0002C1H   000006H   BYTE   UNIT     XDATA          ?XD?SPEAKER
0002C2H   0002C3H   000002H   BYTE   UNIT     XDATA          ?XD?UART
0002C4H   0002C4H   000001H   BYTE   UNIT     XDATA          ?XD?CPU

* * * * * * * * *   R E M O V E D     S E G M E N T S   * * * * * * * *
   *DEL*:           000031H   BYTE   UNIT     CODE           ?PR?ADC_POWERSAMPLINGINIT?ADC
   *DEL*:           000031H   BYTE   UNIT     CODE           ?PR?ADC_IDSAMPLINGINIT?ADC
   *DEL*:           00004DH   BYTE   UNIT     CODE           ?PR?ADC_CALUE?ADC
   *DEL*:           000067H   BYTE   UNIT     CODE           ?PR?ADC_POWERSAMPLE?ADC
   *DEL*:           000001H   BYTE   UNIT     CODE           ?PR?ADC_READID?ADC
   *DEL*:           000001H   BYTE   UNIT     CODE           ?PR?CMD_READID?COMMAND
   *DEL*:           000001H   BYTE   UNIT     CODE           ?PR?CMD_SAVEDATA?COMMAND
   *DEL*:           000001H   BYTE   UNIT     CODE           ?PR?CMD_NEXTSENSORSELF?COMMAND
   *DEL*:           00001DH   BYTE   UNIT     CODE           ?PR?CMD_CLEARBUFFER?COMMAND
   *DEL*:           000003H   BYTE   UNIT     CODE           ?PR?CMD_VECHILECFGCHECK?COMMAND
   *DEL*:           000001H   BYTE   UNIT     CODE           ?PR?CPU_INIT_VECT?CPU
   *DEL*:           000001H   BYTE   UNIT     CODE           ?PR?NULL?DETECTOBJ
LX51 LINKER/LOCATER V4.66.97.0                                                        08/03/2020  08:45:41  PAGE 4


   *DEL*:           00005FH   BYTE   UNIT     CODE           ?PR?DETOBJ_INITSELFCHECKVAR?DETECTOBJ
   *DEL*:           000091H   BYTE   UNIT     CODE           ?PR?DETOBJ_SENDTHE40KHZULTRASONIC?DETECTOBJ
   *DEL*:           000001H   BYTE   UNIT     XDATA          ?XD?DETOBJ_SENDTHE40KHZULTRASONIC?DETECTOBJ
   *DEL*:           000001H   BYTE   UNIT     CODE           ?PR?DETOBJ_PREECHOPROCESS?DETECTOBJ
   *DEL*:           000029H   BYTE   UNIT     CODE           ?PR?_FLASH_BYTEWRITE?EFM8BB2_FLASHPRIMITIVES
   *DEL*:           000000H.1 BIT    UNIT     BIT            ?BI?_FLASH_BYTEWRITE?EFM8BB2_FLASHPRIMITIVES
   *DEL*:           000012H   BYTE   UNIT     CODE           ?PR?_FLASH_BYTEREAD?EFM8BB2_FLASHPRIMITIVES
   *DEL*:           000000H.1 BIT    UNIT     BIT            ?BI?_FLASH_BYTEREAD?EFM8BB2_FLASHPRIMITIVES
   *DEL*:           000029H   BYTE   UNIT     CODE           ?PR?_FLASH_PAGEERASE?EFM8BB2_FLASHPRIMITIVES
   *DEL*:           000000H.1 BIT    UNIT     BIT            ?BI?_FLASH_PAGEERASE?EFM8BB2_FLASHPRIMITIVES
   *DEL*:           00000EH   BYTE   UNIT     CODE           ?PR?_FLASH_WRITEVECHILEMODE?EFM8BB2_FLASHPRIMITIVES
   *DEL*:           000007H   BYTE   UNIT     CODE           ?PR?FLASH_READVECHILEMODE?EFM8BB2_FLASHPRIMITIVES
   *DEL*:           000005H   BYTE   UNIT     CODE           ?PR?ENTER_DEFAULTMODE_FROM_RESET?INITDEVICE
   *DEL*:           000006H   BYTE   UNIT     CODE           ?PR?SPK_INITHARDWARE?SPEAKER
   *DEL*:           000012H   BYTE   UNIT     CODE           ?PR?SPK_INITVARIABLE?SPEAKER
   *DEL*:           0000DCH   BYTE   UNIT     CODE           ?PR?SPK_DRIVETHESPEAKER?SPEAKER
   *DEL*:           000037H   BYTE   UNIT     CODE           ?PR?TIME_INITPCA0?TIMER
   *DEL*:           00002FH   BYTE   UNIT     CODE           ?PR?_START_PCA0_CAPTURE?TIMER
   *DEL*:           00002FH   BYTE   UNIT     CODE           ?PR?_STOP_PCA0_CAPTURE?TIMER
   *DEL*:           000005H   BYTE   UNIT     CODE           ?PR?ENABLETHE32MSTIMERINTERRUPT?TIMER
   *DEL*:           000003H   BYTE   UNIT     CODE           ?PR?DISABLETHE32MSTIMERINTERRUPT?TIMER
   *DEL*:           000029H   BYTE   UNIT     CODE           ?PR?TIME_INITUART0TIMER?TIMER
   *DEL*:           000005H   BYTE   UNIT     CODE           ?PR?STARTTHEUART0TIMER?TIMER
   *DEL*:           000005H   BYTE   UNIT     CODE           ?PR?STOPTHEUART0TIMER?TIMER
   *DEL*:           000013H   BYTE   UNIT     CODE           ?PR?STARTTHE32MSTIMER?TIMER
   *DEL*:           00000FH   BYTE   UNIT     CODE           ?PR?STOPTHE32MSTIMER?TIMER
   *DEL*:           000017H   BYTE   UNIT     CODE           ?PR?START1MSTIMER?TIMER
   *DEL*:           000011H   BYTE   UNIT     CODE           ?PR?STOP1MSTIMER?TIMER
   *DEL*:           000013H   BYTE   UNIT     CODE           ?PR?UART1_MOUDLE_DIS?UART
   *DEL*:           000023H   BYTE   UNIT     CODE           ?PR?UART_INTRX_DIS?UART
   *DEL*:           000020H   BYTE   UNIT     CODE           ?PR?UART_INTRX_EN?UART
   *DEL*:           00000BH   BYTE   UNIT     CODE           ?PR?UART_BREAKINTEN?UART
   *DEL*:           00000BH   BYTE   UNIT     CODE           ?PR?UART_BREAKINTDIS?UART
   *DEL*:           000001H   BYTE   UNIT     CODE           ?PR?UART_RXDATAINTEN?UART
   *DEL*:           000001H   BYTE   UNIT     CODE           ?PR?UART_RXDATAINTDIS?UART
   *DEL*:           000001H   BYTE   UNIT     CODE           ?PR?UART_BREAKDETECTEN?UART
   *DEL*:           000001H   BYTE   UNIT     CODE           ?PR?UART_BREAKTRIGGER?UART
   *DEL*:           000001H   BYTE   UNIT     CODE           ?PR?UART_BREAKDETECTDIS?UART



OVERLAY MAP OF MODULE:   HCXY_X30_EFM8BB21F16G-C-QFN20_正常探芯.OMF.CRBUILD (ADC)


FUNCTION/MODULE                               XDATA_GROUP
--> CALLED FUNCTION/MODULE                    START  STOP
=========================================================
ADC_ISR/ADC                                   0264H 0266H

*** NEW ROOT ********************************

ADC_WINDOW_ISR/ADC                            ----- -----

*** NEW ROOT ********************************

?C_C51STARTUP                                 ----- -----
  +--> SILABS_STARTUP/MAIN
  +--> MAIN/MAIN
  +--> ?C_INITSEG

SILABS_STARTUP/MAIN                           ----- -----

LX51 LINKER/LOCATER V4.66.97.0                                                        08/03/2020  08:45:41  PAGE 5


MAIN/MAIN                                     ----- -----
  +--> CPU_CLK_INIT/CPU
  +--> CPU_INITHARDWAREPORT/CPU
  +--> _CPU_WDG_INIT/CPU
  +--> TIME_INITTHEDELAYTIMER/TIMER
  +--> TIME_INIT1MSTIMER/TIMER
  +--> TIME_INIT32MSTIMER/TIMER
  +--> INITGLOBALVARIABLE/MAIN
  +--> ADC_INITVARIABLE/ADC
  +--> TIME_INITVARIABLE/TIMER
  +--> UART1_INIT/UART
  +--> CPU_ENABLEINTERRUPT/CPU
  +--> _DELAY1MS/TIMER
  +--> DETOBJ_INITALLCHANNELDISTANCE/DETECTOBJ
  +--> DETOBJ_DETTHEOBJ/DETECTOBJ

CPU_CLK_INIT/CPU                              ----- -----

CPU_INITHARDWAREPORT/CPU                      ----- -----

_CPU_WDG_INIT/CPU                             ----- -----

TIME_INITTHEDELAYTIMER/TIMER                  ----- -----

TIME_INIT1MSTIMER/TIMER                       ----- -----

TIME_INIT32MSTIMER/TIMER                      ----- -----

INITGLOBALVARIABLE/MAIN                       ----- -----
  +--> INITUART1ALLVAR/UARTCFG
  +--> DETOBJ_INITVARIABLE/DETECTOBJ
  +--> DETOBJ_INITALLCHANNELDISTANCE/DETECTOBJ

INITUART1ALLVAR/UARTCFG                       ----- -----

DETOBJ_INITVARIABLE/DETECTOBJ                 0267H 0268H

DETOBJ_INITALLCHANNELDISTANCE/DETECTOBJ       ----- -----
  +--> DETOBJ_STOP/DETECTOBJ

DETOBJ_STOP/DETECTOBJ                         ----- -----
  +--> TIME_STOPADCTRIGGER/TIMER
  +--> ADC_STOP/ADC

TIME_STOPADCTRIGGER/TIMER                     ----- -----

ADC_STOP/ADC                                  ----- -----

ADC_INITVARIABLE/ADC                          ----- -----

TIME_INITVARIABLE/TIMER                       ----- -----

UART1_INIT/UART                               ----- -----

CPU_ENABLEINTERRUPT/CPU                       ----- -----

_DELAY1MS/TIMER                               ----- -----
  +--> _DELAY1US/TIMER

_DELAY1US/TIMER                               ----- -----

DETOBJ_DETTHEOBJ/DETECTOBJ                    ----- -----
LX51 LINKER/LOCATER V4.66.97.0                                                        08/03/2020  08:45:41  PAGE 6


  +--> CMD_PROCESS/COMMAND
  +--> DETOBJ_INITTHECCD/DETECTOBJ
  +--> DETOBJ_CLEARTHERAWDATABUFF/DETECTOBJ
  +--> DETOBJ_CLEARTHENOISEBUFF/DETECTOBJ
  +--> ADC_INITDETECT/ADC
  +--> DETOBJ_START/DETECTOBJ
  +--> DETOBJ_STOP/DETECTOBJ
  +--> DETOBJ_CALSAMPNOISE/DETECTOBJ
  +--> DETOBJ_INITTHEEPD/DETECTOBJ
  +--> DETOBJ_SENDTHE58KHZULTRASONIC/DETECTOBJ
  +--> DETOBJ_RAWECHODATAANS/DETECTOBJ
  +--> DETOBJ_DIAGNOSTICTHERINGTIME/DETECTOBJ
  +--> DETOBJ_HOLDTHEOBSTACLESTATE/DETECTOBJ
  +--> DETOBJ_COMPARETHEDATA/DETECTOBJ
  +--> DETOBJ_PROCESSTHERINGTIME/DETECTOBJ
  +--> DETOBJ_GENERATETHENEARESTOBSTACLE/DETECTOBJ

CMD_PROCESS/COMMAND                           0267H 0267H
  +--> CMD_SETCHANNEL/COMMAND
  +--> _CMD_NEXTSENSORDET/COMMAND
  +--> CMD_UPDATADISTANCE/COMMAND
  +--> CMD_SENDDISTANCETOBCM/COMMAND

CMD_SETCHANNEL/COMMAND                        ----- -----

_CMD_NEXTSENSORDET/COMMAND                    ----- -----

CMD_UPDATADISTANCE/COMMAND                    ----- -----
  +--> CMD_DISTANCETOCOMINFO/COMMAND

CMD_DISTANCETOCOMINFO/COMMAND                 ----- -----

CMD_SENDDISTANCETOBCM/COMMAND                 0268H 0268H
  +--> _UART1_WRITEBYTE/UART

_UART1_WRITEBYTE/UART                         ----- -----

DETOBJ_INITTHECCD/DETECTOBJ                   ----- -----

DETOBJ_CLEARTHERAWDATABUFF/DETECTOBJ          ----- -----
  +--> DETOBJ_INITTHEANALYSISDATA/DETECTOBJ

DETOBJ_INITTHEANALYSISDATA/DETECTOBJ          ----- -----

DETOBJ_CLEARTHENOISEBUFF/DETECTOBJ            ----- -----

ADC_INITDETECT/ADC                            ----- -----
  +--> ADC_START/ADC

ADC_START/ADC                                 ----- -----

DETOBJ_START/DETECTOBJ                        ----- -----
  +--> TIME_INITADCTRIGGERTIMER/TIMER
  +--> TIME_STARTADCTRIGGER/TIMER
  +--> ADC_START/ADC

TIME_INITADCTRIGGERTIMER/TIMER                ----- -----

TIME_STARTADCTRIGGER/TIMER                    ----- -----

DETOBJ_CALSAMPNOISE/DETECTOBJ                 0267H 026DH
  +--> _DETOBJ_COPYSAMPLINGBUFFER/DETECTOBJ
LX51 LINKER/LOCATER V4.66.97.0                                                        08/03/2020  08:45:41  PAGE 7


  +--> DETOBJ_RAWNOISEDATAANS/DETECTOBJ

_DETOBJ_COPYSAMPLINGBUFFER/DETECTOBJ          026EH 0274H

DETOBJ_RAWNOISEDATAANS/DETECTOBJ              026EH 026FH

DETOBJ_INITTHEEPD/DETECTOBJ                   ----- -----

DETOBJ_SENDTHE58KHZULTRASONIC/DETECTOBJ       0267H 0267H
  +--> CPU_DISABLEINTERRUPT/CPU
  +--> _DELAY1US/TIMER
  +--> CPU_ENABLEINTERRUPT/CPU

CPU_DISABLEINTERRUPT/CPU                      ----- -----

DETOBJ_RAWECHODATAANS/DETECTOBJ               0267H 026EH
  +--> DETOBJ_RAWFILTER/DETECTOBJ
  +--> _GETDISTANCE/DETECTOBJ

DETOBJ_RAWFILTER/DETECTOBJ                    026FH 0274H

_GETDISTANCE/DETECTOBJ                        026FH 0270H

DETOBJ_DIAGNOSTICTHERINGTIME/DETECTOBJ        ----- -----
  +--> DETOBJ_DIAGNOSTICTHESENSOR/DETECTOBJ

DETOBJ_DIAGNOSTICTHESENSOR/DETECTOBJ          ----- -----

DETOBJ_HOLDTHEOBSTACLESTATE/DETECTOBJ         ----- -----

DETOBJ_COMPARETHEDATA/DETECTOBJ               0267H 027DH

DETOBJ_PROCESSTHERINGTIME/DETECTOBJ           ----- -----

DETOBJ_GENERATETHENEARESTOBSTACLE/DETECT+     ----- -----
... OBJ

?C_INITSEG                                    ----- -----

*** NEW ROOT ********************************

TIMER2_ISR/TIMER                              ----- -----
  +--> DETOBJ_REALTIMECLOCK/DETECTOBJ

DETOBJ_REALTIMECLOCK/DETECTOBJ                ----- -----

*** NEW ROOT ********************************

TIMER0_ISR/TIMER                              ----- -----

*** NEW ROOT ********************************

TIMER4_ISR/TIMER                              ----- -----

*** NEW ROOT ********************************

TIMER3_ISR/TIMER                              ----- -----

*** NEW ROOT ********************************

UART1_ISR/UART                                ----- -----
  +--> UART1_RXERRORHOOK/UART
LX51 LINKER/LOCATER V4.66.97.0                                                        08/03/2020  08:45:41  PAGE 8


  +--> _UART1_RXDATAHOOK/UART

UART1_RXERRORHOOK/UART                        ----- -----

_UART1_RXDATAHOOK/UART                        027EH 027EH



PUBLIC SYMBOLS OF MODULE:  HCXY_X30_EFM8BB21F16G-C-QFN20_正常探芯.OMF.CRBUILD (ADC)


      VALUE       CLASS    TYPE      PUBLIC SYMBOL NAME
      =================================================
      0200026EH   XDATA    BYTE      ?_DetObj_CopySamplingBuffer?BYTE
      0100139FH   CODE     ---       ?C?CLDOPTR
      00000000H   NUMBER   ---       ?C?CODESEG
      010013CCH   CODE     ---       ?C?CSTOPTR
      01001455H   CODE     ---       ?C?IILDX
      010013EEH   CODE     ---       ?C?IMUL
      01001488H   CODE     ---       ?C?LSTKXDATA
      0100147CH   CODE     ---       ?C?LSTXDATA
      010014B9H   CODE     ---       ?C?OFFXADD
      01001400H   CODE     ---       ?C?UIDIV
      0100146BH   CODE     ---       ?C?ULCMP
      00000000H   NUMBER   ---       ?C?XDATASEG
      0100175DH   CODE     ---       ?C_START
      01000000H   CODE     NEAR LAB  ?C_STARTUP
      01001E4CH   CODE     ---       _Cmd_NextSensorDet
      0100209CH   CODE     ---       _Cpu_WDG_Init
      0100000EH   CODE     ---       _Delay1ms
      01001E14H   CODE     ---       _Delay1us
      01001D0FH   CODE     ---       _DetObj_CopySamplingBuffer
*DEL*:00000000H   CODE     ---       _FLASH_ByteRead
*DEL*:00000000H   CODE     ---       _FLASH_ByteWrite
*DEL*:00000000H   CODE     ---       _FLASH_PageErase
*DEL*:00000000H   CODE     ---       _Flash_WriteVechileMode
      01001B09H   CODE     ---       _GetDistance
*DEL*:00000000H   CODE     ---       _Start_PCA0_Capture
*DEL*:00000000H   CODE     ---       _Stop_PCA0_Capture
      01002124H   CODE     ---       _UART1_RxDataHook
      01001EB3H   CODE     ---       _UART1_WriteByte
*SFR* 000000E0H   DATA     BYTE      ACC
*SFR* 000000E0H.0 DATA     BIT       ACC_ACC0
*SFR* 000000E0H.1 DATA     BIT       ACC_ACC1
*SFR* 000000E0H.2 DATA     BIT       ACC_ACC2
*SFR* 000000E0H.3 DATA     BIT       ACC_ACC3
*SFR* 000000E0H.4 DATA     BIT       ACC_ACC4
*SFR* 000000E0H.5 DATA     BIT       ACC_ACC5
*SFR* 000000E0H.6 DATA     BIT       ACC_ACC6
*SFR* 000000E0H.7 DATA     BIT       ACC_ACC7
      02000259H   XDATA    ---       ADC
*SFR* 000000BDH   DATA     WORD      ADC0
*SFR* 000000B3H   DATA     BYTE      ADC0AC
*SFR* 000000BCH   DATA     BYTE      ADC0CF
*SFR* 000000E8H   DATA     BYTE      ADC0CN0
*SFR* 000000E8H.6 DATA     BIT       ADC0CN0_ADBMEN
*SFR* 000000E8H.4 DATA     BIT       ADC0CN0_ADBUSY
*SFR* 000000E8H.0 DATA     BIT       ADC0CN0_ADCM0
*SFR* 000000E8H.1 DATA     BIT       ADC0CN0_ADCM1
*SFR* 000000E8H.2 DATA     BIT       ADC0CN0_ADCM2
*SFR* 000000E8H.7 DATA     BIT       ADC0CN0_ADEN
*SFR* 000000E8H.5 DATA     BIT       ADC0CN0_ADINT
LX51 LINKER/LOCATER V4.66.97.0                                                        08/03/2020  08:45:41  PAGE 9


*SFR* 000000E8H.3 DATA     BIT       ADC0CN0_ADWINT
*SFR* 000000B2H   DATA     BYTE      ADC0CN1
*SFR* 000000C3H   DATA     WORD      ADC0GT
*SFR* 000000C4H   DATA     BYTE      ADC0GTH
*SFR* 000000C3H   DATA     BYTE      ADC0GTL
*SFR* 000000BEH   DATA     BYTE      ADC0H
*SFR* 000000BDH   DATA     BYTE      ADC0L
*SFR* 000000C5H   DATA     WORD      ADC0LT
*SFR* 000000C6H   DATA     BYTE      ADC0LTH
*SFR* 000000C5H   DATA     BYTE      ADC0LTL
*SFR* 000000BBH   DATA     BYTE      ADC0MX
*SFR* 000000DFH   DATA     BYTE      ADC0PWR
*SFR* 000000B9H   DATA     BYTE      ADC0TK
*DEL*:00000000H   CODE     ---       ADC_CALUE
*DEL*:00000000H   CODE     ---       ADC_IDSamplingInit
      01001E80H   CODE     ---       ADC_InitDetect
      0100002EH   CODE     ---       ADC_InitVariable
      010014C5H   CODE     ---       ADC_ISR
*DEL*:00000000H   CODE     ---       ADC_PowerSample
*DEL*:00000000H   CODE     ---       ADC_PowerSamplingInit
*DEL*:00000000H   CODE     ---       ADC_ReadID
      0100008EH   CODE     ---       ADC_Start
      0100210BH   CODE     ---       ADC_Stop
      0100004EH   CODE     ---       ADC_WINDOW_ISR
      0200006AH   XDATA    ---       AnsData
*SFR* 000000F0H   DATA     BYTE      B
      020002B4H   XDATA    BYTE      b50msFlag
*SFR* 000000F0H.0 DATA     BIT       B_B0
*SFR* 000000F0H.1 DATA     BIT       B_B1
*SFR* 000000F0H.2 DATA     BIT       B_B2
*SFR* 000000F0H.3 DATA     BIT       B_B3
*SFR* 000000F0H.4 DATA     BIT       B_B4
*SFR* 000000F0H.5 DATA     BIT       B_B5
*SFR* 000000F0H.6 DATA     BIT       B_B6
*SFR* 000000F0H.7 DATA     BIT       B_B7
      0200024FH   XDATA    BYTE      bDetectFlag
      020002B6H   XDATA    BYTE      bLevel
      020002B5H   XDATA    BYTE      bSensorCheckFlag
      020002BBH   XDATA    BYTE      bTimeFlag
      020002ADH   XDATA    ---       buffer
      02000244H   XDATA    BYTE      bWorkFlag
      02000258H   XDATA    BYTE      bySampleTimes
*SFR* 0000008EH   DATA     BYTE      CKCON0
*SFR* 000000A6H   DATA     BYTE      CKCON1
*SFR* 000000A9H   DATA     BYTE      CLKSEL
      02000017H   XDATA    ---       ClrtData
      0200027FH   XDATA    ---       Cmd
*DEL*:00000000H   CODE     ---       Cmd_ClearBuffer
      01001A22H   CODE     ---       Cmd_DistancetoComInfo
*DEL*:00000000H   CODE     ---       Cmd_NextSensorSelf
      0100158FH   CODE     ---       Cmd_Process
*DEL*:00000000H   CODE     ---       Cmd_ReadID
*DEL*:00000000H   CODE     ---       Cmd_SaveData
      010018AFH   CODE     ---       Cmd_SendDistancetoBCM
      01001FE4H   CODE     ---       Cmd_SetChannel
      01000056H   CODE     ---       Cmd_UpdataDistance
*DEL*:00000000H   CODE     ---       Cmd_VechileCfgCheck
*SFR* 0000009BH   DATA     BYTE      CMP0CN0
*SFR* 00000099H   DATA     BYTE      CMP0CN1
*SFR* 0000009DH   DATA     BYTE      CMP0MD
*SFR* 0000009FH   DATA     BYTE      CMP0MX
*SFR* 000000BFH   DATA     BYTE      CMP1CN0
LX51 LINKER/LOCATER V4.66.97.0                                                        08/03/2020  08:45:41  PAGE 10


*SFR* 000000ACH   DATA     BYTE      CMP1CN1
*SFR* 000000ABH   DATA     BYTE      CMP1MD
*SFR* 000000AAH   DATA     BYTE      CMP1MX
      0200001DH   XDATA    ---       CmpData
      0100207CH   CODE     ---       Cpu_Clk_Init
      0100212DH   CODE     ---       Cpu_DisableInterrupt
      0100212AH   CODE     ---       Cpu_EnableInterrupt
*DEL*:00000000H   CODE     ---       Cpu_Init_Vect
      01002059H   CODE     ---       Cpu_InitHardwarePort
*SFR* 000000CEH   DATA     BYTE      CRC0CN0
*SFR* 00000086H   DATA     BYTE      CRC0CN1
*SFR* 000000D3H   DATA     BYTE      CRC0CNT
*SFR* 000000DEH   DATA     BYTE      CRC0DAT
*SFR* 000000CFH   DATA     BYTE      CRC0FLIP
*SFR* 000000DDH   DATA     BYTE      CRC0IN
*SFR* 000000D2H   DATA     BYTE      CRC0ST
      020002A7H   XDATA    BYTE      Debug_RD1
      020002A8H   XDATA    BYTE      Debug_RD2
*SFR* 000000ADH   DATA     BYTE      DERIVID
      02000075H   XDATA    ---       DetectInterval
      020001CAH   XDATA    ---       DetInfo
      01000B73H   CODE     ---       DetObj_CalSampNoise
      01001A96H   CODE     ---       DetObj_ClearTheNoiseBuff
      01001F92H   CODE     ---       DetObj_ClearTheRawDataBuff
      0100040AH   CODE     ---       DetObj_CompareTheData
      020001D4H   XDATA    ---       DetObj_DataPrcs
      0100095CH   CODE     ---       DetObj_DetTheObj
      010010E5H   CODE     ---       DetObj_DiagnosticTheRingTime
      01001F68H   CODE     ---       DetObj_DiagnosticTheSensor
      01000F55H   CODE     ---       DetObj_GenerateTheNearestObstacle
      0100182FH   CODE     ---       DetObj_HoldTheObstaclestate
      01001D52H   CODE     ---       DetObj_InitAllChannelDistance
*DEL*:00000000H   CODE     ---       DetObj_InitSelfCheckVar
      0100211EH   CODE     ---       DetObj_InitTheAnalysisData
      01001BD2H   CODE     ---       DetObj_InitTheCCD
      010017A2H   CODE     ---       DetObj_InitTheEPD
      010006E5H   CODE     ---       DetObj_InitVariable
*DEL*:00000000H   CODE     ---       DetObj_PreEchoProcess
      01001653H   CODE     ---       DetObj_ProcessTheRingTime
      0100009EH   CODE     ---       DetObj_RawEchoDataAns
      01000D7BH   CODE     ---       DetObj_RawFilter
      01001256H   CODE     ---       DetObj_RawNoiseDataAns
      01001C82H   CODE     ---       DetObj_RealTimeClock
*DEL*:00000000H   CODE     ---       DetObj_SendThe40KhzUltraSonic
      010019A9H   CODE     ---       DetObj_SendThe58KhzUltraSonic
      01002115H   CODE     ---       DetObj_Start
      01000003H   CODE     ---       DetObj_Stop
*SFR* 000000B5H   DATA     BYTE      DEVICEID
      0200000CH   XDATA    ---       DiagInfo
*DEL*:00000000H   CODE     ---       DisableThe32msTimerInterrupt
*SFR* 00000082H   DATA     WORD      DP
*SFR* 00000083H   DATA     BYTE      DPH
*SFR* 00000082H   DATA     BYTE      DPL
      0200023EH   XDATA    ---       EachSNMaxDistance
*SFR* 000000E6H   DATA     BYTE      EIE1
*SFR* 000000CEH   DATA     BYTE      EIE2
*SFR* 000000F3H   DATA     BYTE      EIP1
*SFR* 000000F5H   DATA     BYTE      EIP1H
*SFR* 000000F4H   DATA     BYTE      EIP2
*SFR* 000000F6H   DATA     BYTE      EIP2H
*SFR* 000000E7H   DATA     BYTE      EMI0CN
*DEL*:00000000H   CODE     ---       EnableThe32msTimerInterrupt
LX51 LINKER/LOCATER V4.66.97.0                                                        08/03/2020  08:45:41  PAGE 11


*DEL*:00000000H   CODE     ---       enter_DefaultMode_from_RESET
      020002A9H   XDATA    DWORD     errorCount
      0200024DH   XDATA    WORD      FL_MAX_VALUE
      0200024BH   XDATA    WORD      FL_MIN_VALUE
*DEL*:00000000H   CODE     ---       Flash_ReadVechileMode
*SFR* 000000B7H   DATA     BYTE      FLKEY
      02000252H   XDATA    WORD      FR_MAX_VALUE
      02000250H   XDATA    WORD      FR_MIN_VALUE
*SFR* 000000C7H   DATA     BYTE      HFO0CAL
*SFR* 000000D6H   DATA     BYTE      HFO1CAL
*SFR* 000000EFH   DATA     BYTE      HFOCN
*SFR* 000000BAH   DATA     BYTE      I2C0CN0
*SFR* 000000BCH   DATA     BYTE      I2C0DIN
*SFR* 000000BBH   DATA     BYTE      I2C0DOUT
*SFR* 000000ADH   DATA     BYTE      I2C0FCN0
*SFR* 000000ABH   DATA     BYTE      I2C0FCN1
*SFR* 000000F5H   DATA     BYTE      I2C0FCT
*SFR* 000000BDH   DATA     BYTE      I2C0SLAD
*SFR* 000000B9H   DATA     BYTE      I2C0STAT
*SFR* 000000A8H   DATA     BYTE      IE
*SFR* 000000A8H.7 DATA     BIT       IE_EA
*SFR* 000000A8H.4 DATA     BIT       IE_ES0
*SFR* 000000A8H.6 DATA     BIT       IE_ESPI0
*SFR* 000000A8H.1 DATA     BIT       IE_ET0
*SFR* 000000A8H.3 DATA     BIT       IE_ET1
*SFR* 000000A8H.5 DATA     BIT       IE_ET2
*SFR* 000000A8H.0 DATA     BIT       IE_EX0
*SFR* 000000A8H.2 DATA     BIT       IE_EX1
      01001DD5H   CODE     ---       InitGlobalVariable
      01001FBCH   CODE     ---       InitUart1AllVar
*SFR* 000000B8H   DATA     BYTE      IP
*SFR* 000000B8H.4 DATA     BIT       IP_PS0
*SFR* 000000B8H.6 DATA     BIT       IP_PSPI0
*SFR* 000000B8H.1 DATA     BIT       IP_PT0
*SFR* 000000B8H.3 DATA     BIT       IP_PT1
*SFR* 000000B8H.5 DATA     BIT       IP_PT2
*SFR* 000000B8H.0 DATA     BIT       IP_PX0
*SFR* 000000B8H.2 DATA     BIT       IP_PX1
*SFR* 000000F2H   DATA     BYTE      IPH
*SFR* 000000E4H   DATA     BYTE      IT01CF
*SFR* 000000B1H   DATA     BYTE      LFO0CN
      01001CCBH   CODE     ---       main
      0200029FH   XDATA    ---       MsgRadar_Distance
      02000297H   XDATA    ---       MsgRadar_Distance_Init
      020001EBH   XDATA    ---       NearestData
      02000000H   XDATA    ---       Noise
*DEL*:00000000H   CODE     ---       Null
*SFR* 00000080H   DATA     BYTE      P0
*SFR* 00000080H.0 DATA     BIT       P0_B0
*SFR* 00000080H.1 DATA     BIT       P0_B1
*SFR* 00000080H.2 DATA     BIT       P0_B2
*SFR* 00000080H.3 DATA     BIT       P0_B3
*SFR* 00000080H.4 DATA     BIT       P0_B4
*SFR* 00000080H.5 DATA     BIT       P0_B5
*SFR* 00000080H.6 DATA     BIT       P0_B6
*SFR* 00000080H.7 DATA     BIT       P0_B7
*SFR* 000000FEH   DATA     BYTE      P0MASK
*SFR* 000000FDH   DATA     BYTE      P0MAT
*SFR* 000000F1H   DATA     BYTE      P0MDIN
*SFR* 000000A4H   DATA     BYTE      P0MDOUT
*SFR* 000000D4H   DATA     BYTE      P0SKIP
*SFR* 00000090H   DATA     BYTE      P1
LX51 LINKER/LOCATER V4.66.97.0                                                        08/03/2020  08:45:41  PAGE 12


*SFR* 00000090H.0 DATA     BIT       P1_B0
*SFR* 00000090H.1 DATA     BIT       P1_B1
*SFR* 00000090H.2 DATA     BIT       P1_B2
*SFR* 00000090H.3 DATA     BIT       P1_B3
*SFR* 00000090H.4 DATA     BIT       P1_B4
*SFR* 00000090H.5 DATA     BIT       P1_B5
*SFR* 00000090H.6 DATA     BIT       P1_B6
*SFR* 00000090H.7 DATA     BIT       P1_B7
*SFR* 000000EEH   DATA     BYTE      P1MASK
*SFR* 000000EDH   DATA     BYTE      P1MAT
*SFR* 000000F2H   DATA     BYTE      P1MDIN
*SFR* 000000A5H   DATA     BYTE      P1MDOUT
*SFR* 000000D5H   DATA     BYTE      P1SKIP
*SFR* 000000A0H   DATA     BYTE      P2
*SFR* 000000A0H.0 DATA     BIT       P2_B0
*SFR* 000000A0H.1 DATA     BIT       P2_B1
*SFR* 000000A0H.2 DATA     BIT       P2_B2
*SFR* 000000A0H.3 DATA     BIT       P2_B3
*SFR* 000000FCH   DATA     BYTE      P2MASK
*SFR* 000000FBH   DATA     BYTE      P2MAT
*SFR* 000000F3H   DATA     BYTE      P2MDIN
*SFR* 000000A6H   DATA     BYTE      P2MDOUT
*SFR* 000000CCH   DATA     BYTE      P2SKIP
*SFR* 000000B0H   DATA     BYTE      P3
*SFR* 000000B0H.0 DATA     BIT       P3_B0
*SFR* 000000B0H.1 DATA     BIT       P3_B1
*SFR* 000000F4H   DATA     BYTE      P3MDIN
*SFR* 0000009CH   DATA     BYTE      P3MDOUT
*SFR* 000000F9H   DATA     WORD      PCA0
*SFR* 0000009EH   DATA     BYTE      PCA0CENT
*SFR* 0000009CH   DATA     BYTE      PCA0CLR
*SFR* 000000D8H   DATA     BYTE      PCA0CN0
*SFR* 000000D8H.0 DATA     BIT       PCA0CN0_CCF0
*SFR* 000000D8H.1 DATA     BIT       PCA0CN0_CCF1
*SFR* 000000D8H.2 DATA     BIT       PCA0CN0_CCF2
*SFR* 000000D8H.7 DATA     BIT       PCA0CN0_CF
*SFR* 000000D8H.6 DATA     BIT       PCA0CN0_CR
*SFR* 000000FBH   DATA     WORD      PCA0CP0
*SFR* 000000E9H   DATA     WORD      PCA0CP1
*SFR* 000000EBH   DATA     WORD      PCA0CP2
*SFR* 000000FCH   DATA     BYTE      PCA0CPH0
*SFR* 000000EAH   DATA     BYTE      PCA0CPH1
*SFR* 000000ECH   DATA     BYTE      PCA0CPH2
*SFR* 000000FBH   DATA     BYTE      PCA0CPL0
*SFR* 000000E9H   DATA     BYTE      PCA0CPL1
*SFR* 000000EBH   DATA     BYTE      PCA0CPL2
*SFR* 000000DAH   DATA     BYTE      PCA0CPM0
*SFR* 000000DBH   DATA     BYTE      PCA0CPM1
*SFR* 000000DCH   DATA     BYTE      PCA0CPM2
*SFR* 000000FAH   DATA     BYTE      PCA0H
*SFR* 000000F9H   DATA     BYTE      PCA0L
*SFR* 000000D9H   DATA     BYTE      PCA0MD
*SFR* 00000096H   DATA     BYTE      PCA0POL
*SFR* 000000F7H   DATA     BYTE      PCA0PWM
*SFR* 00000087H   DATA     BYTE      PCON0
*SFR* 0000009AH   DATA     BYTE      PCON1
*SFR* 000000C1H   DATA     BYTE      PFE0CN
*SFR* 000000A0H   DATA     BYTE      PPAGE_SFR
*SFR* 000000F6H   DATA     BYTE      PRTDRV
*SFR* 0000008FH   DATA     BYTE      PSCTL
*SFR* 000000D0H   DATA     BYTE      PSW
*SFR* 000000D0H.6 DATA     BIT       PSW_AC
LX51 LINKER/LOCATER V4.66.97.0                                                        08/03/2020  08:45:41  PAGE 13


*SFR* 000000D0H.7 DATA     BIT       PSW_CY
*SFR* 000000D0H.5 DATA     BIT       PSW_F0
*SFR* 000000D0H.1 DATA     BIT       PSW_F1
*SFR* 000000D0H.2 DATA     BIT       PSW_OV
*SFR* 000000D0H.0 DATA     BIT       PSW_PARITY
*SFR* 000000D0H.3 DATA     BIT       PSW_RS0
*SFR* 000000D0H.4 DATA     BIT       PSW_RS1
      0200007BH   XDATA    ---       RawData
*SFR* 000000D1H   DATA     BYTE      REF0CN
*SFR* 000000C9H   DATA     BYTE      REG0CN
*SFR* 000000C6H   DATA     BYTE      REG1CN
*SFR* 000000B6H   DATA     BYTE      REVID
      02000256H   XDATA    WORD      RL_MAX_VALUE
      02000254H   XDATA    WORD      RL_MIN_VALUE
      02000249H   XDATA    WORD      RML_MAX_VALUE
      02000247H   XDATA    WORD      RML_MIN_VALUE
      02000260H   XDATA    WORD      RR_MAX_VALUE
      0200025EH   XDATA    WORD      RR_MIN_VALUE
*SFR* 000000EFH   DATA     BYTE      RSTSRC
*SFR* 00000094H   DATA     BYTE      SBCON1
*SFR* 00000095H   DATA     WORD      SBRL1
*SFR* 00000096H   DATA     BYTE      SBRLH1
*SFR* 00000095H   DATA     BYTE      SBRLL1
*SFR* 00000099H   DATA     BYTE      SBUF0
*SFR* 00000092H   DATA     BYTE      SBUF1
*SFR* 00000098H   DATA     BYTE      SCON0
*SFR* 00000098H.5 DATA     BIT       SCON0_MCE
*SFR* 00000098H.2 DATA     BIT       SCON0_RB8
*SFR* 00000098H.4 DATA     BIT       SCON0_REN
*SFR* 00000098H.0 DATA     BIT       SCON0_RI
*SFR* 00000098H.7 DATA     BIT       SCON0_SMODE
*SFR* 00000098H.3 DATA     BIT       SCON0_TB8
*SFR* 00000098H.1 DATA     BIT       SCON0_TI
*SFR* 000000C8H   DATA     BYTE      SCON1
*SFR* 000000C8H.7 DATA     BIT       SCON1_OVR
*SFR* 000000C8H.6 DATA     BIT       SCON1_PERR
*SFR* 000000C8H.2 DATA     BIT       SCON1_RBX
*SFR* 000000C8H.4 DATA     BIT       SCON1_REN
*SFR* 000000C8H.0 DATA     BIT       SCON1_RI
*SFR* 000000C8H.3 DATA     BIT       SCON1_TBX
*SFR* 000000C8H.1 DATA     BIT       SCON1_TI
*SFR* 000000A7H   DATA     BYTE      SFRPAGE
      020002C4H   XDATA    BYTE      SFRPAGE_TEMP
*SFR* 000000CFH   DATA     BYTE      SFRPGCN
*SFR* 000000D7H   DATA     BYTE      SFRSTACK
      01000009H   CODE     ---       SiLabs_Startup
*SFR* 000000D6H   DATA     BYTE      SMB0ADM
*SFR* 000000D7H   DATA     BYTE      SMB0ADR
*SFR* 000000C1H   DATA     BYTE      SMB0CF
*SFR* 000000C0H   DATA     BYTE      SMB0CN0
*SFR* 000000C0H.1 DATA     BIT       SMB0CN0_ACK
*SFR* 000000C0H.3 DATA     BIT       SMB0CN0_ACKRQ
*SFR* 000000C0H.2 DATA     BIT       SMB0CN0_ARBLOST
*SFR* 000000C0H.7 DATA     BIT       SMB0CN0_MASTER
*SFR* 000000C0H.0 DATA     BIT       SMB0CN0_SI
*SFR* 000000C0H.5 DATA     BIT       SMB0CN0_STA
*SFR* 000000C0H.4 DATA     BIT       SMB0CN0_STO
*SFR* 000000C0H.6 DATA     BIT       SMB0CN0_TXMODE
*SFR* 000000C2H   DATA     BYTE      SMB0DAT
*SFR* 000000C3H   DATA     BYTE      SMB0FCN0
*SFR* 000000C4H   DATA     BYTE      SMB0FCN1
*SFR* 000000EFH   DATA     BYTE      SMB0FCT
LX51 LINKER/LOCATER V4.66.97.0                                                        08/03/2020  08:45:41  PAGE 14


*SFR* 000000C5H   DATA     BYTE      SMB0RXLN
*SFR* 000000ACH   DATA     BYTE      SMB0TC
*SFR* 00000093H   DATA     BYTE      SMOD1
*SFR* 00000081H   DATA     BYTE      SP
      020002BCH   XDATA    ---       Speaker
*SFR* 000000A1H   DATA     BYTE      SPI0CFG
*SFR* 000000A2H   DATA     BYTE      SPI0CKR
*SFR* 000000F8H   DATA     BYTE      SPI0CN0
*SFR* 000000F8H.5 DATA     BIT       SPI0CN0_MODF
*SFR* 000000F8H.2 DATA     BIT       SPI0CN0_NSSMD0
*SFR* 000000F8H.3 DATA     BIT       SPI0CN0_NSSMD1
*SFR* 000000F8H.4 DATA     BIT       SPI0CN0_RXOVRN
*SFR* 000000F8H.0 DATA     BIT       SPI0CN0_SPIEN
*SFR* 000000F8H.7 DATA     BIT       SPI0CN0_SPIF
*SFR* 000000F8H.1 DATA     BIT       SPI0CN0_TXNF
*SFR* 000000F8H.6 DATA     BIT       SPI0CN0_WCOL
*SFR* 000000A3H   DATA     BYTE      SPI0DAT
*SFR* 0000009AH   DATA     BYTE      SPI0FCN0
*SFR* 0000009BH   DATA     BYTE      SPI0FCN1
*SFR* 000000F7H   DATA     BYTE      SPI0FCT
*DEL*:00000000H   CODE     ---       Spk_DriveTheSpeaker
*DEL*:00000000H   CODE     ---       Spk_InitHardware
*DEL*:00000000H   CODE     ---       Spk_InitVariable
*DEL*:00000000H   CODE     ---       Start1msTimer
*DEL*:00000000H   CODE     ---       StartThe32msTimer
*DEL*:00000000H   CODE     ---       StartTheUart0Timer
*DEL*:00000000H   CODE     ---       Stop1msTimer
*DEL*:00000000H   CODE     ---       StopThe32msTimer
*DEL*:00000000H   CODE     ---       StopTheUart0Timer
      020001D7H   XDATA    ---       TableHeight
      02000216H   XDATA    ---       TableWidth
*SFR* 00000088H   DATA     BYTE      TCON
*SFR* 00000088H.1 DATA     BIT       TCON_IE0
*SFR* 00000088H.3 DATA     BIT       TCON_IE1
*SFR* 00000088H.0 DATA     BIT       TCON_IT0
*SFR* 00000088H.2 DATA     BIT       TCON_IT1
*SFR* 00000088H.5 DATA     BIT       TCON_TF0
*SFR* 00000088H.7 DATA     BIT       TCON_TF1
*SFR* 00000088H.4 DATA     BIT       TCON_TR0
*SFR* 00000088H.6 DATA     BIT       TCON_TR1
*SFR* 0000008CH   DATA     BYTE      TH0
*SFR* 0000008DH   DATA     BYTE      TH1
      01001F12H   CODE     ---       Time_Init1msTimer
      010020B8H   CODE     ---       Time_Init32msTimer
      01002032H   CODE     ---       Time_InitAdcTriggerTimer
*DEL*:00000000H   CODE     ---       Time_InitPCA0
      01001F3DH   CODE     ---       Time_InitTheDelayTimer
*DEL*:00000000H   CODE     ---       Time_InitUart0Timer
      0100200BH   CODE     ---       Time_InitVariable
      010020D4H   CODE     ---       Time_StartAdcTrigger
      01000076H   CODE     ---       Time_StopAdcTrigger
      0100000AH   CODE     ---       TIMER0_ISR
      01001B6EH   CODE     ---       TIMER2_ISR
      01001EE3H   CODE     ---       TIMER3_ISR
      010020F0H   CODE     ---       TIMER4_ISR
*SFR* 0000008AH   DATA     BYTE      TL0
*SFR* 0000008BH   DATA     BYTE      TL1
*SFR* 00000089H   DATA     BYTE      TMOD
*SFR* 000000CCH   DATA     WORD      TMR2
*SFR* 000000C8H   DATA     BYTE      TMR2CN0
*SFR* 000000C8H.3 DATA     BIT       TMR2CN0_T2SPLIT
*SFR* 000000C8H.0 DATA     BIT       TMR2CN0_T2XCLK0
LX51 LINKER/LOCATER V4.66.97.0                                                        08/03/2020  08:45:41  PAGE 15


*SFR* 000000C8H.1 DATA     BIT       TMR2CN0_T2XCLK1
*SFR* 000000C8H.4 DATA     BIT       TMR2CN0_TF2CEN
*SFR* 000000C8H.7 DATA     BIT       TMR2CN0_TF2H
*SFR* 000000C8H.6 DATA     BIT       TMR2CN0_TF2L
*SFR* 000000C8H.5 DATA     BIT       TMR2CN0_TF2LEN
*SFR* 000000C8H.2 DATA     BIT       TMR2CN0_TR2
*SFR* 000000FDH   DATA     BYTE      TMR2CN1
*SFR* 000000CDH   DATA     BYTE      TMR2H
*SFR* 000000CCH   DATA     BYTE      TMR2L
*SFR* 000000CAH   DATA     WORD      TMR2RL
*SFR* 000000CBH   DATA     BYTE      TMR2RLH
*SFR* 000000CAH   DATA     BYTE      TMR2RLL
*SFR* 00000094H   DATA     WORD      TMR3
*SFR* 00000091H   DATA     BYTE      TMR3CN0
*SFR* 000000FEH   DATA     BYTE      TMR3CN1
*SFR* 00000095H   DATA     BYTE      TMR3H
*SFR* 00000094H   DATA     BYTE      TMR3L
*SFR* 00000092H   DATA     WORD      TMR3RL
*SFR* 00000093H   DATA     BYTE      TMR3RLH
*SFR* 00000092H   DATA     BYTE      TMR3RLL
*SFR* 000000A4H   DATA     WORD      TMR4
*SFR* 00000098H   DATA     BYTE      TMR4CN0
*SFR* 00000098H.3 DATA     BIT       TMR4CN0_T4SPLIT
*SFR* 00000098H.0 DATA     BIT       TMR4CN0_T4XCLK0
*SFR* 00000098H.1 DATA     BIT       TMR4CN0_T4XCLK1
*SFR* 00000098H.4 DATA     BIT       TMR4CN0_TF4CEN
*SFR* 00000098H.7 DATA     BIT       TMR4CN0_TF4H
*SFR* 00000098H.6 DATA     BIT       TMR4CN0_TF4L
*SFR* 00000098H.5 DATA     BIT       TMR4CN0_TF4LEN
*SFR* 00000098H.2 DATA     BIT       TMR4CN0_TR4
*SFR* 000000FFH   DATA     BYTE      TMR4CN1
*SFR* 000000A5H   DATA     BYTE      TMR4H
*SFR* 000000A4H   DATA     BYTE      TMR4L
*SFR* 000000A2H   DATA     WORD      TMR4RL
*SFR* 000000A3H   DATA     BYTE      TMR4RLH
*SFR* 000000A2H   DATA     BYTE      TMR4RLL
      01001C2DH   CODE     ---       UART1_Init
      01001D94H   CODE     ---       UART1_ISR
*DEL*:00000000H   CODE     ---       UART1_Moudle_Dis
      0100004AH   CODE     ---       UART1_RxErrorHook
      020002C3H   XDATA    BYTE      UART1_TXOK_Flag
*SFR* 0000009DH   DATA     BYTE      UART1FCN0
*SFR* 000000D8H   DATA     BYTE      UART1FCN1
*SFR* 000000D8H.3 DATA     BIT       UART1FCN1_RFRQ
*SFR* 000000D8H.0 DATA     BIT       UART1FCN1_RIE
*SFR* 000000D8H.1 DATA     BIT       UART1FCN1_RXTO0
*SFR* 000000D8H.2 DATA     BIT       UART1FCN1_RXTO1
*SFR* 000000D8H.7 DATA     BIT       UART1FCN1_TFRQ
*SFR* 000000D8H.4 DATA     BIT       UART1FCN1_TIE
*SFR* 000000D8H.5 DATA     BIT       UART1FCN1_TXHOLD
*SFR* 000000D8H.6 DATA     BIT       UART1FCN1_TXNF
*SFR* 000000FAH   DATA     BYTE      UART1FCT
*SFR* 0000009EH   DATA     BYTE      UART1LIN
*DEL*:00000000H   CODE     ---       UART_BreakDetectDis
*DEL*:00000000H   CODE     ---       UART_BreakDetectEn
*DEL*:00000000H   CODE     ---       UART_BreakIntDis
*DEL*:00000000H   CODE     ---       UART_BreakIntEn
*DEL*:00000000H   CODE     ---       UART_BreakTrigger
*DEL*:00000000H   CODE     ---       UART_INTRX_Dis
*DEL*:00000000H   CODE     ---       UART_INTRX_En
*DEL*:00000000H   CODE     ---       UART_RxDataIntDis
*DEL*:00000000H   CODE     ---       UART_RxDataIntEn
LX51 LINKER/LOCATER V4.66.97.0                                                        08/03/2020  08:45:41  PAGE 16


*SFR* 000000FFH   DATA     BYTE      VDM0CN
      020002B7H   XDATA    WORD      w50msCnt
*SFR* 00000097H   DATA     BYTE      WDTCN
      02000245H   XDATA    WORD      wPowerValue
      02000262H   XDATA    WORD      wSampleValue
      020002B9H   XDATA    WORD      wSensorCheckTime
      020002B2H   XDATA    WORD      wTime
*SFR* 000000E1H   DATA     BYTE      XBR0
*SFR* 000000E2H   DATA     BYTE      XBR1
*SFR* 000000E3H   DATA     BYTE      XBR2



SYMBOL TABLE OF MODULE:  HCXY_X30_EFM8BB21F16G-C-QFN20_正常探芯.OMF.CRBUILD (ADC)

      VALUE       REP       CLASS    TYPE      SYMBOL NAME
      ====================================================
      ---         MODULE    ---      ---       ADC
      02000262H   PUBLIC    XDATA    WORD      wSampleValue
      02000260H   PUBLIC    XDATA    WORD      RR_MAX_VALUE
      0200025EH   PUBLIC    XDATA    WORD      RR_MIN_VALUE
      02000259H   PUBLIC    XDATA    ---       ADC
      02000258H   PUBLIC    XDATA    BYTE      bySampleTimes
      02000256H   PUBLIC    XDATA    WORD      RL_MAX_VALUE
      02000254H   PUBLIC    XDATA    WORD      RL_MIN_VALUE
      02000252H   PUBLIC    XDATA    WORD      FR_MAX_VALUE
      02000250H   PUBLIC    XDATA    WORD      FR_MIN_VALUE
      0200024FH   PUBLIC    XDATA    BYTE      bDetectFlag
      0200024DH   PUBLIC    XDATA    WORD      FL_MAX_VALUE
      0200024BH   PUBLIC    XDATA    WORD      FL_MIN_VALUE
      02000249H   PUBLIC    XDATA    WORD      RML_MAX_VALUE
      02000247H   PUBLIC    XDATA    WORD      RML_MIN_VALUE
      02000245H   PUBLIC    XDATA    WORD      wPowerValue
      02000244H   PUBLIC    XDATA    BYTE      bWorkFlag
      0100004EH   PUBLIC    CODE     ---       ADC_WINDOW_ISR
      010014C5H   PUBLIC    CODE     ---       ADC_ISR
      01001E80H   PUBLIC    CODE     ---       ADC_InitDetect
      0100210BH   PUBLIC    CODE     ---       ADC_Stop
      0100008EH   PUBLIC    CODE     ---       ADC_Start
      0100002EH   PUBLIC    CODE     ---       ADC_InitVariable
      000000A2H   SFRSYM    DATA     BYTE      SPI0CKR
      00000080H   SFRSYM    DATA     BYTE      P0
      000000C8H.6 SFRSYM    DATA     BIT       SCON1_PERR
      000000D0H.2 SFRSYM    DATA     BIT       PSW_OV
      00000090H   SFRSYM    DATA     BYTE      P1
      000000F8H.1 SFRSYM    DATA     BIT       SPI0CN0_TXNF
      00000097H   SFRSYM    DATA     BYTE      WDTCN
      000000A0H   SFRSYM    DATA     BYTE      P2
      000000B0H   SFRSYM    DATA     BYTE      P3
      000000BCH   SFRSYM    DATA     BYTE      ADC0CF
      000000C0H.7 SFRSYM    DATA     BIT       SMB0CN0_MASTER
      000000F9H   SFRSYM    DATA     WORD      PCA0
      000000E6H   SFRSYM    DATA     BYTE      EIE1
      000000C0H.1 SFRSYM    DATA     BIT       SMB0CN0_ACK
      000000CEH   SFRSYM    DATA     BYTE      EIE2
      0000008FH   SFRSYM    DATA     BYTE      PSCTL
      000000E4H   SFRSYM    DATA     BYTE      IT01CF
      000000C0H.6 SFRSYM    DATA     BIT       SMB0CN0_TXMODE
      000000ADH   SFRSYM    DATA     BYTE      DERIVID
      000000A7H   SFRSYM    DATA     BYTE      SFRPAGE
      000000A4H   SFRSYM    DATA     BYTE      P0MDOUT
      000000A5H   SFRSYM    DATA     BYTE      P1MDOUT
LX51 LINKER/LOCATER V4.66.97.0                                                        08/03/2020  08:45:41  PAGE 17


      000000E8H.5 SFRSYM    DATA     BIT       ADC0CN0_ADINT
      000000CBH   SFRSYM    DATA     BYTE      TMR2RLH
      000000A6H   SFRSYM    DATA     BYTE      P2MDOUT
      000000A8H   SFRSYM    DATA     BYTE      IE
      00000093H   SFRSYM    DATA     BYTE      TMR3RLH
      0000009CH   SFRSYM    DATA     BYTE      P3MDOUT
      000000A3H   SFRSYM    DATA     BYTE      TMR4RLH
      000000F3H   SFRSYM    DATA     BYTE      EIP1
      000000F4H   SFRSYM    DATA     BYTE      EIP2
      00000098H.2 SFRSYM    DATA     BIT       SCON0_RB8
      000000CAH   SFRSYM    DATA     BYTE      TMR2RLL
      000000FCH   SFRSYM    DATA     BYTE      PCA0CPH0
      00000092H   SFRSYM    DATA     BYTE      TMR3RLL
      000000EAH   SFRSYM    DATA     BYTE      PCA0CPH1
      00000098H.3 SFRSYM    DATA     BIT       SCON0_TB8
      000000F0H.0 SFRSYM    DATA     BIT       B_B0
      00000082H   SFRSYM    DATA     WORD      DP
      000000A2H   SFRSYM    DATA     BYTE      TMR4RLL
      000000ECH   SFRSYM    DATA     BYTE      PCA0CPH2
      000000F0H.1 SFRSYM    DATA     BIT       B_B1
      000000C3H   SFRSYM    DATA     WORD      ADC0GT
      000000BDH   SFRSYM    DATA     BYTE      I2C0SLAD
      000000D8H.3 SFRSYM    DATA     BIT       UART1FCN1_RFRQ
      000000F0H.2 SFRSYM    DATA     BIT       B_B2
      000000CFH   SFRSYM    DATA     BYTE      SFRPGCN
      000000FBH   SFRSYM    DATA     BYTE      PCA0CPL0
      000000F0H.3 SFRSYM    DATA     BIT       B_B3
      000000D9H   SFRSYM    DATA     BYTE      PCA0MD
      000000DAH   SFRSYM    DATA     BYTE      PCA0CPM0
      000000E9H   SFRSYM    DATA     BYTE      PCA0CPL1
      000000D8H.7 SFRSYM    DATA     BIT       UART1FCN1_TFRQ
      000000F0H.4 SFRSYM    DATA     BIT       B_B4
      000000DBH   SFRSYM    DATA     BYTE      PCA0CPM1
      000000EBH   SFRSYM    DATA     BYTE      PCA0CPL2
      000000F0H.5 SFRSYM    DATA     BIT       B_B5
      000000DCH   SFRSYM    DATA     BYTE      PCA0CPM2
      000000B8H   SFRSYM    DATA     BYTE      IP
      000000B9H   SFRSYM    DATA     BYTE      ADC0TK
      000000F0H.6 SFRSYM    DATA     BIT       B_B6
      000000C5H   SFRSYM    DATA     WORD      ADC0LT
      000000D8H.6 SFRSYM    DATA     BIT       UART1FCN1_TXNF
      00000098H.5 SFRSYM    DATA     BIT       SCON0_MCE
      000000F0H.7 SFRSYM    DATA     BIT       B_B7
      000000C3H   SFRSYM    DATA     BYTE      SMB0FCN0
      000000E1H   SFRSYM    DATA     BYTE      XBR0
      000000C4H   SFRSYM    DATA     BYTE      SMB0FCN1
      000000C1H   SFRSYM    DATA     BYTE      SMB0CF
      000000E2H   SFRSYM    DATA     BYTE      XBR1
      000000C1H   SFRSYM    DATA     BYTE      PFE0CN
      000000E7H   SFRSYM    DATA     BYTE      EMI0CN
      000000C0H.5 SFRSYM    DATA     BIT       SMB0CN0_STA
      000000E3H   SFRSYM    DATA     BYTE      XBR2
      000000BBH   SFRSYM    DATA     BYTE      ADC0MX
      000000E0H.0 SFRSYM    DATA     BIT       ACC_ACC0
      000000D1H   SFRSYM    DATA     BYTE      REF0CN
      0000008EH   SFRSYM    DATA     BYTE      CKCON0
      000000E0H.1 SFRSYM    DATA     BIT       ACC_ACC1
      000000C9H   SFRSYM    DATA     BYTE      REG0CN
      000000DDH   SFRSYM    DATA     BYTE      CRC0IN
      000000A6H   SFRSYM    DATA     BYTE      CKCON1
      000000C8H.2 SFRSYM    DATA     BIT       TMR2CN0_TR2
      000000E0H.2 SFRSYM    DATA     BIT       ACC_ACC2
LX51 LINKER/LOCATER V4.66.97.0                                                        08/03/2020  08:45:41  PAGE 18


      000000C6H   SFRSYM    DATA     BYTE      REG1CN
      000000E0H.3 SFRSYM    DATA     BIT       ACC_ACC3
      00000081H   SFRSYM    DATA     BYTE      SP
      0000009DH   SFRSYM    DATA     BYTE      CMP0MD
      000000E0H.4 SFRSYM    DATA     BIT       ACC_ACC4
      000000B1H   SFRSYM    DATA     BYTE      LFO0CN
      000000ABH   SFRSYM    DATA     BYTE      CMP1MD
      000000D8H.0 SFRSYM    DATA     BIT       PCA0CN0_CCF0
      000000E0H.5 SFRSYM    DATA     BIT       ACC_ACC5
      00000098H.2 SFRSYM    DATA     BIT       TMR4CN0_TR4
      000000D8H.1 SFRSYM    DATA     BIT       PCA0CN0_CCF1
      000000E0H.6 SFRSYM    DATA     BIT       ACC_ACC6
      000000CCH   SFRSYM    DATA     WORD      TMR2
      0000009AH   SFRSYM    DATA     BYTE      SPI0FCN0
      000000D8H.2 SFRSYM    DATA     BIT       PCA0CN0_CCF2
      000000E0H.7 SFRSYM    DATA     BIT       ACC_ACC7
      00000094H   SFRSYM    DATA     WORD      TMR3
      0000009BH   SFRSYM    DATA     BYTE      SPI0FCN1
      000000A4H   SFRSYM    DATA     WORD      TMR4
      00000094H   SFRSYM    DATA     BYTE      SBCON1
      000000C0H.3 SFRSYM    DATA     BIT       SMB0CN0_ACKRQ
      000000FFH   SFRSYM    DATA     BYTE      VDM0CN
      000000F1H   SFRSYM    DATA     BYTE      P0MDIN
      00000098H.4 SFRSYM    DATA     BIT       SCON0_REN
      000000ACH   SFRSYM    DATA     BYTE      SMB0TC
      000000F2H   SFRSYM    DATA     BYTE      P1MDIN
      000000C8H.4 SFRSYM    DATA     BIT       SCON1_REN
      000000F3H   SFRSYM    DATA     BYTE      P2MDIN
      000000C0H.4 SFRSYM    DATA     BIT       SMB0CN0_STO
      000000F4H   SFRSYM    DATA     BYTE      P3MDIN
      000000B9H   SFRSYM    DATA     BYTE      I2C0STAT
      000000BBH   SFRSYM    DATA     BYTE      I2C0DOUT
      00000096H   SFRSYM    DATA     BYTE      SBRLH1
      000000FEH   SFRSYM    DATA     BYTE      P0MASK
      000000D8H.5 SFRSYM    DATA     BIT       UART1FCN1_TXHOLD
      000000EEH   SFRSYM    DATA     BYTE      P1MASK
      000000FCH   SFRSYM    DATA     BYTE      P2MASK
      000000D0H.3 SFRSYM    DATA     BIT       PSW_RS0
      000000D8H.7 SFRSYM    DATA     BIT       PCA0CN0_CF
      0000009EH   SFRSYM    DATA     BYTE      PCA0CENT
      000000BAH   SFRSYM    DATA     BYTE      I2C0CN0
      000000D2H   SFRSYM    DATA     BYTE      CRC0ST
      000000F8H.4 SFRSYM    DATA     BIT       SPI0CN0_RXOVRN
      000000D0H.4 SFRSYM    DATA     BIT       PSW_RS1
      00000095H   SFRSYM    DATA     BYTE      SBRLL1
      000000C8H.2 SFRSYM    DATA     BIT       SCON1_RBX
      000000C8H.0 SFRSYM    DATA     BIT       TMR2CN0_T2XCLK0
      000000C8H.1 SFRSYM    DATA     BIT       TMR2CN0_T2XCLK1
      000000C8H.3 SFRSYM    DATA     BIT       SCON1_TBX
      000000E8H.7 SFRSYM    DATA     BIT       ADC0CN0_ADEN
      00000089H   SFRSYM    DATA     BYTE      TMOD
      00000088H   SFRSYM    DATA     BYTE      TCON
      000000CFH   SFRSYM    DATA     BYTE      CRC0FLIP
      000000D0H.0 SFRSYM    DATA     BIT       PSW_PARITY
      000000A8H.4 SFRSYM    DATA     BIT       IE_ES0
      0000009FH   SFRSYM    DATA     BYTE      CMP0MX
      00000098H.0 SFRSYM    DATA     BIT       TMR4CN0_T4XCLK0
      000000A8H.1 SFRSYM    DATA     BIT       IE_ET0
      000000AAH   SFRSYM    DATA     BYTE      CMP1MX
      00000098H.1 SFRSYM    DATA     BIT       TMR4CN0_T4XCLK1
      000000A8H.3 SFRSYM    DATA     BIT       IE_ET1
      000000D4H   SFRSYM    DATA     BYTE      P0SKIP
LX51 LINKER/LOCATER V4.66.97.0                                                        08/03/2020  08:45:41  PAGE 19


      000000D8H.0 SFRSYM    DATA     BIT       UART1FCN1_RIE
      000000A8H.5 SFRSYM    DATA     BIT       IE_ET2
      000000D5H   SFRSYM    DATA     BYTE      P1SKIP
      000000CCH   SFRSYM    DATA     BYTE      P2SKIP
      000000E8H   SFRSYM    DATA     BYTE      ADC0CN0
      000000D8H.4 SFRSYM    DATA     BIT       UART1FCN1_TIE
      000000A8H.0 SFRSYM    DATA     BIT       IE_EX0
      000000B2H   SFRSYM    DATA     BYTE      ADC0CN1
      000000D8H.6 SFRSYM    DATA     BIT       PCA0CN0_CR
      000000A8H.2 SFRSYM    DATA     BIT       IE_EX1
      000000C8H.7 SFRSYM    DATA     BIT       SCON1_OVR
      00000098H.7 SFRSYM    DATA     BIT       SCON0_SMODE
      000000B5H   SFRSYM    DATA     BYTE      DEVICEID
      000000A9H   SFRSYM    DATA     BYTE      CLKSEL
      000000F8H.0 SFRSYM    DATA     BIT       SPI0CN0_SPIEN
      000000F0H   SFRSYM    DATA     BYTE      B
      000000BEH   SFRSYM    DATA     BYTE      ADC0H
      000000E8H.6 SFRSYM    DATA     BIT       ADC0CN0_ADBMEN
      000000CAH   SFRSYM    DATA     WORD      TMR2RL
      000000BDH   SFRSYM    DATA     BYTE      ADC0L
      00000092H   SFRSYM    DATA     WORD      TMR3RL
      000000A2H   SFRSYM    DATA     WORD      TMR4RL
      000000D8H   SFRSYM    DATA     BYTE      PCA0CN0
      000000E0H   SFRSYM    DATA     BYTE      ACC
      000000FBH   SFRSYM    DATA     WORD      PCA0CP0
      000000E9H   SFRSYM    DATA     WORD      PCA0CP1
      000000EBH   SFRSYM    DATA     WORD      PCA0CP2
      000000BCH   SFRSYM    DATA     BYTE      I2C0DIN
      000000CEH   SFRSYM    DATA     BYTE      CRC0CN0
      0000008CH   SFRSYM    DATA     BYTE      TH0
      00000086H   SFRSYM    DATA     BYTE      CRC0CN1
      000000B8H.4 SFRSYM    DATA     BIT       IP_PS0
      000000FAH   SFRSYM    DATA     BYTE      UART1FCT
      0000008DH   SFRSYM    DATA     BYTE      TH1
      000000FAH   SFRSYM    DATA     BYTE      PCA0H
      000000F5H   SFRSYM    DATA     BYTE      I2C0FCT
      000000B8H.1 SFRSYM    DATA     BIT       IP_PT0
      000000B8H.3 SFRSYM    DATA     BIT       IP_PT1
      000000C0H.2 SFRSYM    DATA     BIT       SMB0CN0_ARBLOST
      000000B8H.5 SFRSYM    DATA     BIT       IP_PT2
      0000008AH   SFRSYM    DATA     BYTE      TL0
      000000D0H.5 SFRSYM    DATA     BIT       PSW_F0
      000000A8H.6 SFRSYM    DATA     BIT       IE_ESPI0
      0000008BH   SFRSYM    DATA     BYTE      TL1
      000000F9H   SFRSYM    DATA     BYTE      PCA0L
      000000C0H.0 SFRSYM    DATA     BIT       SMB0CN0_SI
      000000D0H.1 SFRSYM    DATA     BIT       PSW_F1
      00000080H.0 SFRSYM    DATA     BIT       P0_B0
      000000B8H.0 SFRSYM    DATA     BIT       IP_PX0
      00000090H.0 SFRSYM    DATA     BIT       P1_B0
      00000080H.1 SFRSYM    DATA     BIT       P0_B1
      000000B8H.2 SFRSYM    DATA     BIT       IP_PX1
      0000009EH   SFRSYM    DATA     BYTE      UART1LIN
      0000009BH   SFRSYM    DATA     BYTE      CMP0CN0
      00000088H.1 SFRSYM    DATA     BIT       TCON_IE0
      000000A0H.0 SFRSYM    DATA     BIT       P2_B0
      00000090H.1 SFRSYM    DATA     BIT       P1_B1
      00000080H.2 SFRSYM    DATA     BIT       P0_B2
      000000BFH   SFRSYM    DATA     BYTE      CMP1CN0
      00000099H   SFRSYM    DATA     BYTE      CMP0CN1
      00000088H.3 SFRSYM    DATA     BIT       TCON_IE1
      000000B0H.0 SFRSYM    DATA     BIT       P3_B0
LX51 LINKER/LOCATER V4.66.97.0                                                        08/03/2020  08:45:41  PAGE 20


      000000A0H.1 SFRSYM    DATA     BIT       P2_B1
      00000090H.2 SFRSYM    DATA     BIT       P1_B2
      00000080H.3 SFRSYM    DATA     BIT       P0_B3
      000000C0H   SFRSYM    DATA     BYTE      SMB0CN0
      000000ACH   SFRSYM    DATA     BYTE      CMP1CN1
      000000B0H.1 SFRSYM    DATA     BIT       P3_B1
      000000A0H.2 SFRSYM    DATA     BIT       P2_B2
      00000090H.3 SFRSYM    DATA     BIT       P1_B3
      00000080H.4 SFRSYM    DATA     BIT       P0_B4
      000000A0H.3 SFRSYM    DATA     BIT       P2_B3
      00000090H.4 SFRSYM    DATA     BIT       P1_B4
      00000080H.5 SFRSYM    DATA     BIT       P0_B5
      000000D8H.1 SFRSYM    DATA     BIT       UART1FCN1_RXTO0
      00000090H.5 SFRSYM    DATA     BIT       P1_B5
      00000080H.6 SFRSYM    DATA     BIT       P0_B6
      000000F5H   SFRSYM    DATA     BYTE      EIP1H
      000000D8H.2 SFRSYM    DATA     BIT       UART1FCN1_RXTO1
      00000090H.6 SFRSYM    DATA     BIT       P1_B6
      00000080H.7 SFRSYM    DATA     BIT       P0_B7
      000000C5H   SFRSYM    DATA     BYTE      SMB0RXLN
      000000F6H   SFRSYM    DATA     BYTE      EIP2H
      00000090H.7 SFRSYM    DATA     BIT       P1_B7
      00000083H   SFRSYM    DATA     BYTE      DPH
      000000C4H   SFRSYM    DATA     BYTE      ADC0GTH
      000000C8H.7 SFRSYM    DATA     BIT       TMR2CN0_TF2H
      000000C8H.3 SFRSYM    DATA     BIT       TMR2CN0_T2SPLIT
      000000D0H.6 SFRSYM    DATA     BIT       PSW_AC
      000000F8H   SFRSYM    DATA     BYTE      SPI0CN0
      000000C7H   SFRSYM    DATA     BYTE      HFO0CAL
      00000088H.5 SFRSYM    DATA     BIT       TCON_TF0
      00000098H.0 SFRSYM    DATA     BIT       SCON0_RI
      000000D6H   SFRSYM    DATA     BYTE      HFO1CAL
      00000082H   SFRSYM    DATA     BYTE      DPL
      00000088H.7 SFRSYM    DATA     BIT       TCON_TF1
      000000C8H.0 SFRSYM    DATA     BIT       SCON1_RI
      00000099H   SFRSYM    DATA     BYTE      SBUF0
      00000087H   SFRSYM    DATA     BYTE      PCON0
      000000F2H   SFRSYM    DATA     BYTE      IPH
      000000C3H   SFRSYM    DATA     BYTE      ADC0GTL
      00000098H.7 SFRSYM    DATA     BIT       TMR4CN0_TF4H
      00000098H.3 SFRSYM    DATA     BIT       TMR4CN0_T4SPLIT
      000000C8H.6 SFRSYM    DATA     BIT       TMR2CN0_TF2L
      00000098H.1 SFRSYM    DATA     BIT       SCON0_TI
      000000E8H.0 SFRSYM    DATA     BIT       ADC0CN0_ADCM0
      00000092H   SFRSYM    DATA     BYTE      SBUF1
      0000009AH   SFRSYM    DATA     BYTE      PCON1
      000000C6H   SFRSYM    DATA     BYTE      ADC0LTH
      00000088H.0 SFRSYM    DATA     BIT       TCON_IT0
      000000C8H.1 SFRSYM    DATA     BIT       SCON1_TI
      000000E8H.1 SFRSYM    DATA     BIT       ADC0CN0_ADCM1
      000000EFH   SFRSYM    DATA     BYTE      RSTSRC
      000000FDH   SFRSYM    DATA     BYTE      P0MAT
      000000DEH   SFRSYM    DATA     BYTE      CRC0DAT
      00000088H.2 SFRSYM    DATA     BIT       TCON_IT1
      000000E8H.2 SFRSYM    DATA     BIT       ADC0CN0_ADCM2
      000000D7H   SFRSYM    DATA     BYTE      SFRSTACK
      00000098H   SFRSYM    DATA     BYTE      SCON0
      000000F6H   SFRSYM    DATA     BYTE      PRTDRV
      000000EDH   SFRSYM    DATA     BYTE      P1MAT
      000000E8H.3 SFRSYM    DATA     BIT       ADC0CN0_ADWINT
      00000095H   SFRSYM    DATA     WORD      SBRL1
      00000093H   SFRSYM    DATA     BYTE      SMOD1
LX51 LINKER/LOCATER V4.66.97.0                                                        08/03/2020  08:45:41  PAGE 21


      000000C8H   SFRSYM    DATA     BYTE      SCON1
      000000FBH   SFRSYM    DATA     BYTE      P2MAT
      00000098H.6 SFRSYM    DATA     BIT       TMR4CN0_TF4L
      000000E8H.4 SFRSYM    DATA     BIT       ADC0CN0_ADBUSY
      000000D6H   SFRSYM    DATA     BYTE      SMB0ADM
      000000C5H   SFRSYM    DATA     BYTE      ADC0LTL
      000000F8H.5 SFRSYM    DATA     BIT       SPI0CN0_MODF
      000000B8H.6 SFRSYM    DATA     BIT       IP_PSPI0
      0000009CH   SFRSYM    DATA     BYTE      PCA0CLR
      000000C8H   SFRSYM    DATA     BYTE      TMR2CN0
      00000091H   SFRSYM    DATA     BYTE      TMR3CN0
      000000FDH   SFRSYM    DATA     BYTE      TMR2CN1
      00000098H   SFRSYM    DATA     BYTE      TMR4CN0
      000000FEH   SFRSYM    DATA     BYTE      TMR3CN1
      000000FFH   SFRSYM    DATA     BYTE      TMR4CN1
      000000D7H   SFRSYM    DATA     BYTE      SMB0ADR
      00000088H.4 SFRSYM    DATA     BIT       TCON_TR0
      000000C8H.4 SFRSYM    DATA     BIT       TMR2CN0_TF2CEN
      00000088H.6 SFRSYM    DATA     BIT       TCON_TR1
      000000C2H   SFRSYM    DATA     BYTE      SMB0DAT
      000000CDH   SFRSYM    DATA     BYTE      TMR2H
      000000A1H   SFRSYM    DATA     BYTE      SPI0CFG
      00000095H   SFRSYM    DATA     BYTE      TMR3H
      000000EFH   SFRSYM    DATA     BYTE      HFOCN
      000000D3H   SFRSYM    DATA     BYTE      CRC0CNT
      000000A5H   SFRSYM    DATA     BYTE      TMR4H
      00000098H.4 SFRSYM    DATA     BIT       TMR4CN0_TF4CEN
      000000EFH   SFRSYM    DATA     BYTE      SMB0FCT
      00000096H   SFRSYM    DATA     BYTE      PCA0POL
      000000CCH   SFRSYM    DATA     BYTE      TMR2L
      000000F8H.7 SFRSYM    DATA     BIT       SPI0CN0_SPIF
      00000094H   SFRSYM    DATA     BYTE      TMR3L
      000000DFH   SFRSYM    DATA     BYTE      ADC0PWR
      000000A8H.7 SFRSYM    DATA     BIT       IE_EA
      000000A4H   SFRSYM    DATA     BYTE      TMR4L
      000000C8H.5 SFRSYM    DATA     BIT       TMR2CN0_TF2LEN
      000000F8H.6 SFRSYM    DATA     BIT       SPI0CN0_WCOL
      000000F8H.2 SFRSYM    DATA     BIT       SPI0CN0_NSSMD0
      000000D0H.7 SFRSYM    DATA     BIT       PSW_CY
      0000009DH   SFRSYM    DATA     BYTE      UART1FCN0
      000000A3H   SFRSYM    DATA     BYTE      SPI0DAT
      000000ADH   SFRSYM    DATA     BYTE      I2C0FCN0
      000000F8H.3 SFRSYM    DATA     BIT       SPI0CN0_NSSMD1
      000000BDH   SFRSYM    DATA     WORD      ADC0
      000000D8H   SFRSYM    DATA     BYTE      UART1FCN1
      000000ABH   SFRSYM    DATA     BYTE      I2C0FCN1
      00000098H.5 SFRSYM    DATA     BIT       TMR4CN0_TF4LEN
      000000D0H   SFRSYM    DATA     BYTE      PSW
      000000F7H   SFRSYM    DATA     BYTE      PCA0PWM
      000000F7H   SFRSYM    DATA     BYTE      SPI0FCT
      000000B6H   SFRSYM    DATA     BYTE      REVID
      000000B7H   SFRSYM    DATA     BYTE      FLKEY
      000000B3H   SFRSYM    DATA     BYTE      ADC0AC

      0100002EH   BLOCK     CODE     ---       LVL=0
      0100002EH   LINE      CODE     ---       #39
      0100002EH   LINE      CODE     ---       #40
      0100002EH   LINE      CODE     ---       #41
      01000033H   LINE      CODE     ---       #42
      01000039H   LINE      CODE     ---       #43
      0100003FH   LINE      CODE     ---       #44
      01000044H   LINE      CODE     ---       #45
LX51 LINKER/LOCATER V4.66.97.0                                                        08/03/2020  08:45:41  PAGE 22


      01000049H   LINE      CODE     ---       #51
      ---         BLOCKEND  ---      ---       LVL=0

      0100008EH   BLOCK     CODE     ---       LVL=0
      0100008EH   LINE      CODE     ---       #183
      0100008EH   LINE      CODE     ---       #184
      0100008EH   LINE      CODE     ---       #185
      01000090H   LINE      CODE     ---       #186
      01000092H   LINE      CODE     ---       #187
      01000094H   LINE      CODE     ---       #188
      0100009AH   LINE      CODE     ---       #189
      ---         BLOCKEND  ---      ---       LVL=0

      0100210BH   BLOCK     CODE     ---       LVL=0
      0100210BH   LINE      CODE     ---       #191
      0100210BH   LINE      CODE     ---       #192
      0100210BH   LINE      CODE     ---       #193
      0100210DH   LINE      CODE     ---       #194
      0100210FH   LINE      CODE     ---       #195
      01002114H   LINE      CODE     ---       #196
      ---         BLOCKEND  ---      ---       LVL=0

      01001E80H   BLOCK     CODE     ---       LVL=0
      01001E80H   LINE      CODE     ---       #199
      01001E80H   LINE      CODE     ---       #200
      01001E80H   LINE      CODE     ---       #201
      01001E82H   LINE      CODE     ---       #202
      01001E84H   LINE      CODE     ---       #203
      01001E86H   LINE      CODE     ---       #204
      01001E89H   LINE      CODE     ---       #205
      01001E8CH   LINE      CODE     ---       #210
      01001E8FH   LINE      CODE     ---       #215
      01001E92H   LINE      CODE     ---       #220
      01001E95H   LINE      CODE     ---       #221
      01001E98H   LINE      CODE     ---       #222
      01001E9BH   LINE      CODE     ---       #223
      01001E9DH   LINE      CODE     ---       #224
      01001E9FH   LINE      CODE     ---       #225
      01001EA2H   LINE      CODE     ---       #226
      01001EA5H   LINE      CODE     ---       #233
      01001EA8H   LINE      CODE     ---       #234
      01001EABH   LINE      CODE     ---       #235
      01001EAEH   LINE      CODE     ---       #236
      01001EB0H   LINE      CODE     ---       #237
      ---         BLOCKEND  ---      ---       LVL=0

      010014C5H   BLOCK     CODE     ---       LVL=0
      010014F8H   BLOCK     CODE     NEAR LAB  LVL=1
      02000264H   SYMBOL    XDATA    BYTE      i
      02000265H   SYMBOL    XDATA    BYTE      Max
      02000266H   SYMBOL    XDATA    BYTE      Min
      ---         BLOCKEND  ---      ---       LVL=1
      010014C5H   LINE      CODE     ---       #243
      010014D4H   LINE      CODE     ---       #245
      010014E2H   LINE      CODE     ---       #246
      010014E2H   LINE      CODE     ---       #247
      010014EFH   LINE      CODE     ---       #248
      010014F5H   LINE      CODE     ---       #249
      010014F8H   LINE      CODE     ---       #251
      010014F8H   LINE      CODE     ---       #253
      010014FDH   LINE      CODE     ---       #254
      01001501H   LINE      CODE     ---       #255
LX51 LINKER/LOCATER V4.66.97.0                                                        08/03/2020  08:45:41  PAGE 23


      01001511H   LINE      CODE     ---       #256
      01001516H   LINE      CODE     ---       #257
      01001528H   LINE      CODE     ---       #258
      01001528H   LINE      CODE     ---       #259
      0100153CH   LINE      CODE     ---       #260
      0100153EH   LINE      CODE     ---       #261
      01001546H   LINE      CODE     ---       #262
      01001558H   LINE      CODE     ---       #263
      01001560H   LINE      CODE     ---       #264
      0100157EH   LINE      CODE     ---       #265
      0100157EH   LINE      CODE     ---       #266
      01001580H   LINE      CODE     ---       #267
      01001582H   LINE      CODE     ---       #268
      ---         BLOCKEND  ---      ---       LVL=0

      0100004EH   BLOCK     CODE     ---       LVL=0
      0100004EH   LINE      CODE     ---       #274
      0100004EH   LINE      CODE     ---       #276
      01000050H   LINE      CODE     ---       #277
      ---         BLOCKEND  ---      ---       LVL=0

      ---         MODULE    ---      ---       COMMAND
      0200027FH   PUBLIC    XDATA    ---       Cmd
      010018AFH   PUBLIC    CODE     ---       Cmd_SendDistancetoBCM
      01001FE4H   PUBLIC    CODE     ---       Cmd_SetChannel
      01001E4CH   PUBLIC    CODE     ---       _Cmd_NextSensorDet
      01001A22H   PUBLIC    CODE     ---       Cmd_DistancetoComInfo
      01000056H   PUBLIC    CODE     ---       Cmd_UpdataDistance
      0100158FH   PUBLIC    CODE     ---       Cmd_Process
      000000A2H   SFRSYM    DATA     BYTE      SPI0CKR
      00000080H   SFRSYM    DATA     BYTE      P0
      000000C8H.6 SFRSYM    DATA     BIT       SCON1_PERR
      000000D0H.2 SFRSYM    DATA     BIT       PSW_OV
      00000090H   SFRSYM    DATA     BYTE      P1
      000000F8H.1 SFRSYM    DATA     BIT       SPI0CN0_TXNF
      00000097H   SFRSYM    DATA     BYTE      WDTCN
      000000A0H   SFRSYM    DATA     BYTE      P2
      000000B0H   SFRSYM    DATA     BYTE      P3
      000000BCH   SFRSYM    DATA     BYTE      ADC0CF
      000000C0H.7 SFRSYM    DATA     BIT       SMB0CN0_MASTER
      000000F9H   SFRSYM    DATA     WORD      PCA0
      000000E6H   SFRSYM    DATA     BYTE      EIE1
      000000C0H.1 SFRSYM    DATA     BIT       SMB0CN0_ACK
      000000CEH   SFRSYM    DATA     BYTE      EIE2
      0000008FH   SFRSYM    DATA     BYTE      PSCTL
      000000E4H   SFRSYM    DATA     BYTE      IT01CF
      000000C0H.6 SFRSYM    DATA     BIT       SMB0CN0_TXMODE
      000000ADH   SFRSYM    DATA     BYTE      DERIVID
      000000A7H   SFRSYM    DATA     BYTE      SFRPAGE
      000000A4H   SFRSYM    DATA     BYTE      P0MDOUT
      000000A5H   SFRSYM    DATA     BYTE      P1MDOUT
      000000E8H.5 SFRSYM    DATA     BIT       ADC0CN0_ADINT
      000000CBH   SFRSYM    DATA     BYTE      TMR2RLH
      000000A6H   SFRSYM    DATA     BYTE      P2MDOUT
      000000A8H   SFRSYM    DATA     BYTE      IE
      00000093H   SFRSYM    DATA     BYTE      TMR3RLH
      0000009CH   SFRSYM    DATA     BYTE      P3MDOUT
      000000A3H   SFRSYM    DATA     BYTE      TMR4RLH
      000000F3H   SFRSYM    DATA     BYTE      EIP1
      000000F4H   SFRSYM    DATA     BYTE      EIP2
      00000098H.2 SFRSYM    DATA     BIT       SCON0_RB8
      000000CAH   SFRSYM    DATA     BYTE      TMR2RLL
LX51 LINKER/LOCATER V4.66.97.0                                                        08/03/2020  08:45:41  PAGE 24


      000000FCH   SFRSYM    DATA     BYTE      PCA0CPH0
      00000092H   SFRSYM    DATA     BYTE      TMR3RLL
      000000EAH   SFRSYM    DATA     BYTE      PCA0CPH1
      00000098H.3 SFRSYM    DATA     BIT       SCON0_TB8
      000000F0H.0 SFRSYM    DATA     BIT       B_B0
      00000082H   SFRSYM    DATA     WORD      DP
      000000A2H   SFRSYM    DATA     BYTE      TMR4RLL
      000000ECH   SFRSYM    DATA     BYTE      PCA0CPH2
      000000F0H.1 SFRSYM    DATA     BIT       B_B1
      000000C3H   SFRSYM    DATA     WORD      ADC0GT
      000000BDH   SFRSYM    DATA     BYTE      I2C0SLAD
      000000D8H.3 SFRSYM    DATA     BIT       UART1FCN1_RFRQ
      000000F0H.2 SFRSYM    DATA     BIT       B_B2
      000000CFH   SFRSYM    DATA     BYTE      SFRPGCN
      000000FBH   SFRSYM    DATA     BYTE      PCA0CPL0
      000000F0H.3 SFRSYM    DATA     BIT       B_B3
      000000D9H   SFRSYM    DATA     BYTE      PCA0MD
      000000DAH   SFRSYM    DATA     BYTE      PCA0CPM0
      000000E9H   SFRSYM    DATA     BYTE      PCA0CPL1
      000000D8H.7 SFRSYM    DATA     BIT       UART1FCN1_TFRQ
      000000F0H.4 SFRSYM    DATA     BIT       B_B4
      000000DBH   SFRSYM    DATA     BYTE      PCA0CPM1
      000000EBH   SFRSYM    DATA     BYTE      PCA0CPL2
      000000F0H.5 SFRSYM    DATA     BIT       B_B5
      000000DCH   SFRSYM    DATA     BYTE      PCA0CPM2
      000000B8H   SFRSYM    DATA     BYTE      IP
      000000B9H   SFRSYM    DATA     BYTE      ADC0TK
      000000F0H.6 SFRSYM    DATA     BIT       B_B6
      000000C5H   SFRSYM    DATA     WORD      ADC0LT
      000000D8H.6 SFRSYM    DATA     BIT       UART1FCN1_TXNF
      00000098H.5 SFRSYM    DATA     BIT       SCON0_MCE
      000000F0H.7 SFRSYM    DATA     BIT       B_B7
      000000C3H   SFRSYM    DATA     BYTE      SMB0FCN0
      000000E1H   SFRSYM    DATA     BYTE      XBR0
      000000C4H   SFRSYM    DATA     BYTE      SMB0FCN1
      000000C1H   SFRSYM    DATA     BYTE      SMB0CF
      000000E2H   SFRSYM    DATA     BYTE      XBR1
      000000C1H   SFRSYM    DATA     BYTE      PFE0CN
      000000E7H   SFRSYM    DATA     BYTE      EMI0CN
      000000C0H.5 SFRSYM    DATA     BIT       SMB0CN0_STA
      000000E3H   SFRSYM    DATA     BYTE      XBR2
      000000BBH   SFRSYM    DATA     BYTE      ADC0MX
      000000E0H.0 SFRSYM    DATA     BIT       ACC_ACC0
      000000D1H   SFRSYM    DATA     BYTE      REF0CN
      0000008EH   SFRSYM    DATA     BYTE      CKCON0
      000000E0H.1 SFRSYM    DATA     BIT       ACC_ACC1
      000000C9H   SFRSYM    DATA     BYTE      REG0CN
      000000DDH   SFRSYM    DATA     BYTE      CRC0IN
      000000A6H   SFRSYM    DATA     BYTE      CKCON1
      000000C8H.2 SFRSYM    DATA     BIT       TMR2CN0_TR2
      000000E0H.2 SFRSYM    DATA     BIT       ACC_ACC2
      000000C6H   SFRSYM    DATA     BYTE      REG1CN
      000000E0H.3 SFRSYM    DATA     BIT       ACC_ACC3
      00000081H   SFRSYM    DATA     BYTE      SP
      0000009DH   SFRSYM    DATA     BYTE      CMP0MD
      000000E0H.4 SFRSYM    DATA     BIT       ACC_ACC4
      000000B1H   SFRSYM    DATA     BYTE      LFO0CN
      000000ABH   SFRSYM    DATA     BYTE      CMP1MD
      000000D8H.0 SFRSYM    DATA     BIT       PCA0CN0_CCF0
      000000E0H.5 SFRSYM    DATA     BIT       ACC_ACC5
      00000098H.2 SFRSYM    DATA     BIT       TMR4CN0_TR4
      000000D8H.1 SFRSYM    DATA     BIT       PCA0CN0_CCF1
LX51 LINKER/LOCATER V4.66.97.0                                                        08/03/2020  08:45:41  PAGE 25


      000000E0H.6 SFRSYM    DATA     BIT       ACC_ACC6
      000000CCH   SFRSYM    DATA     WORD      TMR2
      0000009AH   SFRSYM    DATA     BYTE      SPI0FCN0
      000000D8H.2 SFRSYM    DATA     BIT       PCA0CN0_CCF2
      000000E0H.7 SFRSYM    DATA     BIT       ACC_ACC7
      00000094H   SFRSYM    DATA     WORD      TMR3
      0000009BH   SFRSYM    DATA     BYTE      SPI0FCN1
      000000A4H   SFRSYM    DATA     WORD      TMR4
      00000094H   SFRSYM    DATA     BYTE      SBCON1
      000000C0H.3 SFRSYM    DATA     BIT       SMB0CN0_ACKRQ
      000000FFH   SFRSYM    DATA     BYTE      VDM0CN
      000000F1H   SFRSYM    DATA     BYTE      P0MDIN
      00000098H.4 SFRSYM    DATA     BIT       SCON0_REN
      000000ACH   SFRSYM    DATA     BYTE      SMB0TC
      000000F2H   SFRSYM    DATA     BYTE      P1MDIN
      000000C8H.4 SFRSYM    DATA     BIT       SCON1_REN
      000000F3H   SFRSYM    DATA     BYTE      P2MDIN
      000000C0H.4 SFRSYM    DATA     BIT       SMB0CN0_STO
      000000F4H   SFRSYM    DATA     BYTE      P3MDIN
      000000B9H   SFRSYM    DATA     BYTE      I2C0STAT
      000000BBH   SFRSYM    DATA     BYTE      I2C0DOUT
      00000096H   SFRSYM    DATA     BYTE      SBRLH1
      000000FEH   SFRSYM    DATA     BYTE      P0MASK
      000000D8H.5 SFRSYM    DATA     BIT       UART1FCN1_TXHOLD
      000000EEH   SFRSYM    DATA     BYTE      P1MASK
      000000FCH   SFRSYM    DATA     BYTE      P2MASK
      000000D0H.3 SFRSYM    DATA     BIT       PSW_RS0
      000000D8H.7 SFRSYM    DATA     BIT       PCA0CN0_CF
      0000009EH   SFRSYM    DATA     BYTE      PCA0CENT
      000000BAH   SFRSYM    DATA     BYTE      I2C0CN0
      000000D2H   SFRSYM    DATA     BYTE      CRC0ST
      000000F8H.4 SFRSYM    DATA     BIT       SPI0CN0_RXOVRN
      000000D0H.4 SFRSYM    DATA     BIT       PSW_RS1
      00000095H   SFRSYM    DATA     BYTE      SBRLL1
      000000C8H.2 SFRSYM    DATA     BIT       SCON1_RBX
      000000C8H.0 SFRSYM    DATA     BIT       TMR2CN0_T2XCLK0
      000000C8H.1 SFRSYM    DATA     BIT       TMR2CN0_T2XCLK1
      000000C8H.3 SFRSYM    DATA     BIT       SCON1_TBX
      000000E8H.7 SFRSYM    DATA     BIT       ADC0CN0_ADEN
      00000089H   SFRSYM    DATA     BYTE      TMOD
      00000088H   SFRSYM    DATA     BYTE      TCON
      000000CFH   SFRSYM    DATA     BYTE      CRC0FLIP
      000000D0H.0 SFRSYM    DATA     BIT       PSW_PARITY
      000000A8H.4 SFRSYM    DATA     BIT       IE_ES0
      0000009FH   SFRSYM    DATA     BYTE      CMP0MX
      00000098H.0 SFRSYM    DATA     BIT       TMR4CN0_T4XCLK0
      000000A8H.1 SFRSYM    DATA     BIT       IE_ET0
      000000AAH   SFRSYM    DATA     BYTE      CMP1MX
      00000098H.1 SFRSYM    DATA     BIT       TMR4CN0_T4XCLK1
      000000A8H.3 SFRSYM    DATA     BIT       IE_ET1
      000000D4H   SFRSYM    DATA     BYTE      P0SKIP
      000000D8H.0 SFRSYM    DATA     BIT       UART1FCN1_RIE
      000000A8H.5 SFRSYM    DATA     BIT       IE_ET2
      000000D5H   SFRSYM    DATA     BYTE      P1SKIP
      000000CCH   SFRSYM    DATA     BYTE      P2SKIP
      000000E8H   SFRSYM    DATA     BYTE      ADC0CN0
      000000D8H.4 SFRSYM    DATA     BIT       UART1FCN1_TIE
      000000A8H.0 SFRSYM    DATA     BIT       IE_EX0
      000000B2H   SFRSYM    DATA     BYTE      ADC0CN1
      000000D8H.6 SFRSYM    DATA     BIT       PCA0CN0_CR
      000000A8H.2 SFRSYM    DATA     BIT       IE_EX1
      000000C8H.7 SFRSYM    DATA     BIT       SCON1_OVR
LX51 LINKER/LOCATER V4.66.97.0                                                        08/03/2020  08:45:41  PAGE 26


      00000098H.7 SFRSYM    DATA     BIT       SCON0_SMODE
      000000B5H   SFRSYM    DATA     BYTE      DEVICEID
      000000A9H   SFRSYM    DATA     BYTE      CLKSEL
      000000F8H.0 SFRSYM    DATA     BIT       SPI0CN0_SPIEN
      000000F0H   SFRSYM    DATA     BYTE      B
      000000BEH   SFRSYM    DATA     BYTE      ADC0H
      000000E8H.6 SFRSYM    DATA     BIT       ADC0CN0_ADBMEN
      000000CAH   SFRSYM    DATA     WORD      TMR2RL
      000000BDH   SFRSYM    DATA     BYTE      ADC0L
      00000092H   SFRSYM    DATA     WORD      TMR3RL
      000000A2H   SFRSYM    DATA     WORD      TMR4RL
      000000D8H   SFRSYM    DATA     BYTE      PCA0CN0
      000000E0H   SFRSYM    DATA     BYTE      ACC
      000000FBH   SFRSYM    DATA     WORD      PCA0CP0
      000000E9H   SFRSYM    DATA     WORD      PCA0CP1
      000000EBH   SFRSYM    DATA     WORD      PCA0CP2
      000000BCH   SFRSYM    DATA     BYTE      I2C0DIN
      000000CEH   SFRSYM    DATA     BYTE      CRC0CN0
      0000008CH   SFRSYM    DATA     BYTE      TH0
      00000086H   SFRSYM    DATA     BYTE      CRC0CN1
      000000B8H.4 SFRSYM    DATA     BIT       IP_PS0
      000000FAH   SFRSYM    DATA     BYTE      UART1FCT
      0000008DH   SFRSYM    DATA     BYTE      TH1
      000000FAH   SFRSYM    DATA     BYTE      PCA0H
      000000F5H   SFRSYM    DATA     BYTE      I2C0FCT
      000000B8H.1 SFRSYM    DATA     BIT       IP_PT0
      000000B8H.3 SFRSYM    DATA     BIT       IP_PT1
      000000C0H.2 SFRSYM    DATA     BIT       SMB0CN0_ARBLOST
      000000B8H.5 SFRSYM    DATA     BIT       IP_PT2
      0000008AH   SFRSYM    DATA     BYTE      TL0
      000000D0H.5 SFRSYM    DATA     BIT       PSW_F0
      000000A8H.6 SFRSYM    DATA     BIT       IE_ESPI0
      0000008BH   SFRSYM    DATA     BYTE      TL1
      000000F9H   SFRSYM    DATA     BYTE      PCA0L
      000000C0H.0 SFRSYM    DATA     BIT       SMB0CN0_SI
      000000D0H.1 SFRSYM    DATA     BIT       PSW_F1
      00000080H.0 SFRSYM    DATA     BIT       P0_B0
      000000B8H.0 SFRSYM    DATA     BIT       IP_PX0
      00000090H.0 SFRSYM    DATA     BIT       P1_B0
      00000080H.1 SFRSYM    DATA     BIT       P0_B1
      000000B8H.2 SFRSYM    DATA     BIT       IP_PX1
      0000009EH   SFRSYM    DATA     BYTE      UART1LIN
      0000009BH   SFRSYM    DATA     BYTE      CMP0CN0
      00000088H.1 SFRSYM    DATA     BIT       TCON_IE0
      000000A0H.0 SFRSYM    DATA     BIT       P2_B0
      00000090H.1 SFRSYM    DATA     BIT       P1_B1
      00000080H.2 SFRSYM    DATA     BIT       P0_B2
      000000BFH   SFRSYM    DATA     BYTE      CMP1CN0
      00000099H   SFRSYM    DATA     BYTE      CMP0CN1
      00000088H.3 SFRSYM    DATA     BIT       TCON_IE1
      000000B0H.0 SFRSYM    DATA     BIT       P3_B0
      000000A0H.1 SFRSYM    DATA     BIT       P2_B1
      00000090H.2 SFRSYM    DATA     BIT       P1_B2
      00000080H.3 SFRSYM    DATA     BIT       P0_B3
      000000C0H   SFRSYM    DATA     BYTE      SMB0CN0
      000000ACH   SFRSYM    DATA     BYTE      CMP1CN1
      000000B0H.1 SFRSYM    DATA     BIT       P3_B1
      000000A0H.2 SFRSYM    DATA     BIT       P2_B2
      00000090H.3 SFRSYM    DATA     BIT       P1_B3
      00000080H.4 SFRSYM    DATA     BIT       P0_B4
      000000A0H.3 SFRSYM    DATA     BIT       P2_B3
      00000090H.4 SFRSYM    DATA     BIT       P1_B4
LX51 LINKER/LOCATER V4.66.97.0                                                        08/03/2020  08:45:41  PAGE 27


      00000080H.5 SFRSYM    DATA     BIT       P0_B5
      000000D8H.1 SFRSYM    DATA     BIT       UART1FCN1_RXTO0
      00000090H.5 SFRSYM    DATA     BIT       P1_B5
      00000080H.6 SFRSYM    DATA     BIT       P0_B6
      000000F5H   SFRSYM    DATA     BYTE      EIP1H
      000000D8H.2 SFRSYM    DATA     BIT       UART1FCN1_RXTO1
      00000090H.6 SFRSYM    DATA     BIT       P1_B6
      00000080H.7 SFRSYM    DATA     BIT       P0_B7
      000000C5H   SFRSYM    DATA     BYTE      SMB0RXLN
      000000F6H   SFRSYM    DATA     BYTE      EIP2H
      00000090H.7 SFRSYM    DATA     BIT       P1_B7
      00000083H   SFRSYM    DATA     BYTE      DPH
      000000C4H   SFRSYM    DATA     BYTE      ADC0GTH
      000000C8H.7 SFRSYM    DATA     BIT       TMR2CN0_TF2H
      000000C8H.3 SFRSYM    DATA     BIT       TMR2CN0_T2SPLIT
      000000D0H.6 SFRSYM    DATA     BIT       PSW_AC
      000000F8H   SFRSYM    DATA     BYTE      SPI0CN0
      000000C7H   SFRSYM    DATA     BYTE      HFO0CAL
      00000088H.5 SFRSYM    DATA     BIT       TCON_TF0
      00000098H.0 SFRSYM    DATA     BIT       SCON0_RI
      000000D6H   SFRSYM    DATA     BYTE      HFO1CAL
      00000082H   SFRSYM    DATA     BYTE      DPL
      00000088H.7 SFRSYM    DATA     BIT       TCON_TF1
      000000C8H.0 SFRSYM    DATA     BIT       SCON1_RI
      00000099H   SFRSYM    DATA     BYTE      SBUF0
      00000087H   SFRSYM    DATA     BYTE      PCON0
      000000F2H   SFRSYM    DATA     BYTE      IPH
      000000C3H   SFRSYM    DATA     BYTE      ADC0GTL
      00000098H.7 SFRSYM    DATA     BIT       TMR4CN0_TF4H
      00000098H.3 SFRSYM    DATA     BIT       TMR4CN0_T4SPLIT
      000000C8H.6 SFRSYM    DATA     BIT       TMR2CN0_TF2L
      00000098H.1 SFRSYM    DATA     BIT       SCON0_TI
      000000E8H.0 SFRSYM    DATA     BIT       ADC0CN0_ADCM0
      00000092H   SFRSYM    DATA     BYTE      SBUF1
      0000009AH   SFRSYM    DATA     BYTE      PCON1
      000000C6H   SFRSYM    DATA     BYTE      ADC0LTH
      00000088H.0 SFRSYM    DATA     BIT       TCON_IT0
      000000C8H.1 SFRSYM    DATA     BIT       SCON1_TI
      000000E8H.1 SFRSYM    DATA     BIT       ADC0CN0_ADCM1
      000000EFH   SFRSYM    DATA     BYTE      RSTSRC
      000000FDH   SFRSYM    DATA     BYTE      P0MAT
      000000DEH   SFRSYM    DATA     BYTE      CRC0DAT
      00000088H.2 SFRSYM    DATA     BIT       TCON_IT1
      000000E8H.2 SFRSYM    DATA     BIT       ADC0CN0_ADCM2
      000000D7H   SFRSYM    DATA     BYTE      SFRSTACK
      00000098H   SFRSYM    DATA     BYTE      SCON0
      000000F6H   SFRSYM    DATA     BYTE      PRTDRV
      000000EDH   SFRSYM    DATA     BYTE      P1MAT
      000000E8H.3 SFRSYM    DATA     BIT       ADC0CN0_ADWINT
      00000095H   SFRSYM    DATA     WORD      SBRL1
      00000093H   SFRSYM    DATA     BYTE      SMOD1
      000000C8H   SFRSYM    DATA     BYTE      SCON1
      000000FBH   SFRSYM    DATA     BYTE      P2MAT
      00000098H.6 SFRSYM    DATA     BIT       TMR4CN0_TF4L
      000000E8H.4 SFRSYM    DATA     BIT       ADC0CN0_ADBUSY
      000000D6H   SFRSYM    DATA     BYTE      SMB0ADM
      000000C5H   SFRSYM    DATA     BYTE      ADC0LTL
      000000F8H.5 SFRSYM    DATA     BIT       SPI0CN0_MODF
      000000B8H.6 SFRSYM    DATA     BIT       IP_PSPI0
      0000009CH   SFRSYM    DATA     BYTE      PCA0CLR
      000000C8H   SFRSYM    DATA     BYTE      TMR2CN0
      00000091H   SFRSYM    DATA     BYTE      TMR3CN0
LX51 LINKER/LOCATER V4.66.97.0                                                        08/03/2020  08:45:41  PAGE 28


      000000FDH   SFRSYM    DATA     BYTE      TMR2CN1
      00000098H   SFRSYM    DATA     BYTE      TMR4CN0
      000000FEH   SFRSYM    DATA     BYTE      TMR3CN1
      000000FFH   SFRSYM    DATA     BYTE      TMR4CN1
      000000D7H   SFRSYM    DATA     BYTE      SMB0ADR
      00000088H.4 SFRSYM    DATA     BIT       TCON_TR0
      000000C8H.4 SFRSYM    DATA     BIT       TMR2CN0_TF2CEN
      00000088H.6 SFRSYM    DATA     BIT       TCON_TR1
      000000C2H   SFRSYM    DATA     BYTE      SMB0DAT
      000000CDH   SFRSYM    DATA     BYTE      TMR2H
      000000A1H   SFRSYM    DATA     BYTE      SPI0CFG
      00000095H   SFRSYM    DATA     BYTE      TMR3H
      000000EFH   SFRSYM    DATA     BYTE      HFOCN
      000000D3H   SFRSYM    DATA     BYTE      CRC0CNT
      000000A5H   SFRSYM    DATA     BYTE      TMR4H
      00000098H.4 SFRSYM    DATA     BIT       TMR4CN0_TF4CEN
      000000EFH   SFRSYM    DATA     BYTE      SMB0FCT
      00000096H   SFRSYM    DATA     BYTE      PCA0POL
      000000CCH   SFRSYM    DATA     BYTE      TMR2L
      000000F8H.7 SFRSYM    DATA     BIT       SPI0CN0_SPIF
      00000094H   SFRSYM    DATA     BYTE      TMR3L
      000000DFH   SFRSYM    DATA     BYTE      ADC0PWR
      000000A8H.7 SFRSYM    DATA     BIT       IE_EA
      000000A4H   SFRSYM    DATA     BYTE      TMR4L
      000000C8H.5 SFRSYM    DATA     BIT       TMR2CN0_TF2LEN
      000000F8H.6 SFRSYM    DATA     BIT       SPI0CN0_WCOL
      000000F8H.2 SFRSYM    DATA     BIT       SPI0CN0_NSSMD0
      000000D0H.7 SFRSYM    DATA     BIT       PSW_CY
      0000009DH   SFRSYM    DATA     BYTE      UART1FCN0
      000000A3H   SFRSYM    DATA     BYTE      SPI0DAT
      000000ADH   SFRSYM    DATA     BYTE      I2C0FCN0
      000000F8H.3 SFRSYM    DATA     BIT       SPI0CN0_NSSMD1
      000000BDH   SFRSYM    DATA     WORD      ADC0
      000000D8H   SFRSYM    DATA     BYTE      UART1FCN1
      000000ABH   SFRSYM    DATA     BYTE      I2C0FCN1
      00000098H.5 SFRSYM    DATA     BIT       TMR4CN0_TF4LEN
      000000D0H   SFRSYM    DATA     BYTE      PSW
      000000F7H   SFRSYM    DATA     BYTE      PCA0PWM
      000000F7H   SFRSYM    DATA     BYTE      SPI0FCT
      000000B6H   SFRSYM    DATA     BYTE      REVID
      000000B7H   SFRSYM    DATA     BYTE      FLKEY
      000000B3H   SFRSYM    DATA     BYTE      ADC0AC

      0100158FH   BLOCK     CODE     ---       LVL=0
      0100158FH   BLOCK     CODE     NEAR LAB  LVL=1
      02000267H   SYMBOL    XDATA    BYTE      i
      ---         BLOCKEND  ---      ---       LVL=1
      0100158FH   LINE      CODE     ---       #19
      0100158FH   LINE      CODE     ---       #20
      0100158FH   LINE      CODE     ---       #28
      01001597H   LINE      CODE     ---       #29
      01001597H   LINE      CODE     ---       #30
      0100159DH   LINE      CODE     ---       #32
      0100159DH   LINE      CODE     ---       #34
      010015B2H   LINE      CODE     ---       #35
      010015B2H   LINE      CODE     ---       #36
      010015B2H   LINE      CODE     ---       #37
      010015B2H   LINE      CODE     ---       #39
      010015B2H   LINE      CODE     ---       #40
      010015B2H   LINE      CODE     ---       #42
      010015B2H   LINE      CODE     ---       #43
      010015B2H   LINE      CODE     ---       #46
LX51 LINKER/LOCATER V4.66.97.0                                                        08/03/2020  08:45:41  PAGE 29


      010015B5H   LINE      CODE     ---       #47
      010015BAH   LINE      CODE     ---       #48
      010015BFH   LINE      CODE     ---       #49
      010015C8H   LINE      CODE     ---       #50
      010015CEH   LINE      CODE     ---       #51
      010015CFH   LINE      CODE     ---       #52
      010015CFH   LINE      CODE     ---       #54
      010015CFH   LINE      CODE     ---       #55
      010015CFH   LINE      CODE     ---       #56
      010015DEH   LINE      CODE     ---       #57
      010015DEH   LINE      CODE     ---       #58
      010015E4H   LINE      CODE     ---       #59
      010015E4H   LINE      CODE     ---       #60
      010015E9H   LINE      CODE     ---       #61
      010015E9H   LINE      CODE     ---       #62
      010015F7H   LINE      CODE     ---       #63
      010015F8H   LINE      CODE     ---       #65
      010015F8H   LINE      CODE     ---       #66
      01001611H   LINE      CODE     ---       #67
      01001611H   LINE      CODE     ---       #68
      01001622H   LINE      CODE     ---       #69
      0100162FH   LINE      CODE     ---       #70
      0100163CH   LINE      CODE     ---       #71
      0100163CH   LINE      CODE     ---       #72
      01001641H   LINE      CODE     ---       #73
      01001641H   LINE      CODE     ---       #74
      01001641H   LINE      CODE     ---       #75
      01001641H   LINE      CODE     ---       #77
      01001641H   LINE      CODE     ---       #78
      01001641H   LINE      CODE     ---       #79
      01001644H   LINE      CODE     ---       #80
      01001647H   LINE      CODE     ---       #81
      0100164CH   LINE      CODE     ---       #82
      01001652H   LINE      CODE     ---       #83
      01001652H   LINE      CODE     ---       #84
      01001652H   LINE      CODE     ---       #86
      01001652H   LINE      CODE     ---       #87
      01001652H   LINE      CODE     ---       #90
      01001652H   LINE      CODE     ---       #91
      01001652H   LINE      CODE     ---       #93
      01001652H   LINE      CODE     ---       #94
      01001652H   LINE      CODE     ---       #96
      01001652H   LINE      CODE     ---       #97
      01001652H   LINE      CODE     ---       #99
      01001652H   LINE      CODE     ---       #100
      01001652H   LINE      CODE     ---       #102
      01001652H   LINE      CODE     ---       #103
      01001652H   LINE      CODE     ---       #105
      01001652H   LINE      CODE     ---       #106
      01001652H   LINE      CODE     ---       #108
      01001652H   LINE      CODE     ---       #109
      01001652H   LINE      CODE     ---       #111
      01001652H   LINE      CODE     ---       #113
      01001652H   LINE      CODE     ---       #114
      ---         BLOCKEND  ---      ---       LVL=0

      01000056H   BLOCK     CODE     ---       LVL=0
      01000056H   LINE      CODE     ---       #121
      01000056H   LINE      CODE     ---       #122
      01000056H   LINE      CODE     ---       #123
      01000059H   LINE      CODE     ---       #128
      01000061H   LINE      CODE     ---       #129
LX51 LINKER/LOCATER V4.66.97.0                                                        08/03/2020  08:45:41  PAGE 30


      01000069H   LINE      CODE     ---       #130
      01000071H   LINE      CODE     ---       #131
      ---         BLOCKEND  ---      ---       LVL=0

      01001A22H   BLOCK     CODE     ---       LVL=0
      01001A22H   BLOCK     CODE     NEAR LAB  LVL=1
      00000003H   SYMBOL    DATA     BYTE      i
      ---         BLOCKEND  ---      ---       LVL=1
      01001A22H   LINE      CODE     ---       #133
      01001A22H   LINE      CODE     ---       #134
      01001A22H   LINE      CODE     ---       #136
      01001A2EH   LINE      CODE     ---       #137
      01001A2EH   LINE      CODE     ---       #138
      01001A45H   LINE      CODE     ---       #139
      01001A45H   LINE      CODE     ---       #140
      01001A52H   LINE      CODE     ---       #141
      01001A54H   LINE      CODE     ---       #142
      01001A5FH   LINE      CODE     ---       #143
      01001A5FH   LINE      CODE     ---       #144
      01001A83H   LINE      CODE     ---       #145
      01001A85H   LINE      CODE     ---       #147
      01001A85H   LINE      CODE     ---       #148
      01001A92H   LINE      CODE     ---       #150
      01001A92H   LINE      CODE     ---       #151
      01001A95H   LINE      CODE     ---       #152
      ---         BLOCKEND  ---      ---       LVL=0

      01001E4CH   BLOCK     CODE     ---       LVL=0
      00000007H   SYMBOL    DATA     BYTE      ForceCutFlag
      01001E4CH   LINE      CODE     ---       #166
      01001E4CH   LINE      CODE     ---       #167
      01001E4CH   LINE      CODE     ---       #170
      01001E51H   LINE      CODE     ---       #171
      01001E51H   LINE      CODE     ---       #172
      01001E51H   LINE      CODE     ---       #173
      01001E51H   LINE      CODE     ---       #174
      01001E51H   LINE      CODE     ---       #175
      01001E53H   LINE      CODE     ---       #177
      01001E53H   LINE      CODE     ---       #178
      01001E5BH   LINE      CODE     ---       #179
      01001E5BH   LINE      CODE     ---       #180
      01001E61H   LINE      CODE     ---       #181
      01001E62H   LINE      CODE     ---       #183
      01001E62H   LINE      CODE     ---       #184
      01001E68H   LINE      CODE     ---       #185
      01001E79H   LINE      CODE     ---       #186
      01001E7FH   LINE      CODE     ---       #187
      01001E7FH   LINE      CODE     ---       #188
      01001E7FH   LINE      CODE     ---       #189
      ---         BLOCKEND  ---      ---       LVL=0

      01001FE4H   BLOCK     CODE     ---       LVL=0
      01001FE4H   LINE      CODE     ---       #191
      01001FE4H   LINE      CODE     ---       #192
      01001FE4H   LINE      CODE     ---       #194
      01001FF2H   LINE      CODE     ---       #195
      01001FF2H   LINE      CODE     ---       #196
      01001FF2H   LINE      CODE     ---       #197
      01001FF2H   LINE      CODE     ---       #198
      01001FF6H   LINE      CODE     ---       #199
      01001FF6H   LINE      CODE     ---       #200
      01001FF7H   LINE      CODE     ---       #201
LX51 LINKER/LOCATER V4.66.97.0                                                        08/03/2020  08:45:41  PAGE 31


      01001FF7H   LINE      CODE     ---       #202
      01001FF7H   LINE      CODE     ---       #203
      01001FFBH   LINE      CODE     ---       #204
      01001FFBH   LINE      CODE     ---       #205
      01001FFCH   LINE      CODE     ---       #206
      01001FFCH   LINE      CODE     ---       #207
      01001FFCH   LINE      CODE     ---       #208
      01002000H   LINE      CODE     ---       #209
      01002000H   LINE      CODE     ---       #210
      01002001H   LINE      CODE     ---       #211
      01002001H   LINE      CODE     ---       #212
      01002001H   LINE      CODE     ---       #213
      01002005H   LINE      CODE     ---       #214
      0100200AH   LINE      CODE     ---       #215
      0100200AH   LINE      CODE     ---       #216
      0100200AH   LINE      CODE     ---       #217
      0100200AH   LINE      CODE     ---       #218
      ---         BLOCKEND  ---      ---       LVL=0
      00000007H   SYMBOL    DATA     BYTE      i

      010018AFH   BLOCK     CODE     ---       LVL=0
      010018AFH   BLOCK     CODE     NEAR LAB  LVL=1
      02000268H   SYMBOL    XDATA    BYTE      i
      00000007H   SYMBOL    DATA     BYTE      checksum
      00000004H   SYMBOL    DATA     WORD      checksum_temp
      ---         BLOCKEND  ---      ---       LVL=1
      010018AFH   LINE      CODE     ---       #231
      010018AFH   LINE      CODE     ---       #232
      010018AFH   LINE      CODE     ---       #235
      010018B1H   LINE      CODE     ---       #236
      010018B3H   LINE      CODE     ---       #238
      010018C6H   LINE      CODE     ---       #239
      010018C6H   LINE      CODE     ---       #240
      010018D6H   LINE      CODE     ---       #241
      010018DFH   LINE      CODE     ---       #242
      010018DFH   LINE      CODE     ---       #243
      010018E7H   LINE      CODE     ---       #244
      010018E7H   LINE      CODE     ---       #245
      010018EFH   LINE      CODE     ---       #246
      010018F8H   LINE      CODE     ---       #247
      010018F8H   LINE      CODE     ---       #248
      010018FDH   LINE      CODE     ---       #249
      010018FDH   LINE      CODE     ---       #250
      01001902H   LINE      CODE     ---       #251
      01001915H   LINE      CODE     ---       #252
      01001915H   LINE      CODE     ---       #253
      01001924H   LINE      CODE     ---       #254
      0100192CH   LINE      CODE     ---       #255
      ---         BLOCKEND  ---      ---       LVL=0

      ---         MODULE    ---      ---       CPU
      020002C4H   PUBLIC    XDATA    BYTE      SFRPAGE_TEMP
      01002059H   PUBLIC    CODE     ---       Cpu_InitHardwarePort
      0100212DH   PUBLIC    CODE     ---       Cpu_DisableInterrupt
      0100212AH   PUBLIC    CODE     ---       Cpu_EnableInterrupt
      0100209CH   PUBLIC    CODE     ---       _Cpu_WDG_Init
      0100207CH   PUBLIC    CODE     ---       Cpu_Clk_Init
      000000A2H   SFRSYM    DATA     BYTE      SPI0CKR
      00000080H   SFRSYM    DATA     BYTE      P0
      000000C8H.6 SFRSYM    DATA     BIT       SCON1_PERR
      000000D0H.2 SFRSYM    DATA     BIT       PSW_OV
      00000090H   SFRSYM    DATA     BYTE      P1
LX51 LINKER/LOCATER V4.66.97.0                                                        08/03/2020  08:45:41  PAGE 32


      000000F8H.1 SFRSYM    DATA     BIT       SPI0CN0_TXNF
      00000097H   SFRSYM    DATA     BYTE      WDTCN
      000000A0H   SFRSYM    DATA     BYTE      P2
      000000B0H   SFRSYM    DATA     BYTE      P3
      000000BCH   SFRSYM    DATA     BYTE      ADC0CF
      000000C0H.7 SFRSYM    DATA     BIT       SMB0CN0_MASTER
      000000F9H   SFRSYM    DATA     WORD      PCA0
      000000E6H   SFRSYM    DATA     BYTE      EIE1
      000000C0H.1 SFRSYM    DATA     BIT       SMB0CN0_ACK
      000000CEH   SFRSYM    DATA     BYTE      EIE2
      0000008FH   SFRSYM    DATA     BYTE      PSCTL
      000000E4H   SFRSYM    DATA     BYTE      IT01CF
      000000C0H.6 SFRSYM    DATA     BIT       SMB0CN0_TXMODE
      000000ADH   SFRSYM    DATA     BYTE      DERIVID
      000000A7H   SFRSYM    DATA     BYTE      SFRPAGE
      000000A4H   SFRSYM    DATA     BYTE      P0MDOUT
      000000A5H   SFRSYM    DATA     BYTE      P1MDOUT
      000000E8H.5 SFRSYM    DATA     BIT       ADC0CN0_ADINT
      000000CBH   SFRSYM    DATA     BYTE      TMR2RLH
      000000A6H   SFRSYM    DATA     BYTE      P2MDOUT
      000000A8H   SFRSYM    DATA     BYTE      IE
      00000093H   SFRSYM    DATA     BYTE      TMR3RLH
      0000009CH   SFRSYM    DATA     BYTE      P3MDOUT
      000000A3H   SFRSYM    DATA     BYTE      TMR4RLH
      000000F3H   SFRSYM    DATA     BYTE      EIP1
      000000F4H   SFRSYM    DATA     BYTE      EIP2
      00000098H.2 SFRSYM    DATA     BIT       SCON0_RB8
      000000CAH   SFRSYM    DATA     BYTE      TMR2RLL
      000000FCH   SFRSYM    DATA     BYTE      PCA0CPH0
      00000092H   SFRSYM    DATA     BYTE      TMR3RLL
      000000EAH   SFRSYM    DATA     BYTE      PCA0CPH1
      00000098H.3 SFRSYM    DATA     BIT       SCON0_TB8
      000000F0H.0 SFRSYM    DATA     BIT       B_B0
      00000082H   SFRSYM    DATA     WORD      DP
      000000A2H   SFRSYM    DATA     BYTE      TMR4RLL
      000000ECH   SFRSYM    DATA     BYTE      PCA0CPH2
      000000F0H.1 SFRSYM    DATA     BIT       B_B1
      000000C3H   SFRSYM    DATA     WORD      ADC0GT
      000000BDH   SFRSYM    DATA     BYTE      I2C0SLAD
      000000D8H.3 SFRSYM    DATA     BIT       UART1FCN1_RFRQ
      000000F0H.2 SFRSYM    DATA     BIT       B_B2
      000000CFH   SFRSYM    DATA     BYTE      SFRPGCN
      000000FBH   SFRSYM    DATA     BYTE      PCA0CPL0
      000000F0H.3 SFRSYM    DATA     BIT       B_B3
      000000D9H   SFRSYM    DATA     BYTE      PCA0MD
      000000DAH   SFRSYM    DATA     BYTE      PCA0CPM0
      000000E9H   SFRSYM    DATA     BYTE      PCA0CPL1
      000000D8H.7 SFRSYM    DATA     BIT       UART1FCN1_TFRQ
      000000F0H.4 SFRSYM    DATA     BIT       B_B4
      000000DBH   SFRSYM    DATA     BYTE      PCA0CPM1
      000000EBH   SFRSYM    DATA     BYTE      PCA0CPL2
      000000F0H.5 SFRSYM    DATA     BIT       B_B5
      000000DCH   SFRSYM    DATA     BYTE      PCA0CPM2
      000000B8H   SFRSYM    DATA     BYTE      IP
      000000B9H   SFRSYM    DATA     BYTE      ADC0TK
      000000F0H.6 SFRSYM    DATA     BIT       B_B6
      000000C5H   SFRSYM    DATA     WORD      ADC0LT
      000000D8H.6 SFRSYM    DATA     BIT       UART1FCN1_TXNF
      00000098H.5 SFRSYM    DATA     BIT       SCON0_MCE
      000000F0H.7 SFRSYM    DATA     BIT       B_B7
      000000C3H   SFRSYM    DATA     BYTE      SMB0FCN0
      000000E1H   SFRSYM    DATA     BYTE      XBR0
LX51 LINKER/LOCATER V4.66.97.0                                                        08/03/2020  08:45:41  PAGE 33


      000000C4H   SFRSYM    DATA     BYTE      SMB0FCN1
      000000C1H   SFRSYM    DATA     BYTE      SMB0CF
      000000E2H   SFRSYM    DATA     BYTE      XBR1
      000000C1H   SFRSYM    DATA     BYTE      PFE0CN
      000000E7H   SFRSYM    DATA     BYTE      EMI0CN
      000000C0H.5 SFRSYM    DATA     BIT       SMB0CN0_STA
      000000E3H   SFRSYM    DATA     BYTE      XBR2
      000000BBH   SFRSYM    DATA     BYTE      ADC0MX
      000000E0H.0 SFRSYM    DATA     BIT       ACC_ACC0
      000000D1H   SFRSYM    DATA     BYTE      REF0CN
      0000008EH   SFRSYM    DATA     BYTE      CKCON0
      000000E0H.1 SFRSYM    DATA     BIT       ACC_ACC1
      000000C9H   SFRSYM    DATA     BYTE      REG0CN
      000000DDH   SFRSYM    DATA     BYTE      CRC0IN
      000000A6H   SFRSYM    DATA     BYTE      CKCON1
      000000C8H.2 SFRSYM    DATA     BIT       TMR2CN0_TR2
      000000E0H.2 SFRSYM    DATA     BIT       ACC_ACC2
      000000C6H   SFRSYM    DATA     BYTE      REG1CN
      000000E0H.3 SFRSYM    DATA     BIT       ACC_ACC3
      00000081H   SFRSYM    DATA     BYTE      SP
      0000009DH   SFRSYM    DATA     BYTE      CMP0MD
      000000E0H.4 SFRSYM    DATA     BIT       ACC_ACC4
      000000B1H   SFRSYM    DATA     BYTE      LFO0CN
      000000ABH   SFRSYM    DATA     BYTE      CMP1MD
      000000D8H.0 SFRSYM    DATA     BIT       PCA0CN0_CCF0
      000000E0H.5 SFRSYM    DATA     BIT       ACC_ACC5
      00000098H.2 SFRSYM    DATA     BIT       TMR4CN0_TR4
      000000D8H.1 SFRSYM    DATA     BIT       PCA0CN0_CCF1
      000000E0H.6 SFRSYM    DATA     BIT       ACC_ACC6
      000000CCH   SFRSYM    DATA     WORD      TMR2
      0000009AH   SFRSYM    DATA     BYTE      SPI0FCN0
      000000D8H.2 SFRSYM    DATA     BIT       PCA0CN0_CCF2
      000000E0H.7 SFRSYM    DATA     BIT       ACC_ACC7
      00000094H   SFRSYM    DATA     WORD      TMR3
      0000009BH   SFRSYM    DATA     BYTE      SPI0FCN1
      000000A4H   SFRSYM    DATA     WORD      TMR4
      00000094H   SFRSYM    DATA     BYTE      SBCON1
      000000C0H.3 SFRSYM    DATA     BIT       SMB0CN0_ACKRQ
      000000FFH   SFRSYM    DATA     BYTE      VDM0CN
      000000F1H   SFRSYM    DATA     BYTE      P0MDIN
      00000098H.4 SFRSYM    DATA     BIT       SCON0_REN
      000000ACH   SFRSYM    DATA     BYTE      SMB0TC
      000000F2H   SFRSYM    DATA     BYTE      P1MDIN
      000000C8H.4 SFRSYM    DATA     BIT       SCON1_REN
      000000F3H   SFRSYM    DATA     BYTE      P2MDIN
      000000C0H.4 SFRSYM    DATA     BIT       SMB0CN0_STO
      000000F4H   SFRSYM    DATA     BYTE      P3MDIN
      000000B9H   SFRSYM    DATA     BYTE      I2C0STAT
      000000BBH   SFRSYM    DATA     BYTE      I2C0DOUT
      00000096H   SFRSYM    DATA     BYTE      SBRLH1
      000000FEH   SFRSYM    DATA     BYTE      P0MASK
      000000D8H.5 SFRSYM    DATA     BIT       UART1FCN1_TXHOLD
      000000EEH   SFRSYM    DATA     BYTE      P1MASK
      000000FCH   SFRSYM    DATA     BYTE      P2MASK
      000000D0H.3 SFRSYM    DATA     BIT       PSW_RS0
      000000D8H.7 SFRSYM    DATA     BIT       PCA0CN0_CF
      0000009EH   SFRSYM    DATA     BYTE      PCA0CENT
      000000BAH   SFRSYM    DATA     BYTE      I2C0CN0
      000000D2H   SFRSYM    DATA     BYTE      CRC0ST
      000000F8H.4 SFRSYM    DATA     BIT       SPI0CN0_RXOVRN
      000000D0H.4 SFRSYM    DATA     BIT       PSW_RS1
      00000095H   SFRSYM    DATA     BYTE      SBRLL1
LX51 LINKER/LOCATER V4.66.97.0                                                        08/03/2020  08:45:41  PAGE 34


      000000C8H.2 SFRSYM    DATA     BIT       SCON1_RBX
      000000C8H.0 SFRSYM    DATA     BIT       TMR2CN0_T2XCLK0
      000000C8H.1 SFRSYM    DATA     BIT       TMR2CN0_T2XCLK1
      000000C8H.3 SFRSYM    DATA     BIT       SCON1_TBX
      000000E8H.7 SFRSYM    DATA     BIT       ADC0CN0_ADEN
      00000089H   SFRSYM    DATA     BYTE      TMOD
      00000088H   SFRSYM    DATA     BYTE      TCON
      000000CFH   SFRSYM    DATA     BYTE      CRC0FLIP
      000000D0H.0 SFRSYM    DATA     BIT       PSW_PARITY
      000000A8H.4 SFRSYM    DATA     BIT       IE_ES0
      0000009FH   SFRSYM    DATA     BYTE      CMP0MX
      00000098H.0 SFRSYM    DATA     BIT       TMR4CN0_T4XCLK0
      000000A8H.1 SFRSYM    DATA     BIT       IE_ET0
      000000AAH   SFRSYM    DATA     BYTE      CMP1MX
      00000098H.1 SFRSYM    DATA     BIT       TMR4CN0_T4XCLK1
      000000A8H.3 SFRSYM    DATA     BIT       IE_ET1
      000000D4H   SFRSYM    DATA     BYTE      P0SKIP
      000000D8H.0 SFRSYM    DATA     BIT       UART1FCN1_RIE
      000000A8H.5 SFRSYM    DATA     BIT       IE_ET2
      000000D5H   SFRSYM    DATA     BYTE      P1SKIP
      000000CCH   SFRSYM    DATA     BYTE      P2SKIP
      000000E8H   SFRSYM    DATA     BYTE      ADC0CN0
      000000D8H.4 SFRSYM    DATA     BIT       UART1FCN1_TIE
      000000A8H.0 SFRSYM    DATA     BIT       IE_EX0
      000000B2H   SFRSYM    DATA     BYTE      ADC0CN1
      000000D8H.6 SFRSYM    DATA     BIT       PCA0CN0_CR
      000000A8H.2 SFRSYM    DATA     BIT       IE_EX1
      000000C8H.7 SFRSYM    DATA     BIT       SCON1_OVR
      00000098H.7 SFRSYM    DATA     BIT       SCON0_SMODE
      000000B5H   SFRSYM    DATA     BYTE      DEVICEID
      000000A9H   SFRSYM    DATA     BYTE      CLKSEL
      000000F8H.0 SFRSYM    DATA     BIT       SPI0CN0_SPIEN
      000000F0H   SFRSYM    DATA     BYTE      B
      000000BEH   SFRSYM    DATA     BYTE      ADC0H
      000000E8H.6 SFRSYM    DATA     BIT       ADC0CN0_ADBMEN
      000000CAH   SFRSYM    DATA     WORD      TMR2RL
      000000BDH   SFRSYM    DATA     BYTE      ADC0L
      00000092H   SFRSYM    DATA     WORD      TMR3RL
      000000A2H   SFRSYM    DATA     WORD      TMR4RL
      000000D8H   SFRSYM    DATA     BYTE      PCA0CN0
      000000E0H   SFRSYM    DATA     BYTE      ACC
      000000FBH   SFRSYM    DATA     WORD      PCA0CP0
      000000E9H   SFRSYM    DATA     WORD      PCA0CP1
      000000EBH   SFRSYM    DATA     WORD      PCA0CP2
      000000BCH   SFRSYM    DATA     BYTE      I2C0DIN
      000000CEH   SFRSYM    DATA     BYTE      CRC0CN0
      0000008CH   SFRSYM    DATA     BYTE      TH0
      00000086H   SFRSYM    DATA     BYTE      CRC0CN1
      000000B8H.4 SFRSYM    DATA     BIT       IP_PS0
      000000FAH   SFRSYM    DATA     BYTE      UART1FCT
      0000008DH   SFRSYM    DATA     BYTE      TH1
      000000FAH   SFRSYM    DATA     BYTE      PCA0H
      000000F5H   SFRSYM    DATA     BYTE      I2C0FCT
      000000B8H.1 SFRSYM    DATA     BIT       IP_PT0
      000000B8H.3 SFRSYM    DATA     BIT       IP_PT1
      000000C0H.2 SFRSYM    DATA     BIT       SMB0CN0_ARBLOST
      000000B8H.5 SFRSYM    DATA     BIT       IP_PT2
      0000008AH   SFRSYM    DATA     BYTE      TL0
      000000D0H.5 SFRSYM    DATA     BIT       PSW_F0
      000000A8H.6 SFRSYM    DATA     BIT       IE_ESPI0
      0000008BH   SFRSYM    DATA     BYTE      TL1
      000000F9H   SFRSYM    DATA     BYTE      PCA0L
LX51 LINKER/LOCATER V4.66.97.0                                                        08/03/2020  08:45:41  PAGE 35


      000000C0H.0 SFRSYM    DATA     BIT       SMB0CN0_SI
      000000D0H.1 SFRSYM    DATA     BIT       PSW_F1
      00000080H.0 SFRSYM    DATA     BIT       P0_B0
      000000B8H.0 SFRSYM    DATA     BIT       IP_PX0
      00000090H.0 SFRSYM    DATA     BIT       P1_B0
      00000080H.1 SFRSYM    DATA     BIT       P0_B1
      000000B8H.2 SFRSYM    DATA     BIT       IP_PX1
      0000009EH   SFRSYM    DATA     BYTE      UART1LIN
      0000009BH   SFRSYM    DATA     BYTE      CMP0CN0
      00000088H.1 SFRSYM    DATA     BIT       TCON_IE0
      000000A0H.0 SFRSYM    DATA     BIT       P2_B0
      00000090H.1 SFRSYM    DATA     BIT       P1_B1
      00000080H.2 SFRSYM    DATA     BIT       P0_B2
      000000BFH   SFRSYM    DATA     BYTE      CMP1CN0
      00000099H   SFRSYM    DATA     BYTE      CMP0CN1
      00000088H.3 SFRSYM    DATA     BIT       TCON_IE1
      000000B0H.0 SFRSYM    DATA     BIT       P3_B0
      000000A0H.1 SFRSYM    DATA     BIT       P2_B1
      00000090H.2 SFRSYM    DATA     BIT       P1_B2
      00000080H.3 SFRSYM    DATA     BIT       P0_B3
      000000C0H   SFRSYM    DATA     BYTE      SMB0CN0
      000000ACH   SFRSYM    DATA     BYTE      CMP1CN1
      000000B0H.1 SFRSYM    DATA     BIT       P3_B1
      000000A0H.2 SFRSYM    DATA     BIT       P2_B2
      00000090H.3 SFRSYM    DATA     BIT       P1_B3
      00000080H.4 SFRSYM    DATA     BIT       P0_B4
      000000A0H.3 SFRSYM    DATA     BIT       P2_B3
      00000090H.4 SFRSYM    DATA     BIT       P1_B4
      00000080H.5 SFRSYM    DATA     BIT       P0_B5
      000000D8H.1 SFRSYM    DATA     BIT       UART1FCN1_RXTO0
      00000090H.5 SFRSYM    DATA     BIT       P1_B5
      00000080H.6 SFRSYM    DATA     BIT       P0_B6
      000000F5H   SFRSYM    DATA     BYTE      EIP1H
      000000D8H.2 SFRSYM    DATA     BIT       UART1FCN1_RXTO1
      00000090H.6 SFRSYM    DATA     BIT       P1_B6
      00000080H.7 SFRSYM    DATA     BIT       P0_B7
      000000C5H   SFRSYM    DATA     BYTE      SMB0RXLN
      000000F6H   SFRSYM    DATA     BYTE      EIP2H
      00000090H.7 SFRSYM    DATA     BIT       P1_B7
      00000083H   SFRSYM    DATA     BYTE      DPH
      000000C4H   SFRSYM    DATA     BYTE      ADC0GTH
      000000C8H.7 SFRSYM    DATA     BIT       TMR2CN0_TF2H
      000000C8H.3 SFRSYM    DATA     BIT       TMR2CN0_T2SPLIT
      000000D0H.6 SFRSYM    DATA     BIT       PSW_AC
      000000F8H   SFRSYM    DATA     BYTE      SPI0CN0
      000000C7H   SFRSYM    DATA     BYTE      HFO0CAL
      00000088H.5 SFRSYM    DATA     BIT       TCON_TF0
      00000098H.0 SFRSYM    DATA     BIT       SCON0_RI
      000000D6H   SFRSYM    DATA     BYTE      HFO1CAL
      00000082H   SFRSYM    DATA     BYTE      DPL
      00000088H.7 SFRSYM    DATA     BIT       TCON_TF1
      000000C8H.0 SFRSYM    DATA     BIT       SCON1_RI
      00000099H   SFRSYM    DATA     BYTE      SBUF0
      00000087H   SFRSYM    DATA     BYTE      PCON0
      000000F2H   SFRSYM    DATA     BYTE      IPH
      000000C3H   SFRSYM    DATA     BYTE      ADC0GTL
      00000098H.7 SFRSYM    DATA     BIT       TMR4CN0_TF4H
      00000098H.3 SFRSYM    DATA     BIT       TMR4CN0_T4SPLIT
      000000C8H.6 SFRSYM    DATA     BIT       TMR2CN0_TF2L
      00000098H.1 SFRSYM    DATA     BIT       SCON0_TI
      000000E8H.0 SFRSYM    DATA     BIT       ADC0CN0_ADCM0
      00000092H   SFRSYM    DATA     BYTE      SBUF1
LX51 LINKER/LOCATER V4.66.97.0                                                        08/03/2020  08:45:41  PAGE 36


      0000009AH   SFRSYM    DATA     BYTE      PCON1
      000000C6H   SFRSYM    DATA     BYTE      ADC0LTH
      00000088H.0 SFRSYM    DATA     BIT       TCON_IT0
      000000C8H.1 SFRSYM    DATA     BIT       SCON1_TI
      000000E8H.1 SFRSYM    DATA     BIT       ADC0CN0_ADCM1
      000000EFH   SFRSYM    DATA     BYTE      RSTSRC
      000000FDH   SFRSYM    DATA     BYTE      P0MAT
      000000DEH   SFRSYM    DATA     BYTE      CRC0DAT
      00000088H.2 SFRSYM    DATA     BIT       TCON_IT1
      000000E8H.2 SFRSYM    DATA     BIT       ADC0CN0_ADCM2
      000000D7H   SFRSYM    DATA     BYTE      SFRSTACK
      00000098H   SFRSYM    DATA     BYTE      SCON0
      000000F6H   SFRSYM    DATA     BYTE      PRTDRV
      000000EDH   SFRSYM    DATA     BYTE      P1MAT
      000000E8H.3 SFRSYM    DATA     BIT       ADC0CN0_ADWINT
      00000095H   SFRSYM    DATA     WORD      SBRL1
      00000093H   SFRSYM    DATA     BYTE      SMOD1
      000000C8H   SFRSYM    DATA     BYTE      SCON1
      000000FBH   SFRSYM    DATA     BYTE      P2MAT
      00000098H.6 SFRSYM    DATA     BIT       TMR4CN0_TF4L
      000000E8H.4 SFRSYM    DATA     BIT       ADC0CN0_ADBUSY
      000000D6H   SFRSYM    DATA     BYTE      SMB0ADM
      000000C5H   SFRSYM    DATA     BYTE      ADC0LTL
      000000F8H.5 SFRSYM    DATA     BIT       SPI0CN0_MODF
      000000B8H.6 SFRSYM    DATA     BIT       IP_PSPI0
      0000009CH   SFRSYM    DATA     BYTE      PCA0CLR
      000000C8H   SFRSYM    DATA     BYTE      TMR2CN0
      00000091H   SFRSYM    DATA     BYTE      TMR3CN0
      000000FDH   SFRSYM    DATA     BYTE      TMR2CN1
      00000098H   SFRSYM    DATA     BYTE      TMR4CN0
      000000FEH   SFRSYM    DATA     BYTE      TMR3CN1
      000000FFH   SFRSYM    DATA     BYTE      TMR4CN1
      000000D7H   SFRSYM    DATA     BYTE      SMB0ADR
      00000088H.4 SFRSYM    DATA     BIT       TCON_TR0
      000000C8H.4 SFRSYM    DATA     BIT       TMR2CN0_TF2CEN
      00000088H.6 SFRSYM    DATA     BIT       TCON_TR1
      000000C2H   SFRSYM    DATA     BYTE      SMB0DAT
      000000CDH   SFRSYM    DATA     BYTE      TMR2H
      000000A1H   SFRSYM    DATA     BYTE      SPI0CFG
      00000095H   SFRSYM    DATA     BYTE      TMR3H
      000000EFH   SFRSYM    DATA     BYTE      HFOCN
      000000D3H   SFRSYM    DATA     BYTE      CRC0CNT
      000000A5H   SFRSYM    DATA     BYTE      TMR4H
      00000098H.4 SFRSYM    DATA     BIT       TMR4CN0_TF4CEN
      000000EFH   SFRSYM    DATA     BYTE      SMB0FCT
      00000096H   SFRSYM    DATA     BYTE      PCA0POL
      000000CCH   SFRSYM    DATA     BYTE      TMR2L
      000000F8H.7 SFRSYM    DATA     BIT       SPI0CN0_SPIF
      00000094H   SFRSYM    DATA     BYTE      TMR3L
      000000DFH   SFRSYM    DATA     BYTE      ADC0PWR
      000000A8H.7 SFRSYM    DATA     BIT       IE_EA
      000000A4H   SFRSYM    DATA     BYTE      TMR4L
      000000C8H.5 SFRSYM    DATA     BIT       TMR2CN0_TF2LEN
      000000F8H.6 SFRSYM    DATA     BIT       SPI0CN0_WCOL
      000000F8H.2 SFRSYM    DATA     BIT       SPI0CN0_NSSMD0
      000000D0H.7 SFRSYM    DATA     BIT       PSW_CY
      0000009DH   SFRSYM    DATA     BYTE      UART1FCN0
      000000A3H   SFRSYM    DATA     BYTE      SPI0DAT
      000000ADH   SFRSYM    DATA     BYTE      I2C0FCN0
      000000F8H.3 SFRSYM    DATA     BIT       SPI0CN0_NSSMD1
      000000BDH   SFRSYM    DATA     WORD      ADC0
      000000D8H   SFRSYM    DATA     BYTE      UART1FCN1
LX51 LINKER/LOCATER V4.66.97.0                                                        08/03/2020  08:45:41  PAGE 37


      000000ABH   SFRSYM    DATA     BYTE      I2C0FCN1
      00000098H.5 SFRSYM    DATA     BIT       TMR4CN0_TF4LEN
      000000D0H   SFRSYM    DATA     BYTE      PSW
      000000F7H   SFRSYM    DATA     BYTE      PCA0PWM
      000000F7H   SFRSYM    DATA     BYTE      SPI0FCT
      000000B6H   SFRSYM    DATA     BYTE      REVID
      000000B7H   SFRSYM    DATA     BYTE      FLKEY
      000000B3H   SFRSYM    DATA     BYTE      ADC0AC

      0100207CH   BLOCK     CODE     ---       LVL=0
      0100207CH   LINE      CODE     ---       #18
      0100207CH   LINE      CODE     ---       #19
      0100207CH   LINE      CODE     ---       #20
      0100207FH   LINE      CODE     ---       #21
      01002082H   LINE      CODE     ---       #23
      01002085H   LINE      CODE     ---       #24
      01002087H   LINE      CODE     ---       #25
      01002089H   LINE      CODE     ---       #26
      0100208FH   LINE      CODE     ---       #27
      01002092H   LINE      CODE     ---       #28
      01002095H   LINE      CODE     ---       #29
      0100209BH   LINE      CODE     ---       #30
      ---         BLOCKEND  ---      ---       LVL=0

      0100209CH   BLOCK     CODE     ---       LVL=0
      00000007H   SYMBOL    DATA     BYTE      Switch
      0100209CH   LINE      CODE     ---       #33
      0100209CH   LINE      CODE     ---       #34
      0100209CH   LINE      CODE     ---       #35
      0100209FH   LINE      CODE     ---       #36
      010020A7H   LINE      CODE     ---       #37
      010020A7H   LINE      CODE     ---       #38
      010020AAH   LINE      CODE     ---       #39
      010020ADH   LINE      CODE     ---       #40
      010020ADH   LINE      CODE     ---       #41
      010020B1H   LINE      CODE     ---       #42
      010020B1H   LINE      CODE     ---       #43
      010020B4H   LINE      CODE     ---       #44
      010020B7H   LINE      CODE     ---       #45
      010020B7H   LINE      CODE     ---       #46
      ---         BLOCKEND  ---      ---       LVL=0

      0100212AH   BLOCK     CODE     ---       LVL=0
      0100212AH   LINE      CODE     ---       #48
      0100212AH   LINE      CODE     ---       #49
      0100212AH   LINE      CODE     ---       #50
      0100212CH   LINE      CODE     ---       #51
      ---         BLOCKEND  ---      ---       LVL=0

      0100212DH   BLOCK     CODE     ---       LVL=0
      0100212DH   LINE      CODE     ---       #53
      0100212DH   LINE      CODE     ---       #54
      0100212DH   LINE      CODE     ---       #55
      0100212FH   LINE      CODE     ---       #56
      ---         BLOCKEND  ---      ---       LVL=0

      01002059H   BLOCK     CODE     ---       LVL=0
      01002059H   LINE      CODE     ---       #58
      01002059H   LINE      CODE     ---       #59
      01002059H   LINE      CODE     ---       #60
      0100205CH   LINE      CODE     ---       #62
      0100205FH   LINE      CODE     ---       #64
LX51 LINKER/LOCATER V4.66.97.0                                                        08/03/2020  08:45:41  PAGE 38


      01002062H   LINE      CODE     ---       #66
      01002065H   LINE      CODE     ---       #68
      01002068H   LINE      CODE     ---       #72
      0100206BH   LINE      CODE     ---       #74
      0100206EH   LINE      CODE     ---       #76
      01002071H   LINE      CODE     ---       #78
      01002074H   LINE      CODE     ---       #83
      01002077H   LINE      CODE     ---       #86
      01002079H   LINE      CODE     ---       #89
      0100207BH   LINE      CODE     ---       #91
      ---         BLOCKEND  ---      ---       LVL=0

      ---         MODULE    ---      ---       DETECTOBJ
      0200023EH   PUBLIC    XDATA    ---       EachSNMaxDistance
      02000216H   PUBLIC    XDATA    ---       TableWidth
      020001EBH   PUBLIC    XDATA    ---       NearestData
      020001D7H   PUBLIC    XDATA    ---       TableHeight
      020001D4H   PUBLIC    XDATA    ---       DetObj_DataPrcs
      020001CAH   PUBLIC    XDATA    ---       DetInfo
      0200007BH   PUBLIC    XDATA    ---       RawData
      02000075H   PUBLIC    XDATA    ---       DetectInterval
      0200006AH   PUBLIC    XDATA    ---       AnsData
      0200001DH   PUBLIC    XDATA    ---       CmpData
      02000017H   PUBLIC    XDATA    ---       ClrtData
      0200000CH   PUBLIC    XDATA    ---       DiagInfo
      02000000H   PUBLIC    XDATA    ---       Noise
      0100040AH   PUBLIC    CODE     ---       DetObj_CompareTheData
      01001653H   PUBLIC    CODE     ---       DetObj_ProcessTheRingTime
      01000F55H   PUBLIC    CODE     ---       DetObj_GenerateTheNearestObstacle
      0100182FH   PUBLIC    CODE     ---       DetObj_HoldTheObstaclestate
      0100095CH   PUBLIC    CODE     ---       DetObj_DetTheObj
      01001256H   PUBLIC    CODE     ---       DetObj_RawNoiseDataAns
      0100009EH   PUBLIC    CODE     ---       DetObj_RawEchoDataAns
      01000D7BH   PUBLIC    CODE     ---       DetObj_RawFilter
      01000B73H   PUBLIC    CODE     ---       DetObj_CalSampNoise
      0200026EH   PUBLIC    XDATA    BYTE      ?_DetObj_CopySamplingBuffer?BYTE
      01001D0FH   PUBLIC    CODE     ---       _DetObj_CopySamplingBuffer
      01001A96H   PUBLIC    CODE     ---       DetObj_ClearTheNoiseBuff
      01001B09H   PUBLIC    CODE     ---       _GetDistance
      01001F92H   PUBLIC    CODE     ---       DetObj_ClearTheRawDataBuff
      01001BD2H   PUBLIC    CODE     ---       DetObj_InitTheCCD
      010017A2H   PUBLIC    CODE     ---       DetObj_InitTheEPD
      0100211EH   PUBLIC    CODE     ---       DetObj_InitTheAnalysisData
      01000003H   PUBLIC    CODE     ---       DetObj_Stop
      01002115H   PUBLIC    CODE     ---       DetObj_Start
      010010E5H   PUBLIC    CODE     ---       DetObj_DiagnosticTheRingTime
      01001F68H   PUBLIC    CODE     ---       DetObj_DiagnosticTheSensor
      010019A9H   PUBLIC    CODE     ---       DetObj_SendThe58KhzUltraSonic
      01001C82H   PUBLIC    CODE     ---       DetObj_RealTimeClock
      01001D52H   PUBLIC    CODE     ---       DetObj_InitAllChannelDistance
      010006E5H   PUBLIC    CODE     ---       DetObj_InitVariable
      000000A2H   SFRSYM    DATA     BYTE      SPI0CKR
      00000080H   SFRSYM    DATA     BYTE      P0
      000000C8H.6 SFRSYM    DATA     BIT       SCON1_PERR
      000000D0H.2 SFRSYM    DATA     BIT       PSW_OV
      00000090H   SFRSYM    DATA     BYTE      P1
      000000F8H.1 SFRSYM    DATA     BIT       SPI0CN0_TXNF
      00000097H   SFRSYM    DATA     BYTE      WDTCN
      000000A0H   SFRSYM    DATA     BYTE      P2
      000000B0H   SFRSYM    DATA     BYTE      P3
      000000BCH   SFRSYM    DATA     BYTE      ADC0CF
      000000C0H.7 SFRSYM    DATA     BIT       SMB0CN0_MASTER
LX51 LINKER/LOCATER V4.66.97.0                                                        08/03/2020  08:45:41  PAGE 39


      000000F9H   SFRSYM    DATA     WORD      PCA0
      000000E6H   SFRSYM    DATA     BYTE      EIE1
      000000C0H.1 SFRSYM    DATA     BIT       SMB0CN0_ACK
      000000CEH   SFRSYM    DATA     BYTE      EIE2
      0000008FH   SFRSYM    DATA     BYTE      PSCTL
      000000E4H   SFRSYM    DATA     BYTE      IT01CF
      000000C0H.6 SFRSYM    DATA     BIT       SMB0CN0_TXMODE
      000000ADH   SFRSYM    DATA     BYTE      DERIVID
      000000A7H   SFRSYM    DATA     BYTE      SFRPAGE
      000000A4H   SFRSYM    DATA     BYTE      P0MDOUT
      000000A5H   SFRSYM    DATA     BYTE      P1MDOUT
      000000E8H.5 SFRSYM    DATA     BIT       ADC0CN0_ADINT
      000000CBH   SFRSYM    DATA     BYTE      TMR2RLH
      000000A6H   SFRSYM    DATA     BYTE      P2MDOUT
      000000A8H   SFRSYM    DATA     BYTE      IE
      00000093H   SFRSYM    DATA     BYTE      TMR3RLH
      0000009CH   SFRSYM    DATA     BYTE      P3MDOUT
      000000A3H   SFRSYM    DATA     BYTE      TMR4RLH
      000000F3H   SFRSYM    DATA     BYTE      EIP1
      000000F4H   SFRSYM    DATA     BYTE      EIP2
      00000098H.2 SFRSYM    DATA     BIT       SCON0_RB8
      000000CAH   SFRSYM    DATA     BYTE      TMR2RLL
      000000FCH   SFRSYM    DATA     BYTE      PCA0CPH0
      00000092H   SFRSYM    DATA     BYTE      TMR3RLL
      000000EAH   SFRSYM    DATA     BYTE      PCA0CPH1
      00000098H.3 SFRSYM    DATA     BIT       SCON0_TB8
      000000F0H.0 SFRSYM    DATA     BIT       B_B0
      00000082H   SFRSYM    DATA     WORD      DP
      000000A2H   SFRSYM    DATA     BYTE      TMR4RLL
      000000ECH   SFRSYM    DATA     BYTE      PCA0CPH2
      000000F0H.1 SFRSYM    DATA     BIT       B_B1
      000000C3H   SFRSYM    DATA     WORD      ADC0GT
      000000BDH   SFRSYM    DATA     BYTE      I2C0SLAD
      000000D8H.3 SFRSYM    DATA     BIT       UART1FCN1_RFRQ
      000000F0H.2 SFRSYM    DATA     BIT       B_B2
      000000CFH   SFRSYM    DATA     BYTE      SFRPGCN
      000000FBH   SFRSYM    DATA     BYTE      PCA0CPL0
      000000F0H.3 SFRSYM    DATA     BIT       B_B3
      000000D9H   SFRSYM    DATA     BYTE      PCA0MD
      000000DAH   SFRSYM    DATA     BYTE      PCA0CPM0
      000000E9H   SFRSYM    DATA     BYTE      PCA0CPL1
      000000D8H.7 SFRSYM    DATA     BIT       UART1FCN1_TFRQ
      000000F0H.4 SFRSYM    DATA     BIT       B_B4
      000000DBH   SFRSYM    DATA     BYTE      PCA0CPM1
      000000EBH   SFRSYM    DATA     BYTE      PCA0CPL2
      000000F0H.5 SFRSYM    DATA     BIT       B_B5
      000000DCH   SFRSYM    DATA     BYTE      PCA0CPM2
      000000B8H   SFRSYM    DATA     BYTE      IP
      000000B9H   SFRSYM    DATA     BYTE      ADC0TK
      000000F0H.6 SFRSYM    DATA     BIT       B_B6
      000000C5H   SFRSYM    DATA     WORD      ADC0LT
      000000D8H.6 SFRSYM    DATA     BIT       UART1FCN1_TXNF
      00000098H.5 SFRSYM    DATA     BIT       SCON0_MCE
      000000F0H.7 SFRSYM    DATA     BIT       B_B7
      000000C3H   SFRSYM    DATA     BYTE      SMB0FCN0
      000000E1H   SFRSYM    DATA     BYTE      XBR0
      000000C4H   SFRSYM    DATA     BYTE      SMB0FCN1
      000000C1H   SFRSYM    DATA     BYTE      SMB0CF
      000000E2H   SFRSYM    DATA     BYTE      XBR1
      000000C1H   SFRSYM    DATA     BYTE      PFE0CN
      000000E7H   SFRSYM    DATA     BYTE      EMI0CN
      000000C0H.5 SFRSYM    DATA     BIT       SMB0CN0_STA
LX51 LINKER/LOCATER V4.66.97.0                                                        08/03/2020  08:45:41  PAGE 40


      000000E3H   SFRSYM    DATA     BYTE      XBR2
      000000BBH   SFRSYM    DATA     BYTE      ADC0MX
      000000E0H.0 SFRSYM    DATA     BIT       ACC_ACC0
      000000D1H   SFRSYM    DATA     BYTE      REF0CN
      0000008EH   SFRSYM    DATA     BYTE      CKCON0
      000000E0H.1 SFRSYM    DATA     BIT       ACC_ACC1
      000000C9H   SFRSYM    DATA     BYTE      REG0CN
      000000DDH   SFRSYM    DATA     BYTE      CRC0IN
      000000A6H   SFRSYM    DATA     BYTE      CKCON1
      000000C8H.2 SFRSYM    DATA     BIT       TMR2CN0_TR2
      000000E0H.2 SFRSYM    DATA     BIT       ACC_ACC2
      000000C6H   SFRSYM    DATA     BYTE      REG1CN
      000000E0H.3 SFRSYM    DATA     BIT       ACC_ACC3
      00000081H   SFRSYM    DATA     BYTE      SP
      0000009DH   SFRSYM    DATA     BYTE      CMP0MD
      000000E0H.4 SFRSYM    DATA     BIT       ACC_ACC4
      000000B1H   SFRSYM    DATA     BYTE      LFO0CN
      000000ABH   SFRSYM    DATA     BYTE      CMP1MD
      000000D8H.0 SFRSYM    DATA     BIT       PCA0CN0_CCF0
      000000E0H.5 SFRSYM    DATA     BIT       ACC_ACC5
      00000098H.2 SFRSYM    DATA     BIT       TMR4CN0_TR4
      000000D8H.1 SFRSYM    DATA     BIT       PCA0CN0_CCF1
      000000E0H.6 SFRSYM    DATA     BIT       ACC_ACC6
      000000CCH   SFRSYM    DATA     WORD      TMR2
      0000009AH   SFRSYM    DATA     BYTE      SPI0FCN0
      000000D8H.2 SFRSYM    DATA     BIT       PCA0CN0_CCF2
      000000E0H.7 SFRSYM    DATA     BIT       ACC_ACC7
      00000094H   SFRSYM    DATA     WORD      TMR3
      0000009BH   SFRSYM    DATA     BYTE      SPI0FCN1
      000000A4H   SFRSYM    DATA     WORD      TMR4
      00000094H   SFRSYM    DATA     BYTE      SBCON1
      000000C0H.3 SFRSYM    DATA     BIT       SMB0CN0_ACKRQ
      000000FFH   SFRSYM    DATA     BYTE      VDM0CN
      000000F1H   SFRSYM    DATA     BYTE      P0MDIN
      00000098H.4 SFRSYM    DATA     BIT       SCON0_REN
      000000ACH   SFRSYM    DATA     BYTE      SMB0TC
      000000F2H   SFRSYM    DATA     BYTE      P1MDIN
      000000C8H.4 SFRSYM    DATA     BIT       SCON1_REN
      000000F3H   SFRSYM    DATA     BYTE      P2MDIN
      000000C0H.4 SFRSYM    DATA     BIT       SMB0CN0_STO
      000000F4H   SFRSYM    DATA     BYTE      P3MDIN
      000000B9H   SFRSYM    DATA     BYTE      I2C0STAT
      000000BBH   SFRSYM    DATA     BYTE      I2C0DOUT
      00000096H   SFRSYM    DATA     BYTE      SBRLH1
      000000FEH   SFRSYM    DATA     BYTE      P0MASK
      000000D8H.5 SFRSYM    DATA     BIT       UART1FCN1_TXHOLD
      000000EEH   SFRSYM    DATA     BYTE      P1MASK
      000000FCH   SFRSYM    DATA     BYTE      P2MASK
      000000D0H.3 SFRSYM    DATA     BIT       PSW_RS0
      000000D8H.7 SFRSYM    DATA     BIT       PCA0CN0_CF
      0000009EH   SFRSYM    DATA     BYTE      PCA0CENT
      000000BAH   SFRSYM    DATA     BYTE      I2C0CN0
      000000D2H   SFRSYM    DATA     BYTE      CRC0ST
      000000F8H.4 SFRSYM    DATA     BIT       SPI0CN0_RXOVRN
      000000D0H.4 SFRSYM    DATA     BIT       PSW_RS1
      00000095H   SFRSYM    DATA     BYTE      SBRLL1
      000000C8H.2 SFRSYM    DATA     BIT       SCON1_RBX
      000000C8H.0 SFRSYM    DATA     BIT       TMR2CN0_T2XCLK0
      000000C8H.1 SFRSYM    DATA     BIT       TMR2CN0_T2XCLK1
      000000C8H.3 SFRSYM    DATA     BIT       SCON1_TBX
      000000E8H.7 SFRSYM    DATA     BIT       ADC0CN0_ADEN
      00000089H   SFRSYM    DATA     BYTE      TMOD
LX51 LINKER/LOCATER V4.66.97.0                                                        08/03/2020  08:45:41  PAGE 41


      00000088H   SFRSYM    DATA     BYTE      TCON
      000000CFH   SFRSYM    DATA     BYTE      CRC0FLIP
      000000D0H.0 SFRSYM    DATA     BIT       PSW_PARITY
      000000A8H.4 SFRSYM    DATA     BIT       IE_ES0
      0000009FH   SFRSYM    DATA     BYTE      CMP0MX
      00000098H.0 SFRSYM    DATA     BIT       TMR4CN0_T4XCLK0
      000000A8H.1 SFRSYM    DATA     BIT       IE_ET0
      000000AAH   SFRSYM    DATA     BYTE      CMP1MX
      00000098H.1 SFRSYM    DATA     BIT       TMR4CN0_T4XCLK1
      000000A8H.3 SFRSYM    DATA     BIT       IE_ET1
      000000D4H   SFRSYM    DATA     BYTE      P0SKIP
      000000D8H.0 SFRSYM    DATA     BIT       UART1FCN1_RIE
      000000A8H.5 SFRSYM    DATA     BIT       IE_ET2
      000000D5H   SFRSYM    DATA     BYTE      P1SKIP
      000000CCH   SFRSYM    DATA     BYTE      P2SKIP
      000000E8H   SFRSYM    DATA     BYTE      ADC0CN0
      000000D8H.4 SFRSYM    DATA     BIT       UART1FCN1_TIE
      000000A8H.0 SFRSYM    DATA     BIT       IE_EX0
      000000B2H   SFRSYM    DATA     BYTE      ADC0CN1
      000000D8H.6 SFRSYM    DATA     BIT       PCA0CN0_CR
      000000A8H.2 SFRSYM    DATA     BIT       IE_EX1
      000000C8H.7 SFRSYM    DATA     BIT       SCON1_OVR
      00000098H.7 SFRSYM    DATA     BIT       SCON0_SMODE
      000000B5H   SFRSYM    DATA     BYTE      DEVICEID
      000000A9H   SFRSYM    DATA     BYTE      CLKSEL
      000000F8H.0 SFRSYM    DATA     BIT       SPI0CN0_SPIEN
      000000F0H   SFRSYM    DATA     BYTE      B
      000000BEH   SFRSYM    DATA     BYTE      ADC0H
      000000E8H.6 SFRSYM    DATA     BIT       ADC0CN0_ADBMEN
      000000CAH   SFRSYM    DATA     WORD      TMR2RL
      000000BDH   SFRSYM    DATA     BYTE      ADC0L
      00000092H   SFRSYM    DATA     WORD      TMR3RL
      000000A2H   SFRSYM    DATA     WORD      TMR4RL
      000000D8H   SFRSYM    DATA     BYTE      PCA0CN0
      000000E0H   SFRSYM    DATA     BYTE      ACC
      000000FBH   SFRSYM    DATA     WORD      PCA0CP0
      000000E9H   SFRSYM    DATA     WORD      PCA0CP1
      000000EBH   SFRSYM    DATA     WORD      PCA0CP2
      000000BCH   SFRSYM    DATA     BYTE      I2C0DIN
      000000CEH   SFRSYM    DATA     BYTE      CRC0CN0
      0000008CH   SFRSYM    DATA     BYTE      TH0
      00000086H   SFRSYM    DATA     BYTE      CRC0CN1
      000000B8H.4 SFRSYM    DATA     BIT       IP_PS0
      000000FAH   SFRSYM    DATA     BYTE      UART1FCT
      0000008DH   SFRSYM    DATA     BYTE      TH1
      000000FAH   SFRSYM    DATA     BYTE      PCA0H
      000000F5H   SFRSYM    DATA     BYTE      I2C0FCT
      000000B8H.1 SFRSYM    DATA     BIT       IP_PT0
      000000B8H.3 SFRSYM    DATA     BIT       IP_PT1
      000000C0H.2 SFRSYM    DATA     BIT       SMB0CN0_ARBLOST
      000000B8H.5 SFRSYM    DATA     BIT       IP_PT2
      0000008AH   SFRSYM    DATA     BYTE      TL0
      000000D0H.5 SFRSYM    DATA     BIT       PSW_F0
      000000A8H.6 SFRSYM    DATA     BIT       IE_ESPI0
      0000008BH   SFRSYM    DATA     BYTE      TL1
      000000F9H   SFRSYM    DATA     BYTE      PCA0L
      000000C0H.0 SFRSYM    DATA     BIT       SMB0CN0_SI
      000000D0H.1 SFRSYM    DATA     BIT       PSW_F1
      00000080H.0 SFRSYM    DATA     BIT       P0_B0
      000000B8H.0 SFRSYM    DATA     BIT       IP_PX0
      00000090H.0 SFRSYM    DATA     BIT       P1_B0
      00000080H.1 SFRSYM    DATA     BIT       P0_B1
LX51 LINKER/LOCATER V4.66.97.0                                                        08/03/2020  08:45:41  PAGE 42


      000000B8H.2 SFRSYM    DATA     BIT       IP_PX1
      0000009EH   SFRSYM    DATA     BYTE      UART1LIN
      0000009BH   SFRSYM    DATA     BYTE      CMP0CN0
      00000088H.1 SFRSYM    DATA     BIT       TCON_IE0
      000000A0H.0 SFRSYM    DATA     BIT       P2_B0
      00000090H.1 SFRSYM    DATA     BIT       P1_B1
      00000080H.2 SFRSYM    DATA     BIT       P0_B2
      000000BFH   SFRSYM    DATA     BYTE      CMP1CN0
      00000099H   SFRSYM    DATA     BYTE      CMP0CN1
      00000088H.3 SFRSYM    DATA     BIT       TCON_IE1
      000000B0H.0 SFRSYM    DATA     BIT       P3_B0
      000000A0H.1 SFRSYM    DATA     BIT       P2_B1
      00000090H.2 SFRSYM    DATA     BIT       P1_B2
      00000080H.3 SFRSYM    DATA     BIT       P0_B3
      000000C0H   SFRSYM    DATA     BYTE      SMB0CN0
      000000ACH   SFRSYM    DATA     BYTE      CMP1CN1
      000000B0H.1 SFRSYM    DATA     BIT       P3_B1
      000000A0H.2 SFRSYM    DATA     BIT       P2_B2
      00000090H.3 SFRSYM    DATA     BIT       P1_B3
      00000080H.4 SFRSYM    DATA     BIT       P0_B4
      000000A0H.3 SFRSYM    DATA     BIT       P2_B3
      00000090H.4 SFRSYM    DATA     BIT       P1_B4
      00000080H.5 SFRSYM    DATA     BIT       P0_B5
      000000D8H.1 SFRSYM    DATA     BIT       UART1FCN1_RXTO0
      00000090H.5 SFRSYM    DATA     BIT       P1_B5
      00000080H.6 SFRSYM    DATA     BIT       P0_B6
      000000F5H   SFRSYM    DATA     BYTE      EIP1H
      000000D8H.2 SFRSYM    DATA     BIT       UART1FCN1_RXTO1
      00000090H.6 SFRSYM    DATA     BIT       P1_B6
      00000080H.7 SFRSYM    DATA     BIT       P0_B7
      000000C5H   SFRSYM    DATA     BYTE      SMB0RXLN
      000000F6H   SFRSYM    DATA     BYTE      EIP2H
      00000090H.7 SFRSYM    DATA     BIT       P1_B7
      00000083H   SFRSYM    DATA     BYTE      DPH
      000000C4H   SFRSYM    DATA     BYTE      ADC0GTH
      000000C8H.7 SFRSYM    DATA     BIT       TMR2CN0_TF2H
      000000C8H.3 SFRSYM    DATA     BIT       TMR2CN0_T2SPLIT
      000000D0H.6 SFRSYM    DATA     BIT       PSW_AC
      000000F8H   SFRSYM    DATA     BYTE      SPI0CN0
      000000C7H   SFRSYM    DATA     BYTE      HFO0CAL
      00000088H.5 SFRSYM    DATA     BIT       TCON_TF0
      00000098H.0 SFRSYM    DATA     BIT       SCON0_RI
      000000D6H   SFRSYM    DATA     BYTE      HFO1CAL
      00000082H   SFRSYM    DATA     BYTE      DPL
      00000088H.7 SFRSYM    DATA     BIT       TCON_TF1
      000000C8H.0 SFRSYM    DATA     BIT       SCON1_RI
      00000099H   SFRSYM    DATA     BYTE      SBUF0
      00000087H   SFRSYM    DATA     BYTE      PCON0
      000000F2H   SFRSYM    DATA     BYTE      IPH
      000000C3H   SFRSYM    DATA     BYTE      ADC0GTL
      00000098H.7 SFRSYM    DATA     BIT       TMR4CN0_TF4H
      00000098H.3 SFRSYM    DATA     BIT       TMR4CN0_T4SPLIT
      000000C8H.6 SFRSYM    DATA     BIT       TMR2CN0_TF2L
      00000098H.1 SFRSYM    DATA     BIT       SCON0_TI
      000000E8H.0 SFRSYM    DATA     BIT       ADC0CN0_ADCM0
      00000092H   SFRSYM    DATA     BYTE      SBUF1
      0000009AH   SFRSYM    DATA     BYTE      PCON1
      000000C6H   SFRSYM    DATA     BYTE      ADC0LTH
      00000088H.0 SFRSYM    DATA     BIT       TCON_IT0
      000000C8H.1 SFRSYM    DATA     BIT       SCON1_TI
      000000E8H.1 SFRSYM    DATA     BIT       ADC0CN0_ADCM1
      000000EFH   SFRSYM    DATA     BYTE      RSTSRC
LX51 LINKER/LOCATER V4.66.97.0                                                        08/03/2020  08:45:41  PAGE 43


      000000FDH   SFRSYM    DATA     BYTE      P0MAT
      000000DEH   SFRSYM    DATA     BYTE      CRC0DAT
      00000088H.2 SFRSYM    DATA     BIT       TCON_IT1
      000000E8H.2 SFRSYM    DATA     BIT       ADC0CN0_ADCM2
      000000D7H   SFRSYM    DATA     BYTE      SFRSTACK
      00000098H   SFRSYM    DATA     BYTE      SCON0
      000000F6H   SFRSYM    DATA     BYTE      PRTDRV
      000000EDH   SFRSYM    DATA     BYTE      P1MAT
      000000E8H.3 SFRSYM    DATA     BIT       ADC0CN0_ADWINT
      00000095H   SFRSYM    DATA     WORD      SBRL1
      00000093H   SFRSYM    DATA     BYTE      SMOD1
      000000C8H   SFRSYM    DATA     BYTE      SCON1
      000000FBH   SFRSYM    DATA     BYTE      P2MAT
      00000098H.6 SFRSYM    DATA     BIT       TMR4CN0_TF4L
      000000E8H.4 SFRSYM    DATA     BIT       ADC0CN0_ADBUSY
      000000D6H   SFRSYM    DATA     BYTE      SMB0ADM
      000000C5H   SFRSYM    DATA     BYTE      ADC0LTL
      000000F8H.5 SFRSYM    DATA     BIT       SPI0CN0_MODF
      000000B8H.6 SFRSYM    DATA     BIT       IP_PSPI0
      0000009CH   SFRSYM    DATA     BYTE      PCA0CLR
      000000C8H   SFRSYM    DATA     BYTE      TMR2CN0
      00000091H   SFRSYM    DATA     BYTE      TMR3CN0
      000000FDH   SFRSYM    DATA     BYTE      TMR2CN1
      00000098H   SFRSYM    DATA     BYTE      TMR4CN0
      000000FEH   SFRSYM    DATA     BYTE      TMR3CN1
      000000FFH   SFRSYM    DATA     BYTE      TMR4CN1
      000000D7H   SFRSYM    DATA     BYTE      SMB0ADR
      00000088H.4 SFRSYM    DATA     BIT       TCON_TR0
      000000C8H.4 SFRSYM    DATA     BIT       TMR2CN0_TF2CEN
      00000088H.6 SFRSYM    DATA     BIT       TCON_TR1
      000000C2H   SFRSYM    DATA     BYTE      SMB0DAT
      000000CDH   SFRSYM    DATA     BYTE      TMR2H
      000000A1H   SFRSYM    DATA     BYTE      SPI0CFG
      00000095H   SFRSYM    DATA     BYTE      TMR3H
      000000EFH   SFRSYM    DATA     BYTE      HFOCN
      000000D3H   SFRSYM    DATA     BYTE      CRC0CNT
      000000A5H   SFRSYM    DATA     BYTE      TMR4H
      00000098H.4 SFRSYM    DATA     BIT       TMR4CN0_TF4CEN
      000000EFH   SFRSYM    DATA     BYTE      SMB0FCT
      00000096H   SFRSYM    DATA     BYTE      PCA0POL
      000000CCH   SFRSYM    DATA     BYTE      TMR2L
      000000F8H.7 SFRSYM    DATA     BIT       SPI0CN0_SPIF
      00000094H   SFRSYM    DATA     BYTE      TMR3L
      000000DFH   SFRSYM    DATA     BYTE      ADC0PWR
      000000A8H.7 SFRSYM    DATA     BIT       IE_EA
      000000A4H   SFRSYM    DATA     BYTE      TMR4L
      000000C8H.5 SFRSYM    DATA     BIT       TMR2CN0_TF2LEN
      000000F8H.6 SFRSYM    DATA     BIT       SPI0CN0_WCOL
      000000F8H.2 SFRSYM    DATA     BIT       SPI0CN0_NSSMD0
      000000D0H.7 SFRSYM    DATA     BIT       PSW_CY
      0000009DH   SFRSYM    DATA     BYTE      UART1FCN0
      000000A3H   SFRSYM    DATA     BYTE      SPI0DAT
      000000ADH   SFRSYM    DATA     BYTE      I2C0FCN0
      000000F8H.3 SFRSYM    DATA     BIT       SPI0CN0_NSSMD1
      000000BDH   SFRSYM    DATA     WORD      ADC0
      000000D8H   SFRSYM    DATA     BYTE      UART1FCN1
      000000ABH   SFRSYM    DATA     BYTE      I2C0FCN1
      00000098H.5 SFRSYM    DATA     BIT       TMR4CN0_TF4LEN
      000000D0H   SFRSYM    DATA     BYTE      PSW
      000000F7H   SFRSYM    DATA     BYTE      PCA0PWM
      000000F7H   SFRSYM    DATA     BYTE      SPI0FCT
      000000B6H   SFRSYM    DATA     BYTE      REVID
LX51 LINKER/LOCATER V4.66.97.0                                                        08/03/2020  08:45:41  PAGE 44


      000000B7H   SFRSYM    DATA     BYTE      FLKEY
      000000B3H   SFRSYM    DATA     BYTE      ADC0AC
      00000007H   SYMBOL    DATA     BYTE      i

      010006E5H   BLOCK     CODE     ---       LVL=0
      010006E5H   BLOCK     CODE     NEAR LAB  LVL=1
      00000002H   SYMBOL    DATA     WORD      i
      02000267H   SYMBOL    XDATA    WORD      j
      ---         BLOCKEND  ---      ---       LVL=1
      010006E5H   LINE      CODE     ---       #119
      010006E5H   LINE      CODE     ---       #120
      010006E5H   LINE      CODE     ---       #122
      010006EAH   LINE      CODE     ---       #123
      010006ECH   LINE      CODE     ---       #124
      010006EEH   LINE      CODE     ---       #125
      010006F2H   LINE      CODE     ---       #126
      010006F5H   LINE      CODE     ---       #127
      010006F7H   LINE      CODE     ---       #128
      010006F9H   LINE      CODE     ---       #130
      010006FDH   LINE      CODE     ---       #134
      01000701H   LINE      CODE     ---       #135
      01000705H   LINE      CODE     ---       #136
      01000707H   LINE      CODE     ---       #137
      01000707H   LINE      CODE     ---       #138
      01000713H   LINE      CODE     ---       #139
      0100071EH   LINE      CODE     ---       #141
      01000725H   LINE      CODE     ---       #142
      01000727H   LINE      CODE     ---       #143
      01000729H   LINE      CODE     ---       #144
      01000729H   LINE      CODE     ---       #145
      01000735H   LINE      CODE     ---       #146
      01000740H   LINE      CODE     ---       #147
      01000747H   LINE      CODE     ---       #148
      01000749H   LINE      CODE     ---       #149
      01000749H   LINE      CODE     ---       #150
      01000755H   LINE      CODE     ---       #151
      01000760H   LINE      CODE     ---       #153
      01000765H   LINE      CODE     ---       #154
      01000767H   LINE      CODE     ---       #157
      0100076BH   LINE      CODE     ---       #158
      0100076DH   LINE      CODE     ---       #159
      0100076FH   LINE      CODE     ---       #160
      01000773H   LINE      CODE     ---       #161
      01000777H   LINE      CODE     ---       #162
      01000779H   LINE      CODE     ---       #167
      0100077DH   LINE      CODE     ---       #168
      0100077FH   LINE      CODE     ---       #169
      01000781H   LINE      CODE     ---       #170
      01000785H   LINE      CODE     ---       #171
      01000789H   LINE      CODE     ---       #172
      0100078BH   LINE      CODE     ---       #173
      0100078DH   LINE      CODE     ---       #174
      0100078FH   LINE      CODE     ---       #175
      0100078FH   LINE      CODE     ---       #176
      0100079BH   LINE      CODE     ---       #177
      010007A6H   LINE      CODE     ---       #178
      010007A9H   LINE      CODE     ---       #179
      010007A9H   LINE      CODE     ---       #180
      010007BEH   LINE      CODE     ---       #181
      010007D5H   LINE      CODE     ---       #182
      010007ECH   LINE      CODE     ---       #183
      01000801H   LINE      CODE     ---       #184
LX51 LINKER/LOCATER V4.66.97.0                                                        08/03/2020  08:45:41  PAGE 45


      01000816H   LINE      CODE     ---       #185
      0100082CH   LINE      CODE     ---       #186
      0100082CH   LINE      CODE     ---       #187
      0100084BH   LINE      CODE     ---       #188
      0100085BH   LINE      CODE     ---       #189
      01000870H   LINE      CODE     ---       #190
      01000885H   LINE      CODE     ---       #191
      0100089FH   LINE      CODE     ---       #192
      010008B9H   LINE      CODE     ---       #193
      010008CEH   LINE      CODE     ---       #194
      010008E3H   LINE      CODE     ---       #195
      010008F1H   LINE      CODE     ---       #197
      010008F6H   LINE      CODE     ---       #198
      010008F8H   LINE      CODE     ---       #199
      010008F8H   LINE      CODE     ---       #200
      01000904H   LINE      CODE     ---       #201
      01000919H   LINE      CODE     ---       #202
      01000928H   LINE      CODE     ---       #203
      01000934H   LINE      CODE     ---       #204
      01000941H   LINE      CODE     ---       #205
      0100094CH   LINE      CODE     ---       #207
      01000953H   LINE      CODE     ---       #208
      01000957H   LINE      CODE     ---       #209
      01000959H   LINE      CODE     ---       #210
      0100095BH   LINE      CODE     ---       #212
      ---         BLOCKEND  ---      ---       LVL=0

      01001D52H   BLOCK     CODE     ---       LVL=0
      01001D52H   BLOCK     CODE     NEAR LAB  LVL=1
      00000007H   SYMBOL    DATA     BYTE      i
      ---         BLOCKEND  ---      ---       LVL=1
      01001D52H   LINE      CODE     ---       #214
      01001D52H   LINE      CODE     ---       #215
      01001D52H   LINE      CODE     ---       #217
      01001D58H   LINE      CODE     ---       #218
      01001D5DH   LINE      CODE     ---       #219
      01001D69H   LINE      CODE     ---       #220
      01001D69H   LINE      CODE     ---       #221
      01001D76H   LINE      CODE     ---       #222
      01001D83H   LINE      CODE     ---       #223
      01001D86H   LINE      CODE     ---       #224
      01001D8CH   LINE      CODE     ---       #225
      01001D91H   LINE      CODE     ---       #226
      ---         BLOCKEND  ---      ---       LVL=0

      01001C82H   BLOCK     CODE     ---       LVL=0
      01001C82H   BLOCK     CODE     NEAR LAB  LVL=1
      00000007H   SYMBOL    DATA     BYTE      i
      ---         BLOCKEND  ---      ---       LVL=1
      01001C82H   LINE      CODE     ---       #229
      01001C82H   LINE      CODE     ---       #230
      01001C82H   LINE      CODE     ---       #237
      01001C90H   LINE      CODE     ---       #238
      01001C9CH   LINE      CODE     ---       #239
      01001C9CH   LINE      CODE     ---       #240
      01001CB4H   LINE      CODE     ---       #241
      01001CB4H   LINE      CODE     ---       #242
      01001CC7H   LINE      CODE     ---       #243
      01001CC7H   LINE      CODE     ---       #244
      01001CCAH   LINE      CODE     ---       #246
      ---         BLOCKEND  ---      ---       LVL=0

LX51 LINKER/LOCATER V4.66.97.0                                                        08/03/2020  08:45:41  PAGE 46


      010019A9H   BLOCK     CODE     ---       LVL=0
      010019A9H   BLOCK     CODE     NEAR LAB  LVL=1
      02000267H   SYMBOL    XDATA    BYTE      i
      ---         BLOCKEND  ---      ---       LVL=1
      010019A9H   LINE      CODE     ---       #324
      010019A9H   LINE      CODE     ---       #325
      010019A9H   LINE      CODE     ---       #328
      010019ACH   LINE      CODE     ---       #329
      010019BFH   LINE      CODE     ---       #330
      010019BFH   LINE      CODE     ---       #331
      010019C1H   LINE      CODE     ---       #333
      010019C8H   LINE      CODE     ---       #334
      010019D8H   LINE      CODE     ---       #335
      010019E3H   LINE      CODE     ---       #336
      010019E8H   LINE      CODE     ---       #337
      010019EAH   LINE      CODE     ---       #339
      010019F1H   LINE      CODE     ---       #340
      01001A01H   LINE      CODE     ---       #341
      01001A0BH   LINE      CODE     ---       #343
      01001A13H   LINE      CODE     ---       #344
      01001A15H   LINE      CODE     ---       #346
      01001A1FH   LINE      CODE     ---       #347
      ---         BLOCKEND  ---      ---       LVL=0

      01001F68H   BLOCK     CODE     ---       LVL=0
      01001F68H   LINE      CODE     ---       #381
      01001F68H   LINE      CODE     ---       #382
      01001F68H   LINE      CODE     ---       #383
      01001F79H   LINE      CODE     ---       #384
      01001F79H   LINE      CODE     ---       #385
      01001F85H   LINE      CODE     ---       #386
      01001F86H   LINE      CODE     ---       #388
      01001F86H   LINE      CODE     ---       #389
      01001F91H   LINE      CODE     ---       #390
      01001F91H   LINE      CODE     ---       #391
      ---         BLOCKEND  ---      ---       LVL=0

      010010E5H   BLOCK     CODE     ---       LVL=0
      010010E5H   LINE      CODE     ---       #403
      010010E5H   LINE      CODE     ---       #404
      010010E5H   LINE      CODE     ---       #405
      01001100H   LINE      CODE     ---       #406
      01001100H   LINE      CODE     ---       #407
      01001126H   LINE      CODE     ---       #409
      01001126H   LINE      CODE     ---       #410
      01001138H   LINE      CODE     ---       #411
      0100115FH   LINE      CODE     ---       #412
      0100116CH   LINE      CODE     ---       #413
      0100116CH   LINE      CODE     ---       #414
      0100116FH   LINE      CODE     ---       #415
      0100116FH   LINE      CODE     ---       #416
      01001171H   LINE      CODE     ---       #417
      01001197H   LINE      CODE     ---       #419
      01001197H   LINE      CODE     ---       #420
      010011A9H   LINE      CODE     ---       #421
      010011BCH   LINE      CODE     ---       #422
      010011BEH   LINE      CODE     ---       #424
      010011BEH   LINE      CODE     ---       #425
      010011CBH   LINE      CODE     ---       #426
      010011CBH   LINE      CODE     ---       #427
      010011CEH   LINE      CODE     ---       #428
      010011CEH   LINE      CODE     ---       #429
LX51 LINKER/LOCATER V4.66.97.0                                                        08/03/2020  08:45:41  PAGE 47


      010011CEH   LINE      CODE     ---       #430
      010011F2H   LINE      CODE     ---       #431
      01001208H   LINE      CODE     ---       #432
      0100120AH   LINE      CODE     ---       #434
      0100120AH   LINE      CODE     ---       #436
      01001231H   LINE      CODE     ---       #438
      01001231H   LINE      CODE     ---       #439
      0100123EH   LINE      CODE     ---       #440
      0100123EH   LINE      CODE     ---       #441
      01001241H   LINE      CODE     ---       #442
      01001241H   LINE      CODE     ---       #443
      01001243H   LINE      CODE     ---       #445
      01001243H   LINE      CODE     ---       #447
      01001250H   LINE      CODE     ---       #448
      01001250H   LINE      CODE     ---       #449
      01001253H   LINE      CODE     ---       #450
      01001253H   LINE      CODE     ---       #451
      01001253H   LINE      CODE     ---       #452
      01001253H   LINE      CODE     ---       #455
      ---         BLOCKEND  ---      ---       LVL=0

      01002115H   BLOCK     CODE     ---       LVL=0
      01002115H   LINE      CODE     ---       #462
      01002115H   LINE      CODE     ---       #463
      01002115H   LINE      CODE     ---       #464
      01002118H   LINE      CODE     ---       #465
      0100211BH   LINE      CODE     ---       #466
      ---         BLOCKEND  ---      ---       LVL=0

      01000003H   BLOCK     CODE     ---       LVL=0
      01000003H   LINE      CODE     ---       #469
      01000003H   LINE      CODE     ---       #470
      01000003H   LINE      CODE     ---       #471
      01000006H   LINE      CODE     ---       #472
      ---         BLOCKEND  ---      ---       LVL=0

      0100211EH   BLOCK     CODE     ---       LVL=0
      0100211EH   LINE      CODE     ---       #475
      0100211EH   LINE      CODE     ---       #476
      0100211EH   LINE      CODE     ---       #477
      01002123H   LINE      CODE     ---       #478
      ---         BLOCKEND  ---      ---       LVL=0

      010017A2H   BLOCK     CODE     ---       LVL=0
      010017A2H   BLOCK     CODE     NEAR LAB  LVL=1
      00000007H   SYMBOL    DATA     BYTE      i
      ---         BLOCKEND  ---      ---       LVL=1
      010017A2H   LINE      CODE     ---       #483
      010017A2H   LINE      CODE     ---       #484
      010017A2H   LINE      CODE     ---       #486
      010017B6H   LINE      CODE     ---       #487
      010017C8H   LINE      CODE     ---       #488
      010017DBH   LINE      CODE     ---       #489
      010017EBH   LINE      CODE     ---       #491
      010017F1H   LINE      CODE     ---       #492
      010017F6H   LINE      CODE     ---       #493
      010017FCH   LINE      CODE     ---       #494
      01001802H   LINE      CODE     ---       #496
      0100180DH   LINE      CODE     ---       #497
      0100180DH   LINE      CODE     ---       #498
      0100182BH   LINE      CODE     ---       #499
      0100182EH   LINE      CODE     ---       #500
LX51 LINKER/LOCATER V4.66.97.0                                                        08/03/2020  08:45:41  PAGE 48


      ---         BLOCKEND  ---      ---       LVL=0

      01001BD2H   BLOCK     CODE     ---       LVL=0
      01001BD2H   BLOCK     CODE     NEAR LAB  LVL=1
      00000007H   SYMBOL    DATA     BYTE      i
      ---         BLOCKEND  ---      ---       LVL=1
      01001BD2H   LINE      CODE     ---       #505
      01001BD2H   LINE      CODE     ---       #506
      01001BD2H   LINE      CODE     ---       #508
      01001BD7H   LINE      CODE     ---       #509
      01001BDBH   LINE      CODE     ---       #510
      01001BE1H   LINE      CODE     ---       #511
      01001BE4H   LINE      CODE     ---       #512
      01001BE8H   LINE      CODE     ---       #514
      01001BECH   LINE      CODE     ---       #515
      01001BF1H   LINE      CODE     ---       #516
      01001BFDH   LINE      CODE     ---       #517
      01001BFDH   LINE      CODE     ---       #518
      01001C0DH   LINE      CODE     ---       #519
      01001C10H   LINE      CODE     ---       #520
      01001C1CH   LINE      CODE     ---       #521
      01001C1CH   LINE      CODE     ---       #522
      01001C29H   LINE      CODE     ---       #523
      01001C2CH   LINE      CODE     ---       #524
      ---         BLOCKEND  ---      ---       LVL=0

      01001F92H   BLOCK     CODE     ---       LVL=0
      01001F92H   BLOCK     CODE     NEAR LAB  LVL=1
      00000006H   SYMBOL    DATA     WORD      i
      ---         BLOCKEND  ---      ---       LVL=1
      01001F92H   LINE      CODE     ---       #529
      01001F92H   LINE      CODE     ---       #530
      01001F92H   LINE      CODE     ---       #532
      01001F95H   LINE      CODE     ---       #533
      01001F95H   LINE      CODE     ---       #534
      01001FA1H   LINE      CODE     ---       #535
      01001FACH   LINE      CODE     ---       #536
      01001FB3H   LINE      CODE     ---       #537
      01001FB9H   LINE      CODE     ---       #538
      ---         BLOCKEND  ---      ---       LVL=0

      01001B09H   BLOCK     CODE     ---       LVL=0
      0200026FH   SYMBOL    XDATA    WORD      ObsTime
      00000004H   SYMBOL    DATA     WORD      EchoWidth
      00000001H   SYMBOL    DATA     BYTE      VolHeight
      01001B13H   BLOCK     CODE     NEAR LAB  LVL=1
      00000003H   SYMBOL    DATA     BYTE      ret
      00000007H   SYMBOL    DATA     BYTE      Index
      ---         BLOCKEND  ---      ---       LVL=1
      01001B09H   LINE      CODE     ---       #541
      01001B13H   LINE      CODE     ---       #542
      01001B13H   LINE      CODE     ---       #543
      01001B15H   LINE      CODE     ---       #546
      01001B1CH   LINE      CODE     ---       #547
      01001B47H   LINE      CODE     ---       #548
      01001B47H   LINE      CODE     ---       #549
      01001B5DH   LINE      CODE     ---       #550
      01001B6BH   LINE      CODE     ---       #551
      01001B6BH   LINE      CODE     ---       #552
      01001B6DH   LINE      CODE     ---       #553
      ---         BLOCKEND  ---      ---       LVL=0

LX51 LINKER/LOCATER V4.66.97.0                                                        08/03/2020  08:45:41  PAGE 49


      01001A96H   BLOCK     CODE     ---       LVL=0
      01001A96H   LINE      CODE     ---       #558
      01001A96H   LINE      CODE     ---       #559
      01001A96H   LINE      CODE     ---       #560
      01001AAAH   LINE      CODE     ---       #561
      01001ABAH   LINE      CODE     ---       #562
      01001ACAH   LINE      CODE     ---       #563
      01001ADFH   LINE      CODE     ---       #564
      01001AF8H   LINE      CODE     ---       #565
      01001B08H   LINE      CODE     ---       #566
      ---         BLOCKEND  ---      ---       LVL=0

      01001D0FH   BLOCK     CODE     ---       LVL=0
      0200026EH   SYMBOL    XDATA    ---       SP
      02000271H   SYMBOL    XDATA    ---       EP
      02000274H   SYMBOL    XDATA    BYTE      Len
      01001D1AH   BLOCK     CODE     NEAR LAB  LVL=1
      00000007H   SYMBOL    DATA     BYTE      i
      ---         BLOCKEND  ---      ---       LVL=1
      01001D0FH   LINE      CODE     ---       #568
      01001D1AH   LINE      CODE     ---       #569
      01001D1AH   LINE      CODE     ---       #571
      01001D26H   LINE      CODE     ---       #572
      01001D26H   LINE      CODE     ---       #573
      01001D4EH   LINE      CODE     ---       #574
      01001D51H   LINE      CODE     ---       #575
      ---         BLOCKEND  ---      ---       LVL=0

      01000B73H   BLOCK     CODE     ---       LVL=0
      01000B73H   BLOCK     CODE     NEAR LAB  LVL=1
      00000007H   SYMBOL    DATA     BYTE      i
      00000006H   SYMBOL    DATA     BYTE      j
      02000267H   SYMBOL    XDATA    BYTE      temp
      00000001H   SYMBOL    DATA     BYTE      add
      02000268H   SYMBOL    XDATA    WORD      AdLow
      0200026AH   SYMBOL    XDATA    WORD      AdMid
      0200026CH   SYMBOL    XDATA    WORD      AdHigh
      ---         BLOCKEND  ---      ---       LVL=1
      01000B73H   LINE      CODE     ---       #578
      01000B73H   LINE      CODE     ---       #579
      01000B73H   LINE      CODE     ---       #585
      01000B9AH   LINE      CODE     ---       #587
      01000BA2H   LINE      CODE     ---       #589
      01000BB6H   LINE      CODE     ---       #590
      01000BB6H   LINE      CODE     ---       #591
      01000BCBH   LINE      CODE     ---       #592
      01000BCBH   LINE      CODE     ---       #593
      01000BE7H   LINE      CODE     ---       #594
      01000BE7H   LINE      CODE     ---       #595
      01000BECH   LINE      CODE     ---       #596
      01000BF8H   LINE      CODE     ---       #597
      01000C04H   LINE      CODE     ---       #598
      01000C04H   LINE      CODE     ---       #599
      01000C07H   LINE      CODE     ---       #600
      01000C0AH   LINE      CODE     ---       #601
      01000C11H   LINE      CODE     ---       #602
      01000C15H   LINE      CODE     ---       #603
      01000C19H   LINE      CODE     ---       #604
      01000C2EH   LINE      CODE     ---       #605
      01000C2EH   LINE      CODE     ---       #606
      01000C47H   LINE      CODE     ---       #607
      01000C60H   LINE      CODE     ---       #608
LX51 LINKER/LOCATER V4.66.97.0                                                        08/03/2020  08:45:41  PAGE 50


      01000C79H   LINE      CODE     ---       #609
      01000C7CH   LINE      CODE     ---       #610
      01000C8EH   LINE      CODE     ---       #611
      01000C9EH   LINE      CODE     ---       #612
      01000CB6H   LINE      CODE     ---       #614
      01000CD5H   LINE      CODE     ---       #617
      01000CE0H   LINE      CODE     ---       #618
      01000CE0H   LINE      CODE     ---       #619
      01000CE3H   LINE      CODE     ---       #620
      01000CE5H   LINE      CODE     ---       #621
      01000CF0H   LINE      CODE     ---       #622
      01000CF0H   LINE      CODE     ---       #623
      01000CFAH   LINE      CODE     ---       #624
      01000D00H   LINE      CODE     ---       #625
      01000D0AH   LINE      CODE     ---       #626
      01000D0AH   LINE      CODE     ---       #632
      01000D1AH   LINE      CODE     ---       #633
      01000D1AH   LINE      CODE     ---       #634
      01000D1DH   LINE      CODE     ---       #635
      01000D31H   LINE      CODE     ---       #636
      01000D33H   LINE      CODE     ---       #637
      01000D45H   LINE      CODE     ---       #638
      01000D45H   LINE      CODE     ---       #639
      01000D52H   LINE      CODE     ---       #640
      01000D54H   LINE      CODE     ---       #642
      01000D54H   LINE      CODE     ---       #643
      01000D60H   LINE      CODE     ---       #644
      01000D60H   LINE      CODE     ---       #645
      01000D78H   LINE      CODE     ---       #647
      ---         BLOCKEND  ---      ---       LVL=0

      01000D7BH   BLOCK     CODE     ---       LVL=0
      01000D7BH   BLOCK     CODE     NEAR LAB  LVL=1
      00000002H   SYMBOL    DATA     WORD      i
      0200026FH   SYMBOL    XDATA    WORD      j
      02000271H   SYMBOL    XDATA    WORD      k
      00000007H   SYMBOL    DATA     BYTE      Temp
      02000273H   SYMBOL    XDATA    WORD      Temp1
      ---         BLOCKEND  ---      ---       LVL=1
      01000D7BH   LINE      CODE     ---       #652
      01000D7BH   LINE      CODE     ---       #653
      01000D7BH   LINE      CODE     ---       #654
      01000D7EH   LINE      CODE     ---       #655
      01000D84H   LINE      CODE     ---       #656
      01000D88H   LINE      CODE     ---       #657
      01000D89H   LINE      CODE     ---       #658
      01000D8DH   LINE      CODE     ---       #661
      01000D9AH   LINE      CODE     ---       #662
      01000D9AH   LINE      CODE     ---       #663
      01000DA7H   LINE      CODE     ---       #664
      01000DA7H   LINE      CODE     ---       #665
      01000DA8H   LINE      CODE     ---       #666
      01000DB1H   LINE      CODE     ---       #667
      01000DB9H   LINE      CODE     ---       #668
      01000DB9H   LINE      CODE     ---       #669
      01000DBFH   LINE      CODE     ---       #670
      01000DBFH   LINE      CODE     ---       #671
      01000DC1H   LINE      CODE     ---       #672
      01000DC1H   LINE      CODE     ---       #673
      01000DC8H   LINE      CODE     ---       #674
      01000DD8H   LINE      CODE     ---       #675
      01000DD8H   LINE      CODE     ---       #676
LX51 LINKER/LOCATER V4.66.97.0                                                        08/03/2020  08:45:41  PAGE 51


      01000DE4H   LINE      CODE     ---       #677
      01000DEBH   LINE      CODE     ---       #699
      01000E04H   LINE      CODE     ---       #700
      01000E04H   LINE      CODE     ---       #701
      01000E11H   LINE      CODE     ---       #702
      01000E11H   LINE      CODE     ---       #705
      01000E11H   LINE      CODE     ---       #706
      01000E29H   LINE      CODE     ---       #707
      01000E29H   LINE      CODE     ---       #708
      01000E29H   LINE      CODE     ---       #709
      01000E30H   LINE      CODE     ---       #713
      01000E4CH   LINE      CODE     ---       #714
      01000E4CH   LINE      CODE     ---       #715
      01000E97H   LINE      CODE     ---       #717
      01000E97H   LINE      CODE     ---       #718
      01000EBCH   LINE      CODE     ---       #719
      01000EBCH   LINE      CODE     ---       #720
      01000EE3H   LINE      CODE     ---       #721
      01000EE3H   LINE      CODE     ---       #722
      01000EF7H   LINE      CODE     ---       #723
      01000F13H   LINE      CODE     ---       #724
      01000F13H   LINE      CODE     ---       #725
      01000F2BH   LINE      CODE     ---       #726
      01000F3BH   LINE      CODE     ---       #727
      01000F3BH   LINE      CODE     ---       #728
      01000F3BH   LINE      CODE     ---       #729
      01000F4CH   LINE      CODE     ---       #730
      01000F4CH   LINE      CODE     ---       #731
      01000F54H   LINE      CODE     ---       #733
      ---         BLOCKEND  ---      ---       LVL=0

      0100009EH   BLOCK     CODE     ---       LVL=0
      0100009EH   BLOCK     CODE     NEAR LAB  LVL=1
      02000267H   SYMBOL    XDATA    WORD      i
      00000007H   SYMBOL    DATA     BYTE      Distc
      02000269H   SYMBOL    XDATA    WORD      EchoWidth
      0200026BH   SYMBOL    XDATA    WORD      ObsStartThre
      0200026DH   SYMBOL    XDATA    WORD      ObsExitThreFixed
      ---         BLOCKEND  ---      ---       LVL=1
      0100009EH   LINE      CODE     ---       #735
      0100009EH   LINE      CODE     ---       #736
      0100009EH   LINE      CODE     ---       #745
      010000C0H   LINE      CODE     ---       #747
      010000D2H   LINE      CODE     ---       #750
      010000D5H   LINE      CODE     ---       #752
      010000E7H   LINE      CODE     ---       #755
      01000105H   LINE      CODE     ---       #756
      01000105H   LINE      CODE     ---       #757
      0100014EH   LINE      CODE     ---       #758
      01000170H   LINE      CODE     ---       #759
      01000170H   LINE      CODE     ---       #760
      01000176H   LINE      CODE     ---       #761
      01000176H   LINE      CODE     ---       #764
      01000176H   LINE      CODE     ---       #765
      01000178H   LINE      CODE     ---       #766
      0100017DH   LINE      CODE     ---       #767
      01000196H   LINE      CODE     ---       #768
      0100019BH   LINE      CODE     ---       #769
      0100019DH   LINE      CODE     ---       #770
      010001A3H   LINE      CODE     ---       #771
      010001A3H   LINE      CODE     ---       #772
      010001A3H   LINE      CODE     ---       #773
LX51 LINKER/LOCATER V4.66.97.0                                                        08/03/2020  08:45:41  PAGE 52


      010001A3H   LINE      CODE     ---       #775
      010001D4H   LINE      CODE     ---       #776
      010001D4H   LINE      CODE     ---       #777
      010001DFH   LINE      CODE     ---       #778
      010001DFH   LINE      CODE     ---       #781
      010001DFH   LINE      CODE     ---       #782
      010001E0H   LINE      CODE     ---       #783
      010001FBH   LINE      CODE     ---       #785
      010001FBH   LINE      CODE     ---       #786
      0100020FH   LINE      CODE     ---       #787
      0100020FH   LINE      CODE     ---       #788
      0100021EH   LINE      CODE     ---       #790
      01000233H   LINE      CODE     ---       #791
      01000233H   LINE      CODE     ---       #792
      0100026AH   LINE      CODE     ---       #793
      01000284H   LINE      CODE     ---       #794
      01000295H   LINE      CODE     ---       #795
      01000298H   LINE      CODE     ---       #796
      01000298H   LINE      CODE     ---       #799
      010002B8H   LINE      CODE     ---       #803
      010002C5H   LINE      CODE     ---       #804
      010002C5H   LINE      CODE     ---       #805
      010002DDH   LINE      CODE     ---       #806
      010002E4H   LINE      CODE     ---       #807
      010002E4H   LINE      CODE     ---       #808
      01000312H   LINE      CODE     ---       #809
      01000328H   LINE      CODE     ---       #810
      01000328H   LINE      CODE     ---       #811
      01000337H   LINE      CODE     ---       #812
      0100033FH   LINE      CODE     ---       #813
      01000351H   LINE      CODE     ---       #814
      01000351H   LINE      CODE     ---       #815
      01000365H   LINE      CODE     ---       #816
      01000365H   LINE      CODE     ---       #817
      01000365H   LINE      CODE     ---       #818
      01000365H   LINE      CODE     ---       #819
      01000365H   LINE      CODE     ---       #820
      01000365H   LINE      CODE     ---       #822
      0100036DH   LINE      CODE     ---       #823
      0100036DH   LINE      CODE     ---       #824
      0100037BH   LINE      CODE     ---       #825
      01000395H   LINE      CODE     ---       #826
      01000395H   LINE      CODE     ---       #827
      01000397H   LINE      CODE     ---       #828
      01000397H   LINE      CODE     ---       #841
      010003C7H   LINE      CODE     ---       #842
      010003C7H   LINE      CODE     ---       #843
      010003DCH   LINE      CODE     ---       #844
      010003DCH   LINE      CODE     ---       #845
      010003E1H   LINE      CODE     ---       #846
      010003E1H   LINE      CODE     ---       #847
      010003E1H   LINE      CODE     ---       #850
      010003E1H   LINE      CODE     ---       #851
      010003F5H   LINE      CODE     ---       #853
      01000409H   LINE      CODE     ---       #855
      ---         BLOCKEND  ---      ---       LVL=0

      01001256H   BLOCK     CODE     ---       LVL=0
      01001256H   BLOCK     CODE     NEAR LAB  LVL=1
      0200026EH   SYMBOL    XDATA    WORD      i
      ---         BLOCKEND  ---      ---       LVL=1
      01001256H   LINE      CODE     ---       #857
LX51 LINKER/LOCATER V4.66.97.0                                                        08/03/2020  08:45:41  PAGE 53


      01001256H   LINE      CODE     ---       #858
      01001256H   LINE      CODE     ---       #859
      0100125DH   LINE      CODE     ---       #861
      0100126FH   LINE      CODE     ---       #864
      0100128DH   LINE      CODE     ---       #865
      0100128DH   LINE      CODE     ---       #866
      010012D6H   LINE      CODE     ---       #867
      010012FDH   LINE      CODE     ---       #868
      010012FDH   LINE      CODE     ---       #869
      01001303H   LINE      CODE     ---       #870
      01001303H   LINE      CODE     ---       #873
      01001303H   LINE      CODE     ---       #874
      01001305H   LINE      CODE     ---       #875
      0100130AH   LINE      CODE     ---       #876
      01001310H   LINE      CODE     ---       #877
      01001310H   LINE      CODE     ---       #878
      01001310H   LINE      CODE     ---       #879
      01001312H   LINE      CODE     ---       #880
      01001320H   LINE      CODE     ---       #881
      01001320H   LINE      CODE     ---       #882
      01001328H   LINE      CODE     ---       #883
      01001328H   LINE      CODE     ---       #886
      01001328H   LINE      CODE     ---       #887
      01001329H   LINE      CODE     ---       #888
      01001344H   LINE      CODE     ---       #890
      01001344H   LINE      CODE     ---       #891
      01001358H   LINE      CODE     ---       #892
      01001358H   LINE      CODE     ---       #893
      01001358H   LINE      CODE     ---       #894
      01001358H   LINE      CODE     ---       #895
      01001358H   LINE      CODE     ---       #897
      01001360H   LINE      CODE     ---       #898
      01001360H   LINE      CODE     ---       #899
      0100136EH   LINE      CODE     ---       #900
      01001388H   LINE      CODE     ---       #901
      01001388H   LINE      CODE     ---       #902
      0100138AH   LINE      CODE     ---       #903
      0100138AH   LINE      CODE     ---       #904
      0100138AH   LINE      CODE     ---       #905
      0100139EH   LINE      CODE     ---       #906
      ---         BLOCKEND  ---      ---       LVL=0

      0100095CH   BLOCK     CODE     ---       LVL=0
      0100095CH   LINE      CODE     ---       #911
      0100095CH   LINE      CODE     ---       #912
      0100095CH   LINE      CODE     ---       #913
      01000987H   LINE      CODE     ---       #914
      01000987H   LINE      CODE     ---       #915
      01000987H   LINE      CODE     ---       #917
      0100098AH   LINE      CODE     ---       #919
      01000995H   LINE      CODE     ---       #920
      01000995H   LINE      CODE     ---       #921
      01000996H   LINE      CODE     ---       #922
      01000999H   LINE      CODE     ---       #923
      0100099EH   LINE      CODE     ---       #924
      010009A4H   LINE      CODE     ---       #925
      010009A9H   LINE      CODE     ---       #926
      010009A9H   LINE      CODE     ---       #928
      010009AAH   LINE      CODE     ---       #929
      010009AAH   LINE      CODE     ---       #930
      010009BAH   LINE      CODE     ---       #932
      010009BAH   LINE      CODE     ---       #933
LX51 LINKER/LOCATER V4.66.97.0                                                        08/03/2020  08:45:41  PAGE 54


      010009C0H   LINE      CODE     ---       #934
      010009C0H   LINE      CODE     ---       #935
      010009C1H   LINE      CODE     ---       #936
      010009C1H   LINE      CODE     ---       #937
      010009C7H   LINE      CODE     ---       #938
      010009CAH   LINE      CODE     ---       #939
      010009CDH   LINE      CODE     ---       #940
      010009D0H   LINE      CODE     ---       #941
      010009D3H   LINE      CODE     ---       #942
      010009D9H   LINE      CODE     ---       #943
      010009DAH   LINE      CODE     ---       #944
      010009DAH   LINE      CODE     ---       #945
      010009E9H   LINE      CODE     ---       #947
      010009E9H   LINE      CODE     ---       #948
      010009ECH   LINE      CODE     ---       #949
      010009EFH   LINE      CODE     ---       #950
      010009F5H   LINE      CODE     ---       #951
      010009F5H   LINE      CODE     ---       #952
      010009F6H   LINE      CODE     ---       #953
      010009F6H   LINE      CODE     ---       #954
      010009F9H   LINE      CODE     ---       #955
      010009FCH   LINE      CODE     ---       #956
      010009FFH   LINE      CODE     ---       #958
      01000A02H   LINE      CODE     ---       #959
      01000A05H   LINE      CODE     ---       #960
      01000A0BH   LINE      CODE     ---       #961
      01000A29H   LINE      CODE     ---       #963
      01000A2FH   LINE      CODE     ---       #964
      01000A30H   LINE      CODE     ---       #965
      01000A30H   LINE      CODE     ---       #966
      01000A41H   LINE      CODE     ---       #968
      01000A41H   LINE      CODE     ---       #969
      01000A44H   LINE      CODE     ---       #970
      01000A47H   LINE      CODE     ---       #971
      01000A4DH   LINE      CODE     ---       #982
      01000A4DH   LINE      CODE     ---       #983
      01000A4EH   LINE      CODE     ---       #984
      01000A4EH   LINE      CODE     ---       #985
      01000A51H   LINE      CODE     ---       #993
      01000AECH   LINE      CODE     ---       #996
      01000AECH   LINE      CODE     ---       #997
      01000AF1H   LINE      CODE     ---       #998
      01000AF4H   LINE      CODE     ---       #999
      01000B08H   LINE      CODE     ---       #1000
      01000B0AH   LINE      CODE     ---       #1002
      01000B0AH   LINE      CODE     ---       #1003
      01000B0DH   LINE      CODE     ---       #1004
      01000B0DH   LINE      CODE     ---       #1005
      01000B13H   LINE      CODE     ---       #1006
      01000B14H   LINE      CODE     ---       #1007
      01000B14H   LINE      CODE     ---       #1008
      01000B17H   LINE      CODE     ---       #1009
      01000B25H   LINE      CODE     ---       #1010
      01000B32H   LINE      CODE     ---       #1011
      01000B32H   LINE      CODE     ---       #1012
      01000B35H   LINE      CODE     ---       #1013
      01000B53H   LINE      CODE     ---       #1014
      01000B5BH   LINE      CODE     ---       #1015
      01000B5BH   LINE      CODE     ---       #1016
      01000B5DH   LINE      CODE     ---       #1018
      01000B5DH   LINE      CODE     ---       #1019
      01000B60H   LINE      CODE     ---       #1020
LX51 LINKER/LOCATER V4.66.97.0                                                        08/03/2020  08:45:41  PAGE 55


      01000B66H   LINE      CODE     ---       #1021
      01000B6BH   LINE      CODE     ---       #1022
      01000B6BH   LINE      CODE     ---       #1023
      01000B6CH   LINE      CODE     ---       #1024
      01000B6CH   LINE      CODE     ---       #1025
      01000B72H   LINE      CODE     ---       #1026
      01000B72H   LINE      CODE     ---       #1027
      01000B72H   LINE      CODE     ---       #1028
      ---         BLOCKEND  ---      ---       LVL=0

      0100182FH   BLOCK     CODE     ---       LVL=0
      0100182FH   BLOCK     CODE     NEAR LAB  LVL=1
      00000007H   SYMBOL    DATA     BYTE      i
      ---         BLOCKEND  ---      ---       LVL=1
      0100182FH   LINE      CODE     ---       #1030
      0100182FH   LINE      CODE     ---       #1031
      0100182FH   LINE      CODE     ---       #1033
      01001834H   LINE      CODE     ---       #1034
      01001844H   LINE      CODE     ---       #1035
      01001858H   LINE      CODE     ---       #1036
      0100186BH   LINE      CODE     ---       #1037
      01001886H   LINE      CODE     ---       #1038
      0100188CH   LINE      CODE     ---       #1040
      01001892H   LINE      CODE     ---       #1041
      0100189EH   LINE      CODE     ---       #1042
      0100189EH   LINE      CODE     ---       #1043
      010018ABH   LINE      CODE     ---       #1044
      010018AEH   LINE      CODE     ---       #1045
      ---         BLOCKEND  ---      ---       LVL=0

      01000F55H   BLOCK     CODE     ---       LVL=0
      01000F55H   BLOCK     CODE     NEAR LAB  LVL=1
      00000005H   SYMBOL    DATA     BYTE      i
      00000006H   SYMBOL    DATA     BYTE      bDis
      00000007H   SYMBOL    DATA     BYTE      bDiff
      ---         BLOCKEND  ---      ---       LVL=1
      01000F55H   LINE      CODE     ---       #1050
      01000F55H   LINE      CODE     ---       #1051
      01000F55H   LINE      CODE     ---       #1055
      01000F57H   LINE      CODE     ---       #1056
      01000F63H   LINE      CODE     ---       #1057
      01000F63H   LINE      CODE     ---       #1058
      01000F81H   LINE      CODE     ---       #1059
      01000F81H   LINE      CODE     ---       #1060
      01000F8EH   LINE      CODE     ---       #1061
      01000F8EH   LINE      CODE     ---       #1062
      01000F91H   LINE      CODE     ---       #1064
      01000F9DH   LINE      CODE     ---       #1065
      01000F9DH   LINE      CODE     ---       #1066
      01000FAEH   LINE      CODE     ---       #1067
      01000FAEH   LINE      CODE     ---       #1068
      01000FB0H   LINE      CODE     ---       #1069
      01000FB0H   LINE      CODE     ---       #1070
      01000FB3H   LINE      CODE     ---       #1072
      01000FC0H   LINE      CODE     ---       #1073
      01000FC0H   LINE      CODE     ---       #1074
      01000FC9H   LINE      CODE     ---       #1075
      01000FC9H   LINE      CODE     ---       #1076
      01000FCCH   LINE      CODE     ---       #1077
      01000FCEH   LINE      CODE     ---       #1079
      01000FCEH   LINE      CODE     ---       #1080
      01000FE0H   LINE      CODE     ---       #1083
LX51 LINKER/LOCATER V4.66.97.0                                                        08/03/2020  08:45:41  PAGE 56


      01000FE0H   LINE      CODE     ---       #1085
      01000FEFH   LINE      CODE     ---       #1086
      01000FEFH   LINE      CODE     ---       #1087
      01000FEFH   LINE      CODE     ---       #1088
      01000FEFH   LINE      CODE     ---       #1090
      01000FF9H   LINE      CODE     ---       #1091
      01000FF9H   LINE      CODE     ---       #1110
      01001013H   LINE      CODE     ---       #1111
      01001013H   LINE      CODE     ---       #1112
      01001020H   LINE      CODE     ---       #1113
      01001020H   LINE      CODE     ---       #1114
      01001022H   LINE      CODE     ---       #1116
      01001022H   LINE      CODE     ---       #1117
      0100102DH   LINE      CODE     ---       #1118
      0100102DH   LINE      CODE     ---       #1119
      0100103BH   LINE      CODE     ---       #1120
      01001049H   LINE      CODE     ---       #1122
      01001054H   LINE      CODE     ---       #1123
      0100106AH   LINE      CODE     ---       #1124
      0100106CH   LINE      CODE     ---       #1125
      01001074H   LINE      CODE     ---       #1126
      01001074H   LINE      CODE     ---       #1127
      01001074H   LINE      CODE     ---       #1128
      01001074H   LINE      CODE     ---       #1129
      01001074H   LINE      CODE     ---       #1131
      01001074H   LINE      CODE     ---       #1132
      01001084H   LINE      CODE     ---       #1133
      01001097H   LINE      CODE     ---       #1134
      01001097H   LINE      CODE     ---       #1135
      01001097H   LINE      CODE     ---       #1138
      01001099H   LINE      CODE     ---       #1139
      010010A5H   LINE      CODE     ---       #1140
      010010A5H   LINE      CODE     ---       #1141
      010010B6H   LINE      CODE     ---       #1142
      010010B6H   LINE      CODE     ---       #1143
      010010B8H   LINE      CODE     ---       #1144
      010010B8H   LINE      CODE     ---       #1145
      010010BBH   LINE      CODE     ---       #1147
      010010C5H   LINE      CODE     ---       #1148
      010010C5H   LINE      CODE     ---       #1151
      010010C7H   LINE      CODE     ---       #1152
      010010D0H   LINE      CODE     ---       #1153
      010010D0H   LINE      CODE     ---       #1155
      010010D2H   LINE      CODE     ---       #1156
      010010D2H   LINE      CODE     ---       #1157
      010010D3H   LINE      CODE     ---       #1159
      010010D3H   LINE      CODE     ---       #1161
      010010D9H   LINE      CODE     ---       #1162
      010010E2H   LINE      CODE     ---       #1163
      010010E2H   LINE      CODE     ---       #1165
      010010E4H   LINE      CODE     ---       #1166
      010010E4H   LINE      CODE     ---       #1167
      010010E4H   LINE      CODE     ---       #1170
      ---         BLOCKEND  ---      ---       LVL=0

      01001653H   BLOCK     CODE     ---       LVL=0
      01001653H   BLOCK     CODE     NEAR LAB  LVL=1
      00000004H   SYMBOL    DATA     WORD      wRingTimeDiff
      ---         BLOCKEND  ---      ---       LVL=1
      01001653H   LINE      CODE     ---       #1176
      01001653H   LINE      CODE     ---       #1177
      01001653H   LINE      CODE     ---       #1180
LX51 LINKER/LOCATER V4.66.97.0                                                        08/03/2020  08:45:41  PAGE 57


      0100166CH   LINE      CODE     ---       #1181
      0100167EH   LINE      CODE     ---       #1183
      01001692H   LINE      CODE     ---       #1184
      01001692H   LINE      CODE     ---       #1185
      010016AAH   LINE      CODE     ---       #1186
      010016AAH   LINE      CODE     ---       #1188
      010016B4H   LINE      CODE     ---       #1189
      010016BDH   LINE      CODE     ---       #1190
      010016BDH   LINE      CODE     ---       #1191
      010016C6H   LINE      CODE     ---       #1192
      010016C6H   LINE      CODE     ---       #1193
      010016CCH   LINE      CODE     ---       #1194
      010016D8H   LINE      CODE     ---       #1195
      010016D8H   LINE      CODE     ---       #1196
      010016D8H   LINE      CODE     ---       #1197
      010016D8H   LINE      CODE     ---       #1198
      010016DAH   LINE      CODE     ---       #1200
      010016DAH   LINE      CODE     ---       #1201
      010016E3H   LINE      CODE     ---       #1202
      010016E3H   LINE      CODE     ---       #1203
      010016E9H   LINE      CODE     ---       #1204
      010016F5H   LINE      CODE     ---       #1205
      010016F5H   LINE      CODE     ---       #1206
      010016F5H   LINE      CODE     ---       #1207
      010016F5H   LINE      CODE     ---       #1208
      010016F7H   LINE      CODE     ---       #1210
      010016F7H   LINE      CODE     ---       #1211
      01001709H   LINE      CODE     ---       #1212
      0100170FH   LINE      CODE     ---       #1213
      0100170FH   LINE      CODE     ---       #1214
      01001712H   LINE      CODE     ---       #1215
      01001712H   LINE      CODE     ---       #1216
      01001712H   LINE      CODE     ---       #1217
      01001712H   LINE      CODE     ---       #1218
      01001712H   LINE      CODE     ---       #1219
      01001712H   LINE      CODE     ---       #1221
      01001712H   LINE      CODE     ---       #1222
      01001712H   LINE      CODE     ---       #1223
      01001712H   LINE      CODE     ---       #1224
      ---         BLOCKEND  ---      ---       LVL=0

      0100040AH   BLOCK     CODE     ---       LVL=0
      0100040AH   BLOCK     CODE     NEAR LAB  LVL=1
      02000267H   SYMBOL    XDATA    WORD      RingTimeDiff
      02000269H   SYMBOL    XDATA    BYTE      DistanceDiff
      0200026AH   SYMBOL    XDATA    ---       bObsDistance
      02000274H   SYMBOL    XDATA    ---       bEPDObsDistance
      00000001H   SYMBOL    DATA     BYTE      k
      00000003H   SYMBOL    DATA     BYTE      i
      00000002H   SYMBOL    DATA     BYTE      j
      ---         BLOCKEND  ---      ---       LVL=1
      0100040AH   LINE      CODE     ---       #1230
      0100040AH   LINE      CODE     ---       #1231
      0100040AH   LINE      CODE     ---       #1236
      0100040CH   LINE      CODE     ---       #1239
      01000417H   LINE      CODE     ---       #1240
      01000417H   LINE      CODE     ---       #1241
      01000418H   LINE      CODE     ---       #1243
      01000419H   LINE      CODE     ---       #1244
      01000433H   LINE      CODE     ---       #1245
      01000433H   LINE      CODE     ---       #1246
      01000450H   LINE      CODE     ---       #1247
LX51 LINKER/LOCATER V4.66.97.0                                                        08/03/2020  08:45:41  PAGE 58


      01000450H   LINE      CODE     ---       #1248
      0100045CH   LINE      CODE     ---       #1249
      0100045DH   LINE      CODE     ---       #1250
      0100045DH   LINE      CODE     ---       #1251
      01000460H   LINE      CODE     ---       #1252
      01000465H   LINE      CODE     ---       #1253
      01000482H   LINE      CODE     ---       #1255
      01000496H   LINE      CODE     ---       #1256
      01000496H   LINE      CODE     ---       #1257
      0100049FH   LINE      CODE     ---       #1258
      0100049FH   LINE      CODE     ---       #1259
      010004D3H   LINE      CODE     ---       #1260
      010004D3H   LINE      CODE     ---       #1261
      010004D3H   LINE      CODE     ---       #1262
      010004D3H   LINE      CODE     ---       #1263
      010004D3H   LINE      CODE     ---       #1264
      010004D3H   LINE      CODE     ---       #1265
      010004D6H   LINE      CODE     ---       #1267
      010004D6H   LINE      CODE     ---       #1269
      01000502H   LINE      CODE     ---       #1270
      01000502H   LINE      CODE     ---       #1271
      01000515H   LINE      CODE     ---       #1272
      01000517H   LINE      CODE     ---       #1274
      01000517H   LINE      CODE     ---       #1275
      01000533H   LINE      CODE     ---       #1276
      01000533H   LINE      CODE     ---       #1277
      01000542H   LINE      CODE     ---       #1278
      01000542H   LINE      CODE     ---       #1279
      01000551H   LINE      CODE     ---       #1280
      0100056EH   LINE      CODE     ---       #1281
      01000570H   LINE      CODE     ---       #1283
      01000570H   LINE      CODE     ---       #1285
      01000583H   LINE      CODE     ---       #1286
      01000590H   LINE      CODE     ---       #1287
      01000590H   LINE      CODE     ---       #1288
      01000593H   LINE      CODE     ---       #1289
      01000593H   LINE      CODE     ---       #1290
      010005A1H   LINE      CODE     ---       #1292
      010005A1H   LINE      CODE     ---       #1294
      010005ADH   LINE      CODE     ---       #1295
      010005ADH   LINE      CODE     ---       #1296
      010005D6H   LINE      CODE     ---       #1297
      010005D9H   LINE      CODE     ---       #1298
      010005DBH   LINE      CODE     ---       #1299
      010005E9H   LINE      CODE     ---       #1300
      010005E9H   LINE      CODE     ---       #1301
      01000606H   LINE      CODE     ---       #1302
      01000606H   LINE      CODE     ---       #1303
      01000615H   LINE      CODE     ---       #1304
      01000615H   LINE      CODE     ---       #1306
      01000625H   LINE      CODE     ---       #1307
      01000625H   LINE      CODE     ---       #1308
      01000633H   LINE      CODE     ---       #1309
      01000635H   LINE      CODE     ---       #1310
      01000652H   LINE      CODE     ---       #1311
      01000652H   LINE      CODE     ---       #1312
      0100065FH   LINE      CODE     ---       #1313
      0100065FH   LINE      CODE     ---       #1315
      01000677H   LINE      CODE     ---       #1316
      01000684H   LINE      CODE     ---       #1317
      01000685H   LINE      CODE     ---       #1318
      01000685H   LINE      CODE     ---       #1319
LX51 LINKER/LOCATER V4.66.97.0                                                        08/03/2020  08:45:41  PAGE 59


      01000685H   LINE      CODE     ---       #1320
      01000689H   LINE      CODE     ---       #1321
      0100068DH   LINE      CODE     ---       #1324
      01000694H   LINE      CODE     ---       #1325
      01000694H   LINE      CODE     ---       #1326
      010006ACH   LINE      CODE     ---       #1327
      010006AFH   LINE      CODE     ---       #1328
      010006B6H   LINE      CODE     ---       #1330
      010006DFH   LINE      CODE     ---       #1332
      010006DFH   LINE      CODE     ---       #1334
      010006E4H   LINE      CODE     ---       #1335
      010006E4H   LINE      CODE     ---       #1336
      010006E4H   LINE      CODE     ---       #1357
      ---         BLOCKEND  ---      ---       LVL=0

      ---         MODULE    ---      ---       EFM8BB2_FLASHPRIMITIVES
      000000A2H   SFRSYM    DATA     BYTE      SPI0CKR
      00000080H   SFRSYM    DATA     BYTE      P0
      000000C8H.6 SFRSYM    DATA     BIT       SCON1_PERR
      000000D0H.2 SFRSYM    DATA     BIT       PSW_OV
      00000090H   SFRSYM    DATA     BYTE      P1
      000000F8H.1 SFRSYM    DATA     BIT       SPI0CN0_TXNF
      00000097H   SFRSYM    DATA     BYTE      WDTCN
      000000A0H   SFRSYM    DATA     BYTE      P2
      000000B0H   SFRSYM    DATA     BYTE      P3
      000000BCH   SFRSYM    DATA     BYTE      ADC0CF
      000000C0H.7 SFRSYM    DATA     BIT       SMB0CN0_MASTER
      000000F9H   SFRSYM    DATA     WORD      PCA0
      000000E6H   SFRSYM    DATA     BYTE      EIE1
      000000C0H.1 SFRSYM    DATA     BIT       SMB0CN0_ACK
      000000CEH   SFRSYM    DATA     BYTE      EIE2
      0000008FH   SFRSYM    DATA     BYTE      PSCTL
      000000E4H   SFRSYM    DATA     BYTE      IT01CF
      000000C0H.6 SFRSYM    DATA     BIT       SMB0CN0_TXMODE
      000000ADH   SFRSYM    DATA     BYTE      DERIVID
      000000A7H   SFRSYM    DATA     BYTE      SFRPAGE
      000000A4H   SFRSYM    DATA     BYTE      P0MDOUT
      000000A5H   SFRSYM    DATA     BYTE      P1MDOUT
      000000E8H.5 SFRSYM    DATA     BIT       ADC0CN0_ADINT
      000000CBH   SFRSYM    DATA     BYTE      TMR2RLH
      000000A6H   SFRSYM    DATA     BYTE      P2MDOUT
      000000A8H   SFRSYM    DATA     BYTE      IE
      00000093H   SFRSYM    DATA     BYTE      TMR3RLH
      0000009CH   SFRSYM    DATA     BYTE      P3MDOUT
      000000A3H   SFRSYM    DATA     BYTE      TMR4RLH
      000000F3H   SFRSYM    DATA     BYTE      EIP1
      000000F4H   SFRSYM    DATA     BYTE      EIP2
      00000098H.2 SFRSYM    DATA     BIT       SCON0_RB8
      000000CAH   SFRSYM    DATA     BYTE      TMR2RLL
      000000FCH   SFRSYM    DATA     BYTE      PCA0CPH0
      00000092H   SFRSYM    DATA     BYTE      TMR3RLL
      000000EAH   SFRSYM    DATA     BYTE      PCA0CPH1
      00000098H.3 SFRSYM    DATA     BIT       SCON0_TB8
      000000F0H.0 SFRSYM    DATA     BIT       B_B0
      00000082H   SFRSYM    DATA     WORD      DP
      000000A2H   SFRSYM    DATA     BYTE      TMR4RLL
      000000ECH   SFRSYM    DATA     BYTE      PCA0CPH2
      000000F0H.1 SFRSYM    DATA     BIT       B_B1
      000000C3H   SFRSYM    DATA     WORD      ADC0GT
      000000BDH   SFRSYM    DATA     BYTE      I2C0SLAD
      000000D8H.3 SFRSYM    DATA     BIT       UART1FCN1_RFRQ
      000000F0H.2 SFRSYM    DATA     BIT       B_B2
LX51 LINKER/LOCATER V4.66.97.0                                                        08/03/2020  08:45:41  PAGE 60


      000000CFH   SFRSYM    DATA     BYTE      SFRPGCN
      000000FBH   SFRSYM    DATA     BYTE      PCA0CPL0
      000000F0H.3 SFRSYM    DATA     BIT       B_B3
      000000D9H   SFRSYM    DATA     BYTE      PCA0MD
      000000DAH   SFRSYM    DATA     BYTE      PCA0CPM0
      000000E9H   SFRSYM    DATA     BYTE      PCA0CPL1
      000000D8H.7 SFRSYM    DATA     BIT       UART1FCN1_TFRQ
      000000F0H.4 SFRSYM    DATA     BIT       B_B4
      000000DBH   SFRSYM    DATA     BYTE      PCA0CPM1
      000000EBH   SFRSYM    DATA     BYTE      PCA0CPL2
      000000F0H.5 SFRSYM    DATA     BIT       B_B5
      000000DCH   SFRSYM    DATA     BYTE      PCA0CPM2
      000000B8H   SFRSYM    DATA     BYTE      IP
      000000B9H   SFRSYM    DATA     BYTE      ADC0TK
      000000F0H.6 SFRSYM    DATA     BIT       B_B6
      000000C5H   SFRSYM    DATA     WORD      ADC0LT
      000000D8H.6 SFRSYM    DATA     BIT       UART1FCN1_TXNF
      00000098H.5 SFRSYM    DATA     BIT       SCON0_MCE
      000000F0H.7 SFRSYM    DATA     BIT       B_B7
      000000C3H   SFRSYM    DATA     BYTE      SMB0FCN0
      000000E1H   SFRSYM    DATA     BYTE      XBR0
      000000C4H   SFRSYM    DATA     BYTE      SMB0FCN1
      000000C1H   SFRSYM    DATA     BYTE      SMB0CF
      000000E2H   SFRSYM    DATA     BYTE      XBR1
      000000C1H   SFRSYM    DATA     BYTE      PFE0CN
      000000E7H   SFRSYM    DATA     BYTE      EMI0CN
      000000C0H.5 SFRSYM    DATA     BIT       SMB0CN0_STA
      000000E3H   SFRSYM    DATA     BYTE      XBR2
      000000BBH   SFRSYM    DATA     BYTE      ADC0MX
      000000E0H.0 SFRSYM    DATA     BIT       ACC_ACC0
      000000D1H   SFRSYM    DATA     BYTE      REF0CN
      0000008EH   SFRSYM    DATA     BYTE      CKCON0
      000000E0H.1 SFRSYM    DATA     BIT       ACC_ACC1
      000000C9H   SFRSYM    DATA     BYTE      REG0CN
      000000DDH   SFRSYM    DATA     BYTE      CRC0IN
      000000A6H   SFRSYM    DATA     BYTE      CKCON1
      000000C8H.2 SFRSYM    DATA     BIT       TMR2CN0_TR2
      000000E0H.2 SFRSYM    DATA     BIT       ACC_ACC2
      000000C6H   SFRSYM    DATA     BYTE      REG1CN
      000000E0H.3 SFRSYM    DATA     BIT       ACC_ACC3
      00000081H   SFRSYM    DATA     BYTE      SP
      0000009DH   SFRSYM    DATA     BYTE      CMP0MD
      000000E0H.4 SFRSYM    DATA     BIT       ACC_ACC4
      000000B1H   SFRSYM    DATA     BYTE      LFO0CN
      000000ABH   SFRSYM    DATA     BYTE      CMP1MD
      000000D8H.0 SFRSYM    DATA     BIT       PCA0CN0_CCF0
      000000E0H.5 SFRSYM    DATA     BIT       ACC_ACC5
      00000098H.2 SFRSYM    DATA     BIT       TMR4CN0_TR4
      000000D8H.1 SFRSYM    DATA     BIT       PCA0CN0_CCF1
      000000E0H.6 SFRSYM    DATA     BIT       ACC_ACC6
      000000CCH   SFRSYM    DATA     WORD      TMR2
      0000009AH   SFRSYM    DATA     BYTE      SPI0FCN0
      000000D8H.2 SFRSYM    DATA     BIT       PCA0CN0_CCF2
      000000E0H.7 SFRSYM    DATA     BIT       ACC_ACC7
      00000094H   SFRSYM    DATA     WORD      TMR3
      0000009BH   SFRSYM    DATA     BYTE      SPI0FCN1
      000000A4H   SFRSYM    DATA     WORD      TMR4
      00000094H   SFRSYM    DATA     BYTE      SBCON1
      000000C0H.3 SFRSYM    DATA     BIT       SMB0CN0_ACKRQ
      000000FFH   SFRSYM    DATA     BYTE      VDM0CN
      000000F1H   SFRSYM    DATA     BYTE      P0MDIN
      00000098H.4 SFRSYM    DATA     BIT       SCON0_REN
LX51 LINKER/LOCATER V4.66.97.0                                                        08/03/2020  08:45:41  PAGE 61


      000000ACH   SFRSYM    DATA     BYTE      SMB0TC
      000000F2H   SFRSYM    DATA     BYTE      P1MDIN
      000000C8H.4 SFRSYM    DATA     BIT       SCON1_REN
      000000F3H   SFRSYM    DATA     BYTE      P2MDIN
      000000C0H.4 SFRSYM    DATA     BIT       SMB0CN0_STO
      000000F4H   SFRSYM    DATA     BYTE      P3MDIN
      000000B9H   SFRSYM    DATA     BYTE      I2C0STAT
      000000BBH   SFRSYM    DATA     BYTE      I2C0DOUT
      00000096H   SFRSYM    DATA     BYTE      SBRLH1
      000000FEH   SFRSYM    DATA     BYTE      P0MASK
      000000D8H.5 SFRSYM    DATA     BIT       UART1FCN1_TXHOLD
      000000EEH   SFRSYM    DATA     BYTE      P1MASK
      000000FCH   SFRSYM    DATA     BYTE      P2MASK
      000000D0H.3 SFRSYM    DATA     BIT       PSW_RS0
      000000D8H.7 SFRSYM    DATA     BIT       PCA0CN0_CF
      0000009EH   SFRSYM    DATA     BYTE      PCA0CENT
      000000BAH   SFRSYM    DATA     BYTE      I2C0CN0
      000000D2H   SFRSYM    DATA     BYTE      CRC0ST
      000000F8H.4 SFRSYM    DATA     BIT       SPI0CN0_RXOVRN
      000000D0H.4 SFRSYM    DATA     BIT       PSW_RS1
      00000095H   SFRSYM    DATA     BYTE      SBRLL1
      000000C8H.2 SFRSYM    DATA     BIT       SCON1_RBX
      000000C8H.0 SFRSYM    DATA     BIT       TMR2CN0_T2XCLK0
      000000C8H.1 SFRSYM    DATA     BIT       TMR2CN0_T2XCLK1
      000000C8H.3 SFRSYM    DATA     BIT       SCON1_TBX
      000000E8H.7 SFRSYM    DATA     BIT       ADC0CN0_ADEN
      00000089H   SFRSYM    DATA     BYTE      TMOD
      00000088H   SFRSYM    DATA     BYTE      TCON
      000000CFH   SFRSYM    DATA     BYTE      CRC0FLIP
      000000D0H.0 SFRSYM    DATA     BIT       PSW_PARITY
      000000A8H.4 SFRSYM    DATA     BIT       IE_ES0
      0000009FH   SFRSYM    DATA     BYTE      CMP0MX
      00000098H.0 SFRSYM    DATA     BIT       TMR4CN0_T4XCLK0
      000000A8H.1 SFRSYM    DATA     BIT       IE_ET0
      000000AAH   SFRSYM    DATA     BYTE      CMP1MX
      00000098H.1 SFRSYM    DATA     BIT       TMR4CN0_T4XCLK1
      000000A8H.3 SFRSYM    DATA     BIT       IE_ET1
      000000D4H   SFRSYM    DATA     BYTE      P0SKIP
      000000D8H.0 SFRSYM    DATA     BIT       UART1FCN1_RIE
      000000A8H.5 SFRSYM    DATA     BIT       IE_ET2
      000000D5H   SFRSYM    DATA     BYTE      P1SKIP
      000000CCH   SFRSYM    DATA     BYTE      P2SKIP
      000000E8H   SFRSYM    DATA     BYTE      ADC0CN0
      000000D8H.4 SFRSYM    DATA     BIT       UART1FCN1_TIE
      000000A8H.0 SFRSYM    DATA     BIT       IE_EX0
      000000B2H   SFRSYM    DATA     BYTE      ADC0CN1
      000000D8H.6 SFRSYM    DATA     BIT       PCA0CN0_CR
      000000A8H.2 SFRSYM    DATA     BIT       IE_EX1
      000000C8H.7 SFRSYM    DATA     BIT       SCON1_OVR
      00000098H.7 SFRSYM    DATA     BIT       SCON0_SMODE
      000000B5H   SFRSYM    DATA     BYTE      DEVICEID
      000000A9H   SFRSYM    DATA     BYTE      CLKSEL
      000000F8H.0 SFRSYM    DATA     BIT       SPI0CN0_SPIEN
      000000F0H   SFRSYM    DATA     BYTE      B
      000000BEH   SFRSYM    DATA     BYTE      ADC0H
      000000E8H.6 SFRSYM    DATA     BIT       ADC0CN0_ADBMEN
      000000CAH   SFRSYM    DATA     WORD      TMR2RL
      000000BDH   SFRSYM    DATA     BYTE      ADC0L
      00000092H   SFRSYM    DATA     WORD      TMR3RL
      000000A2H   SFRSYM    DATA     WORD      TMR4RL
      000000D8H   SFRSYM    DATA     BYTE      PCA0CN0
      000000E0H   SFRSYM    DATA     BYTE      ACC
LX51 LINKER/LOCATER V4.66.97.0                                                        08/03/2020  08:45:41  PAGE 62


      000000FBH   SFRSYM    DATA     WORD      PCA0CP0
      000000E9H   SFRSYM    DATA     WORD      PCA0CP1
      000000EBH   SFRSYM    DATA     WORD      PCA0CP2
      000000BCH   SFRSYM    DATA     BYTE      I2C0DIN
      000000CEH   SFRSYM    DATA     BYTE      CRC0CN0
      0000008CH   SFRSYM    DATA     BYTE      TH0
      00000086H   SFRSYM    DATA     BYTE      CRC0CN1
      000000B8H.4 SFRSYM    DATA     BIT       IP_PS0
      000000FAH   SFRSYM    DATA     BYTE      UART1FCT
      0000008DH   SFRSYM    DATA     BYTE      TH1
      000000FAH   SFRSYM    DATA     BYTE      PCA0H
      000000F5H   SFRSYM    DATA     BYTE      I2C0FCT
      000000B8H.1 SFRSYM    DATA     BIT       IP_PT0
      000000B8H.3 SFRSYM    DATA     BIT       IP_PT1
      000000C0H.2 SFRSYM    DATA     BIT       SMB0CN0_ARBLOST
      000000B8H.5 SFRSYM    DATA     BIT       IP_PT2
      0000008AH   SFRSYM    DATA     BYTE      TL0
      000000D0H.5 SFRSYM    DATA     BIT       PSW_F0
      000000A8H.6 SFRSYM    DATA     BIT       IE_ESPI0
      0000008BH   SFRSYM    DATA     BYTE      TL1
      000000F9H   SFRSYM    DATA     BYTE      PCA0L
      000000C0H.0 SFRSYM    DATA     BIT       SMB0CN0_SI
      000000D0H.1 SFRSYM    DATA     BIT       PSW_F1
      00000080H.0 SFRSYM    DATA     BIT       P0_B0
      000000B8H.0 SFRSYM    DATA     BIT       IP_PX0
      00000090H.0 SFRSYM    DATA     BIT       P1_B0
      00000080H.1 SFRSYM    DATA     BIT       P0_B1
      000000B8H.2 SFRSYM    DATA     BIT       IP_PX1
      0000009EH   SFRSYM    DATA     BYTE      UART1LIN
      0000009BH   SFRSYM    DATA     BYTE      CMP0CN0
      00000088H.1 SFRSYM    DATA     BIT       TCON_IE0
      000000A0H.0 SFRSYM    DATA     BIT       P2_B0
      00000090H.1 SFRSYM    DATA     BIT       P1_B1
      00000080H.2 SFRSYM    DATA     BIT       P0_B2
      000000BFH   SFRSYM    DATA     BYTE      CMP1CN0
      00000099H   SFRSYM    DATA     BYTE      CMP0CN1
      00000088H.3 SFRSYM    DATA     BIT       TCON_IE1
      000000B0H.0 SFRSYM    DATA     BIT       P3_B0
      000000A0H.1 SFRSYM    DATA     BIT       P2_B1
      00000090H.2 SFRSYM    DATA     BIT       P1_B2
      00000080H.3 SFRSYM    DATA     BIT       P0_B3
      000000C0H   SFRSYM    DATA     BYTE      SMB0CN0
      000000ACH   SFRSYM    DATA     BYTE      CMP1CN1
      000000B0H.1 SFRSYM    DATA     BIT       P3_B1
      000000A0H.2 SFRSYM    DATA     BIT       P2_B2
      00000090H.3 SFRSYM    DATA     BIT       P1_B3
      00000080H.4 SFRSYM    DATA     BIT       P0_B4
      000000A0H.3 SFRSYM    DATA     BIT       P2_B3
      00000090H.4 SFRSYM    DATA     BIT       P1_B4
      00000080H.5 SFRSYM    DATA     BIT       P0_B5
      000000D8H.1 SFRSYM    DATA     BIT       UART1FCN1_RXTO0
      00000090H.5 SFRSYM    DATA     BIT       P1_B5
      00000080H.6 SFRSYM    DATA     BIT       P0_B6
      000000F5H   SFRSYM    DATA     BYTE      EIP1H
      000000D8H.2 SFRSYM    DATA     BIT       UART1FCN1_RXTO1
      00000090H.6 SFRSYM    DATA     BIT       P1_B6
      00000080H.7 SFRSYM    DATA     BIT       P0_B7
      000000C5H   SFRSYM    DATA     BYTE      SMB0RXLN
      000000F6H   SFRSYM    DATA     BYTE      EIP2H
      00000090H.7 SFRSYM    DATA     BIT       P1_B7
      00000083H   SFRSYM    DATA     BYTE      DPH
      000000C4H   SFRSYM    DATA     BYTE      ADC0GTH
LX51 LINKER/LOCATER V4.66.97.0                                                        08/03/2020  08:45:41  PAGE 63


      000000C8H.7 SFRSYM    DATA     BIT       TMR2CN0_TF2H
      000000C8H.3 SFRSYM    DATA     BIT       TMR2CN0_T2SPLIT
      000000D0H.6 SFRSYM    DATA     BIT       PSW_AC
      000000F8H   SFRSYM    DATA     BYTE      SPI0CN0
      000000C7H   SFRSYM    DATA     BYTE      HFO0CAL
      00000088H.5 SFRSYM    DATA     BIT       TCON_TF0
      00000098H.0 SFRSYM    DATA     BIT       SCON0_RI
      000000D6H   SFRSYM    DATA     BYTE      HFO1CAL
      00000082H   SFRSYM    DATA     BYTE      DPL
      00000088H.7 SFRSYM    DATA     BIT       TCON_TF1
      000000C8H.0 SFRSYM    DATA     BIT       SCON1_RI
      00000099H   SFRSYM    DATA     BYTE      SBUF0
      00000087H   SFRSYM    DATA     BYTE      PCON0
      000000F2H   SFRSYM    DATA     BYTE      IPH
      000000C3H   SFRSYM    DATA     BYTE      ADC0GTL
      00000098H.7 SFRSYM    DATA     BIT       TMR4CN0_TF4H
      00000098H.3 SFRSYM    DATA     BIT       TMR4CN0_T4SPLIT
      000000C8H.6 SFRSYM    DATA     BIT       TMR2CN0_TF2L
      00000098H.1 SFRSYM    DATA     BIT       SCON0_TI
      000000E8H.0 SFRSYM    DATA     BIT       ADC0CN0_ADCM0
      00000092H   SFRSYM    DATA     BYTE      SBUF1
      0000009AH   SFRSYM    DATA     BYTE      PCON1
      000000C6H   SFRSYM    DATA     BYTE      ADC0LTH
      00000088H.0 SFRSYM    DATA     BIT       TCON_IT0
      000000C8H.1 SFRSYM    DATA     BIT       SCON1_TI
      000000E8H.1 SFRSYM    DATA     BIT       ADC0CN0_ADCM1
      000000EFH   SFRSYM    DATA     BYTE      RSTSRC
      000000FDH   SFRSYM    DATA     BYTE      P0MAT
      000000DEH   SFRSYM    DATA     BYTE      CRC0DAT
      00000088H.2 SFRSYM    DATA     BIT       TCON_IT1
      000000E8H.2 SFRSYM    DATA     BIT       ADC0CN0_ADCM2
      000000D7H   SFRSYM    DATA     BYTE      SFRSTACK
      00000098H   SFRSYM    DATA     BYTE      SCON0
      000000F6H   SFRSYM    DATA     BYTE      PRTDRV
      000000EDH   SFRSYM    DATA     BYTE      P1MAT
      000000E8H.3 SFRSYM    DATA     BIT       ADC0CN0_ADWINT
      00000095H   SFRSYM    DATA     WORD      SBRL1
      00000093H   SFRSYM    DATA     BYTE      SMOD1
      000000C8H   SFRSYM    DATA     BYTE      SCON1
      000000FBH   SFRSYM    DATA     BYTE      P2MAT
      00000098H.6 SFRSYM    DATA     BIT       TMR4CN0_TF4L
      000000E8H.4 SFRSYM    DATA     BIT       ADC0CN0_ADBUSY
      000000D6H   SFRSYM    DATA     BYTE      SMB0ADM
      000000C5H   SFRSYM    DATA     BYTE      ADC0LTL
      000000F8H.5 SFRSYM    DATA     BIT       SPI0CN0_MODF
      000000B8H.6 SFRSYM    DATA     BIT       IP_PSPI0
      0000009CH   SFRSYM    DATA     BYTE      PCA0CLR
      000000C8H   SFRSYM    DATA     BYTE      TMR2CN0
      00000091H   SFRSYM    DATA     BYTE      TMR3CN0
      000000FDH   SFRSYM    DATA     BYTE      TMR2CN1
      00000098H   SFRSYM    DATA     BYTE      TMR4CN0
      000000FEH   SFRSYM    DATA     BYTE      TMR3CN1
      000000FFH   SFRSYM    DATA     BYTE      TMR4CN1
      000000D7H   SFRSYM    DATA     BYTE      SMB0ADR
      00000088H.4 SFRSYM    DATA     BIT       TCON_TR0
      000000C8H.4 SFRSYM    DATA     BIT       TMR2CN0_TF2CEN
      00000088H.6 SFRSYM    DATA     BIT       TCON_TR1
      000000C2H   SFRSYM    DATA     BYTE      SMB0DAT
      000000CDH   SFRSYM    DATA     BYTE      TMR2H
      000000A1H   SFRSYM    DATA     BYTE      SPI0CFG
      00000095H   SFRSYM    DATA     BYTE      TMR3H
      000000EFH   SFRSYM    DATA     BYTE      HFOCN
LX51 LINKER/LOCATER V4.66.97.0                                                        08/03/2020  08:45:41  PAGE 64


      000000D3H   SFRSYM    DATA     BYTE      CRC0CNT
      000000A5H   SFRSYM    DATA     BYTE      TMR4H
      00000098H.4 SFRSYM    DATA     BIT       TMR4CN0_TF4CEN
      000000EFH   SFRSYM    DATA     BYTE      SMB0FCT
      00000096H   SFRSYM    DATA     BYTE      PCA0POL
      000000CCH   SFRSYM    DATA     BYTE      TMR2L
      000000F8H.7 SFRSYM    DATA     BIT       SPI0CN0_SPIF
      00000094H   SFRSYM    DATA     BYTE      TMR3L
      000000DFH   SFRSYM    DATA     BYTE      ADC0PWR
      000000A8H.7 SFRSYM    DATA     BIT       IE_EA
      000000A4H   SFRSYM    DATA     BYTE      TMR4L
      000000C8H.5 SFRSYM    DATA     BIT       TMR2CN0_TF2LEN
      000000F8H.6 SFRSYM    DATA     BIT       SPI0CN0_WCOL
      000000F8H.2 SFRSYM    DATA     BIT       SPI0CN0_NSSMD0
      000000D0H.7 SFRSYM    DATA     BIT       PSW_CY
      0000009DH   SFRSYM    DATA     BYTE      UART1FCN0
      000000A3H   SFRSYM    DATA     BYTE      SPI0DAT
      000000ADH   SFRSYM    DATA     BYTE      I2C0FCN0
      000000F8H.3 SFRSYM    DATA     BIT       SPI0CN0_NSSMD1
      000000BDH   SFRSYM    DATA     WORD      ADC0
      000000D8H   SFRSYM    DATA     BYTE      UART1FCN1
      000000ABH   SFRSYM    DATA     BYTE      I2C0FCN1
      00000098H.5 SFRSYM    DATA     BIT       TMR4CN0_TF4LEN
      000000D0H   SFRSYM    DATA     BYTE      PSW
      000000F7H   SFRSYM    DATA     BYTE      PCA0PWM
      000000F7H   SFRSYM    DATA     BYTE      SPI0FCT
      000000B6H   SFRSYM    DATA     BYTE      REVID
      000000B7H   SFRSYM    DATA     BYTE      FLKEY
      000000B3H   SFRSYM    DATA     BYTE      ADC0AC
      00000006H   SYMBOL    DATA     WORD      addr
      00000005H   SYMBOL    DATA     BYTE      byte
      00000082H   SYMBOL    DATA     ---       pwrite
      00000006H   SYMBOL    DATA     WORD      addr
      00000082H   SYMBOL    DATA     ---       pread
      00000007H   SYMBOL    DATA     BYTE      byte
      00000006H   SYMBOL    DATA     WORD      addr
      00000082H   SYMBOL    DATA     ---       pwrite
      00000005H   SYMBOL    DATA     BYTE      mode
      00000007H   SYMBOL    DATA     BYTE      temp_byte

      ---         MODULE    ---      ---       INITDEVICE
      000000A2H   SFRSYM    DATA     BYTE      SPI0CKR
      00000080H   SFRSYM    DATA     BYTE      P0
      000000C8H.6 SFRSYM    DATA     BIT       SCON1_PERR
      000000D0H.2 SFRSYM    DATA     BIT       PSW_OV
      00000090H   SFRSYM    DATA     BYTE      P1
      000000F8H.1 SFRSYM    DATA     BIT       SPI0CN0_TXNF
      00000097H   SFRSYM    DATA     BYTE      WDTCN
      000000A0H   SFRSYM    DATA     BYTE      P2
      000000B0H   SFRSYM    DATA     BYTE      P3
      000000BCH   SFRSYM    DATA     BYTE      ADC0CF
      000000C0H.7 SFRSYM    DATA     BIT       SMB0CN0_MASTER
      000000F9H   SFRSYM    DATA     WORD      PCA0
      000000E6H   SFRSYM    DATA     BYTE      EIE1
      000000C0H.1 SFRSYM    DATA     BIT       SMB0CN0_ACK
      000000CEH   SFRSYM    DATA     BYTE      EIE2
      0000008FH   SFRSYM    DATA     BYTE      PSCTL
      000000E4H   SFRSYM    DATA     BYTE      IT01CF
      000000C0H.6 SFRSYM    DATA     BIT       SMB0CN0_TXMODE
      000000ADH   SFRSYM    DATA     BYTE      DERIVID
      000000A7H   SFRSYM    DATA     BYTE      SFRPAGE
      000000A4H   SFRSYM    DATA     BYTE      P0MDOUT
LX51 LINKER/LOCATER V4.66.97.0                                                        08/03/2020  08:45:41  PAGE 65


      000000A5H   SFRSYM    DATA     BYTE      P1MDOUT
      000000E8H.5 SFRSYM    DATA     BIT       ADC0CN0_ADINT
      000000CBH   SFRSYM    DATA     BYTE      TMR2RLH
      000000A6H   SFRSYM    DATA     BYTE      P2MDOUT
      000000A8H   SFRSYM    DATA     BYTE      IE
      00000093H   SFRSYM    DATA     BYTE      TMR3RLH
      0000009CH   SFRSYM    DATA     BYTE      P3MDOUT
      000000A3H   SFRSYM    DATA     BYTE      TMR4RLH
      000000F3H   SFRSYM    DATA     BYTE      EIP1
      000000F4H   SFRSYM    DATA     BYTE      EIP2
      00000098H.2 SFRSYM    DATA     BIT       SCON0_RB8
      000000CAH   SFRSYM    DATA     BYTE      TMR2RLL
      000000FCH   SFRSYM    DATA     BYTE      PCA0CPH0
      00000092H   SFRSYM    DATA     BYTE      TMR3RLL
      000000EAH   SFRSYM    DATA     BYTE      PCA0CPH1
      00000098H.3 SFRSYM    DATA     BIT       SCON0_TB8
      000000F0H.0 SFRSYM    DATA     BIT       B_B0
      00000082H   SFRSYM    DATA     WORD      DP
      000000A2H   SFRSYM    DATA     BYTE      TMR4RLL
      000000ECH   SFRSYM    DATA     BYTE      PCA0CPH2
      000000F0H.1 SFRSYM    DATA     BIT       B_B1
      000000C3H   SFRSYM    DATA     WORD      ADC0GT
      000000BDH   SFRSYM    DATA     BYTE      I2C0SLAD
      000000D8H.3 SFRSYM    DATA     BIT       UART1FCN1_RFRQ
      000000F0H.2 SFRSYM    DATA     BIT       B_B2
      000000CFH   SFRSYM    DATA     BYTE      SFRPGCN
      000000FBH   SFRSYM    DATA     BYTE      PCA0CPL0
      000000F0H.3 SFRSYM    DATA     BIT       B_B3
      000000D9H   SFRSYM    DATA     BYTE      PCA0MD
      000000DAH   SFRSYM    DATA     BYTE      PCA0CPM0
      000000E9H   SFRSYM    DATA     BYTE      PCA0CPL1
      000000D8H.7 SFRSYM    DATA     BIT       UART1FCN1_TFRQ
      000000F0H.4 SFRSYM    DATA     BIT       B_B4
      000000DBH   SFRSYM    DATA     BYTE      PCA0CPM1
      000000EBH   SFRSYM    DATA     BYTE      PCA0CPL2
      000000F0H.5 SFRSYM    DATA     BIT       B_B5
      000000DCH   SFRSYM    DATA     BYTE      PCA0CPM2
      000000B8H   SFRSYM    DATA     BYTE      IP
      000000B9H   SFRSYM    DATA     BYTE      ADC0TK
      000000F0H.6 SFRSYM    DATA     BIT       B_B6
      000000C5H   SFRSYM    DATA     WORD      ADC0LT
      000000D8H.6 SFRSYM    DATA     BIT       UART1FCN1_TXNF
      00000098H.5 SFRSYM    DATA     BIT       SCON0_MCE
      000000F0H.7 SFRSYM    DATA     BIT       B_B7
      000000C3H   SFRSYM    DATA     BYTE      SMB0FCN0
      000000E1H   SFRSYM    DATA     BYTE      XBR0
      000000C4H   SFRSYM    DATA     BYTE      SMB0FCN1
      000000C1H   SFRSYM    DATA     BYTE      SMB0CF
      000000E2H   SFRSYM    DATA     BYTE      XBR1
      000000C1H   SFRSYM    DATA     BYTE      PFE0CN
      000000E7H   SFRSYM    DATA     BYTE      EMI0CN
      000000C0H.5 SFRSYM    DATA     BIT       SMB0CN0_STA
      000000E3H   SFRSYM    DATA     BYTE      XBR2
      000000BBH   SFRSYM    DATA     BYTE      ADC0MX
      000000E0H.0 SFRSYM    DATA     BIT       ACC_ACC0
      000000D1H   SFRSYM    DATA     BYTE      REF0CN
      0000008EH   SFRSYM    DATA     BYTE      CKCON0
      000000E0H.1 SFRSYM    DATA     BIT       ACC_ACC1
      000000C9H   SFRSYM    DATA     BYTE      REG0CN
      000000DDH   SFRSYM    DATA     BYTE      CRC0IN
      000000A6H   SFRSYM    DATA     BYTE      CKCON1
      000000C8H.2 SFRSYM    DATA     BIT       TMR2CN0_TR2
LX51 LINKER/LOCATER V4.66.97.0                                                        08/03/2020  08:45:41  PAGE 66


      000000E0H.2 SFRSYM    DATA     BIT       ACC_ACC2
      000000C6H   SFRSYM    DATA     BYTE      REG1CN
      000000E0H.3 SFRSYM    DATA     BIT       ACC_ACC3
      00000081H   SFRSYM    DATA     BYTE      SP
      0000009DH   SFRSYM    DATA     BYTE      CMP0MD
      000000E0H.4 SFRSYM    DATA     BIT       ACC_ACC4
      000000B1H   SFRSYM    DATA     BYTE      LFO0CN
      000000ABH   SFRSYM    DATA     BYTE      CMP1MD
      000000D8H.0 SFRSYM    DATA     BIT       PCA0CN0_CCF0
      000000E0H.5 SFRSYM    DATA     BIT       ACC_ACC5
      00000098H.2 SFRSYM    DATA     BIT       TMR4CN0_TR4
      000000D8H.1 SFRSYM    DATA     BIT       PCA0CN0_CCF1
      000000E0H.6 SFRSYM    DATA     BIT       ACC_ACC6
      000000CCH   SFRSYM    DATA     WORD      TMR2
      0000009AH   SFRSYM    DATA     BYTE      SPI0FCN0
      000000D8H.2 SFRSYM    DATA     BIT       PCA0CN0_CCF2
      000000E0H.7 SFRSYM    DATA     BIT       ACC_ACC7
      00000094H   SFRSYM    DATA     WORD      TMR3
      0000009BH   SFRSYM    DATA     BYTE      SPI0FCN1
      000000A4H   SFRSYM    DATA     WORD      TMR4
      00000094H   SFRSYM    DATA     BYTE      SBCON1
      000000C0H.3 SFRSYM    DATA     BIT       SMB0CN0_ACKRQ
      000000FFH   SFRSYM    DATA     BYTE      VDM0CN
      000000F1H   SFRSYM    DATA     BYTE      P0MDIN
      00000098H.4 SFRSYM    DATA     BIT       SCON0_REN
      000000ACH   SFRSYM    DATA     BYTE      SMB0TC
      000000F2H   SFRSYM    DATA     BYTE      P1MDIN
      000000C8H.4 SFRSYM    DATA     BIT       SCON1_REN
      000000F3H   SFRSYM    DATA     BYTE      P2MDIN
      000000C0H.4 SFRSYM    DATA     BIT       SMB0CN0_STO
      000000F4H   SFRSYM    DATA     BYTE      P3MDIN
      000000B9H   SFRSYM    DATA     BYTE      I2C0STAT
      000000BBH   SFRSYM    DATA     BYTE      I2C0DOUT
      00000096H   SFRSYM    DATA     BYTE      SBRLH1
      000000FEH   SFRSYM    DATA     BYTE      P0MASK
      000000D8H.5 SFRSYM    DATA     BIT       UART1FCN1_TXHOLD
      000000EEH   SFRSYM    DATA     BYTE      P1MASK
      000000FCH   SFRSYM    DATA     BYTE      P2MASK
      000000D0H.3 SFRSYM    DATA     BIT       PSW_RS0
      000000D8H.7 SFRSYM    DATA     BIT       PCA0CN0_CF
      0000009EH   SFRSYM    DATA     BYTE      PCA0CENT
      000000BAH   SFRSYM    DATA     BYTE      I2C0CN0
      000000D2H   SFRSYM    DATA     BYTE      CRC0ST
      000000F8H.4 SFRSYM    DATA     BIT       SPI0CN0_RXOVRN
      000000D0H.4 SFRSYM    DATA     BIT       PSW_RS1
      00000095H   SFRSYM    DATA     BYTE      SBRLL1
      000000C8H.2 SFRSYM    DATA     BIT       SCON1_RBX
      000000C8H.0 SFRSYM    DATA     BIT       TMR2CN0_T2XCLK0
      000000C8H.1 SFRSYM    DATA     BIT       TMR2CN0_T2XCLK1
      000000C8H.3 SFRSYM    DATA     BIT       SCON1_TBX
      000000E8H.7 SFRSYM    DATA     BIT       ADC0CN0_ADEN
      00000089H   SFRSYM    DATA     BYTE      TMOD
      00000088H   SFRSYM    DATA     BYTE      TCON
      000000CFH   SFRSYM    DATA     BYTE      CRC0FLIP
      000000D0H.0 SFRSYM    DATA     BIT       PSW_PARITY
      000000A8H.4 SFRSYM    DATA     BIT       IE_ES0
      0000009FH   SFRSYM    DATA     BYTE      CMP0MX
      00000098H.0 SFRSYM    DATA     BIT       TMR4CN0_T4XCLK0
      000000A8H.1 SFRSYM    DATA     BIT       IE_ET0
      000000AAH   SFRSYM    DATA     BYTE      CMP1MX
      00000098H.1 SFRSYM    DATA     BIT       TMR4CN0_T4XCLK1
      000000A8H.3 SFRSYM    DATA     BIT       IE_ET1
LX51 LINKER/LOCATER V4.66.97.0                                                        08/03/2020  08:45:41  PAGE 67


      000000D4H   SFRSYM    DATA     BYTE      P0SKIP
      000000D8H.0 SFRSYM    DATA     BIT       UART1FCN1_RIE
      000000A8H.5 SFRSYM    DATA     BIT       IE_ET2
      000000D5H   SFRSYM    DATA     BYTE      P1SKIP
      000000CCH   SFRSYM    DATA     BYTE      P2SKIP
      000000E8H   SFRSYM    DATA     BYTE      ADC0CN0
      000000D8H.4 SFRSYM    DATA     BIT       UART1FCN1_TIE
      000000A8H.0 SFRSYM    DATA     BIT       IE_EX0
      000000B2H   SFRSYM    DATA     BYTE      ADC0CN1
      000000D8H.6 SFRSYM    DATA     BIT       PCA0CN0_CR
      000000A8H.2 SFRSYM    DATA     BIT       IE_EX1
      000000C8H.7 SFRSYM    DATA     BIT       SCON1_OVR
      00000098H.7 SFRSYM    DATA     BIT       SCON0_SMODE
      000000B5H   SFRSYM    DATA     BYTE      DEVICEID
      000000A9H   SFRSYM    DATA     BYTE      CLKSEL
      000000F8H.0 SFRSYM    DATA     BIT       SPI0CN0_SPIEN
      000000F0H   SFRSYM    DATA     BYTE      B
      000000BEH   SFRSYM    DATA     BYTE      ADC0H
      000000E8H.6 SFRSYM    DATA     BIT       ADC0CN0_ADBMEN
      000000CAH   SFRSYM    DATA     WORD      TMR2RL
      000000BDH   SFRSYM    DATA     BYTE      ADC0L
      00000092H   SFRSYM    DATA     WORD      TMR3RL
      000000A2H   SFRSYM    DATA     WORD      TMR4RL
      000000D8H   SFRSYM    DATA     BYTE      PCA0CN0
      000000E0H   SFRSYM    DATA     BYTE      ACC
      000000FBH   SFRSYM    DATA     WORD      PCA0CP0
      000000E9H   SFRSYM    DATA     WORD      PCA0CP1
      000000EBH   SFRSYM    DATA     WORD      PCA0CP2
      000000BCH   SFRSYM    DATA     BYTE      I2C0DIN
      000000CEH   SFRSYM    DATA     BYTE      CRC0CN0
      0000008CH   SFRSYM    DATA     BYTE      TH0
      00000086H   SFRSYM    DATA     BYTE      CRC0CN1
      000000B8H.4 SFRSYM    DATA     BIT       IP_PS0
      000000FAH   SFRSYM    DATA     BYTE      UART1FCT
      0000008DH   SFRSYM    DATA     BYTE      TH1
      000000FAH   SFRSYM    DATA     BYTE      PCA0H
      000000F5H   SFRSYM    DATA     BYTE      I2C0FCT
      000000B8H.1 SFRSYM    DATA     BIT       IP_PT0
      000000B8H.3 SFRSYM    DATA     BIT       IP_PT1
      000000C0H.2 SFRSYM    DATA     BIT       SMB0CN0_ARBLOST
      000000B8H.5 SFRSYM    DATA     BIT       IP_PT2
      0000008AH   SFRSYM    DATA     BYTE      TL0
      000000D0H.5 SFRSYM    DATA     BIT       PSW_F0
      000000A8H.6 SFRSYM    DATA     BIT       IE_ESPI0
      0000008BH   SFRSYM    DATA     BYTE      TL1
      000000F9H   SFRSYM    DATA     BYTE      PCA0L
      000000C0H.0 SFRSYM    DATA     BIT       SMB0CN0_SI
      000000D0H.1 SFRSYM    DATA     BIT       PSW_F1
      00000080H.0 SFRSYM    DATA     BIT       P0_B0
      000000B8H.0 SFRSYM    DATA     BIT       IP_PX0
      00000090H.0 SFRSYM    DATA     BIT       P1_B0
      00000080H.1 SFRSYM    DATA     BIT       P0_B1
      000000B8H.2 SFRSYM    DATA     BIT       IP_PX1
      0000009EH   SFRSYM    DATA     BYTE      UART1LIN
      0000009BH   SFRSYM    DATA     BYTE      CMP0CN0
      00000088H.1 SFRSYM    DATA     BIT       TCON_IE0
      000000A0H.0 SFRSYM    DATA     BIT       P2_B0
      00000090H.1 SFRSYM    DATA     BIT       P1_B1
      00000080H.2 SFRSYM    DATA     BIT       P0_B2
      000000BFH   SFRSYM    DATA     BYTE      CMP1CN0
      00000099H   SFRSYM    DATA     BYTE      CMP0CN1
      00000088H.3 SFRSYM    DATA     BIT       TCON_IE1
LX51 LINKER/LOCATER V4.66.97.0                                                        08/03/2020  08:45:41  PAGE 68


      000000B0H.0 SFRSYM    DATA     BIT       P3_B0
      000000A0H.1 SFRSYM    DATA     BIT       P2_B1
      00000090H.2 SFRSYM    DATA     BIT       P1_B2
      00000080H.3 SFRSYM    DATA     BIT       P0_B3
      000000C0H   SFRSYM    DATA     BYTE      SMB0CN0
      000000ACH   SFRSYM    DATA     BYTE      CMP1CN1
      000000B0H.1 SFRSYM    DATA     BIT       P3_B1
      000000A0H.2 SFRSYM    DATA     BIT       P2_B2
      00000090H.3 SFRSYM    DATA     BIT       P1_B3
      00000080H.4 SFRSYM    DATA     BIT       P0_B4
      000000A0H.3 SFRSYM    DATA     BIT       P2_B3
      00000090H.4 SFRSYM    DATA     BIT       P1_B4
      00000080H.5 SFRSYM    DATA     BIT       P0_B5
      000000D8H.1 SFRSYM    DATA     BIT       UART1FCN1_RXTO0
      00000090H.5 SFRSYM    DATA     BIT       P1_B5
      00000080H.6 SFRSYM    DATA     BIT       P0_B6
      000000F5H   SFRSYM    DATA     BYTE      EIP1H
      000000D8H.2 SFRSYM    DATA     BIT       UART1FCN1_RXTO1
      00000090H.6 SFRSYM    DATA     BIT       P1_B6
      00000080H.7 SFRSYM    DATA     BIT       P0_B7
      000000C5H   SFRSYM    DATA     BYTE      SMB0RXLN
      000000F6H   SFRSYM    DATA     BYTE      EIP2H
      00000090H.7 SFRSYM    DATA     BIT       P1_B7
      00000083H   SFRSYM    DATA     BYTE      DPH
      000000C4H   SFRSYM    DATA     BYTE      ADC0GTH
      000000C8H.7 SFRSYM    DATA     BIT       TMR2CN0_TF2H
      000000C8H.3 SFRSYM    DATA     BIT       TMR2CN0_T2SPLIT
      000000D0H.6 SFRSYM    DATA     BIT       PSW_AC
      000000F8H   SFRSYM    DATA     BYTE      SPI0CN0
      000000C7H   SFRSYM    DATA     BYTE      HFO0CAL
      00000088H.5 SFRSYM    DATA     BIT       TCON_TF0
      00000098H.0 SFRSYM    DATA     BIT       SCON0_RI
      000000D6H   SFRSYM    DATA     BYTE      HFO1CAL
      00000082H   SFRSYM    DATA     BYTE      DPL
      00000088H.7 SFRSYM    DATA     BIT       TCON_TF1
      000000C8H.0 SFRSYM    DATA     BIT       SCON1_RI
      00000099H   SFRSYM    DATA     BYTE      SBUF0
      00000087H   SFRSYM    DATA     BYTE      PCON0
      000000F2H   SFRSYM    DATA     BYTE      IPH
      000000C3H   SFRSYM    DATA     BYTE      ADC0GTL
      00000098H.7 SFRSYM    DATA     BIT       TMR4CN0_TF4H
      00000098H.3 SFRSYM    DATA     BIT       TMR4CN0_T4SPLIT
      000000C8H.6 SFRSYM    DATA     BIT       TMR2CN0_TF2L
      00000098H.1 SFRSYM    DATA     BIT       SCON0_TI
      000000E8H.0 SFRSYM    DATA     BIT       ADC0CN0_ADCM0
      00000092H   SFRSYM    DATA     BYTE      SBUF1
      0000009AH   SFRSYM    DATA     BYTE      PCON1
      000000C6H   SFRSYM    DATA     BYTE      ADC0LTH
      00000088H.0 SFRSYM    DATA     BIT       TCON_IT0
      000000C8H.1 SFRSYM    DATA     BIT       SCON1_TI
      000000E8H.1 SFRSYM    DATA     BIT       ADC0CN0_ADCM1
      000000EFH   SFRSYM    DATA     BYTE      RSTSRC
      000000FDH   SFRSYM    DATA     BYTE      P0MAT
      000000DEH   SFRSYM    DATA     BYTE      CRC0DAT
      00000088H.2 SFRSYM    DATA     BIT       TCON_IT1
      000000E8H.2 SFRSYM    DATA     BIT       ADC0CN0_ADCM2
      000000D7H   SFRSYM    DATA     BYTE      SFRSTACK
      00000098H   SFRSYM    DATA     BYTE      SCON0
      000000F6H   SFRSYM    DATA     BYTE      PRTDRV
      000000EDH   SFRSYM    DATA     BYTE      P1MAT
      000000E8H.3 SFRSYM    DATA     BIT       ADC0CN0_ADWINT
      00000095H   SFRSYM    DATA     WORD      SBRL1
LX51 LINKER/LOCATER V4.66.97.0                                                        08/03/2020  08:45:41  PAGE 69


      00000093H   SFRSYM    DATA     BYTE      SMOD1
      000000C8H   SFRSYM    DATA     BYTE      SCON1
      000000FBH   SFRSYM    DATA     BYTE      P2MAT
      00000098H.6 SFRSYM    DATA     BIT       TMR4CN0_TF4L
      000000E8H.4 SFRSYM    DATA     BIT       ADC0CN0_ADBUSY
      000000D6H   SFRSYM    DATA     BYTE      SMB0ADM
      000000C5H   SFRSYM    DATA     BYTE      ADC0LTL
      000000F8H.5 SFRSYM    DATA     BIT       SPI0CN0_MODF
      000000B8H.6 SFRSYM    DATA     BIT       IP_PSPI0
      0000009CH   SFRSYM    DATA     BYTE      PCA0CLR
      000000C8H   SFRSYM    DATA     BYTE      TMR2CN0
      00000091H   SFRSYM    DATA     BYTE      TMR3CN0
      000000FDH   SFRSYM    DATA     BYTE      TMR2CN1
      00000098H   SFRSYM    DATA     BYTE      TMR4CN0
      000000FEH   SFRSYM    DATA     BYTE      TMR3CN1
      000000FFH   SFRSYM    DATA     BYTE      TMR4CN1
      000000D7H   SFRSYM    DATA     BYTE      SMB0ADR
      00000088H.4 SFRSYM    DATA     BIT       TCON_TR0
      000000C8H.4 SFRSYM    DATA     BIT       TMR2CN0_TF2CEN
      00000088H.6 SFRSYM    DATA     BIT       TCON_TR1
      000000C2H   SFRSYM    DATA     BYTE      SMB0DAT
      000000CDH   SFRSYM    DATA     BYTE      TMR2H
      000000A1H   SFRSYM    DATA     BYTE      SPI0CFG
      00000095H   SFRSYM    DATA     BYTE      TMR3H
      000000EFH   SFRSYM    DATA     BYTE      HFOCN
      000000D3H   SFRSYM    DATA     BYTE      CRC0CNT
      000000A5H   SFRSYM    DATA     BYTE      TMR4H
      00000098H.4 SFRSYM    DATA     BIT       TMR4CN0_TF4CEN
      000000EFH   SFRSYM    DATA     BYTE      SMB0FCT
      00000096H   SFRSYM    DATA     BYTE      PCA0POL
      000000CCH   SFRSYM    DATA     BYTE      TMR2L
      000000F8H.7 SFRSYM    DATA     BIT       SPI0CN0_SPIF
      00000094H   SFRSYM    DATA     BYTE      TMR3L
      000000DFH   SFRSYM    DATA     BYTE      ADC0PWR
      000000A8H.7 SFRSYM    DATA     BIT       IE_EA
      000000A4H   SFRSYM    DATA     BYTE      TMR4L
      000000C8H.5 SFRSYM    DATA     BIT       TMR2CN0_TF2LEN
      000000F8H.6 SFRSYM    DATA     BIT       SPI0CN0_WCOL
      000000F8H.2 SFRSYM    DATA     BIT       SPI0CN0_NSSMD0
      000000D0H.7 SFRSYM    DATA     BIT       PSW_CY
      0000009DH   SFRSYM    DATA     BYTE      UART1FCN0
      000000A3H   SFRSYM    DATA     BYTE      SPI0DAT
      000000ADH   SFRSYM    DATA     BYTE      I2C0FCN0
      000000F8H.3 SFRSYM    DATA     BIT       SPI0CN0_NSSMD1
      000000BDH   SFRSYM    DATA     WORD      ADC0
      000000D8H   SFRSYM    DATA     BYTE      UART1FCN1
      000000ABH   SFRSYM    DATA     BYTE      I2C0FCN1
      00000098H.5 SFRSYM    DATA     BIT       TMR4CN0_TF4LEN
      000000D0H   SFRSYM    DATA     BYTE      PSW
      000000F7H   SFRSYM    DATA     BYTE      PCA0PWM
      000000F7H   SFRSYM    DATA     BYTE      SPI0FCT
      000000B6H   SFRSYM    DATA     BYTE      REVID
      000000B7H   SFRSYM    DATA     BYTE      FLKEY
      000000B3H   SFRSYM    DATA     BYTE      ADC0AC
      00000007H   SYMBOL    DATA     BYTE      SFRPAGE_save

      ---         MODULE    ---      ---       MAIN
      020002ADH   PUBLIC    XDATA    ---       buffer
      020002A9H   PUBLIC    XDATA    DWORD     errorCount
      020002A8H   PUBLIC    XDATA    BYTE      Debug_RD2
      020002A7H   PUBLIC    XDATA    BYTE      Debug_RD1
      01001CCBH   PUBLIC    CODE     ---       main
LX51 LINKER/LOCATER V4.66.97.0                                                        08/03/2020  08:45:41  PAGE 70


      01001DD5H   PUBLIC    CODE     ---       InitGlobalVariable
      01000009H   PUBLIC    CODE     ---       SiLabs_Startup
      000000A2H   SFRSYM    DATA     BYTE      SPI0CKR
      00000080H   SFRSYM    DATA     BYTE      P0
      000000C8H.6 SFRSYM    DATA     BIT       SCON1_PERR
      000000D0H.2 SFRSYM    DATA     BIT       PSW_OV
      00000090H   SFRSYM    DATA     BYTE      P1
      000000F8H.1 SFRSYM    DATA     BIT       SPI0CN0_TXNF
      00000097H   SFRSYM    DATA     BYTE      WDTCN
      000000A0H   SFRSYM    DATA     BYTE      P2
      000000B0H   SFRSYM    DATA     BYTE      P3
      000000BCH   SFRSYM    DATA     BYTE      ADC0CF
      000000C0H.7 SFRSYM    DATA     BIT       SMB0CN0_MASTER
      000000F9H   SFRSYM    DATA     WORD      PCA0
      000000E6H   SFRSYM    DATA     BYTE      EIE1
      000000C0H.1 SFRSYM    DATA     BIT       SMB0CN0_ACK
      000000CEH   SFRSYM    DATA     BYTE      EIE2
      0000008FH   SFRSYM    DATA     BYTE      PSCTL
      000000E4H   SFRSYM    DATA     BYTE      IT01CF
      000000C0H.6 SFRSYM    DATA     BIT       SMB0CN0_TXMODE
      000000ADH   SFRSYM    DATA     BYTE      DERIVID
      000000A7H   SFRSYM    DATA     BYTE      SFRPAGE
      000000A4H   SFRSYM    DATA     BYTE      P0MDOUT
      000000A5H   SFRSYM    DATA     BYTE      P1MDOUT
      000000E8H.5 SFRSYM    DATA     BIT       ADC0CN0_ADINT
      000000CBH   SFRSYM    DATA     BYTE      TMR2RLH
      000000A6H   SFRSYM    DATA     BYTE      P2MDOUT
      000000A8H   SFRSYM    DATA     BYTE      IE
      00000093H   SFRSYM    DATA     BYTE      TMR3RLH
      0000009CH   SFRSYM    DATA     BYTE      P3MDOUT
      000000A3H   SFRSYM    DATA     BYTE      TMR4RLH
      000000F3H   SFRSYM    DATA     BYTE      EIP1
      000000F4H   SFRSYM    DATA     BYTE      EIP2
      00000098H.2 SFRSYM    DATA     BIT       SCON0_RB8
      000000CAH   SFRSYM    DATA     BYTE      TMR2RLL
      000000FCH   SFRSYM    DATA     BYTE      PCA0CPH0
      00000092H   SFRSYM    DATA     BYTE      TMR3RLL
      000000EAH   SFRSYM    DATA     BYTE      PCA0CPH1
      00000098H.3 SFRSYM    DATA     BIT       SCON0_TB8
      000000F0H.0 SFRSYM    DATA     BIT       B_B0
      00000082H   SFRSYM    DATA     WORD      DP
      000000A2H   SFRSYM    DATA     BYTE      TMR4RLL
      000000ECH   SFRSYM    DATA     BYTE      PCA0CPH2
      000000F0H.1 SFRSYM    DATA     BIT       B_B1
      000000C3H   SFRSYM    DATA     WORD      ADC0GT
      000000BDH   SFRSYM    DATA     BYTE      I2C0SLAD
      000000D8H.3 SFRSYM    DATA     BIT       UART1FCN1_RFRQ
      000000F0H.2 SFRSYM    DATA     BIT       B_B2
      000000CFH   SFRSYM    DATA     BYTE      SFRPGCN
      000000FBH   SFRSYM    DATA     BYTE      PCA0CPL0
      000000F0H.3 SFRSYM    DATA     BIT       B_B3
      000000D9H   SFRSYM    DATA     BYTE      PCA0MD
      000000DAH   SFRSYM    DATA     BYTE      PCA0CPM0
      000000E9H   SFRSYM    DATA     BYTE      PCA0CPL1
      000000D8H.7 SFRSYM    DATA     BIT       UART1FCN1_TFRQ
      000000F0H.4 SFRSYM    DATA     BIT       B_B4
      000000DBH   SFRSYM    DATA     BYTE      PCA0CPM1
      000000EBH   SFRSYM    DATA     BYTE      PCA0CPL2
      000000F0H.5 SFRSYM    DATA     BIT       B_B5
      000000DCH   SFRSYM    DATA     BYTE      PCA0CPM2
      000000B8H   SFRSYM    DATA     BYTE      IP
      000000B9H   SFRSYM    DATA     BYTE      ADC0TK
LX51 LINKER/LOCATER V4.66.97.0                                                        08/03/2020  08:45:41  PAGE 71


      000000F0H.6 SFRSYM    DATA     BIT       B_B6
      000000C5H   SFRSYM    DATA     WORD      ADC0LT
      000000D8H.6 SFRSYM    DATA     BIT       UART1FCN1_TXNF
      00000098H.5 SFRSYM    DATA     BIT       SCON0_MCE
      000000F0H.7 SFRSYM    DATA     BIT       B_B7
      000000C3H   SFRSYM    DATA     BYTE      SMB0FCN0
      000000E1H   SFRSYM    DATA     BYTE      XBR0
      000000C4H   SFRSYM    DATA     BYTE      SMB0FCN1
      000000C1H   SFRSYM    DATA     BYTE      SMB0CF
      000000E2H   SFRSYM    DATA     BYTE      XBR1
      000000C1H   SFRSYM    DATA     BYTE      PFE0CN
      000000E7H   SFRSYM    DATA     BYTE      EMI0CN
      000000C0H.5 SFRSYM    DATA     BIT       SMB0CN0_STA
      000000E3H   SFRSYM    DATA     BYTE      XBR2
      000000BBH   SFRSYM    DATA     BYTE      ADC0MX
      000000E0H.0 SFRSYM    DATA     BIT       ACC_ACC0
      000000D1H   SFRSYM    DATA     BYTE      REF0CN
      0000008EH   SFRSYM    DATA     BYTE      CKCON0
      000000E0H.1 SFRSYM    DATA     BIT       ACC_ACC1
      000000C9H   SFRSYM    DATA     BYTE      REG0CN
      000000DDH   SFRSYM    DATA     BYTE      CRC0IN
      000000A6H   SFRSYM    DATA     BYTE      CKCON1
      000000C8H.2 SFRSYM    DATA     BIT       TMR2CN0_TR2
      000000E0H.2 SFRSYM    DATA     BIT       ACC_ACC2
      000000C6H   SFRSYM    DATA     BYTE      REG1CN
      000000E0H.3 SFRSYM    DATA     BIT       ACC_ACC3
      00000081H   SFRSYM    DATA     BYTE      SP
      0000009DH   SFRSYM    DATA     BYTE      CMP0MD
      000000E0H.4 SFRSYM    DATA     BIT       ACC_ACC4
      000000B1H   SFRSYM    DATA     BYTE      LFO0CN
      000000ABH   SFRSYM    DATA     BYTE      CMP1MD
      000000D8H.0 SFRSYM    DATA     BIT       PCA0CN0_CCF0
      000000E0H.5 SFRSYM    DATA     BIT       ACC_ACC5
      00000098H.2 SFRSYM    DATA     BIT       TMR4CN0_TR4
      000000D8H.1 SFRSYM    DATA     BIT       PCA0CN0_CCF1
      000000E0H.6 SFRSYM    DATA     BIT       ACC_ACC6
      000000CCH   SFRSYM    DATA     WORD      TMR2
      0000009AH   SFRSYM    DATA     BYTE      SPI0FCN0
      000000D8H.2 SFRSYM    DATA     BIT       PCA0CN0_CCF2
      000000E0H.7 SFRSYM    DATA     BIT       ACC_ACC7
      00000094H   SFRSYM    DATA     WORD      TMR3
      0000009BH   SFRSYM    DATA     BYTE      SPI0FCN1
      000000A4H   SFRSYM    DATA     WORD      TMR4
      00000094H   SFRSYM    DATA     BYTE      SBCON1
      000000C0H.3 SFRSYM    DATA     BIT       SMB0CN0_ACKRQ
      000000FFH   SFRSYM    DATA     BYTE      VDM0CN
      000000F1H   SFRSYM    DATA     BYTE      P0MDIN
      00000098H.4 SFRSYM    DATA     BIT       SCON0_REN
      000000ACH   SFRSYM    DATA     BYTE      SMB0TC
      000000F2H   SFRSYM    DATA     BYTE      P1MDIN
      000000C8H.4 SFRSYM    DATA     BIT       SCON1_REN
      000000F3H   SFRSYM    DATA     BYTE      P2MDIN
      000000C0H.4 SFRSYM    DATA     BIT       SMB0CN0_STO
      000000F4H   SFRSYM    DATA     BYTE      P3MDIN
      000000B9H   SFRSYM    DATA     BYTE      I2C0STAT
      000000BBH   SFRSYM    DATA     BYTE      I2C0DOUT
      00000096H   SFRSYM    DATA     BYTE      SBRLH1
      000000FEH   SFRSYM    DATA     BYTE      P0MASK
      000000D8H.5 SFRSYM    DATA     BIT       UART1FCN1_TXHOLD
      000000EEH   SFRSYM    DATA     BYTE      P1MASK
      000000FCH   SFRSYM    DATA     BYTE      P2MASK
      000000D0H.3 SFRSYM    DATA     BIT       PSW_RS0
LX51 LINKER/LOCATER V4.66.97.0                                                        08/03/2020  08:45:41  PAGE 72


      000000D8H.7 SFRSYM    DATA     BIT       PCA0CN0_CF
      0000009EH   SFRSYM    DATA     BYTE      PCA0CENT
      000000BAH   SFRSYM    DATA     BYTE      I2C0CN0
      000000D2H   SFRSYM    DATA     BYTE      CRC0ST
      000000F8H.4 SFRSYM    DATA     BIT       SPI0CN0_RXOVRN
      000000D0H.4 SFRSYM    DATA     BIT       PSW_RS1
      00000095H   SFRSYM    DATA     BYTE      SBRLL1
      000000C8H.2 SFRSYM    DATA     BIT       SCON1_RBX
      000000C8H.0 SFRSYM    DATA     BIT       TMR2CN0_T2XCLK0
      000000C8H.1 SFRSYM    DATA     BIT       TMR2CN0_T2XCLK1
      000000C8H.3 SFRSYM    DATA     BIT       SCON1_TBX
      000000E8H.7 SFRSYM    DATA     BIT       ADC0CN0_ADEN
      00000089H   SFRSYM    DATA     BYTE      TMOD
      00000088H   SFRSYM    DATA     BYTE      TCON
      000000CFH   SFRSYM    DATA     BYTE      CRC0FLIP
      000000D0H.0 SFRSYM    DATA     BIT       PSW_PARITY
      000000A8H.4 SFRSYM    DATA     BIT       IE_ES0
      0000009FH   SFRSYM    DATA     BYTE      CMP0MX
      00000098H.0 SFRSYM    DATA     BIT       TMR4CN0_T4XCLK0
      000000A8H.1 SFRSYM    DATA     BIT       IE_ET0
      000000AAH   SFRSYM    DATA     BYTE      CMP1MX
      00000098H.1 SFRSYM    DATA     BIT       TMR4CN0_T4XCLK1
      000000A8H.3 SFRSYM    DATA     BIT       IE_ET1
      000000D4H   SFRSYM    DATA     BYTE      P0SKIP
      000000D8H.0 SFRSYM    DATA     BIT       UART1FCN1_RIE
      000000A8H.5 SFRSYM    DATA     BIT       IE_ET2
      000000D5H   SFRSYM    DATA     BYTE      P1SKIP
      000000CCH   SFRSYM    DATA     BYTE      P2SKIP
      000000E8H   SFRSYM    DATA     BYTE      ADC0CN0
      000000D8H.4 SFRSYM    DATA     BIT       UART1FCN1_TIE
      000000A8H.0 SFRSYM    DATA     BIT       IE_EX0
      000000B2H   SFRSYM    DATA     BYTE      ADC0CN1
      000000D8H.6 SFRSYM    DATA     BIT       PCA0CN0_CR
      000000A8H.2 SFRSYM    DATA     BIT       IE_EX1
      000000C8H.7 SFRSYM    DATA     BIT       SCON1_OVR
      00000098H.7 SFRSYM    DATA     BIT       SCON0_SMODE
      000000B5H   SFRSYM    DATA     BYTE      DEVICEID
      000000A9H   SFRSYM    DATA     BYTE      CLKSEL
      000000F8H.0 SFRSYM    DATA     BIT       SPI0CN0_SPIEN
      000000F0H   SFRSYM    DATA     BYTE      B
      000000BEH   SFRSYM    DATA     BYTE      ADC0H
      000000E8H.6 SFRSYM    DATA     BIT       ADC0CN0_ADBMEN
      000000CAH   SFRSYM    DATA     WORD      TMR2RL
      000000BDH   SFRSYM    DATA     BYTE      ADC0L
      00000092H   SFRSYM    DATA     WORD      TMR3RL
      000000A2H   SFRSYM    DATA     WORD      TMR4RL
      000000D8H   SFRSYM    DATA     BYTE      PCA0CN0
      000000E0H   SFRSYM    DATA     BYTE      ACC
      000000FBH   SFRSYM    DATA     WORD      PCA0CP0
      000000E9H   SFRSYM    DATA     WORD      PCA0CP1
      000000EBH   SFRSYM    DATA     WORD      PCA0CP2
      000000BCH   SFRSYM    DATA     BYTE      I2C0DIN
      000000CEH   SFRSYM    DATA     BYTE      CRC0CN0
      0000008CH   SFRSYM    DATA     BYTE      TH0
      00000086H   SFRSYM    DATA     BYTE      CRC0CN1
      000000B8H.4 SFRSYM    DATA     BIT       IP_PS0
      000000FAH   SFRSYM    DATA     BYTE      UART1FCT
      0000008DH   SFRSYM    DATA     BYTE      TH1
      000000FAH   SFRSYM    DATA     BYTE      PCA0H
      000000F5H   SFRSYM    DATA     BYTE      I2C0FCT
      000000B8H.1 SFRSYM    DATA     BIT       IP_PT0
      000000B8H.3 SFRSYM    DATA     BIT       IP_PT1
LX51 LINKER/LOCATER V4.66.97.0                                                        08/03/2020  08:45:41  PAGE 73


      000000C0H.2 SFRSYM    DATA     BIT       SMB0CN0_ARBLOST
      000000B8H.5 SFRSYM    DATA     BIT       IP_PT2
      0000008AH   SFRSYM    DATA     BYTE      TL0
      000000D0H.5 SFRSYM    DATA     BIT       PSW_F0
      000000A8H.6 SFRSYM    DATA     BIT       IE_ESPI0
      0000008BH   SFRSYM    DATA     BYTE      TL1
      000000F9H   SFRSYM    DATA     BYTE      PCA0L
      000000C0H.0 SFRSYM    DATA     BIT       SMB0CN0_SI
      000000D0H.1 SFRSYM    DATA     BIT       PSW_F1
      00000080H.0 SFRSYM    DATA     BIT       P0_B0
      000000B8H.0 SFRSYM    DATA     BIT       IP_PX0
      00000090H.0 SFRSYM    DATA     BIT       P1_B0
      00000080H.1 SFRSYM    DATA     BIT       P0_B1
      000000B8H.2 SFRSYM    DATA     BIT       IP_PX1
      0000009EH   SFRSYM    DATA     BYTE      UART1LIN
      0000009BH   SFRSYM    DATA     BYTE      CMP0CN0
      00000088H.1 SFRSYM    DATA     BIT       TCON_IE0
      000000A0H.0 SFRSYM    DATA     BIT       P2_B0
      00000090H.1 SFRSYM    DATA     BIT       P1_B1
      00000080H.2 SFRSYM    DATA     BIT       P0_B2
      000000BFH   SFRSYM    DATA     BYTE      CMP1CN0
      00000099H   SFRSYM    DATA     BYTE      CMP0CN1
      00000088H.3 SFRSYM    DATA     BIT       TCON_IE1
      000000B0H.0 SFRSYM    DATA     BIT       P3_B0
      000000A0H.1 SFRSYM    DATA     BIT       P2_B1
      00000090H.2 SFRSYM    DATA     BIT       P1_B2
      00000080H.3 SFRSYM    DATA     BIT       P0_B3
      000000C0H   SFRSYM    DATA     BYTE      SMB0CN0
      000000ACH   SFRSYM    DATA     BYTE      CMP1CN1
      000000B0H.1 SFRSYM    DATA     BIT       P3_B1
      000000A0H.2 SFRSYM    DATA     BIT       P2_B2
      00000090H.3 SFRSYM    DATA     BIT       P1_B3
      00000080H.4 SFRSYM    DATA     BIT       P0_B4
      000000A0H.3 SFRSYM    DATA     BIT       P2_B3
      00000090H.4 SFRSYM    DATA     BIT       P1_B4
      00000080H.5 SFRSYM    DATA     BIT       P0_B5
      000000D8H.1 SFRSYM    DATA     BIT       UART1FCN1_RXTO0
      00000090H.5 SFRSYM    DATA     BIT       P1_B5
      00000080H.6 SFRSYM    DATA     BIT       P0_B6
      000000F5H   SFRSYM    DATA     BYTE      EIP1H
      000000D8H.2 SFRSYM    DATA     BIT       UART1FCN1_RXTO1
      00000090H.6 SFRSYM    DATA     BIT       P1_B6
      00000080H.7 SFRSYM    DATA     BIT       P0_B7
      000000C5H   SFRSYM    DATA     BYTE      SMB0RXLN
      000000F6H   SFRSYM    DATA     BYTE      EIP2H
      00000090H.7 SFRSYM    DATA     BIT       P1_B7
      00000083H   SFRSYM    DATA     BYTE      DPH
      000000C4H   SFRSYM    DATA     BYTE      ADC0GTH
      000000C8H.7 SFRSYM    DATA     BIT       TMR2CN0_TF2H
      000000C8H.3 SFRSYM    DATA     BIT       TMR2CN0_T2SPLIT
      000000D0H.6 SFRSYM    DATA     BIT       PSW_AC
      000000F8H   SFRSYM    DATA     BYTE      SPI0CN0
      000000C7H   SFRSYM    DATA     BYTE      HFO0CAL
      00000088H.5 SFRSYM    DATA     BIT       TCON_TF0
      00000098H.0 SFRSYM    DATA     BIT       SCON0_RI
      000000D6H   SFRSYM    DATA     BYTE      HFO1CAL
      00000082H   SFRSYM    DATA     BYTE      DPL
      00000088H.7 SFRSYM    DATA     BIT       TCON_TF1
      000000C8H.0 SFRSYM    DATA     BIT       SCON1_RI
      00000099H   SFRSYM    DATA     BYTE      SBUF0
      00000087H   SFRSYM    DATA     BYTE      PCON0
      000000F2H   SFRSYM    DATA     BYTE      IPH
LX51 LINKER/LOCATER V4.66.97.0                                                        08/03/2020  08:45:41  PAGE 74


      000000C3H   SFRSYM    DATA     BYTE      ADC0GTL
      00000098H.7 SFRSYM    DATA     BIT       TMR4CN0_TF4H
      00000098H.3 SFRSYM    DATA     BIT       TMR4CN0_T4SPLIT
      000000C8H.6 SFRSYM    DATA     BIT       TMR2CN0_TF2L
      00000098H.1 SFRSYM    DATA     BIT       SCON0_TI
      000000E8H.0 SFRSYM    DATA     BIT       ADC0CN0_ADCM0
      00000092H   SFRSYM    DATA     BYTE      SBUF1
      0000009AH   SFRSYM    DATA     BYTE      PCON1
      000000C6H   SFRSYM    DATA     BYTE      ADC0LTH
      00000088H.0 SFRSYM    DATA     BIT       TCON_IT0
      000000C8H.1 SFRSYM    DATA     BIT       SCON1_TI
      000000E8H.1 SFRSYM    DATA     BIT       ADC0CN0_ADCM1
      000000EFH   SFRSYM    DATA     BYTE      RSTSRC
      000000FDH   SFRSYM    DATA     BYTE      P0MAT
      000000DEH   SFRSYM    DATA     BYTE      CRC0DAT
      00000088H.2 SFRSYM    DATA     BIT       TCON_IT1
      000000E8H.2 SFRSYM    DATA     BIT       ADC0CN0_ADCM2
      000000D7H   SFRSYM    DATA     BYTE      SFRSTACK
      00000098H   SFRSYM    DATA     BYTE      SCON0
      000000F6H   SFRSYM    DATA     BYTE      PRTDRV
      000000EDH   SFRSYM    DATA     BYTE      P1MAT
      000000E8H.3 SFRSYM    DATA     BIT       ADC0CN0_ADWINT
      00000095H   SFRSYM    DATA     WORD      SBRL1
      00000093H   SFRSYM    DATA     BYTE      SMOD1
      000000C8H   SFRSYM    DATA     BYTE      SCON1
      000000FBH   SFRSYM    DATA     BYTE      P2MAT
      00000098H.6 SFRSYM    DATA     BIT       TMR4CN0_TF4L
      000000E8H.4 SFRSYM    DATA     BIT       ADC0CN0_ADBUSY
      000000D6H   SFRSYM    DATA     BYTE      SMB0ADM
      000000C5H   SFRSYM    DATA     BYTE      ADC0LTL
      000000F8H.5 SFRSYM    DATA     BIT       SPI0CN0_MODF
      000000B8H.6 SFRSYM    DATA     BIT       IP_PSPI0
      0000009CH   SFRSYM    DATA     BYTE      PCA0CLR
      000000C8H   SFRSYM    DATA     BYTE      TMR2CN0
      00000091H   SFRSYM    DATA     BYTE      TMR3CN0
      000000FDH   SFRSYM    DATA     BYTE      TMR2CN1
      00000098H   SFRSYM    DATA     BYTE      TMR4CN0
      000000FEH   SFRSYM    DATA     BYTE      TMR3CN1
      000000FFH   SFRSYM    DATA     BYTE      TMR4CN1
      000000D7H   SFRSYM    DATA     BYTE      SMB0ADR
      00000088H.4 SFRSYM    DATA     BIT       TCON_TR0
      000000C8H.4 SFRSYM    DATA     BIT       TMR2CN0_TF2CEN
      00000088H.6 SFRSYM    DATA     BIT       TCON_TR1
      000000C2H   SFRSYM    DATA     BYTE      SMB0DAT
      000000CDH   SFRSYM    DATA     BYTE      TMR2H
      000000A1H   SFRSYM    DATA     BYTE      SPI0CFG
      00000095H   SFRSYM    DATA     BYTE      TMR3H
      000000EFH   SFRSYM    DATA     BYTE      HFOCN
      000000D3H   SFRSYM    DATA     BYTE      CRC0CNT
      000000A5H   SFRSYM    DATA     BYTE      TMR4H
      00000098H.4 SFRSYM    DATA     BIT       TMR4CN0_TF4CEN
      000000EFH   SFRSYM    DATA     BYTE      SMB0FCT
      00000096H   SFRSYM    DATA     BYTE      PCA0POL
      000000CCH   SFRSYM    DATA     BYTE      TMR2L
      000000F8H.7 SFRSYM    DATA     BIT       SPI0CN0_SPIF
      00000094H   SFRSYM    DATA     BYTE      TMR3L
      000000DFH   SFRSYM    DATA     BYTE      ADC0PWR
      000000A8H.7 SFRSYM    DATA     BIT       IE_EA
      000000A4H   SFRSYM    DATA     BYTE      TMR4L
      000000C8H.5 SFRSYM    DATA     BIT       TMR2CN0_TF2LEN
      000000F8H.6 SFRSYM    DATA     BIT       SPI0CN0_WCOL
      000000F8H.2 SFRSYM    DATA     BIT       SPI0CN0_NSSMD0
LX51 LINKER/LOCATER V4.66.97.0                                                        08/03/2020  08:45:41  PAGE 75


      000000D0H.7 SFRSYM    DATA     BIT       PSW_CY
      0000009DH   SFRSYM    DATA     BYTE      UART1FCN0
      000000A3H   SFRSYM    DATA     BYTE      SPI0DAT
      000000ADH   SFRSYM    DATA     BYTE      I2C0FCN0
      000000F8H.3 SFRSYM    DATA     BIT       SPI0CN0_NSSMD1
      000000BDH   SFRSYM    DATA     WORD      ADC0
      000000D8H   SFRSYM    DATA     BYTE      UART1FCN1
      000000ABH   SFRSYM    DATA     BYTE      I2C0FCN1
      00000098H.5 SFRSYM    DATA     BIT       TMR4CN0_TF4LEN
      000000D0H   SFRSYM    DATA     BYTE      PSW
      000000F7H   SFRSYM    DATA     BYTE      PCA0PWM
      000000F7H   SFRSYM    DATA     BYTE      SPI0FCT
      000000B6H   SFRSYM    DATA     BYTE      REVID
      000000B7H   SFRSYM    DATA     BYTE      FLKEY
      000000B3H   SFRSYM    DATA     BYTE      ADC0AC

      01000009H   BLOCK     CODE     ---       LVL=0
      01000009H   LINE      CODE     ---       #37
      01000009H   LINE      CODE     ---       #38
      01000009H   LINE      CODE     ---       #39
      ---         BLOCKEND  ---      ---       LVL=0

      01001DD5H   BLOCK     CODE     ---       LVL=0
      01001DD5H   BLOCK     CODE     NEAR LAB  LVL=1
      00000007H   SYMBOL    DATA     BYTE      i
      ---         BLOCKEND  ---      ---       LVL=1
      01001DD5H   LINE      CODE     ---       #41
      01001DD5H   LINE      CODE     ---       #42
      01001DD5H   LINE      CODE     ---       #44
      01001DD8H   LINE      CODE     ---       #46
      01001DDBH   LINE      CODE     ---       #47
      01001DDEH   LINE      CODE     ---       #55
      01001DEAH   LINE      CODE     ---       #56
      01001DEAH   LINE      CODE     ---       #57
      01001DF6H   LINE      CODE     ---       #58
      01001E03H   LINE      CODE     ---       #59
      01001E06H   LINE      CODE     ---       #60
      01001E0CH   LINE      CODE     ---       #61
      01001E13H   LINE      CODE     ---       #73
      ---         BLOCKEND  ---      ---       LVL=0

      01001CCBH   BLOCK     CODE     ---       LVL=0
      01001CCBH   LINE      CODE     ---       #76
      01001CCBH   LINE      CODE     ---       #77
      01001CCBH   LINE      CODE     ---       #78
      01001CCEH   LINE      CODE     ---       #79
      01001CD1H   LINE      CODE     ---       #80
      01001CD6H   LINE      CODE     ---       #81
      01001CD9H   LINE      CODE     ---       #82
      01001CDCH   LINE      CODE     ---       #83
      01001CDFH   LINE      CODE     ---       #84
      01001CE2H   LINE      CODE     ---       #85
      01001CE5H   LINE      CODE     ---       #86
      01001CE8H   LINE      CODE     ---       #87
      01001CEBH   LINE      CODE     ---       #88
      01001CEEH   LINE      CODE     ---       #89
      01001CF5H   LINE      CODE     ---       #90
      01001CFCH   LINE      CODE     ---       #104
      01001CFFH   LINE      CODE     ---       #106
      01001CFFH   LINE      CODE     ---       #107
      01001CFFH   LINE      CODE     ---       #108
      01001D05H   LINE      CODE     ---       #109
LX51 LINKER/LOCATER V4.66.97.0                                                        08/03/2020  08:45:41  PAGE 76


      01001D05H   LINE      CODE     ---       #110
      01001D07H   LINE      CODE     ---       #111
      01001D0AH   LINE      CODE     ---       #112
      01001D0AH   LINE      CODE     ---       #113
      01001D0AH   LINE      CODE     ---       #117
      01001D0AH   LINE      CODE     ---       #119
      01001D0AH   LINE      CODE     ---       #132
      01001D0DH   LINE      CODE     ---       #133
      ---         BLOCKEND  ---      ---       LVL=0

      ---         MODULE    ---      ---       ?C_STARTUP
      01000000H   PUBLIC    CODE     NEAR LAB  ?C_STARTUP
      000000E0H   SFRSYM    DATA     BYTE      ACC
      000000F0H   SFRSYM    DATA     BYTE      B
      00000083H   SFRSYM    DATA     BYTE      DPH
      00000082H   SFRSYM    DATA     BYTE      DPL
      000000A0H   SFRSYM    DATA     BYTE      PPAGE_SFR
      00000081H   SFRSYM    DATA     BYTE      SP
      00000000H   SYMBOL    NUMBER   ---       IBPSTACK
      00000100H   SYMBOL    NUMBER   ---       IBPSTACKTOP
      00000080H   SYMBOL    NUMBER   ---       IDATALEN
      01001719H   SYMBOL    CODE     NEAR LAB  IDATALOOP
      00000000H   SYMBOL    NUMBER   ---       PBPSTACK
      00000100H   SYMBOL    NUMBER   ---       PBPSTACKTOP
      00000000H   SYMBOL    NUMBER   ---       PDATALEN
      00000000H   SYMBOL    NUMBER   ---       PDATASTART
      00000000H   SYMBOL    NUMBER   ---       PPAGE
      00000000H   SYMBOL    NUMBER   ---       PPAGEENABLE
      01001713H   SYMBOL    CODE     NEAR LAB  STARTUP1
      00000000H   SYMBOL    NUMBER   ---       XBPSTACK
      00010000H   SYMBOL    NUMBER   ---       XBPSTACKTOP
      00000000H   SYMBOL    NUMBER   ---       XDATALEN
      00000000H   SYMBOL    NUMBER   ---       XDATASTART

      01000000H   BLOCK     CODE     NEAR LAB  LVL=0
      01000000H   LINE      CODE     ---       #126
      ---         BLOCKEND  ---      ---       LVL=0

      01001713H   BLOCK     CODE     NEAR LAB  LVL=0
      01001713H   LINE      CODE     ---       #134
      01001716H   LINE      CODE     ---       #138
      01001718H   LINE      CODE     ---       #139
      01001719H   LINE      CODE     ---       #140
      0100171AH   LINE      CODE     ---       #141
      0100171CH   LINE      CODE     ---       #190
      0100171FH   LINE      CODE     ---       #201
      ---         BLOCKEND  ---      ---       LVL=0

      ---         MODULE    ---      ---       SPEAKER
      020002BCH   PUBLIC    XDATA    ---       Speaker
      000000A2H   SFRSYM    DATA     BYTE      SPI0CKR
      00000080H   SFRSYM    DATA     BYTE      P0
      000000C8H.6 SFRSYM    DATA     BIT       SCON1_PERR
      000000D0H.2 SFRSYM    DATA     BIT       PSW_OV
      00000090H   SFRSYM    DATA     BYTE      P1
      000000F8H.1 SFRSYM    DATA     BIT       SPI0CN0_TXNF
      00000097H   SFRSYM    DATA     BYTE      WDTCN
      000000A0H   SFRSYM    DATA     BYTE      P2
      000000B0H   SFRSYM    DATA     BYTE      P3
      000000BCH   SFRSYM    DATA     BYTE      ADC0CF
      000000C0H.7 SFRSYM    DATA     BIT       SMB0CN0_MASTER
      000000F9H   SFRSYM    DATA     WORD      PCA0
LX51 LINKER/LOCATER V4.66.97.0                                                        08/03/2020  08:45:41  PAGE 77


      000000E6H   SFRSYM    DATA     BYTE      EIE1
      000000C0H.1 SFRSYM    DATA     BIT       SMB0CN0_ACK
      000000CEH   SFRSYM    DATA     BYTE      EIE2
      0000008FH   SFRSYM    DATA     BYTE      PSCTL
      000000E4H   SFRSYM    DATA     BYTE      IT01CF
      000000C0H.6 SFRSYM    DATA     BIT       SMB0CN0_TXMODE
      000000ADH   SFRSYM    DATA     BYTE      DERIVID
      000000A7H   SFRSYM    DATA     BYTE      SFRPAGE
      000000A4H   SFRSYM    DATA     BYTE      P0MDOUT
      000000A5H   SFRSYM    DATA     BYTE      P1MDOUT
      000000E8H.5 SFRSYM    DATA     BIT       ADC0CN0_ADINT
      000000CBH   SFRSYM    DATA     BYTE      TMR2RLH
      000000A6H   SFRSYM    DATA     BYTE      P2MDOUT
      000000A8H   SFRSYM    DATA     BYTE      IE
      00000093H   SFRSYM    DATA     BYTE      TMR3RLH
      0000009CH   SFRSYM    DATA     BYTE      P3MDOUT
      000000A3H   SFRSYM    DATA     BYTE      TMR4RLH
      000000F3H   SFRSYM    DATA     BYTE      EIP1
      000000F4H   SFRSYM    DATA     BYTE      EIP2
      00000098H.2 SFRSYM    DATA     BIT       SCON0_RB8
      000000CAH   SFRSYM    DATA     BYTE      TMR2RLL
      000000FCH   SFRSYM    DATA     BYTE      PCA0CPH0
      00000092H   SFRSYM    DATA     BYTE      TMR3RLL
      000000EAH   SFRSYM    DATA     BYTE      PCA0CPH1
      00000098H.3 SFRSYM    DATA     BIT       SCON0_TB8
      000000F0H.0 SFRSYM    DATA     BIT       B_B0
      00000082H   SFRSYM    DATA     WORD      DP
      000000A2H   SFRSYM    DATA     BYTE      TMR4RLL
      000000ECH   SFRSYM    DATA     BYTE      PCA0CPH2
      000000F0H.1 SFRSYM    DATA     BIT       B_B1
      000000C3H   SFRSYM    DATA     WORD      ADC0GT
      000000BDH   SFRSYM    DATA     BYTE      I2C0SLAD
      000000D8H.3 SFRSYM    DATA     BIT       UART1FCN1_RFRQ
      000000F0H.2 SFRSYM    DATA     BIT       B_B2
      000000CFH   SFRSYM    DATA     BYTE      SFRPGCN
      000000FBH   SFRSYM    DATA     BYTE      PCA0CPL0
      000000F0H.3 SFRSYM    DATA     BIT       B_B3
      000000D9H   SFRSYM    DATA     BYTE      PCA0MD
      000000DAH   SFRSYM    DATA     BYTE      PCA0CPM0
      000000E9H   SFRSYM    DATA     BYTE      PCA0CPL1
      000000D8H.7 SFRSYM    DATA     BIT       UART1FCN1_TFRQ
      000000F0H.4 SFRSYM    DATA     BIT       B_B4
      000000DBH   SFRSYM    DATA     BYTE      PCA0CPM1
      000000EBH   SFRSYM    DATA     BYTE      PCA0CPL2
      000000F0H.5 SFRSYM    DATA     BIT       B_B5
      000000DCH   SFRSYM    DATA     BYTE      PCA0CPM2
      000000B8H   SFRSYM    DATA     BYTE      IP
      000000B9H   SFRSYM    DATA     BYTE      ADC0TK
      000000F0H.6 SFRSYM    DATA     BIT       B_B6
      000000C5H   SFRSYM    DATA     WORD      ADC0LT
      000000D8H.6 SFRSYM    DATA     BIT       UART1FCN1_TXNF
      00000098H.5 SFRSYM    DATA     BIT       SCON0_MCE
      000000F0H.7 SFRSYM    DATA     BIT       B_B7
      000000C3H   SFRSYM    DATA     BYTE      SMB0FCN0
      000000E1H   SFRSYM    DATA     BYTE      XBR0
      000000C4H   SFRSYM    DATA     BYTE      SMB0FCN1
      000000C1H   SFRSYM    DATA     BYTE      SMB0CF
      000000E2H   SFRSYM    DATA     BYTE      XBR1
      000000C1H   SFRSYM    DATA     BYTE      PFE0CN
      000000E7H   SFRSYM    DATA     BYTE      EMI0CN
      000000C0H.5 SFRSYM    DATA     BIT       SMB0CN0_STA
      000000E3H   SFRSYM    DATA     BYTE      XBR2
LX51 LINKER/LOCATER V4.66.97.0                                                        08/03/2020  08:45:41  PAGE 78


      000000BBH   SFRSYM    DATA     BYTE      ADC0MX
      000000E0H.0 SFRSYM    DATA     BIT       ACC_ACC0
      000000D1H   SFRSYM    DATA     BYTE      REF0CN
      0000008EH   SFRSYM    DATA     BYTE      CKCON0
      000000E0H.1 SFRSYM    DATA     BIT       ACC_ACC1
      000000C9H   SFRSYM    DATA     BYTE      REG0CN
      000000DDH   SFRSYM    DATA     BYTE      CRC0IN
      000000A6H   SFRSYM    DATA     BYTE      CKCON1
      000000C8H.2 SFRSYM    DATA     BIT       TMR2CN0_TR2
      000000E0H.2 SFRSYM    DATA     BIT       ACC_ACC2
      000000C6H   SFRSYM    DATA     BYTE      REG1CN
      000000E0H.3 SFRSYM    DATA     BIT       ACC_ACC3
      00000081H   SFRSYM    DATA     BYTE      SP
      0000009DH   SFRSYM    DATA     BYTE      CMP0MD
      000000E0H.4 SFRSYM    DATA     BIT       ACC_ACC4
      000000B1H   SFRSYM    DATA     BYTE      LFO0CN
      000000ABH   SFRSYM    DATA     BYTE      CMP1MD
      000000D8H.0 SFRSYM    DATA     BIT       PCA0CN0_CCF0
      000000E0H.5 SFRSYM    DATA     BIT       ACC_ACC5
      00000098H.2 SFRSYM    DATA     BIT       TMR4CN0_TR4
      000000D8H.1 SFRSYM    DATA     BIT       PCA0CN0_CCF1
      000000E0H.6 SFRSYM    DATA     BIT       ACC_ACC6
      000000CCH   SFRSYM    DATA     WORD      TMR2
      0000009AH   SFRSYM    DATA     BYTE      SPI0FCN0
      000000D8H.2 SFRSYM    DATA     BIT       PCA0CN0_CCF2
      000000E0H.7 SFRSYM    DATA     BIT       ACC_ACC7
      00000094H   SFRSYM    DATA     WORD      TMR3
      0000009BH   SFRSYM    DATA     BYTE      SPI0FCN1
      000000A4H   SFRSYM    DATA     WORD      TMR4
      00000094H   SFRSYM    DATA     BYTE      SBCON1
      000000C0H.3 SFRSYM    DATA     BIT       SMB0CN0_ACKRQ
      000000FFH   SFRSYM    DATA     BYTE      VDM0CN
      000000F1H   SFRSYM    DATA     BYTE      P0MDIN
      00000098H.4 SFRSYM    DATA     BIT       SCON0_REN
      000000ACH   SFRSYM    DATA     BYTE      SMB0TC
      000000F2H   SFRSYM    DATA     BYTE      P1MDIN
      000000C8H.4 SFRSYM    DATA     BIT       SCON1_REN
      000000F3H   SFRSYM    DATA     BYTE      P2MDIN
      000000C0H.4 SFRSYM    DATA     BIT       SMB0CN0_STO
      000000F4H   SFRSYM    DATA     BYTE      P3MDIN
      000000B9H   SFRSYM    DATA     BYTE      I2C0STAT
      000000BBH   SFRSYM    DATA     BYTE      I2C0DOUT
      00000096H   SFRSYM    DATA     BYTE      SBRLH1
      000000FEH   SFRSYM    DATA     BYTE      P0MASK
      000000D8H.5 SFRSYM    DATA     BIT       UART1FCN1_TXHOLD
      000000EEH   SFRSYM    DATA     BYTE      P1MASK
      000000FCH   SFRSYM    DATA     BYTE      P2MASK
      000000D0H.3 SFRSYM    DATA     BIT       PSW_RS0
      000000D8H.7 SFRSYM    DATA     BIT       PCA0CN0_CF
      0000009EH   SFRSYM    DATA     BYTE      PCA0CENT
      000000BAH   SFRSYM    DATA     BYTE      I2C0CN0
      000000D2H   SFRSYM    DATA     BYTE      CRC0ST
      000000F8H.4 SFRSYM    DATA     BIT       SPI0CN0_RXOVRN
      000000D0H.4 SFRSYM    DATA     BIT       PSW_RS1
      00000095H   SFRSYM    DATA     BYTE      SBRLL1
      000000C8H.2 SFRSYM    DATA     BIT       SCON1_RBX
      000000C8H.0 SFRSYM    DATA     BIT       TMR2CN0_T2XCLK0
      000000C8H.1 SFRSYM    DATA     BIT       TMR2CN0_T2XCLK1
      000000C8H.3 SFRSYM    DATA     BIT       SCON1_TBX
      000000E8H.7 SFRSYM    DATA     BIT       ADC0CN0_ADEN
      00000089H   SFRSYM    DATA     BYTE      TMOD
      00000088H   SFRSYM    DATA     BYTE      TCON
LX51 LINKER/LOCATER V4.66.97.0                                                        08/03/2020  08:45:41  PAGE 79


      000000CFH   SFRSYM    DATA     BYTE      CRC0FLIP
      000000D0H.0 SFRSYM    DATA     BIT       PSW_PARITY
      000000A8H.4 SFRSYM    DATA     BIT       IE_ES0
      0000009FH   SFRSYM    DATA     BYTE      CMP0MX
      00000098H.0 SFRSYM    DATA     BIT       TMR4CN0_T4XCLK0
      000000A8H.1 SFRSYM    DATA     BIT       IE_ET0
      000000AAH   SFRSYM    DATA     BYTE      CMP1MX
      00000098H.1 SFRSYM    DATA     BIT       TMR4CN0_T4XCLK1
      000000A8H.3 SFRSYM    DATA     BIT       IE_ET1
      000000D4H   SFRSYM    DATA     BYTE      P0SKIP
      000000D8H.0 SFRSYM    DATA     BIT       UART1FCN1_RIE
      000000A8H.5 SFRSYM    DATA     BIT       IE_ET2
      000000D5H   SFRSYM    DATA     BYTE      P1SKIP
      000000CCH   SFRSYM    DATA     BYTE      P2SKIP
      000000E8H   SFRSYM    DATA     BYTE      ADC0CN0
      000000D8H.4 SFRSYM    DATA     BIT       UART1FCN1_TIE
      000000A8H.0 SFRSYM    DATA     BIT       IE_EX0
      000000B2H   SFRSYM    DATA     BYTE      ADC0CN1
      000000D8H.6 SFRSYM    DATA     BIT       PCA0CN0_CR
      000000A8H.2 SFRSYM    DATA     BIT       IE_EX1
      000000C8H.7 SFRSYM    DATA     BIT       SCON1_OVR
      00000098H.7 SFRSYM    DATA     BIT       SCON0_SMODE
      000000B5H   SFRSYM    DATA     BYTE      DEVICEID
      000000A9H   SFRSYM    DATA     BYTE      CLKSEL
      000000F8H.0 SFRSYM    DATA     BIT       SPI0CN0_SPIEN
      000000F0H   SFRSYM    DATA     BYTE      B
      000000BEH   SFRSYM    DATA     BYTE      ADC0H
      000000E8H.6 SFRSYM    DATA     BIT       ADC0CN0_ADBMEN
      000000CAH   SFRSYM    DATA     WORD      TMR2RL
      000000BDH   SFRSYM    DATA     BYTE      ADC0L
      00000092H   SFRSYM    DATA     WORD      TMR3RL
      000000A2H   SFRSYM    DATA     WORD      TMR4RL
      000000D8H   SFRSYM    DATA     BYTE      PCA0CN0
      000000E0H   SFRSYM    DATA     BYTE      ACC
      000000FBH   SFRSYM    DATA     WORD      PCA0CP0
      000000E9H   SFRSYM    DATA     WORD      PCA0CP1
      000000EBH   SFRSYM    DATA     WORD      PCA0CP2
      000000BCH   SFRSYM    DATA     BYTE      I2C0DIN
      000000CEH   SFRSYM    DATA     BYTE      CRC0CN0
      0000008CH   SFRSYM    DATA     BYTE      TH0
      00000086H   SFRSYM    DATA     BYTE      CRC0CN1
      000000B8H.4 SFRSYM    DATA     BIT       IP_PS0
      000000FAH   SFRSYM    DATA     BYTE      UART1FCT
      0000008DH   SFRSYM    DATA     BYTE      TH1
      000000FAH   SFRSYM    DATA     BYTE      PCA0H
      000000F5H   SFRSYM    DATA     BYTE      I2C0FCT
      000000B8H.1 SFRSYM    DATA     BIT       IP_PT0
      000000B8H.3 SFRSYM    DATA     BIT       IP_PT1
      000000C0H.2 SFRSYM    DATA     BIT       SMB0CN0_ARBLOST
      000000B8H.5 SFRSYM    DATA     BIT       IP_PT2
      0000008AH   SFRSYM    DATA     BYTE      TL0
      000000D0H.5 SFRSYM    DATA     BIT       PSW_F0
      000000A8H.6 SFRSYM    DATA     BIT       IE_ESPI0
      0000008BH   SFRSYM    DATA     BYTE      TL1
      000000F9H   SFRSYM    DATA     BYTE      PCA0L
      000000C0H.0 SFRSYM    DATA     BIT       SMB0CN0_SI
      000000D0H.1 SFRSYM    DATA     BIT       PSW_F1
      00000080H.0 SFRSYM    DATA     BIT       P0_B0
      000000B8H.0 SFRSYM    DATA     BIT       IP_PX0
      00000090H.0 SFRSYM    DATA     BIT       P1_B0
      00000080H.1 SFRSYM    DATA     BIT       P0_B1
      000000B8H.2 SFRSYM    DATA     BIT       IP_PX1
LX51 LINKER/LOCATER V4.66.97.0                                                        08/03/2020  08:45:41  PAGE 80


      0000009EH   SFRSYM    DATA     BYTE      UART1LIN
      0000009BH   SFRSYM    DATA     BYTE      CMP0CN0
      00000088H.1 SFRSYM    DATA     BIT       TCON_IE0
      000000A0H.0 SFRSYM    DATA     BIT       P2_B0
      00000090H.1 SFRSYM    DATA     BIT       P1_B1
      00000080H.2 SFRSYM    DATA     BIT       P0_B2
      000000BFH   SFRSYM    DATA     BYTE      CMP1CN0
      00000099H   SFRSYM    DATA     BYTE      CMP0CN1
      00000088H.3 SFRSYM    DATA     BIT       TCON_IE1
      000000B0H.0 SFRSYM    DATA     BIT       P3_B0
      000000A0H.1 SFRSYM    DATA     BIT       P2_B1
      00000090H.2 SFRSYM    DATA     BIT       P1_B2
      00000080H.3 SFRSYM    DATA     BIT       P0_B3
      000000C0H   SFRSYM    DATA     BYTE      SMB0CN0
      000000ACH   SFRSYM    DATA     BYTE      CMP1CN1
      000000B0H.1 SFRSYM    DATA     BIT       P3_B1
      000000A0H.2 SFRSYM    DATA     BIT       P2_B2
      00000090H.3 SFRSYM    DATA     BIT       P1_B3
      00000080H.4 SFRSYM    DATA     BIT       P0_B4
      000000A0H.3 SFRSYM    DATA     BIT       P2_B3
      00000090H.4 SFRSYM    DATA     BIT       P1_B4
      00000080H.5 SFRSYM    DATA     BIT       P0_B5
      000000D8H.1 SFRSYM    DATA     BIT       UART1FCN1_RXTO0
      00000090H.5 SFRSYM    DATA     BIT       P1_B5
      00000080H.6 SFRSYM    DATA     BIT       P0_B6
      000000F5H   SFRSYM    DATA     BYTE      EIP1H
      000000D8H.2 SFRSYM    DATA     BIT       UART1FCN1_RXTO1
      00000090H.6 SFRSYM    DATA     BIT       P1_B6
      00000080H.7 SFRSYM    DATA     BIT       P0_B7
      000000C5H   SFRSYM    DATA     BYTE      SMB0RXLN
      000000F6H   SFRSYM    DATA     BYTE      EIP2H
      00000090H.7 SFRSYM    DATA     BIT       P1_B7
      00000083H   SFRSYM    DATA     BYTE      DPH
      000000C4H   SFRSYM    DATA     BYTE      ADC0GTH
      000000C8H.7 SFRSYM    DATA     BIT       TMR2CN0_TF2H
      000000C8H.3 SFRSYM    DATA     BIT       TMR2CN0_T2SPLIT
      000000D0H.6 SFRSYM    DATA     BIT       PSW_AC
      000000F8H   SFRSYM    DATA     BYTE      SPI0CN0
      000000C7H   SFRSYM    DATA     BYTE      HFO0CAL
      00000088H.5 SFRSYM    DATA     BIT       TCON_TF0
      00000098H.0 SFRSYM    DATA     BIT       SCON0_RI
      000000D6H   SFRSYM    DATA     BYTE      HFO1CAL
      00000082H   SFRSYM    DATA     BYTE      DPL
      00000088H.7 SFRSYM    DATA     BIT       TCON_TF1
      000000C8H.0 SFRSYM    DATA     BIT       SCON1_RI
      00000099H   SFRSYM    DATA     BYTE      SBUF0
      00000087H   SFRSYM    DATA     BYTE      PCON0
      000000F2H   SFRSYM    DATA     BYTE      IPH
      000000C3H   SFRSYM    DATA     BYTE      ADC0GTL
      00000098H.7 SFRSYM    DATA     BIT       TMR4CN0_TF4H
      00000098H.3 SFRSYM    DATA     BIT       TMR4CN0_T4SPLIT
      000000C8H.6 SFRSYM    DATA     BIT       TMR2CN0_TF2L
      00000098H.1 SFRSYM    DATA     BIT       SCON0_TI
      000000E8H.0 SFRSYM    DATA     BIT       ADC0CN0_ADCM0
      00000092H   SFRSYM    DATA     BYTE      SBUF1
      0000009AH   SFRSYM    DATA     BYTE      PCON1
      000000C6H   SFRSYM    DATA     BYTE      ADC0LTH
      00000088H.0 SFRSYM    DATA     BIT       TCON_IT0
      000000C8H.1 SFRSYM    DATA     BIT       SCON1_TI
      000000E8H.1 SFRSYM    DATA     BIT       ADC0CN0_ADCM1
      000000EFH   SFRSYM    DATA     BYTE      RSTSRC
      000000FDH   SFRSYM    DATA     BYTE      P0MAT
LX51 LINKER/LOCATER V4.66.97.0                                                        08/03/2020  08:45:41  PAGE 81


      000000DEH   SFRSYM    DATA     BYTE      CRC0DAT
      00000088H.2 SFRSYM    DATA     BIT       TCON_IT1
      000000E8H.2 SFRSYM    DATA     BIT       ADC0CN0_ADCM2
      000000D7H   SFRSYM    DATA     BYTE      SFRSTACK
      00000098H   SFRSYM    DATA     BYTE      SCON0
      000000F6H   SFRSYM    DATA     BYTE      PRTDRV
      000000EDH   SFRSYM    DATA     BYTE      P1MAT
      000000E8H.3 SFRSYM    DATA     BIT       ADC0CN0_ADWINT
      00000095H   SFRSYM    DATA     WORD      SBRL1
      00000093H   SFRSYM    DATA     BYTE      SMOD1
      000000C8H   SFRSYM    DATA     BYTE      SCON1
      000000FBH   SFRSYM    DATA     BYTE      P2MAT
      00000098H.6 SFRSYM    DATA     BIT       TMR4CN0_TF4L
      000000E8H.4 SFRSYM    DATA     BIT       ADC0CN0_ADBUSY
      000000D6H   SFRSYM    DATA     BYTE      SMB0ADM
      000000C5H   SFRSYM    DATA     BYTE      ADC0LTL
      000000F8H.5 SFRSYM    DATA     BIT       SPI0CN0_MODF
      000000B8H.6 SFRSYM    DATA     BIT       IP_PSPI0
      0000009CH   SFRSYM    DATA     BYTE      PCA0CLR
      000000C8H   SFRSYM    DATA     BYTE      TMR2CN0
      00000091H   SFRSYM    DATA     BYTE      TMR3CN0
      000000FDH   SFRSYM    DATA     BYTE      TMR2CN1
      00000098H   SFRSYM    DATA     BYTE      TMR4CN0
      000000FEH   SFRSYM    DATA     BYTE      TMR3CN1
      000000FFH   SFRSYM    DATA     BYTE      TMR4CN1
      000000D7H   SFRSYM    DATA     BYTE      SMB0ADR
      00000088H.4 SFRSYM    DATA     BIT       TCON_TR0
      000000C8H.4 SFRSYM    DATA     BIT       TMR2CN0_TF2CEN
      00000088H.6 SFRSYM    DATA     BIT       TCON_TR1
      000000C2H   SFRSYM    DATA     BYTE      SMB0DAT
      000000CDH   SFRSYM    DATA     BYTE      TMR2H
      000000A1H   SFRSYM    DATA     BYTE      SPI0CFG
      00000095H   SFRSYM    DATA     BYTE      TMR3H
      000000EFH   SFRSYM    DATA     BYTE      HFOCN
      000000D3H   SFRSYM    DATA     BYTE      CRC0CNT
      000000A5H   SFRSYM    DATA     BYTE      TMR4H
      00000098H.4 SFRSYM    DATA     BIT       TMR4CN0_TF4CEN
      000000EFH   SFRSYM    DATA     BYTE      SMB0FCT
      00000096H   SFRSYM    DATA     BYTE      PCA0POL
      000000CCH   SFRSYM    DATA     BYTE      TMR2L
      000000F8H.7 SFRSYM    DATA     BIT       SPI0CN0_SPIF
      00000094H   SFRSYM    DATA     BYTE      TMR3L
      000000DFH   SFRSYM    DATA     BYTE      ADC0PWR
      000000A8H.7 SFRSYM    DATA     BIT       IE_EA
      000000A4H   SFRSYM    DATA     BYTE      TMR4L
      000000C8H.5 SFRSYM    DATA     BIT       TMR2CN0_TF2LEN
      000000F8H.6 SFRSYM    DATA     BIT       SPI0CN0_WCOL
      000000F8H.2 SFRSYM    DATA     BIT       SPI0CN0_NSSMD0
      000000D0H.7 SFRSYM    DATA     BIT       PSW_CY
      0000009DH   SFRSYM    DATA     BYTE      UART1FCN0
      000000A3H   SFRSYM    DATA     BYTE      SPI0DAT
      000000ADH   SFRSYM    DATA     BYTE      I2C0FCN0
      000000F8H.3 SFRSYM    DATA     BIT       SPI0CN0_NSSMD1
      000000BDH   SFRSYM    DATA     WORD      ADC0
      000000D8H   SFRSYM    DATA     BYTE      UART1FCN1
      000000ABH   SFRSYM    DATA     BYTE      I2C0FCN1
      00000098H.5 SFRSYM    DATA     BIT       TMR4CN0_TF4LEN
      000000D0H   SFRSYM    DATA     BYTE      PSW
      000000F7H   SFRSYM    DATA     BYTE      PCA0PWM
      000000F7H   SFRSYM    DATA     BYTE      SPI0FCT
      000000B6H   SFRSYM    DATA     BYTE      REVID
      000000B7H   SFRSYM    DATA     BYTE      FLKEY
LX51 LINKER/LOCATER V4.66.97.0                                                        08/03/2020  08:45:41  PAGE 82


      000000B3H   SFRSYM    DATA     BYTE      ADC0AC
      00000007H   SYMBOL    DATA     BYTE      WarningClass

      ---         MODULE    ---      ---       TIMER
      020002BBH   PUBLIC    XDATA    BYTE      bTimeFlag
      020002B9H   PUBLIC    XDATA    WORD      wSensorCheckTime
      020002B7H   PUBLIC    XDATA    WORD      w50msCnt
      020002B6H   PUBLIC    XDATA    BYTE      bLevel
      020002B5H   PUBLIC    XDATA    BYTE      bSensorCheckFlag
      020002B4H   PUBLIC    XDATA    BYTE      b50msFlag
      020002B2H   PUBLIC    XDATA    WORD      wTime
      01001EE3H   PUBLIC    CODE     ---       TIMER3_ISR
      010020F0H   PUBLIC    CODE     ---       TIMER4_ISR
      0100000AH   PUBLIC    CODE     ---       TIMER0_ISR
      01001B6EH   PUBLIC    CODE     ---       TIMER2_ISR
      0100000EH   PUBLIC    CODE     ---       _Delay1ms
      01001E14H   PUBLIC    CODE     ---       _Delay1us
      01000076H   PUBLIC    CODE     ---       Time_StopAdcTrigger
      010020D4H   PUBLIC    CODE     ---       Time_StartAdcTrigger
      01002032H   PUBLIC    CODE     ---       Time_InitAdcTriggerTimer
      01001F3DH   PUBLIC    CODE     ---       Time_InitTheDelayTimer
      010020B8H   PUBLIC    CODE     ---       Time_Init32msTimer
      01001F12H   PUBLIC    CODE     ---       Time_Init1msTimer
      0100200BH   PUBLIC    CODE     ---       Time_InitVariable
      000000A2H   SFRSYM    DATA     BYTE      SPI0CKR
      00000080H   SFRSYM    DATA     BYTE      P0
      000000C8H.6 SFRSYM    DATA     BIT       SCON1_PERR
      000000D0H.2 SFRSYM    DATA     BIT       PSW_OV
      00000090H   SFRSYM    DATA     BYTE      P1
      000000F8H.1 SFRSYM    DATA     BIT       SPI0CN0_TXNF
      00000097H   SFRSYM    DATA     BYTE      WDTCN
      000000A0H   SFRSYM    DATA     BYTE      P2
      000000B0H   SFRSYM    DATA     BYTE      P3
      000000BCH   SFRSYM    DATA     BYTE      ADC0CF
      000000C0H.7 SFRSYM    DATA     BIT       SMB0CN0_MASTER
      000000F9H   SFRSYM    DATA     WORD      PCA0
      000000E6H   SFRSYM    DATA     BYTE      EIE1
      000000C0H.1 SFRSYM    DATA     BIT       SMB0CN0_ACK
      000000CEH   SFRSYM    DATA     BYTE      EIE2
      0000008FH   SFRSYM    DATA     BYTE      PSCTL
      000000E4H   SFRSYM    DATA     BYTE      IT01CF
      000000C0H.6 SFRSYM    DATA     BIT       SMB0CN0_TXMODE
      000000ADH   SFRSYM    DATA     BYTE      DERIVID
      000000A7H   SFRSYM    DATA     BYTE      SFRPAGE
      000000A4H   SFRSYM    DATA     BYTE      P0MDOUT
      000000A5H   SFRSYM    DATA     BYTE      P1MDOUT
      000000E8H.5 SFRSYM    DATA     BIT       ADC0CN0_ADINT
      000000CBH   SFRSYM    DATA     BYTE      TMR2RLH
      000000A6H   SFRSYM    DATA     BYTE      P2MDOUT
      000000A8H   SFRSYM    DATA     BYTE      IE
      00000093H   SFRSYM    DATA     BYTE      TMR3RLH
      0000009CH   SFRSYM    DATA     BYTE      P3MDOUT
      000000A3H   SFRSYM    DATA     BYTE      TMR4RLH
      000000F3H   SFRSYM    DATA     BYTE      EIP1
      000000F4H   SFRSYM    DATA     BYTE      EIP2
      00000098H.2 SFRSYM    DATA     BIT       SCON0_RB8
      000000CAH   SFRSYM    DATA     BYTE      TMR2RLL
      000000FCH   SFRSYM    DATA     BYTE      PCA0CPH0
      00000092H   SFRSYM    DATA     BYTE      TMR3RLL
      000000EAH   SFRSYM    DATA     BYTE      PCA0CPH1
      00000098H.3 SFRSYM    DATA     BIT       SCON0_TB8
      000000F0H.0 SFRSYM    DATA     BIT       B_B0
LX51 LINKER/LOCATER V4.66.97.0                                                        08/03/2020  08:45:41  PAGE 83


      00000082H   SFRSYM    DATA     WORD      DP
      000000A2H   SFRSYM    DATA     BYTE      TMR4RLL
      000000ECH   SFRSYM    DATA     BYTE      PCA0CPH2
      000000F0H.1 SFRSYM    DATA     BIT       B_B1
      000000C3H   SFRSYM    DATA     WORD      ADC0GT
      000000BDH   SFRSYM    DATA     BYTE      I2C0SLAD
      000000D8H.3 SFRSYM    DATA     BIT       UART1FCN1_RFRQ
      000000F0H.2 SFRSYM    DATA     BIT       B_B2
      000000CFH   SFRSYM    DATA     BYTE      SFRPGCN
      000000FBH   SFRSYM    DATA     BYTE      PCA0CPL0
      000000F0H.3 SFRSYM    DATA     BIT       B_B3
      000000D9H   SFRSYM    DATA     BYTE      PCA0MD
      000000DAH   SFRSYM    DATA     BYTE      PCA0CPM0
      000000E9H   SFRSYM    DATA     BYTE      PCA0CPL1
      000000D8H.7 SFRSYM    DATA     BIT       UART1FCN1_TFRQ
      000000F0H.4 SFRSYM    DATA     BIT       B_B4
      000000DBH   SFRSYM    DATA     BYTE      PCA0CPM1
      000000EBH   SFRSYM    DATA     BYTE      PCA0CPL2
      000000F0H.5 SFRSYM    DATA     BIT       B_B5
      000000DCH   SFRSYM    DATA     BYTE      PCA0CPM2
      000000B8H   SFRSYM    DATA     BYTE      IP
      000000B9H   SFRSYM    DATA     BYTE      ADC0TK
      000000F0H.6 SFRSYM    DATA     BIT       B_B6
      000000C5H   SFRSYM    DATA     WORD      ADC0LT
      000000D8H.6 SFRSYM    DATA     BIT       UART1FCN1_TXNF
      00000098H.5 SFRSYM    DATA     BIT       SCON0_MCE
      000000F0H.7 SFRSYM    DATA     BIT       B_B7
      000000C3H   SFRSYM    DATA     BYTE      SMB0FCN0
      000000E1H   SFRSYM    DATA     BYTE      XBR0
      000000C4H   SFRSYM    DATA     BYTE      SMB0FCN1
      000000C1H   SFRSYM    DATA     BYTE      SMB0CF
      000000E2H   SFRSYM    DATA     BYTE      XBR1
      000000C1H   SFRSYM    DATA     BYTE      PFE0CN
      000000E7H   SFRSYM    DATA     BYTE      EMI0CN
      000000C0H.5 SFRSYM    DATA     BIT       SMB0CN0_STA
      000000E3H   SFRSYM    DATA     BYTE      XBR2
      000000BBH   SFRSYM    DATA     BYTE      ADC0MX
      000000E0H.0 SFRSYM    DATA     BIT       ACC_ACC0
      000000D1H   SFRSYM    DATA     BYTE      REF0CN
      0000008EH   SFRSYM    DATA     BYTE      CKCON0
      000000E0H.1 SFRSYM    DATA     BIT       ACC_ACC1
      000000C9H   SFRSYM    DATA     BYTE      REG0CN
      000000DDH   SFRSYM    DATA     BYTE      CRC0IN
      000000A6H   SFRSYM    DATA     BYTE      CKCON1
      000000C8H.2 SFRSYM    DATA     BIT       TMR2CN0_TR2
      000000E0H.2 SFRSYM    DATA     BIT       ACC_ACC2
      000000C6H   SFRSYM    DATA     BYTE      REG1CN
      000000E0H.3 SFRSYM    DATA     BIT       ACC_ACC3
      00000081H   SFRSYM    DATA     BYTE      SP
      0000009DH   SFRSYM    DATA     BYTE      CMP0MD
      000000E0H.4 SFRSYM    DATA     BIT       ACC_ACC4
      000000B1H   SFRSYM    DATA     BYTE      LFO0CN
      000000ABH   SFRSYM    DATA     BYTE      CMP1MD
      000000D8H.0 SFRSYM    DATA     BIT       PCA0CN0_CCF0
      000000E0H.5 SFRSYM    DATA     BIT       ACC_ACC5
      00000098H.2 SFRSYM    DATA     BIT       TMR4CN0_TR4
      000000D8H.1 SFRSYM    DATA     BIT       PCA0CN0_CCF1
      000000E0H.6 SFRSYM    DATA     BIT       ACC_ACC6
      000000CCH   SFRSYM    DATA     WORD      TMR2
      0000009AH   SFRSYM    DATA     BYTE      SPI0FCN0
      000000D8H.2 SFRSYM    DATA     BIT       PCA0CN0_CCF2
      000000E0H.7 SFRSYM    DATA     BIT       ACC_ACC7
LX51 LINKER/LOCATER V4.66.97.0                                                        08/03/2020  08:45:41  PAGE 84


      00000094H   SFRSYM    DATA     WORD      TMR3
      0000009BH   SFRSYM    DATA     BYTE      SPI0FCN1
      000000A4H   SFRSYM    DATA     WORD      TMR4
      00000094H   SFRSYM    DATA     BYTE      SBCON1
      000000C0H.3 SFRSYM    DATA     BIT       SMB0CN0_ACKRQ
      000000FFH   SFRSYM    DATA     BYTE      VDM0CN
      000000F1H   SFRSYM    DATA     BYTE      P0MDIN
      00000098H.4 SFRSYM    DATA     BIT       SCON0_REN
      000000ACH   SFRSYM    DATA     BYTE      SMB0TC
      000000F2H   SFRSYM    DATA     BYTE      P1MDIN
      000000C8H.4 SFRSYM    DATA     BIT       SCON1_REN
      000000F3H   SFRSYM    DATA     BYTE      P2MDIN
      000000C0H.4 SFRSYM    DATA     BIT       SMB0CN0_STO
      000000F4H   SFRSYM    DATA     BYTE      P3MDIN
      000000B9H   SFRSYM    DATA     BYTE      I2C0STAT
      000000BBH   SFRSYM    DATA     BYTE      I2C0DOUT
      00000096H   SFRSYM    DATA     BYTE      SBRLH1
      000000FEH   SFRSYM    DATA     BYTE      P0MASK
      000000D8H.5 SFRSYM    DATA     BIT       UART1FCN1_TXHOLD
      000000EEH   SFRSYM    DATA     BYTE      P1MASK
      000000FCH   SFRSYM    DATA     BYTE      P2MASK
      000000D0H.3 SFRSYM    DATA     BIT       PSW_RS0
      000000D8H.7 SFRSYM    DATA     BIT       PCA0CN0_CF
      0000009EH   SFRSYM    DATA     BYTE      PCA0CENT
      000000BAH   SFRSYM    DATA     BYTE      I2C0CN0
      000000D2H   SFRSYM    DATA     BYTE      CRC0ST
      000000F8H.4 SFRSYM    DATA     BIT       SPI0CN0_RXOVRN
      000000D0H.4 SFRSYM    DATA     BIT       PSW_RS1
      00000095H   SFRSYM    DATA     BYTE      SBRLL1
      000000C8H.2 SFRSYM    DATA     BIT       SCON1_RBX
      000000C8H.0 SFRSYM    DATA     BIT       TMR2CN0_T2XCLK0
      000000C8H.1 SFRSYM    DATA     BIT       TMR2CN0_T2XCLK1
      000000C8H.3 SFRSYM    DATA     BIT       SCON1_TBX
      000000E8H.7 SFRSYM    DATA     BIT       ADC0CN0_ADEN
      00000089H   SFRSYM    DATA     BYTE      TMOD
      00000088H   SFRSYM    DATA     BYTE      TCON
      000000CFH   SFRSYM    DATA     BYTE      CRC0FLIP
      000000D0H.0 SFRSYM    DATA     BIT       PSW_PARITY
      000000A8H.4 SFRSYM    DATA     BIT       IE_ES0
      0000009FH   SFRSYM    DATA     BYTE      CMP0MX
      00000098H.0 SFRSYM    DATA     BIT       TMR4CN0_T4XCLK0
      000000A8H.1 SFRSYM    DATA     BIT       IE_ET0
      000000AAH   SFRSYM    DATA     BYTE      CMP1MX
      00000098H.1 SFRSYM    DATA     BIT       TMR4CN0_T4XCLK1
      000000A8H.3 SFRSYM    DATA     BIT       IE_ET1
      000000D4H   SFRSYM    DATA     BYTE      P0SKIP
      000000D8H.0 SFRSYM    DATA     BIT       UART1FCN1_RIE
      000000A8H.5 SFRSYM    DATA     BIT       IE_ET2
      000000D5H   SFRSYM    DATA     BYTE      P1SKIP
      000000CCH   SFRSYM    DATA     BYTE      P2SKIP
      000000E8H   SFRSYM    DATA     BYTE      ADC0CN0
      000000D8H.4 SFRSYM    DATA     BIT       UART1FCN1_TIE
      000000A8H.0 SFRSYM    DATA     BIT       IE_EX0
      000000B2H   SFRSYM    DATA     BYTE      ADC0CN1
      000000D8H.6 SFRSYM    DATA     BIT       PCA0CN0_CR
      000000A8H.2 SFRSYM    DATA     BIT       IE_EX1
      000000C8H.7 SFRSYM    DATA     BIT       SCON1_OVR
      00000098H.7 SFRSYM    DATA     BIT       SCON0_SMODE
      000000B5H   SFRSYM    DATA     BYTE      DEVICEID
      000000A9H   SFRSYM    DATA     BYTE      CLKSEL
      000000F8H.0 SFRSYM    DATA     BIT       SPI0CN0_SPIEN
      000000F0H   SFRSYM    DATA     BYTE      B
LX51 LINKER/LOCATER V4.66.97.0                                                        08/03/2020  08:45:41  PAGE 85


      000000BEH   SFRSYM    DATA     BYTE      ADC0H
      000000E8H.6 SFRSYM    DATA     BIT       ADC0CN0_ADBMEN
      000000CAH   SFRSYM    DATA     WORD      TMR2RL
      000000BDH   SFRSYM    DATA     BYTE      ADC0L
      00000092H   SFRSYM    DATA     WORD      TMR3RL
      000000A2H   SFRSYM    DATA     WORD      TMR4RL
      000000D8H   SFRSYM    DATA     BYTE      PCA0CN0
      000000E0H   SFRSYM    DATA     BYTE      ACC
      000000FBH   SFRSYM    DATA     WORD      PCA0CP0
      000000E9H   SFRSYM    DATA     WORD      PCA0CP1
      000000EBH   SFRSYM    DATA     WORD      PCA0CP2
      000000BCH   SFRSYM    DATA     BYTE      I2C0DIN
      000000CEH   SFRSYM    DATA     BYTE      CRC0CN0
      0000008CH   SFRSYM    DATA     BYTE      TH0
      00000086H   SFRSYM    DATA     BYTE      CRC0CN1
      000000B8H.4 SFRSYM    DATA     BIT       IP_PS0
      000000FAH   SFRSYM    DATA     BYTE      UART1FCT
      0000008DH   SFRSYM    DATA     BYTE      TH1
      000000FAH   SFRSYM    DATA     BYTE      PCA0H
      000000F5H   SFRSYM    DATA     BYTE      I2C0FCT
      000000B8H.1 SFRSYM    DATA     BIT       IP_PT0
      000000B8H.3 SFRSYM    DATA     BIT       IP_PT1
      000000C0H.2 SFRSYM    DATA     BIT       SMB0CN0_ARBLOST
      000000B8H.5 SFRSYM    DATA     BIT       IP_PT2
      0000008AH   SFRSYM    DATA     BYTE      TL0
      000000D0H.5 SFRSYM    DATA     BIT       PSW_F0
      000000A8H.6 SFRSYM    DATA     BIT       IE_ESPI0
      0000008BH   SFRSYM    DATA     BYTE      TL1
      000000F9H   SFRSYM    DATA     BYTE      PCA0L
      000000C0H.0 SFRSYM    DATA     BIT       SMB0CN0_SI
      000000D0H.1 SFRSYM    DATA     BIT       PSW_F1
      00000080H.0 SFRSYM    DATA     BIT       P0_B0
      000000B8H.0 SFRSYM    DATA     BIT       IP_PX0
      00000090H.0 SFRSYM    DATA     BIT       P1_B0
      00000080H.1 SFRSYM    DATA     BIT       P0_B1
      000000B8H.2 SFRSYM    DATA     BIT       IP_PX1
      0000009EH   SFRSYM    DATA     BYTE      UART1LIN
      0000009BH   SFRSYM    DATA     BYTE      CMP0CN0
      00000088H.1 SFRSYM    DATA     BIT       TCON_IE0
      000000A0H.0 SFRSYM    DATA     BIT       P2_B0
      00000090H.1 SFRSYM    DATA     BIT       P1_B1
      00000080H.2 SFRSYM    DATA     BIT       P0_B2
      000000BFH   SFRSYM    DATA     BYTE      CMP1CN0
      00000099H   SFRSYM    DATA     BYTE      CMP0CN1
      00000088H.3 SFRSYM    DATA     BIT       TCON_IE1
      000000B0H.0 SFRSYM    DATA     BIT       P3_B0
      000000A0H.1 SFRSYM    DATA     BIT       P2_B1
      00000090H.2 SFRSYM    DATA     BIT       P1_B2
      00000080H.3 SFRSYM    DATA     BIT       P0_B3
      000000C0H   SFRSYM    DATA     BYTE      SMB0CN0
      000000ACH   SFRSYM    DATA     BYTE      CMP1CN1
      000000B0H.1 SFRSYM    DATA     BIT       P3_B1
      000000A0H.2 SFRSYM    DATA     BIT       P2_B2
      00000090H.3 SFRSYM    DATA     BIT       P1_B3
      00000080H.4 SFRSYM    DATA     BIT       P0_B4
      000000A0H.3 SFRSYM    DATA     BIT       P2_B3
      00000090H.4 SFRSYM    DATA     BIT       P1_B4
      00000080H.5 SFRSYM    DATA     BIT       P0_B5
      000000D8H.1 SFRSYM    DATA     BIT       UART1FCN1_RXTO0
      00000090H.5 SFRSYM    DATA     BIT       P1_B5
      00000080H.6 SFRSYM    DATA     BIT       P0_B6
      000000F5H   SFRSYM    DATA     BYTE      EIP1H
LX51 LINKER/LOCATER V4.66.97.0                                                        08/03/2020  08:45:41  PAGE 86


      000000D8H.2 SFRSYM    DATA     BIT       UART1FCN1_RXTO1
      00000090H.6 SFRSYM    DATA     BIT       P1_B6
      00000080H.7 SFRSYM    DATA     BIT       P0_B7
      000000C5H   SFRSYM    DATA     BYTE      SMB0RXLN
      000000F6H   SFRSYM    DATA     BYTE      EIP2H
      00000090H.7 SFRSYM    DATA     BIT       P1_B7
      00000083H   SFRSYM    DATA     BYTE      DPH
      000000C4H   SFRSYM    DATA     BYTE      ADC0GTH
      000000C8H.7 SFRSYM    DATA     BIT       TMR2CN0_TF2H
      000000C8H.3 SFRSYM    DATA     BIT       TMR2CN0_T2SPLIT
      000000D0H.6 SFRSYM    DATA     BIT       PSW_AC
      000000F8H   SFRSYM    DATA     BYTE      SPI0CN0
      000000C7H   SFRSYM    DATA     BYTE      HFO0CAL
      00000088H.5 SFRSYM    DATA     BIT       TCON_TF0
      00000098H.0 SFRSYM    DATA     BIT       SCON0_RI
      000000D6H   SFRSYM    DATA     BYTE      HFO1CAL
      00000082H   SFRSYM    DATA     BYTE      DPL
      00000088H.7 SFRSYM    DATA     BIT       TCON_TF1
      000000C8H.0 SFRSYM    DATA     BIT       SCON1_RI
      00000099H   SFRSYM    DATA     BYTE      SBUF0
      00000087H   SFRSYM    DATA     BYTE      PCON0
      000000F2H   SFRSYM    DATA     BYTE      IPH
      000000C3H   SFRSYM    DATA     BYTE      ADC0GTL
      00000098H.7 SFRSYM    DATA     BIT       TMR4CN0_TF4H
      00000098H.3 SFRSYM    DATA     BIT       TMR4CN0_T4SPLIT
      000000C8H.6 SFRSYM    DATA     BIT       TMR2CN0_TF2L
      00000098H.1 SFRSYM    DATA     BIT       SCON0_TI
      000000E8H.0 SFRSYM    DATA     BIT       ADC0CN0_ADCM0
      00000092H   SFRSYM    DATA     BYTE      SBUF1
      0000009AH   SFRSYM    DATA     BYTE      PCON1
      000000C6H   SFRSYM    DATA     BYTE      ADC0LTH
      00000088H.0 SFRSYM    DATA     BIT       TCON_IT0
      000000C8H.1 SFRSYM    DATA     BIT       SCON1_TI
      000000E8H.1 SFRSYM    DATA     BIT       ADC0CN0_ADCM1
      000000EFH   SFRSYM    DATA     BYTE      RSTSRC
      000000FDH   SFRSYM    DATA     BYTE      P0MAT
      000000DEH   SFRSYM    DATA     BYTE      CRC0DAT
      00000088H.2 SFRSYM    DATA     BIT       TCON_IT1
      000000E8H.2 SFRSYM    DATA     BIT       ADC0CN0_ADCM2
      000000D7H   SFRSYM    DATA     BYTE      SFRSTACK
      00000098H   SFRSYM    DATA     BYTE      SCON0
      000000F6H   SFRSYM    DATA     BYTE      PRTDRV
      000000EDH   SFRSYM    DATA     BYTE      P1MAT
      000000E8H.3 SFRSYM    DATA     BIT       ADC0CN0_ADWINT
      00000095H   SFRSYM    DATA     WORD      SBRL1
      00000093H   SFRSYM    DATA     BYTE      SMOD1
      000000C8H   SFRSYM    DATA     BYTE      SCON1
      000000FBH   SFRSYM    DATA     BYTE      P2MAT
      00000098H.6 SFRSYM    DATA     BIT       TMR4CN0_TF4L
      000000E8H.4 SFRSYM    DATA     BIT       ADC0CN0_ADBUSY
      000000D6H   SFRSYM    DATA     BYTE      SMB0ADM
      000000C5H   SFRSYM    DATA     BYTE      ADC0LTL
      000000F8H.5 SFRSYM    DATA     BIT       SPI0CN0_MODF
      000000B8H.6 SFRSYM    DATA     BIT       IP_PSPI0
      0000009CH   SFRSYM    DATA     BYTE      PCA0CLR
      000000C8H   SFRSYM    DATA     BYTE      TMR2CN0
      00000091H   SFRSYM    DATA     BYTE      TMR3CN0
      000000FDH   SFRSYM    DATA     BYTE      TMR2CN1
      00000098H   SFRSYM    DATA     BYTE      TMR4CN0
      000000FEH   SFRSYM    DATA     BYTE      TMR3CN1
      000000FFH   SFRSYM    DATA     BYTE      TMR4CN1
      000000D7H   SFRSYM    DATA     BYTE      SMB0ADR
LX51 LINKER/LOCATER V4.66.97.0                                                        08/03/2020  08:45:41  PAGE 87


      00000088H.4 SFRSYM    DATA     BIT       TCON_TR0
      000000C8H.4 SFRSYM    DATA     BIT       TMR2CN0_TF2CEN
      00000088H.6 SFRSYM    DATA     BIT       TCON_TR1
      000000C2H   SFRSYM    DATA     BYTE      SMB0DAT
      000000CDH   SFRSYM    DATA     BYTE      TMR2H
      000000A1H   SFRSYM    DATA     BYTE      SPI0CFG
      00000095H   SFRSYM    DATA     BYTE      TMR3H
      000000EFH   SFRSYM    DATA     BYTE      HFOCN
      000000D3H   SFRSYM    DATA     BYTE      CRC0CNT
      000000A5H   SFRSYM    DATA     BYTE      TMR4H
      00000098H.4 SFRSYM    DATA     BIT       TMR4CN0_TF4CEN
      000000EFH   SFRSYM    DATA     BYTE      SMB0FCT
      00000096H   SFRSYM    DATA     BYTE      PCA0POL
      000000CCH   SFRSYM    DATA     BYTE      TMR2L
      000000F8H.7 SFRSYM    DATA     BIT       SPI0CN0_SPIF
      00000094H   SFRSYM    DATA     BYTE      TMR3L
      000000DFH   SFRSYM    DATA     BYTE      ADC0PWR
      000000A8H.7 SFRSYM    DATA     BIT       IE_EA
      000000A4H   SFRSYM    DATA     BYTE      TMR4L
      000000C8H.5 SFRSYM    DATA     BIT       TMR2CN0_TF2LEN
      000000F8H.6 SFRSYM    DATA     BIT       SPI0CN0_WCOL
      000000F8H.2 SFRSYM    DATA     BIT       SPI0CN0_NSSMD0
      000000D0H.7 SFRSYM    DATA     BIT       PSW_CY
      0000009DH   SFRSYM    DATA     BYTE      UART1FCN0
      000000A3H   SFRSYM    DATA     BYTE      SPI0DAT
      000000ADH   SFRSYM    DATA     BYTE      I2C0FCN0
      000000F8H.3 SFRSYM    DATA     BIT       SPI0CN0_NSSMD1
      000000BDH   SFRSYM    DATA     WORD      ADC0
      000000D8H   SFRSYM    DATA     BYTE      UART1FCN1
      000000ABH   SFRSYM    DATA     BYTE      I2C0FCN1
      00000098H.5 SFRSYM    DATA     BIT       TMR4CN0_TF4LEN
      000000D0H   SFRSYM    DATA     BYTE      PSW
      000000F7H   SFRSYM    DATA     BYTE      PCA0PWM
      000000F7H   SFRSYM    DATA     BYTE      SPI0FCT
      000000B6H   SFRSYM    DATA     BYTE      REVID
      000000B7H   SFRSYM    DATA     BYTE      FLKEY
      000000B3H   SFRSYM    DATA     BYTE      ADC0AC

      0100200BH   BLOCK     CODE     ---       LVL=0
      0100200BH   LINE      CODE     ---       #28
      0100200BH   LINE      CODE     ---       #29
      0100200BH   LINE      CODE     ---       #30
      01002010H   LINE      CODE     ---       #31
      01002014H   LINE      CODE     ---       #32
      0100201AH   LINE      CODE     ---       #33
      0100201EH   LINE      CODE     ---       #34
      01002024H   LINE      CODE     ---       #35
      01002028H   LINE      CODE     ---       #36
      01002031H   LINE      CODE     ---       #37
      ---         BLOCKEND  ---      ---       LVL=0
      00000007H   SYMBOL    DATA     BYTE      CH
      00000007H   SYMBOL    DATA     BYTE      CH

      01001F12H   BLOCK     CODE     ---       LVL=0
      01001F12H   LINE      CODE     ---       #140
      01001F12H   LINE      CODE     ---       #141
      01001F12H   LINE      CODE     ---       #142
      01001F18H   LINE      CODE     ---       #143
      01001F1BH   LINE      CODE     ---       #145
      01001F1DH   LINE      CODE     ---       #146
      01001F1FH   LINE      CODE     ---       #147
      01001F21H   LINE      CODE     ---       #148
LX51 LINKER/LOCATER V4.66.97.0                                                        08/03/2020  08:45:41  PAGE 88


      01001F23H   LINE      CODE     ---       #149
      01001F26H   LINE      CODE     ---       #150
      01001F29H   LINE      CODE     ---       #151
      01001F2CH   LINE      CODE     ---       #152
      01001F2FH   LINE      CODE     ---       #153
      01001F31H   LINE      CODE     ---       #154
      01001F34H   LINE      CODE     ---       #155
      01001F37H   LINE      CODE     ---       #156
      01001F39H   LINE      CODE     ---       #158
      01001F3CH   LINE      CODE     ---       #159
      ---         BLOCKEND  ---      ---       LVL=0

      010020B8H   BLOCK     CODE     ---       LVL=0
      010020B8H   LINE      CODE     ---       #165
      010020B8H   LINE      CODE     ---       #166
      010020B8H   LINE      CODE     ---       #167
      010020BBH   LINE      CODE     ---       #168
      010020BEH   LINE      CODE     ---       #169
      010020C1H   LINE      CODE     ---       #170
      010020C4H   LINE      CODE     ---       #171
      010020C7H   LINE      CODE     ---       #172
      010020C9H   LINE      CODE     ---       #173
      010020CBH   LINE      CODE     ---       #174
      010020CEH   LINE      CODE     ---       #175
      010020D1H   LINE      CODE     ---       #177
      010020D3H   LINE      CODE     ---       #178
      ---         BLOCKEND  ---      ---       LVL=0

      01001F3DH   BLOCK     CODE     ---       LVL=0
      01001F3DH   LINE      CODE     ---       #239
      01001F3DH   LINE      CODE     ---       #240
      01001F3DH   LINE      CODE     ---       #241
      01001F43H   LINE      CODE     ---       #242
      01001F46H   LINE      CODE     ---       #243
      01001F48H   LINE      CODE     ---       #244
      01001F4AH   LINE      CODE     ---       #245
      01001F4CH   LINE      CODE     ---       #246
      01001F4EH   LINE      CODE     ---       #247
      01001F51H   LINE      CODE     ---       #248
      01001F54H   LINE      CODE     ---       #249
      01001F57H   LINE      CODE     ---       #250
      01001F59H   LINE      CODE     ---       #251
      01001F5CH   LINE      CODE     ---       #252
      01001F5FH   LINE      CODE     ---       #253
      01001F62H   LINE      CODE     ---       #255
      01001F64H   LINE      CODE     ---       #257
      01001F67H   LINE      CODE     ---       #258
      ---         BLOCKEND  ---      ---       LVL=0

      01002032H   BLOCK     CODE     ---       LVL=0
      01002032H   LINE      CODE     ---       #260
      01002032H   LINE      CODE     ---       #261
      01002032H   LINE      CODE     ---       #262
      01002038H   LINE      CODE     ---       #263
      0100203BH   LINE      CODE     ---       #265
      0100203DH   LINE      CODE     ---       #269
      01002040H   LINE      CODE     ---       #270
      01002043H   LINE      CODE     ---       #271
      01002046H   LINE      CODE     ---       #272
      01002049H   LINE      CODE     ---       #273
      0100204CH   LINE      CODE     ---       #274
      0100204FH   LINE      CODE     ---       #275
LX51 LINKER/LOCATER V4.66.97.0                                                        08/03/2020  08:45:41  PAGE 89


      01002052H   LINE      CODE     ---       #276
      01002055H   LINE      CODE     ---       #278
      01002058H   LINE      CODE     ---       #279
      ---         BLOCKEND  ---      ---       LVL=0

      010020D4H   BLOCK     CODE     ---       LVL=0
      010020D4H   LINE      CODE     ---       #281
      010020D4H   LINE      CODE     ---       #282
      010020D4H   LINE      CODE     ---       #283
      010020DAH   LINE      CODE     ---       #284
      010020DDH   LINE      CODE     ---       #286
      010020E0H   LINE      CODE     ---       #287
      010020E3H   LINE      CODE     ---       #288
      010020E6H   LINE      CODE     ---       #289
      010020E9H   LINE      CODE     ---       #290
      010020ECH   LINE      CODE     ---       #292
      010020EFH   LINE      CODE     ---       #293
      ---         BLOCKEND  ---      ---       LVL=0

      01000076H   BLOCK     CODE     ---       LVL=0
      01000076H   LINE      CODE     ---       #295
      01000076H   LINE      CODE     ---       #296
      01000076H   LINE      CODE     ---       #297
      0100007CH   LINE      CODE     ---       #298
      0100007FH   LINE      CODE     ---       #300
      01000082H   LINE      CODE     ---       #301
      01000085H   LINE      CODE     ---       #303
      01000088H   LINE      CODE     ---       #304
      ---         BLOCKEND  ---      ---       LVL=0

      01001E14H   BLOCK     CODE     ---       LVL=0
      00000006H   SYMBOL    DATA     WORD      byTime
      01001E14H   BLOCK     CODE     NEAR LAB  LVL=1
      00000006H   SYMBOL    DATA     WORD      Temp
      ---         BLOCKEND  ---      ---       LVL=1
      01001E14H   LINE      CODE     ---       #354
      01001E14H   LINE      CODE     ---       #355
      01001E14H   LINE      CODE     ---       #358
      01001E1AH   LINE      CODE     ---       #359
      01001E1DH   LINE      CODE     ---       #361
      01001E28H   LINE      CODE     ---       #362
      01001E31H   LINE      CODE     ---       #363
      01001E34H   LINE      CODE     ---       #364
      01001E37H   LINE      CODE     ---       #365
      01001E39H   LINE      CODE     ---       #366
      01001E3CH   LINE      CODE     ---       #367
      01001E3CH   LINE      CODE     ---       #368
      01001E3FH   LINE      CODE     ---       #369
      01001E41H   LINE      CODE     ---       #370
      01001E43H   LINE      CODE     ---       #371
      01001E45H   LINE      CODE     ---       #373
      01001E4BH   LINE      CODE     ---       #374
      ---         BLOCKEND  ---      ---       LVL=0

      0100000EH   BLOCK     CODE     ---       LVL=0
      00000004H   SYMBOL    DATA     WORD      byTime
      01000012H   BLOCK     CODE     NEAR LAB  LVL=1
      00000002H   SYMBOL    DATA     WORD      i
      ---         BLOCKEND  ---      ---       LVL=1
      0100000EH   LINE      CODE     ---       #379
      01000012H   LINE      CODE     ---       #380
      01000012H   LINE      CODE     ---       #382
LX51 LINKER/LOCATER V4.66.97.0                                                        08/03/2020  08:45:41  PAGE 90


      0100001CH   LINE      CODE     ---       #383
      0100001CH   LINE      CODE     ---       #384
      01000023H   LINE      CODE     ---       #385
      0100002AH   LINE      CODE     ---       #386
      ---         BLOCKEND  ---      ---       LVL=0

      01001B6EH   BLOCK     CODE     ---       LVL=0
      01001B6EH   LINE      CODE     ---       #392
      01001B8BH   LINE      CODE     ---       #394
      01001B91H   LINE      CODE     ---       #395
      01001BA6H   LINE      CODE     ---       #396
      01001BA6H   LINE      CODE     ---       #397
      01001BADH   LINE      CODE     ---       #398
      01001BB2H   LINE      CODE     ---       #399
      01001BB2H   LINE      CODE     ---       #400
      01001BB5H   LINE      CODE     ---       #401
      01001BB7H   LINE      CODE     ---       #402
      ---         BLOCKEND  ---      ---       LVL=0

      0100000AH   BLOCK     CODE     ---       LVL=0
      0100000AH   LINE      CODE     ---       #407
      0100000AH   LINE      CODE     ---       #410
      ---         BLOCKEND  ---      ---       LVL=0

      010020F0H   BLOCK     CODE     ---       LVL=0
      010020F0H   LINE      CODE     ---       #416
      010020F6H   LINE      CODE     ---       #418
      010020FCH   LINE      CODE     ---       #419
      010020FFH   LINE      CODE     ---       #420
      01002101H   LINE      CODE     ---       #421
      01002104H   LINE      CODE     ---       #422
      ---         BLOCKEND  ---      ---       LVL=0

      01001EE3H   BLOCK     CODE     ---       LVL=0
      01001EE3H   LINE      CODE     ---       #428
      01001EEBH   LINE      CODE     ---       #430
      01001EFAH   LINE      CODE     ---       #431
      01001F06H   LINE      CODE     ---       #432
      01001F09H   LINE      CODE     ---       #433
      ---         BLOCKEND  ---      ---       LVL=0

      ---         MODULE    ---      ---       UART
      020002C3H   PUBLIC    XDATA    BYTE      UART1_TXOK_Flag
      01001D94H   PUBLIC    CODE     ---       UART1_ISR
      01002124H   PUBLIC    CODE     ---       _UART1_RxDataHook
      0100004AH   PUBLIC    CODE     ---       UART1_RxErrorHook
      01001EB3H   PUBLIC    CODE     ---       _UART1_WriteByte
      01001C2DH   PUBLIC    CODE     ---       UART1_Init
      000000A2H   SFRSYM    DATA     BYTE      SPI0CKR
      00000080H   SFRSYM    DATA     BYTE      P0
      000000C8H.6 SFRSYM    DATA     BIT       SCON1_PERR
      000000D0H.2 SFRSYM    DATA     BIT       PSW_OV
      00000090H   SFRSYM    DATA     BYTE      P1
      000000F8H.1 SFRSYM    DATA     BIT       SPI0CN0_TXNF
      00000097H   SFRSYM    DATA     BYTE      WDTCN
      000000A0H   SFRSYM    DATA     BYTE      P2
      000000B0H   SFRSYM    DATA     BYTE      P3
      000000BCH   SFRSYM    DATA     BYTE      ADC0CF
      000000C0H.7 SFRSYM    DATA     BIT       SMB0CN0_MASTER
      000000F9H   SFRSYM    DATA     WORD      PCA0
      000000E6H   SFRSYM    DATA     BYTE      EIE1
      000000C0H.1 SFRSYM    DATA     BIT       SMB0CN0_ACK
LX51 LINKER/LOCATER V4.66.97.0                                                        08/03/2020  08:45:41  PAGE 91


      000000CEH   SFRSYM    DATA     BYTE      EIE2
      0000008FH   SFRSYM    DATA     BYTE      PSCTL
      000000E4H   SFRSYM    DATA     BYTE      IT01CF
      000000C0H.6 SFRSYM    DATA     BIT       SMB0CN0_TXMODE
      000000ADH   SFRSYM    DATA     BYTE      DERIVID
      000000A7H   SFRSYM    DATA     BYTE      SFRPAGE
      000000A4H   SFRSYM    DATA     BYTE      P0MDOUT
      000000A5H   SFRSYM    DATA     BYTE      P1MDOUT
      000000E8H.5 SFRSYM    DATA     BIT       ADC0CN0_ADINT
      000000CBH   SFRSYM    DATA     BYTE      TMR2RLH
      000000A6H   SFRSYM    DATA     BYTE      P2MDOUT
      000000A8H   SFRSYM    DATA     BYTE      IE
      00000093H   SFRSYM    DATA     BYTE      TMR3RLH
      0000009CH   SFRSYM    DATA     BYTE      P3MDOUT
      000000A3H   SFRSYM    DATA     BYTE      TMR4RLH
      000000F3H   SFRSYM    DATA     BYTE      EIP1
      000000F4H   SFRSYM    DATA     BYTE      EIP2
      00000098H.2 SFRSYM    DATA     BIT       SCON0_RB8
      000000CAH   SFRSYM    DATA     BYTE      TMR2RLL
      000000FCH   SFRSYM    DATA     BYTE      PCA0CPH0
      00000092H   SFRSYM    DATA     BYTE      TMR3RLL
      000000EAH   SFRSYM    DATA     BYTE      PCA0CPH1
      00000098H.3 SFRSYM    DATA     BIT       SCON0_TB8
      000000F0H.0 SFRSYM    DATA     BIT       B_B0
      00000082H   SFRSYM    DATA     WORD      DP
      000000A2H   SFRSYM    DATA     BYTE      TMR4RLL
      000000ECH   SFRSYM    DATA     BYTE      PCA0CPH2
      000000F0H.1 SFRSYM    DATA     BIT       B_B1
      000000C3H   SFRSYM    DATA     WORD      ADC0GT
      000000BDH   SFRSYM    DATA     BYTE      I2C0SLAD
      000000D8H.3 SFRSYM    DATA     BIT       UART1FCN1_RFRQ
      000000F0H.2 SFRSYM    DATA     BIT       B_B2
      000000CFH   SFRSYM    DATA     BYTE      SFRPGCN
      000000FBH   SFRSYM    DATA     BYTE      PCA0CPL0
      000000F0H.3 SFRSYM    DATA     BIT       B_B3
      000000D9H   SFRSYM    DATA     BYTE      PCA0MD
      000000DAH   SFRSYM    DATA     BYTE      PCA0CPM0
      000000E9H   SFRSYM    DATA     BYTE      PCA0CPL1
      000000D8H.7 SFRSYM    DATA     BIT       UART1FCN1_TFRQ
      000000F0H.4 SFRSYM    DATA     BIT       B_B4
      000000DBH   SFRSYM    DATA     BYTE      PCA0CPM1
      000000EBH   SFRSYM    DATA     BYTE      PCA0CPL2
      000000F0H.5 SFRSYM    DATA     BIT       B_B5
      000000DCH   SFRSYM    DATA     BYTE      PCA0CPM2
      000000B8H   SFRSYM    DATA     BYTE      IP
      000000B9H   SFRSYM    DATA     BYTE      ADC0TK
      000000F0H.6 SFRSYM    DATA     BIT       B_B6
      000000C5H   SFRSYM    DATA     WORD      ADC0LT
      000000D8H.6 SFRSYM    DATA     BIT       UART1FCN1_TXNF
      00000098H.5 SFRSYM    DATA     BIT       SCON0_MCE
      000000F0H.7 SFRSYM    DATA     BIT       B_B7
      000000C3H   SFRSYM    DATA     BYTE      SMB0FCN0
      000000E1H   SFRSYM    DATA     BYTE      XBR0
      000000C4H   SFRSYM    DATA     BYTE      SMB0FCN1
      000000C1H   SFRSYM    DATA     BYTE      SMB0CF
      000000E2H   SFRSYM    DATA     BYTE      XBR1
      000000C1H   SFRSYM    DATA     BYTE      PFE0CN
      000000E7H   SFRSYM    DATA     BYTE      EMI0CN
      000000C0H.5 SFRSYM    DATA     BIT       SMB0CN0_STA
      000000E3H   SFRSYM    DATA     BYTE      XBR2
      000000BBH   SFRSYM    DATA     BYTE      ADC0MX
      000000E0H.0 SFRSYM    DATA     BIT       ACC_ACC0
LX51 LINKER/LOCATER V4.66.97.0                                                        08/03/2020  08:45:41  PAGE 92


      000000D1H   SFRSYM    DATA     BYTE      REF0CN
      0000008EH   SFRSYM    DATA     BYTE      CKCON0
      000000E0H.1 SFRSYM    DATA     BIT       ACC_ACC1
      000000C9H   SFRSYM    DATA     BYTE      REG0CN
      000000DDH   SFRSYM    DATA     BYTE      CRC0IN
      000000A6H   SFRSYM    DATA     BYTE      CKCON1
      000000C8H.2 SFRSYM    DATA     BIT       TMR2CN0_TR2
      000000E0H.2 SFRSYM    DATA     BIT       ACC_ACC2
      000000C6H   SFRSYM    DATA     BYTE      REG1CN
      000000E0H.3 SFRSYM    DATA     BIT       ACC_ACC3
      00000081H   SFRSYM    DATA     BYTE      SP
      0000009DH   SFRSYM    DATA     BYTE      CMP0MD
      000000E0H.4 SFRSYM    DATA     BIT       ACC_ACC4
      000000B1H   SFRSYM    DATA     BYTE      LFO0CN
      000000ABH   SFRSYM    DATA     BYTE      CMP1MD
      000000D8H.0 SFRSYM    DATA     BIT       PCA0CN0_CCF0
      000000E0H.5 SFRSYM    DATA     BIT       ACC_ACC5
      00000098H.2 SFRSYM    DATA     BIT       TMR4CN0_TR4
      000000D8H.1 SFRSYM    DATA     BIT       PCA0CN0_CCF1
      000000E0H.6 SFRSYM    DATA     BIT       ACC_ACC6
      000000CCH   SFRSYM    DATA     WORD      TMR2
      0000009AH   SFRSYM    DATA     BYTE      SPI0FCN0
      000000D8H.2 SFRSYM    DATA     BIT       PCA0CN0_CCF2
      000000E0H.7 SFRSYM    DATA     BIT       ACC_ACC7
      00000094H   SFRSYM    DATA     WORD      TMR3
      0000009BH   SFRSYM    DATA     BYTE      SPI0FCN1
      000000A4H   SFRSYM    DATA     WORD      TMR4
      00000094H   SFRSYM    DATA     BYTE      SBCON1
      000000C0H.3 SFRSYM    DATA     BIT       SMB0CN0_ACKRQ
      000000FFH   SFRSYM    DATA     BYTE      VDM0CN
      000000F1H   SFRSYM    DATA     BYTE      P0MDIN
      00000098H.4 SFRSYM    DATA     BIT       SCON0_REN
      000000ACH   SFRSYM    DATA     BYTE      SMB0TC
      000000F2H   SFRSYM    DATA     BYTE      P1MDIN
      000000C8H.4 SFRSYM    DATA     BIT       SCON1_REN
      000000F3H   SFRSYM    DATA     BYTE      P2MDIN
      000000C0H.4 SFRSYM    DATA     BIT       SMB0CN0_STO
      000000F4H   SFRSYM    DATA     BYTE      P3MDIN
      000000B9H   SFRSYM    DATA     BYTE      I2C0STAT
      000000BBH   SFRSYM    DATA     BYTE      I2C0DOUT
      00000096H   SFRSYM    DATA     BYTE      SBRLH1
      000000FEH   SFRSYM    DATA     BYTE      P0MASK
      000000D8H.5 SFRSYM    DATA     BIT       UART1FCN1_TXHOLD
      000000EEH   SFRSYM    DATA     BYTE      P1MASK
      000000FCH   SFRSYM    DATA     BYTE      P2MASK
      000000D0H.3 SFRSYM    DATA     BIT       PSW_RS0
      000000D8H.7 SFRSYM    DATA     BIT       PCA0CN0_CF
      0000009EH   SFRSYM    DATA     BYTE      PCA0CENT
      000000BAH   SFRSYM    DATA     BYTE      I2C0CN0
      000000D2H   SFRSYM    DATA     BYTE      CRC0ST
      000000F8H.4 SFRSYM    DATA     BIT       SPI0CN0_RXOVRN
      000000D0H.4 SFRSYM    DATA     BIT       PSW_RS1
      00000095H   SFRSYM    DATA     BYTE      SBRLL1
      000000C8H.2 SFRSYM    DATA     BIT       SCON1_RBX
      000000C8H.0 SFRSYM    DATA     BIT       TMR2CN0_T2XCLK0
      000000C8H.1 SFRSYM    DATA     BIT       TMR2CN0_T2XCLK1
      000000C8H.3 SFRSYM    DATA     BIT       SCON1_TBX
      000000E8H.7 SFRSYM    DATA     BIT       ADC0CN0_ADEN
      00000089H   SFRSYM    DATA     BYTE      TMOD
      00000088H   SFRSYM    DATA     BYTE      TCON
      000000CFH   SFRSYM    DATA     BYTE      CRC0FLIP
      000000D0H.0 SFRSYM    DATA     BIT       PSW_PARITY
LX51 LINKER/LOCATER V4.66.97.0                                                        08/03/2020  08:45:41  PAGE 93


      000000A8H.4 SFRSYM    DATA     BIT       IE_ES0
      0000009FH   SFRSYM    DATA     BYTE      CMP0MX
      00000098H.0 SFRSYM    DATA     BIT       TMR4CN0_T4XCLK0
      000000A8H.1 SFRSYM    DATA     BIT       IE_ET0
      000000AAH   SFRSYM    DATA     BYTE      CMP1MX
      00000098H.1 SFRSYM    DATA     BIT       TMR4CN0_T4XCLK1
      000000A8H.3 SFRSYM    DATA     BIT       IE_ET1
      000000D4H   SFRSYM    DATA     BYTE      P0SKIP
      000000D8H.0 SFRSYM    DATA     BIT       UART1FCN1_RIE
      000000A8H.5 SFRSYM    DATA     BIT       IE_ET2
      000000D5H   SFRSYM    DATA     BYTE      P1SKIP
      000000CCH   SFRSYM    DATA     BYTE      P2SKIP
      000000E8H   SFRSYM    DATA     BYTE      ADC0CN0
      000000D8H.4 SFRSYM    DATA     BIT       UART1FCN1_TIE
      000000A8H.0 SFRSYM    DATA     BIT       IE_EX0
      000000B2H   SFRSYM    DATA     BYTE      ADC0CN1
      000000D8H.6 SFRSYM    DATA     BIT       PCA0CN0_CR
      000000A8H.2 SFRSYM    DATA     BIT       IE_EX1
      000000C8H.7 SFRSYM    DATA     BIT       SCON1_OVR
      00000098H.7 SFRSYM    DATA     BIT       SCON0_SMODE
      000000B5H   SFRSYM    DATA     BYTE      DEVICEID
      000000A9H   SFRSYM    DATA     BYTE      CLKSEL
      000000F8H.0 SFRSYM    DATA     BIT       SPI0CN0_SPIEN
      000000F0H   SFRSYM    DATA     BYTE      B
      000000BEH   SFRSYM    DATA     BYTE      ADC0H
      000000E8H.6 SFRSYM    DATA     BIT       ADC0CN0_ADBMEN
      000000CAH   SFRSYM    DATA     WORD      TMR2RL
      000000BDH   SFRSYM    DATA     BYTE      ADC0L
      00000092H   SFRSYM    DATA     WORD      TMR3RL
      000000A2H   SFRSYM    DATA     WORD      TMR4RL
      000000D8H   SFRSYM    DATA     BYTE      PCA0CN0
      000000E0H   SFRSYM    DATA     BYTE      ACC
      000000FBH   SFRSYM    DATA     WORD      PCA0CP0
      000000E9H   SFRSYM    DATA     WORD      PCA0CP1
      000000EBH   SFRSYM    DATA     WORD      PCA0CP2
      000000BCH   SFRSYM    DATA     BYTE      I2C0DIN
      000000CEH   SFRSYM    DATA     BYTE      CRC0CN0
      0000008CH   SFRSYM    DATA     BYTE      TH0
      00000086H   SFRSYM    DATA     BYTE      CRC0CN1
      000000B8H.4 SFRSYM    DATA     BIT       IP_PS0
      000000FAH   SFRSYM    DATA     BYTE      UART1FCT
      0000008DH   SFRSYM    DATA     BYTE      TH1
      000000FAH   SFRSYM    DATA     BYTE      PCA0H
      000000F5H   SFRSYM    DATA     BYTE      I2C0FCT
      000000B8H.1 SFRSYM    DATA     BIT       IP_PT0
      000000B8H.3 SFRSYM    DATA     BIT       IP_PT1
      000000C0H.2 SFRSYM    DATA     BIT       SMB0CN0_ARBLOST
      000000B8H.5 SFRSYM    DATA     BIT       IP_PT2
      0000008AH   SFRSYM    DATA     BYTE      TL0
      000000D0H.5 SFRSYM    DATA     BIT       PSW_F0
      000000A8H.6 SFRSYM    DATA     BIT       IE_ESPI0
      0000008BH   SFRSYM    DATA     BYTE      TL1
      000000F9H   SFRSYM    DATA     BYTE      PCA0L
      000000C0H.0 SFRSYM    DATA     BIT       SMB0CN0_SI
      000000D0H.1 SFRSYM    DATA     BIT       PSW_F1
      00000080H.0 SFRSYM    DATA     BIT       P0_B0
      000000B8H.0 SFRSYM    DATA     BIT       IP_PX0
      00000090H.0 SFRSYM    DATA     BIT       P1_B0
      00000080H.1 SFRSYM    DATA     BIT       P0_B1
      000000B8H.2 SFRSYM    DATA     BIT       IP_PX1
      0000009EH   SFRSYM    DATA     BYTE      UART1LIN
      0000009BH   SFRSYM    DATA     BYTE      CMP0CN0
LX51 LINKER/LOCATER V4.66.97.0                                                        08/03/2020  08:45:41  PAGE 94


      00000088H.1 SFRSYM    DATA     BIT       TCON_IE0
      000000A0H.0 SFRSYM    DATA     BIT       P2_B0
      00000090H.1 SFRSYM    DATA     BIT       P1_B1
      00000080H.2 SFRSYM    DATA     BIT       P0_B2
      000000BFH   SFRSYM    DATA     BYTE      CMP1CN0
      00000099H   SFRSYM    DATA     BYTE      CMP0CN1
      00000088H.3 SFRSYM    DATA     BIT       TCON_IE1
      000000B0H.0 SFRSYM    DATA     BIT       P3_B0
      000000A0H.1 SFRSYM    DATA     BIT       P2_B1
      00000090H.2 SFRSYM    DATA     BIT       P1_B2
      00000080H.3 SFRSYM    DATA     BIT       P0_B3
      000000C0H   SFRSYM    DATA     BYTE      SMB0CN0
      000000ACH   SFRSYM    DATA     BYTE      CMP1CN1
      000000B0H.1 SFRSYM    DATA     BIT       P3_B1
      000000A0H.2 SFRSYM    DATA     BIT       P2_B2
      00000090H.3 SFRSYM    DATA     BIT       P1_B3
      00000080H.4 SFRSYM    DATA     BIT       P0_B4
      000000A0H.3 SFRSYM    DATA     BIT       P2_B3
      00000090H.4 SFRSYM    DATA     BIT       P1_B4
      00000080H.5 SFRSYM    DATA     BIT       P0_B5
      000000D8H.1 SFRSYM    DATA     BIT       UART1FCN1_RXTO0
      00000090H.5 SFRSYM    DATA     BIT       P1_B5
      00000080H.6 SFRSYM    DATA     BIT       P0_B6
      000000F5H   SFRSYM    DATA     BYTE      EIP1H
      000000D8H.2 SFRSYM    DATA     BIT       UART1FCN1_RXTO1
      00000090H.6 SFRSYM    DATA     BIT       P1_B6
      00000080H.7 SFRSYM    DATA     BIT       P0_B7
      000000C5H   SFRSYM    DATA     BYTE      SMB0RXLN
      000000F6H   SFRSYM    DATA     BYTE      EIP2H
      00000090H.7 SFRSYM    DATA     BIT       P1_B7
      00000083H   SFRSYM    DATA     BYTE      DPH
      000000C4H   SFRSYM    DATA     BYTE      ADC0GTH
      000000C8H.7 SFRSYM    DATA     BIT       TMR2CN0_TF2H
      000000C8H.3 SFRSYM    DATA     BIT       TMR2CN0_T2SPLIT
      000000D0H.6 SFRSYM    DATA     BIT       PSW_AC
      000000F8H   SFRSYM    DATA     BYTE      SPI0CN0
      000000C7H   SFRSYM    DATA     BYTE      HFO0CAL
      00000088H.5 SFRSYM    DATA     BIT       TCON_TF0
      00000098H.0 SFRSYM    DATA     BIT       SCON0_RI
      000000D6H   SFRSYM    DATA     BYTE      HFO1CAL
      00000082H   SFRSYM    DATA     BYTE      DPL
      00000088H.7 SFRSYM    DATA     BIT       TCON_TF1
      000000C8H.0 SFRSYM    DATA     BIT       SCON1_RI
      00000099H   SFRSYM    DATA     BYTE      SBUF0
      00000087H   SFRSYM    DATA     BYTE      PCON0
      000000F2H   SFRSYM    DATA     BYTE      IPH
      000000C3H   SFRSYM    DATA     BYTE      ADC0GTL
      00000098H.7 SFRSYM    DATA     BIT       TMR4CN0_TF4H
      00000098H.3 SFRSYM    DATA     BIT       TMR4CN0_T4SPLIT
      000000C8H.6 SFRSYM    DATA     BIT       TMR2CN0_TF2L
      00000098H.1 SFRSYM    DATA     BIT       SCON0_TI
      000000E8H.0 SFRSYM    DATA     BIT       ADC0CN0_ADCM0
      00000092H   SFRSYM    DATA     BYTE      SBUF1
      0000009AH   SFRSYM    DATA     BYTE      PCON1
      000000C6H   SFRSYM    DATA     BYTE      ADC0LTH
      00000088H.0 SFRSYM    DATA     BIT       TCON_IT0
      000000C8H.1 SFRSYM    DATA     BIT       SCON1_TI
      000000E8H.1 SFRSYM    DATA     BIT       ADC0CN0_ADCM1
      000000EFH   SFRSYM    DATA     BYTE      RSTSRC
      000000FDH   SFRSYM    DATA     BYTE      P0MAT
      000000DEH   SFRSYM    DATA     BYTE      CRC0DAT
      00000088H.2 SFRSYM    DATA     BIT       TCON_IT1
LX51 LINKER/LOCATER V4.66.97.0                                                        08/03/2020  08:45:41  PAGE 95


      000000E8H.2 SFRSYM    DATA     BIT       ADC0CN0_ADCM2
      000000D7H   SFRSYM    DATA     BYTE      SFRSTACK
      00000098H   SFRSYM    DATA     BYTE      SCON0
      000000F6H   SFRSYM    DATA     BYTE      PRTDRV
      000000EDH   SFRSYM    DATA     BYTE      P1MAT
      000000E8H.3 SFRSYM    DATA     BIT       ADC0CN0_ADWINT
      00000095H   SFRSYM    DATA     WORD      SBRL1
      00000093H   SFRSYM    DATA     BYTE      SMOD1
      000000C8H   SFRSYM    DATA     BYTE      SCON1
      000000FBH   SFRSYM    DATA     BYTE      P2MAT
      00000098H.6 SFRSYM    DATA     BIT       TMR4CN0_TF4L
      000000E8H.4 SFRSYM    DATA     BIT       ADC0CN0_ADBUSY
      000000D6H   SFRSYM    DATA     BYTE      SMB0ADM
      000000C5H   SFRSYM    DATA     BYTE      ADC0LTL
      000000F8H.5 SFRSYM    DATA     BIT       SPI0CN0_MODF
      000000B8H.6 SFRSYM    DATA     BIT       IP_PSPI0
      0000009CH   SFRSYM    DATA     BYTE      PCA0CLR
      000000C8H   SFRSYM    DATA     BYTE      TMR2CN0
      00000091H   SFRSYM    DATA     BYTE      TMR3CN0
      000000FDH   SFRSYM    DATA     BYTE      TMR2CN1
      00000098H   SFRSYM    DATA     BYTE      TMR4CN0
      000000FEH   SFRSYM    DATA     BYTE      TMR3CN1
      000000FFH   SFRSYM    DATA     BYTE      TMR4CN1
      000000D7H   SFRSYM    DATA     BYTE      SMB0ADR
      00000088H.4 SFRSYM    DATA     BIT       TCON_TR0
      000000C8H.4 SFRSYM    DATA     BIT       TMR2CN0_TF2CEN
      00000088H.6 SFRSYM    DATA     BIT       TCON_TR1
      000000C2H   SFRSYM    DATA     BYTE      SMB0DAT
      000000CDH   SFRSYM    DATA     BYTE      TMR2H
      000000A1H   SFRSYM    DATA     BYTE      SPI0CFG
      00000095H   SFRSYM    DATA     BYTE      TMR3H
      000000EFH   SFRSYM    DATA     BYTE      HFOCN
      000000D3H   SFRSYM    DATA     BYTE      CRC0CNT
      000000A5H   SFRSYM    DATA     BYTE      TMR4H
      00000098H.4 SFRSYM    DATA     BIT       TMR4CN0_TF4CEN
      000000EFH   SFRSYM    DATA     BYTE      SMB0FCT
      00000096H   SFRSYM    DATA     BYTE      PCA0POL
      000000CCH   SFRSYM    DATA     BYTE      TMR2L
      000000F8H.7 SFRSYM    DATA     BIT       SPI0CN0_SPIF
      00000094H   SFRSYM    DATA     BYTE      TMR3L
      000000DFH   SFRSYM    DATA     BYTE      ADC0PWR
      000000A8H.7 SFRSYM    DATA     BIT       IE_EA
      000000A4H   SFRSYM    DATA     BYTE      TMR4L
      000000C8H.5 SFRSYM    DATA     BIT       TMR2CN0_TF2LEN
      000000F8H.6 SFRSYM    DATA     BIT       SPI0CN0_WCOL
      000000F8H.2 SFRSYM    DATA     BIT       SPI0CN0_NSSMD0
      000000D0H.7 SFRSYM    DATA     BIT       PSW_CY
      0000009DH   SFRSYM    DATA     BYTE      UART1FCN0
      000000A3H   SFRSYM    DATA     BYTE      SPI0DAT
      000000ADH   SFRSYM    DATA     BYTE      I2C0FCN0
      000000F8H.3 SFRSYM    DATA     BIT       SPI0CN0_NSSMD1
      000000BDH   SFRSYM    DATA     WORD      ADC0
      000000D8H   SFRSYM    DATA     BYTE      UART1FCN1
      000000ABH   SFRSYM    DATA     BYTE      I2C0FCN1
      00000098H.5 SFRSYM    DATA     BIT       TMR4CN0_TF4LEN
      000000D0H   SFRSYM    DATA     BYTE      PSW
      000000F7H   SFRSYM    DATA     BYTE      PCA0PWM
      000000F7H   SFRSYM    DATA     BYTE      SPI0FCT
      000000B6H   SFRSYM    DATA     BYTE      REVID
      000000B7H   SFRSYM    DATA     BYTE      FLKEY
      000000B3H   SFRSYM    DATA     BYTE      ADC0AC
      020002C2H   SYMBOL    XDATA    BYTE      UartInterruptCount
LX51 LINKER/LOCATER V4.66.97.0                                                        08/03/2020  08:45:41  PAGE 96



      01001C2DH   BLOCK     CODE     ---       LVL=0
      01001C2DH   LINE      CODE     ---       #13
      01001C2DH   LINE      CODE     ---       #14
      01001C2DH   LINE      CODE     ---       #15
      01001C33H   LINE      CODE     ---       #16
      01001C36H   LINE      CODE     ---       #17
      01001C39H   LINE      CODE     ---       #18
      01001C3CH   LINE      CODE     ---       #20
      01001C3FH   LINE      CODE     ---       #21
      01001C42H   LINE      CODE     ---       #22
      01001C45H   LINE      CODE     ---       #24
      01001C48H   LINE      CODE     ---       #25
      01001C4BH   LINE      CODE     ---       #26
      01001C4BH   LINE      CODE     ---       #27
      01001C4EH   LINE      CODE     ---       #28
      01001C51H   LINE      CODE     ---       #29
      01001C54H   LINE      CODE     ---       #30
      01001C57H   LINE      CODE     ---       #31
      01001C5AH   LINE      CODE     ---       #32
      01001C5DH   LINE      CODE     ---       #33
      01001C60H   LINE      CODE     ---       #35
      01001C63H   LINE      CODE     ---       #36
      01001C66H   LINE      CODE     ---       #39
      01001C69H   LINE      CODE     ---       #42
      01001C6CH   LINE      CODE     ---       #43
      01001C6CH   LINE      CODE     ---       #45
      01001C6FH   LINE      CODE     ---       #46
      01001C72H   LINE      CODE     ---       #49
      01001C75H   LINE      CODE     ---       #50
      01001C78H   LINE      CODE     ---       #52
      01001C7BH   LINE      CODE     ---       #53
      01001C7EH   LINE      CODE     ---       #55
      01001C81H   LINE      CODE     ---       #57
      ---         BLOCKEND  ---      ---       LVL=0
      00000007H   SYMBOL    DATA     BYTE      savedPage
      00000007H   SYMBOL    DATA     BYTE      savedPage
      00000007H   SYMBOL    DATA     BYTE      savedPage

      01001EB3H   BLOCK     CODE     ---       LVL=0
      00000007H   SYMBOL    DATA     BYTE      dataTx
      01001EB3H   BLOCK     CODE     NEAR LAB  LVL=1
      00000006H   SYMBOL    DATA     BYTE      savedPage
      ---         BLOCKEND  ---      ---       LVL=1
      01001EB3H   LINE      CODE     ---       #119
      01001EB3H   LINE      CODE     ---       #120
      01001EB3H   LINE      CODE     ---       #122
      01001EB8H   LINE      CODE     ---       #123
      01001EBAH   LINE      CODE     ---       #125
      01001EBFH   LINE      CODE     ---       #126
      01001EC5H   LINE      CODE     ---       #127
      01001EC5H   LINE      CODE     ---       #128
      01001ED4H   LINE      CODE     ---       #129
      01001ED4H   LINE      CODE     ---       #130
      01001ED6H   LINE      CODE     ---       #131
      01001ED9H   LINE      CODE     ---       #132
      01001ED9H   LINE      CODE     ---       #133
      01001EDCH   LINE      CODE     ---       #134
      01001EDEH   LINE      CODE     ---       #135
      01001EE2H   LINE      CODE     ---       #136
      ---         BLOCKEND  ---      ---       LVL=0
      00000007H   SYMBOL    DATA     BYTE      savedPage
LX51 LINKER/LOCATER V4.66.97.0                                                        08/03/2020  08:45:41  PAGE 97


      00000007H   SYMBOL    DATA     BYTE      savedPage

      0100004AH   BLOCK     CODE     ---       LVL=0
      0100004AH   LINE      CODE     ---       #181
      0100004AH   LINE      CODE     ---       #182
      0100004AH   LINE      CODE     ---       #185
      ---         BLOCKEND  ---      ---       LVL=0

      01002124H   BLOCK     CODE     ---       LVL=0
      0200027EH   SYMBOL    XDATA    BYTE      databyte
      01002124H   LINE      CODE     ---       #187
      01002129H   LINE      CODE     ---       #188
      01002129H   LINE      CODE     ---       #189
      01002129H   LINE      CODE     ---       #190
      01002129H   LINE      CODE     ---       #192
      01002129H   LINE      CODE     ---       #194
      ---         BLOCKEND  ---      ---       LVL=0

      01001D94H   BLOCK     CODE     ---       LVL=0
      01001DA3H   BLOCK     CODE     NEAR LAB  LVL=1
      00000006H   SYMBOL    DATA     BYTE      discard
      00000007H   SYMBOL    DATA     BYTE      errors
      ---         BLOCKEND  ---      ---       LVL=1
      01001D94H   LINE      CODE     ---       #201
      01001DA3H   LINE      CODE     ---       #208
      01001DA9H   LINE      CODE     ---       #209
      01001DA9H   LINE      CODE     ---       #210
      01001DACH   LINE      CODE     ---       #211
      01001DACH   LINE      CODE     ---       #214
      01001DB1H   LINE      CODE     ---       #215
      01001DB3H   LINE      CODE     ---       #216
      01001DB3H   LINE      CODE     ---       #217
      01001DB6H   LINE      CODE     ---       #218
      01001DB9H   LINE      CODE     ---       #219
      01001DB9H   LINE      CODE     ---       #222
      01001DBDH   LINE      CODE     ---       #223
      01001DBDH   LINE      CODE     ---       #224
      01001DBFH   LINE      CODE     ---       #225
      01001DC1H   LINE      CODE     ---       #227
      01001DC1H   LINE      CODE     ---       #228
      01001DC3H   LINE      CODE     ---       #229
      01001DC8H   LINE      CODE     ---       #230
      01001DC8H   LINE      CODE     ---       #232
      ---         BLOCKEND  ---      ---       LVL=0

      ---         MODULE    ---      ---       UARTCFG
      0200029FH   PUBLIC    XDATA    ---       MsgRadar_Distance
      02000297H   PUBLIC    XDATA    ---       MsgRadar_Distance_Init
      01001FBCH   PUBLIC    CODE     ---       InitUart1AllVar
      000000A2H   SFRSYM    DATA     BYTE      SPI0CKR
      00000080H   SFRSYM    DATA     BYTE      P0
      000000C8H.6 SFRSYM    DATA     BIT       SCON1_PERR
      000000D0H.2 SFRSYM    DATA     BIT       PSW_OV
      00000090H   SFRSYM    DATA     BYTE      P1
      000000F8H.1 SFRSYM    DATA     BIT       SPI0CN0_TXNF
      00000097H   SFRSYM    DATA     BYTE      WDTCN
      000000A0H   SFRSYM    DATA     BYTE      P2
      000000B0H   SFRSYM    DATA     BYTE      P3
      000000BCH   SFRSYM    DATA     BYTE      ADC0CF
      000000C0H.7 SFRSYM    DATA     BIT       SMB0CN0_MASTER
      000000F9H   SFRSYM    DATA     WORD      PCA0
      000000E6H   SFRSYM    DATA     BYTE      EIE1
LX51 LINKER/LOCATER V4.66.97.0                                                        08/03/2020  08:45:41  PAGE 98


      000000C0H.1 SFRSYM    DATA     BIT       SMB0CN0_ACK
      000000CEH   SFRSYM    DATA     BYTE      EIE2
      0000008FH   SFRSYM    DATA     BYTE      PSCTL
      000000E4H   SFRSYM    DATA     BYTE      IT01CF
      000000C0H.6 SFRSYM    DATA     BIT       SMB0CN0_TXMODE
      000000ADH   SFRSYM    DATA     BYTE      DERIVID
      000000A7H   SFRSYM    DATA     BYTE      SFRPAGE
      000000A4H   SFRSYM    DATA     BYTE      P0MDOUT
      000000A5H   SFRSYM    DATA     BYTE      P1MDOUT
      000000E8H.5 SFRSYM    DATA     BIT       ADC0CN0_ADINT
      000000CBH   SFRSYM    DATA     BYTE      TMR2RLH
      000000A6H   SFRSYM    DATA     BYTE      P2MDOUT
      000000A8H   SFRSYM    DATA     BYTE      IE
      00000093H   SFRSYM    DATA     BYTE      TMR3RLH
      0000009CH   SFRSYM    DATA     BYTE      P3MDOUT
      000000A3H   SFRSYM    DATA     BYTE      TMR4RLH
      000000F3H   SFRSYM    DATA     BYTE      EIP1
      000000F4H   SFRSYM    DATA     BYTE      EIP2
      00000098H.2 SFRSYM    DATA     BIT       SCON0_RB8
      000000CAH   SFRSYM    DATA     BYTE      TMR2RLL
      000000FCH   SFRSYM    DATA     BYTE      PCA0CPH0
      00000092H   SFRSYM    DATA     BYTE      TMR3RLL
      000000EAH   SFRSYM    DATA     BYTE      PCA0CPH1
      00000098H.3 SFRSYM    DATA     BIT       SCON0_TB8
      000000F0H.0 SFRSYM    DATA     BIT       B_B0
      00000082H   SFRSYM    DATA     WORD      DP
      000000A2H   SFRSYM    DATA     BYTE      TMR4RLL
      000000ECH   SFRSYM    DATA     BYTE      PCA0CPH2
      000000F0H.1 SFRSYM    DATA     BIT       B_B1
      000000C3H   SFRSYM    DATA     WORD      ADC0GT
      000000BDH   SFRSYM    DATA     BYTE      I2C0SLAD
      000000D8H.3 SFRSYM    DATA     BIT       UART1FCN1_RFRQ
      000000F0H.2 SFRSYM    DATA     BIT       B_B2
      000000CFH   SFRSYM    DATA     BYTE      SFRPGCN
      000000FBH   SFRSYM    DATA     BYTE      PCA0CPL0
      000000F0H.3 SFRSYM    DATA     BIT       B_B3
      000000D9H   SFRSYM    DATA     BYTE      PCA0MD
      000000DAH   SFRSYM    DATA     BYTE      PCA0CPM0
      000000E9H   SFRSYM    DATA     BYTE      PCA0CPL1
      000000D8H.7 SFRSYM    DATA     BIT       UART1FCN1_TFRQ
      000000F0H.4 SFRSYM    DATA     BIT       B_B4
      000000DBH   SFRSYM    DATA     BYTE      PCA0CPM1
      000000EBH   SFRSYM    DATA     BYTE      PCA0CPL2
      000000F0H.5 SFRSYM    DATA     BIT       B_B5
      000000DCH   SFRSYM    DATA     BYTE      PCA0CPM2
      000000B8H   SFRSYM    DATA     BYTE      IP
      000000B9H   SFRSYM    DATA     BYTE      ADC0TK
      000000F0H.6 SFRSYM    DATA     BIT       B_B6
      000000C5H   SFRSYM    DATA     WORD      ADC0LT
      000000D8H.6 SFRSYM    DATA     BIT       UART1FCN1_TXNF
      00000098H.5 SFRSYM    DATA     BIT       SCON0_MCE
      000000F0H.7 SFRSYM    DATA     BIT       B_B7
      000000C3H   SFRSYM    DATA     BYTE      SMB0FCN0
      000000E1H   SFRSYM    DATA     BYTE      XBR0
      000000C4H   SFRSYM    DATA     BYTE      SMB0FCN1
      000000C1H   SFRSYM    DATA     BYTE      SMB0CF
      000000E2H   SFRSYM    DATA     BYTE      XBR1
      000000C1H   SFRSYM    DATA     BYTE      PFE0CN
      000000E7H   SFRSYM    DATA     BYTE      EMI0CN
      000000C0H.5 SFRSYM    DATA     BIT       SMB0CN0_STA
      000000E3H   SFRSYM    DATA     BYTE      XBR2
      000000BBH   SFRSYM    DATA     BYTE      ADC0MX
LX51 LINKER/LOCATER V4.66.97.0                                                        08/03/2020  08:45:41  PAGE 99


      000000E0H.0 SFRSYM    DATA     BIT       ACC_ACC0
      000000D1H   SFRSYM    DATA     BYTE      REF0CN
      0000008EH   SFRSYM    DATA     BYTE      CKCON0
      000000E0H.1 SFRSYM    DATA     BIT       ACC_ACC1
      000000C9H   SFRSYM    DATA     BYTE      REG0CN
      000000DDH   SFRSYM    DATA     BYTE      CRC0IN
      000000A6H   SFRSYM    DATA     BYTE      CKCON1
      000000C8H.2 SFRSYM    DATA     BIT       TMR2CN0_TR2
      000000E0H.2 SFRSYM    DATA     BIT       ACC_ACC2
      000000C6H   SFRSYM    DATA     BYTE      REG1CN
      000000E0H.3 SFRSYM    DATA     BIT       ACC_ACC3
      00000081H   SFRSYM    DATA     BYTE      SP
      0000009DH   SFRSYM    DATA     BYTE      CMP0MD
      000000E0H.4 SFRSYM    DATA     BIT       ACC_ACC4
      000000B1H   SFRSYM    DATA     BYTE      LFO0CN
      000000ABH   SFRSYM    DATA     BYTE      CMP1MD
      000000D8H.0 SFRSYM    DATA     BIT       PCA0CN0_CCF0
      000000E0H.5 SFRSYM    DATA     BIT       ACC_ACC5
      00000098H.2 SFRSYM    DATA     BIT       TMR4CN0_TR4
      000000D8H.1 SFRSYM    DATA     BIT       PCA0CN0_CCF1
      000000E0H.6 SFRSYM    DATA     BIT       ACC_ACC6
      000000CCH   SFRSYM    DATA     WORD      TMR2
      0000009AH   SFRSYM    DATA     BYTE      SPI0FCN0
      000000D8H.2 SFRSYM    DATA     BIT       PCA0CN0_CCF2
      000000E0H.7 SFRSYM    DATA     BIT       ACC_ACC7
      00000094H   SFRSYM    DATA     WORD      TMR3
      0000009BH   SFRSYM    DATA     BYTE      SPI0FCN1
      000000A4H   SFRSYM    DATA     WORD      TMR4
      00000094H   SFRSYM    DATA     BYTE      SBCON1
      000000C0H.3 SFRSYM    DATA     BIT       SMB0CN0_ACKRQ
      000000FFH   SFRSYM    DATA     BYTE      VDM0CN
      000000F1H   SFRSYM    DATA     BYTE      P0MDIN
      00000098H.4 SFRSYM    DATA     BIT       SCON0_REN
      000000ACH   SFRSYM    DATA     BYTE      SMB0TC
      000000F2H   SFRSYM    DATA     BYTE      P1MDIN
      000000C8H.4 SFRSYM    DATA     BIT       SCON1_REN
      000000F3H   SFRSYM    DATA     BYTE      P2MDIN
      000000C0H.4 SFRSYM    DATA     BIT       SMB0CN0_STO
      000000F4H   SFRSYM    DATA     BYTE      P3MDIN
      000000B9H   SFRSYM    DATA     BYTE      I2C0STAT
      000000BBH   SFRSYM    DATA     BYTE      I2C0DOUT
      00000096H   SFRSYM    DATA     BYTE      SBRLH1
      000000FEH   SFRSYM    DATA     BYTE      P0MASK
      000000D8H.5 SFRSYM    DATA     BIT       UART1FCN1_TXHOLD
      000000EEH   SFRSYM    DATA     BYTE      P1MASK
      000000FCH   SFRSYM    DATA     BYTE      P2MASK
      000000D0H.3 SFRSYM    DATA     BIT       PSW_RS0
      000000D8H.7 SFRSYM    DATA     BIT       PCA0CN0_CF
      0000009EH   SFRSYM    DATA     BYTE      PCA0CENT
      000000BAH   SFRSYM    DATA     BYTE      I2C0CN0
      000000D2H   SFRSYM    DATA     BYTE      CRC0ST
      000000F8H.4 SFRSYM    DATA     BIT       SPI0CN0_RXOVRN
      000000D0H.4 SFRSYM    DATA     BIT       PSW_RS1
      00000095H   SFRSYM    DATA     BYTE      SBRLL1
      000000C8H.2 SFRSYM    DATA     BIT       SCON1_RBX
      000000C8H.0 SFRSYM    DATA     BIT       TMR2CN0_T2XCLK0
      000000C8H.1 SFRSYM    DATA     BIT       TMR2CN0_T2XCLK1
      000000C8H.3 SFRSYM    DATA     BIT       SCON1_TBX
      000000E8H.7 SFRSYM    DATA     BIT       ADC0CN0_ADEN
      00000089H   SFRSYM    DATA     BYTE      TMOD
      00000088H   SFRSYM    DATA     BYTE      TCON
      000000CFH   SFRSYM    DATA     BYTE      CRC0FLIP
LX51 LINKER/LOCATER V4.66.97.0                                                        08/03/2020  08:45:41  PAGE 100


      000000D0H.0 SFRSYM    DATA     BIT       PSW_PARITY
      000000A8H.4 SFRSYM    DATA     BIT       IE_ES0
      0000009FH   SFRSYM    DATA     BYTE      CMP0MX
      00000098H.0 SFRSYM    DATA     BIT       TMR4CN0_T4XCLK0
      000000A8H.1 SFRSYM    DATA     BIT       IE_ET0
      000000AAH   SFRSYM    DATA     BYTE      CMP1MX
      00000098H.1 SFRSYM    DATA     BIT       TMR4CN0_T4XCLK1
      000000A8H.3 SFRSYM    DATA     BIT       IE_ET1
      000000D4H   SFRSYM    DATA     BYTE      P0SKIP
      000000D8H.0 SFRSYM    DATA     BIT       UART1FCN1_RIE
      000000A8H.5 SFRSYM    DATA     BIT       IE_ET2
      000000D5H   SFRSYM    DATA     BYTE      P1SKIP
      000000CCH   SFRSYM    DATA     BYTE      P2SKIP
      000000E8H   SFRSYM    DATA     BYTE      ADC0CN0
      000000D8H.4 SFRSYM    DATA     BIT       UART1FCN1_TIE
      000000A8H.0 SFRSYM    DATA     BIT       IE_EX0
      000000B2H   SFRSYM    DATA     BYTE      ADC0CN1
      000000D8H.6 SFRSYM    DATA     BIT       PCA0CN0_CR
      000000A8H.2 SFRSYM    DATA     BIT       IE_EX1
      000000C8H.7 SFRSYM    DATA     BIT       SCON1_OVR
      00000098H.7 SFRSYM    DATA     BIT       SCON0_SMODE
      000000B5H   SFRSYM    DATA     BYTE      DEVICEID
      000000A9H   SFRSYM    DATA     BYTE      CLKSEL
      000000F8H.0 SFRSYM    DATA     BIT       SPI0CN0_SPIEN
      000000F0H   SFRSYM    DATA     BYTE      B
      000000BEH   SFRSYM    DATA     BYTE      ADC0H
      000000E8H.6 SFRSYM    DATA     BIT       ADC0CN0_ADBMEN
      000000CAH   SFRSYM    DATA     WORD      TMR2RL
      000000BDH   SFRSYM    DATA     BYTE      ADC0L
      00000092H   SFRSYM    DATA     WORD      TMR3RL
      000000A2H   SFRSYM    DATA     WORD      TMR4RL
      000000D8H   SFRSYM    DATA     BYTE      PCA0CN0
      000000E0H   SFRSYM    DATA     BYTE      ACC
      000000FBH   SFRSYM    DATA     WORD      PCA0CP0
      000000E9H   SFRSYM    DATA     WORD      PCA0CP1
      000000EBH   SFRSYM    DATA     WORD      PCA0CP2
      000000BCH   SFRSYM    DATA     BYTE      I2C0DIN
      000000CEH   SFRSYM    DATA     BYTE      CRC0CN0
      0000008CH   SFRSYM    DATA     BYTE      TH0
      00000086H   SFRSYM    DATA     BYTE      CRC0CN1
      000000B8H.4 SFRSYM    DATA     BIT       IP_PS0
      000000FAH   SFRSYM    DATA     BYTE      UART1FCT
      0000008DH   SFRSYM    DATA     BYTE      TH1
      000000FAH   SFRSYM    DATA     BYTE      PCA0H
      000000F5H   SFRSYM    DATA     BYTE      I2C0FCT
      000000B8H.1 SFRSYM    DATA     BIT       IP_PT0
      000000B8H.3 SFRSYM    DATA     BIT       IP_PT1
      000000C0H.2 SFRSYM    DATA     BIT       SMB0CN0_ARBLOST
      000000B8H.5 SFRSYM    DATA     BIT       IP_PT2
      0000008AH   SFRSYM    DATA     BYTE      TL0
      000000D0H.5 SFRSYM    DATA     BIT       PSW_F0
      000000A8H.6 SFRSYM    DATA     BIT       IE_ESPI0
      0000008BH   SFRSYM    DATA     BYTE      TL1
      000000F9H   SFRSYM    DATA     BYTE      PCA0L
      000000C0H.0 SFRSYM    DATA     BIT       SMB0CN0_SI
      000000D0H.1 SFRSYM    DATA     BIT       PSW_F1
      00000080H.0 SFRSYM    DATA     BIT       P0_B0
      000000B8H.0 SFRSYM    DATA     BIT       IP_PX0
      00000090H.0 SFRSYM    DATA     BIT       P1_B0
      00000080H.1 SFRSYM    DATA     BIT       P0_B1
      000000B8H.2 SFRSYM    DATA     BIT       IP_PX1
      0000009EH   SFRSYM    DATA     BYTE      UART1LIN
LX51 LINKER/LOCATER V4.66.97.0                                                        08/03/2020  08:45:41  PAGE 101


      0000009BH   SFRSYM    DATA     BYTE      CMP0CN0
      00000088H.1 SFRSYM    DATA     BIT       TCON_IE0
      000000A0H.0 SFRSYM    DATA     BIT       P2_B0
      00000090H.1 SFRSYM    DATA     BIT       P1_B1
      00000080H.2 SFRSYM    DATA     BIT       P0_B2
      000000BFH   SFRSYM    DATA     BYTE      CMP1CN0
      00000099H   SFRSYM    DATA     BYTE      CMP0CN1
      00000088H.3 SFRSYM    DATA     BIT       TCON_IE1
      000000B0H.0 SFRSYM    DATA     BIT       P3_B0
      000000A0H.1 SFRSYM    DATA     BIT       P2_B1
      00000090H.2 SFRSYM    DATA     BIT       P1_B2
      00000080H.3 SFRSYM    DATA     BIT       P0_B3
      000000C0H   SFRSYM    DATA     BYTE      SMB0CN0
      000000ACH   SFRSYM    DATA     BYTE      CMP1CN1
      000000B0H.1 SFRSYM    DATA     BIT       P3_B1
      000000A0H.2 SFRSYM    DATA     BIT       P2_B2
      00000090H.3 SFRSYM    DATA     BIT       P1_B3
      00000080H.4 SFRSYM    DATA     BIT       P0_B4
      000000A0H.3 SFRSYM    DATA     BIT       P2_B3
      00000090H.4 SFRSYM    DATA     BIT       P1_B4
      00000080H.5 SFRSYM    DATA     BIT       P0_B5
      000000D8H.1 SFRSYM    DATA     BIT       UART1FCN1_RXTO0
      00000090H.5 SFRSYM    DATA     BIT       P1_B5
      00000080H.6 SFRSYM    DATA     BIT       P0_B6
      000000F5H   SFRSYM    DATA     BYTE      EIP1H
      000000D8H.2 SFRSYM    DATA     BIT       UART1FCN1_RXTO1
      00000090H.6 SFRSYM    DATA     BIT       P1_B6
      00000080H.7 SFRSYM    DATA     BIT       P0_B7
      000000C5H   SFRSYM    DATA     BYTE      SMB0RXLN
      000000F6H   SFRSYM    DATA     BYTE      EIP2H
      00000090H.7 SFRSYM    DATA     BIT       P1_B7
      00000083H   SFRSYM    DATA     BYTE      DPH
      000000C4H   SFRSYM    DATA     BYTE      ADC0GTH
      000000C8H.7 SFRSYM    DATA     BIT       TMR2CN0_TF2H
      000000C8H.3 SFRSYM    DATA     BIT       TMR2CN0_T2SPLIT
      000000D0H.6 SFRSYM    DATA     BIT       PSW_AC
      000000F8H   SFRSYM    DATA     BYTE      SPI0CN0
      000000C7H   SFRSYM    DATA     BYTE      HFO0CAL
      00000088H.5 SFRSYM    DATA     BIT       TCON_TF0
      00000098H.0 SFRSYM    DATA     BIT       SCON0_RI
      000000D6H   SFRSYM    DATA     BYTE      HFO1CAL
      00000082H   SFRSYM    DATA     BYTE      DPL
      00000088H.7 SFRSYM    DATA     BIT       TCON_TF1
      000000C8H.0 SFRSYM    DATA     BIT       SCON1_RI
      00000099H   SFRSYM    DATA     BYTE      SBUF0
      00000087H   SFRSYM    DATA     BYTE      PCON0
      000000F2H   SFRSYM    DATA     BYTE      IPH
      000000C3H   SFRSYM    DATA     BYTE      ADC0GTL
      00000098H.7 SFRSYM    DATA     BIT       TMR4CN0_TF4H
      00000098H.3 SFRSYM    DATA     BIT       TMR4CN0_T4SPLIT
      000000C8H.6 SFRSYM    DATA     BIT       TMR2CN0_TF2L
      00000098H.1 SFRSYM    DATA     BIT       SCON0_TI
      000000E8H.0 SFRSYM    DATA     BIT       ADC0CN0_ADCM0
      00000092H   SFRSYM    DATA     BYTE      SBUF1
      0000009AH   SFRSYM    DATA     BYTE      PCON1
      000000C6H   SFRSYM    DATA     BYTE      ADC0LTH
      00000088H.0 SFRSYM    DATA     BIT       TCON_IT0
      000000C8H.1 SFRSYM    DATA     BIT       SCON1_TI
      000000E8H.1 SFRSYM    DATA     BIT       ADC0CN0_ADCM1
      000000EFH   SFRSYM    DATA     BYTE      RSTSRC
      000000FDH   SFRSYM    DATA     BYTE      P0MAT
      000000DEH   SFRSYM    DATA     BYTE      CRC0DAT
LX51 LINKER/LOCATER V4.66.97.0                                                        08/03/2020  08:45:41  PAGE 102


      00000088H.2 SFRSYM    DATA     BIT       TCON_IT1
      000000E8H.2 SFRSYM    DATA     BIT       ADC0CN0_ADCM2
      000000D7H   SFRSYM    DATA     BYTE      SFRSTACK
      00000098H   SFRSYM    DATA     BYTE      SCON0
      000000F6H   SFRSYM    DATA     BYTE      PRTDRV
      000000EDH   SFRSYM    DATA     BYTE      P1MAT
      000000E8H.3 SFRSYM    DATA     BIT       ADC0CN0_ADWINT
      00000095H   SFRSYM    DATA     WORD      SBRL1
      00000093H   SFRSYM    DATA     BYTE      SMOD1
      000000C8H   SFRSYM    DATA     BYTE      SCON1
      000000FBH   SFRSYM    DATA     BYTE      P2MAT
      00000098H.6 SFRSYM    DATA     BIT       TMR4CN0_TF4L
      000000E8H.4 SFRSYM    DATA     BIT       ADC0CN0_ADBUSY
      000000D6H   SFRSYM    DATA     BYTE      SMB0ADM
      000000C5H   SFRSYM    DATA     BYTE      ADC0LTL
      000000F8H.5 SFRSYM    DATA     BIT       SPI0CN0_MODF
      000000B8H.6 SFRSYM    DATA     BIT       IP_PSPI0
      0000009CH   SFRSYM    DATA     BYTE      PCA0CLR
      000000C8H   SFRSYM    DATA     BYTE      TMR2CN0
      00000091H   SFRSYM    DATA     BYTE      TMR3CN0
      000000FDH   SFRSYM    DATA     BYTE      TMR2CN1
      00000098H   SFRSYM    DATA     BYTE      TMR4CN0
      000000FEH   SFRSYM    DATA     BYTE      TMR3CN1
      000000FFH   SFRSYM    DATA     BYTE      TMR4CN1
      000000D7H   SFRSYM    DATA     BYTE      SMB0ADR
      00000088H.4 SFRSYM    DATA     BIT       TCON_TR0
      000000C8H.4 SFRSYM    DATA     BIT       TMR2CN0_TF2CEN
      00000088H.6 SFRSYM    DATA     BIT       TCON_TR1
      000000C2H   SFRSYM    DATA     BYTE      SMB0DAT
      000000CDH   SFRSYM    DATA     BYTE      TMR2H
      000000A1H   SFRSYM    DATA     BYTE      SPI0CFG
      00000095H   SFRSYM    DATA     BYTE      TMR3H
      000000EFH   SFRSYM    DATA     BYTE      HFOCN
      000000D3H   SFRSYM    DATA     BYTE      CRC0CNT
      000000A5H   SFRSYM    DATA     BYTE      TMR4H
      00000098H.4 SFRSYM    DATA     BIT       TMR4CN0_TF4CEN
      000000EFH   SFRSYM    DATA     BYTE      SMB0FCT
      00000096H   SFRSYM    DATA     BYTE      PCA0POL
      000000CCH   SFRSYM    DATA     BYTE      TMR2L
      000000F8H.7 SFRSYM    DATA     BIT       SPI0CN0_SPIF
      00000094H   SFRSYM    DATA     BYTE      TMR3L
      000000DFH   SFRSYM    DATA     BYTE      ADC0PWR
      000000A8H.7 SFRSYM    DATA     BIT       IE_EA
      000000A4H   SFRSYM    DATA     BYTE      TMR4L
      000000C8H.5 SFRSYM    DATA     BIT       TMR2CN0_TF2LEN
      000000F8H.6 SFRSYM    DATA     BIT       SPI0CN0_WCOL
      000000F8H.2 SFRSYM    DATA     BIT       SPI0CN0_NSSMD0
      000000D0H.7 SFRSYM    DATA     BIT       PSW_CY
      0000009DH   SFRSYM    DATA     BYTE      UART1FCN0
      000000A3H   SFRSYM    DATA     BYTE      SPI0DAT
      000000ADH   SFRSYM    DATA     BYTE      I2C0FCN0
      000000F8H.3 SFRSYM    DATA     BIT       SPI0CN0_NSSMD1
      000000BDH   SFRSYM    DATA     WORD      ADC0
      000000D8H   SFRSYM    DATA     BYTE      UART1FCN1
      000000ABH   SFRSYM    DATA     BYTE      I2C0FCN1
      00000098H.5 SFRSYM    DATA     BIT       TMR4CN0_TF4LEN
      000000D0H   SFRSYM    DATA     BYTE      PSW
      000000F7H   SFRSYM    DATA     BYTE      PCA0PWM
      000000F7H   SFRSYM    DATA     BYTE      SPI0FCT
      000000B6H   SFRSYM    DATA     BYTE      REVID
      000000B7H   SFRSYM    DATA     BYTE      FLKEY
      000000B3H   SFRSYM    DATA     BYTE      ADC0AC
LX51 LINKER/LOCATER V4.66.97.0                                                        08/03/2020  08:45:41  PAGE 103



      01001FBCH   BLOCK     CODE     ---       LVL=0
      01001FBCH   BLOCK     CODE     NEAR LAB  LVL=1
      00000007H   SYMBOL    DATA     BYTE      i
      ---         BLOCKEND  ---      ---       LVL=1
      01001FBCH   LINE      CODE     ---       #15
      01001FBCH   LINE      CODE     ---       #16
      01001FBCH   LINE      CODE     ---       #18
      01001FC8H   LINE      CODE     ---       #19
      01001FC8H   LINE      CODE     ---       #20
      01001FE0H   LINE      CODE     ---       #21
      01001FE3H   LINE      CODE     ---       #23
      ---         BLOCKEND  ---      ---       LVL=0

      ---         MODULE    ---      ---       ?C_INIT
      0100175DH   PUBLIC    CODE     ---       ?C_START

      ---         MODULE    ---      ---       ?C?CLDOPTR
      0100139FH   PUBLIC    CODE     ---       ?C?CLDOPTR

      ---         MODULE    ---      ---       ?C?CSTOPTR
      010013CCH   PUBLIC    CODE     ---       ?C?CSTOPTR

      ---         MODULE    ---      ---       ?C?IMUL
      010013EEH   PUBLIC    CODE     ---       ?C?IMUL

      ---         MODULE    ---      ---       ?C?UIDIV
      01001400H   PUBLIC    CODE     ---       ?C?UIDIV

      ---         MODULE    ---      ---       ?C?IILDX
      01001455H   PUBLIC    CODE     ---       ?C?IILDX

      ---         MODULE    ---      ---       ?C?ULCMP
      0100146BH   PUBLIC    CODE     ---       ?C?ULCMP

      ---         MODULE    ---      ---       ?C?LSTXDATA
      0100147CH   PUBLIC    CODE     ---       ?C?LSTXDATA

      ---         MODULE    ---      ---       ?C?LSTKXDATA
      01001488H   PUBLIC    CODE     ---       ?C?LSTKXDATA

      ---         MODULE    ---      ---       ?C?OFFXADD
      010014B9H   PUBLIC    CODE     ---       ?C?OFFXADD

Program Size: data=9.0 xdata=709 const=0 code=8491
LX51 RUN COMPLETE.  0 WARNING(S),  0 ERROR(S)
