LX51 LINKER/LOCATER V4.66.97.0                                                          09/02/2020  13:20:23  PAGE 1


LX51 LINKER/LOCATER V4.66.97.0, INVOKED BY:
C:\SILICONLABS\SIMPLICITYSTUDIO\V4\DEVELOPER\TOOLCHAINS\KEIL_8051\9.60\BIN\LX51.EXE ./src/Adc.OBJ, ./src/Command.OBJ, ./
>> src/Cpu.OBJ, ./src/DetectObj.OBJ, ./src/EFM8BB2_FlashPrimitives.OBJ, ./src/InitDevice.OBJ, ./src/Main.OBJ, ./src/SILA
>> BS_STARTUP.OBJ, ./src/Serial.OBJ, ./src/Speaker.OBJ, ./src/Timer.OBJ, ./src/Uart.OBJ, ./src/UartCfg.OBJ TO DFSK-F508-
>> EFM8BB21F16G-C-QFN20.OMF.CRBUILD REMOVEUNUSED PRINT (.\DFSK-F508-EFM8BB21F16G-C-QFN20.m51) PAGEWIDTH (120) PAGELENGTH
>>  (65) CLASSES (ECODE (C:0X0-C:0X3FFE), HCONST (C:0X0-C:0X3FFE), XDATA (X:0X0-X:0X7FF), HDATA (X:0X0-X:0X7FF))




PROGRAM RECURSIONS REMOVED FROM CALL TREE
=========================================
+--> _SRL_GETHEADER/SERIAL
<--+ _SRL_GETDATA/SERIAL



CPU MODE:     8051 MODE
MEMORY MODEL: LARGE


INPUT MODULES INCLUDED:
  ./src/Adc.OBJ (ADC)
         COMMENT TYPE 0: C51 V9.60.0.0
  ./src/Command.OBJ (COMMAND)
         COMMENT TYPE 0: C51 V9.60.0.0
  ./src/Cpu.OBJ (CPU)
         COMMENT TYPE 0: C51 V9.60.0.0
  ./src/DetectObj.OBJ (DETECTOBJ)
         COMMENT TYPE 0: C51 V9.60.0.0
  ./src/EFM8BB2_FlashPrimitives.OBJ (EFM8BB2_FLASHPRIMITIVES)
         COMMENT TYPE 0: C51 V9.60.0.0
  ./src/InitDevice.OBJ (INITDEVICE)
         COMMENT TYPE 0: C51 V9.60.0.0
  ./src/Main.OBJ (MAIN)
         COMMENT TYPE 0: C51 V9.60.0.0
  ./src/SILABS_STARTUP.OBJ (?C_STARTUP)
         COMMENT TYPE 0: AX51 V3.15.3.0
  ./src/Serial.OBJ (SERIAL)
         COMMENT TYPE 0: C51 V9.60.0.0
  ./src/Speaker.OBJ (SPEAKER)
         COMMENT TYPE 0: C51 V9.60.0.0
  ./src/Timer.OBJ (TIMER)
         COMMENT TYPE 0: C51 V9.60.0.0
  ./src/Uart.OBJ (UART)
         COMMENT TYPE 0: C51 V9.60.0.0
  ./src/UartCfg.OBJ (UARTCFG)
         COMMENT TYPE 0: C51 V9.60.0.0
  C:\SILICONLABS\SIMPLICITYSTUDIO\V4\DEVELOPER\TOOLCHAINS\KEIL_8051\9.60\LIB\C51L.LIB (?C_INIT)
         COMMENT TYPE 1: A51 / ASM51 Assembler
  C:\SILICONLABS\SIMPLICITYSTUDIO\V4\DEVELOPER\TOOLCHAINS\KEIL_8051\9.60\LIB\C51L.LIB (?C?CLDOPTR)
         COMMENT TYPE 1: A51 / ASM51 Assembler
  C:\SILICONLABS\SIMPLICITYSTUDIO\V4\DEVELOPER\TOOLCHAINS\KEIL_8051\9.60\LIB\C51L.LIB (?C?CILDOPTR)
         COMMENT TYPE 1: A51 / ASM51 Assembler
  C:\SILICONLABS\SIMPLICITYSTUDIO\V4\DEVELOPER\TOOLCHAINS\KEIL_8051\9.60\LIB\C51L.LIB (?C?CSTOPTR)
         COMMENT TYPE 1: A51 / ASM51 Assembler
  C:\SILICONLABS\SIMPLICITYSTUDIO\V4\DEVELOPER\TOOLCHAINS\KEIL_8051\9.60\LIB\C51L.LIB (?C?IMUL)
         COMMENT TYPE 1: A51 / ASM51 Assembler
  C:\SILICONLABS\SIMPLICITYSTUDIO\V4\DEVELOPER\TOOLCHAINS\KEIL_8051\9.60\LIB\C51L.LIB (?C?UIDIV)
         COMMENT TYPE 1: A51 / ASM51 Assembler
  C:\SILICONLABS\SIMPLICITYSTUDIO\V4\DEVELOPER\TOOLCHAINS\KEIL_8051\9.60\LIB\C51L.LIB (?C?IILDX)
         COMMENT TYPE 1: A51 / ASM51 Assembler
  C:\SILICONLABS\SIMPLICITYSTUDIO\V4\DEVELOPER\TOOLCHAINS\KEIL_8051\9.60\LIB\C51L.LIB (?C?ILDPTR)
LX51 LINKER/LOCATER V4.66.97.0                                                        09/02/2020  13:20:23  PAGE 2


         COMMENT TYPE 1: A51 / ASM51 Assembler
  C:\SILICONLABS\SIMPLICITYSTUDIO\V4\DEVELOPER\TOOLCHAINS\KEIL_8051\9.60\LIB\C51L.LIB (?C?ILDOPTR)
         COMMENT TYPE 1: A51 / ASM51 Assembler
  C:\SILICONLABS\SIMPLICITYSTUDIO\V4\DEVELOPER\TOOLCHAINS\KEIL_8051\9.60\LIB\C51L.LIB (?C?ISTPTR)
         COMMENT TYPE 1: A51 / ASM51 Assembler
  C:\SILICONLABS\SIMPLICITYSTUDIO\V4\DEVELOPER\TOOLCHAINS\KEIL_8051\9.60\LIB\C51L.LIB (?C?ISTOPTR)
         COMMENT TYPE 1: A51 / ASM51 Assembler
  C:\SILICONLABS\SIMPLICITYSTUDIO\V4\DEVELOPER\TOOLCHAINS\KEIL_8051\9.60\LIB\C51L.LIB (?C?ULDIV)
         COMMENT TYPE 1: A51 / ASM51 Assembler
  C:\SILICONLABS\SIMPLICITYSTUDIO\V4\DEVELOPER\TOOLCHAINS\KEIL_8051\9.60\LIB\C51L.LIB (?C?ULCMP)
         COMMENT TYPE 1: A51 / ASM51 Assembler
  C:\SILICONLABS\SIMPLICITYSTUDIO\V4\DEVELOPER\TOOLCHAINS\KEIL_8051\9.60\LIB\C51L.LIB (?C?LSTXDATA)
         COMMENT TYPE 1: A51 / ASM51 Assembler
  C:\SILICONLABS\SIMPLICITYSTUDIO\V4\DEVELOPER\TOOLCHAINS\KEIL_8051\9.60\LIB\C51L.LIB (?C?LSTKXDATA)
         COMMENT TYPE 1: A51 / ASM51 Assembler
  C:\SILICONLABS\SIMPLICITYSTUDIO\V4\DEVELOPER\TOOLCHAINS\KEIL_8051\9.60\LIB\C51L.LIB (?C?OFFXADD)
         COMMENT TYPE 1: A51 / ASM51 Assembler
  C:\SILICONLABS\SIMPLICITYSTUDIO\V4\DEVELOPER\TOOLCHAINS\KEIL_8051\9.60\LIB\C51L.LIB (?C?PLDOPTR)
         COMMENT TYPE 1: A51 / ASM51 Assembler
  C:\SILICONLABS\SIMPLICITYSTUDIO\V4\DEVELOPER\TOOLCHAINS\KEIL_8051\9.60\LIB\C51L.LIB (?C?PSTOPTR)
         COMMENT TYPE 1: A51 / ASM51 Assembler
  C:\SILICONLABS\SIMPLICITYSTUDIO\V4\DEVELOPER\TOOLCHAINS\KEIL_8051\9.60\LIB\C51L.LIB (?C?ICALL)
         COMMENT TYPE 1: A51 / ASM51 Assembler
  C:\SILICONLABS\SIMPLICITYSTUDIO\V4\DEVELOPER\TOOLCHAINS\KEIL_8051\9.60\LIB\C51L.LIB (?C?LIMUL)
         COMMENT TYPE 1: A51 / ASM51 Assembler
  C:\SILICONLABS\SIMPLICITYSTUDIO\V4\DEVELOPER\TOOLCHAINS\KEIL_8051\9.60\LIB\C51L.LIB (?C?PLDIDATA)
         COMMENT TYPE 1: A51 / ASM51 Assembler
  C:\SILICONLABS\SIMPLICITYSTUDIO\V4\DEVELOPER\TOOLCHAINS\KEIL_8051\9.60\LIB\C51L.LIB (?C?PSTIDATA)
         COMMENT TYPE 1: A51 / ASM51 Assembler
  C:\SILICONLABS\SIMPLICITYSTUDIO\V4\DEVELOPER\TOOLCHAINS\KEIL_8051\9.60\LIB\C51L.LIB (?C?PLDXDATA)
         COMMENT TYPE 1: A51 / ASM51 Assembler
  C:\SILICONLABS\SIMPLICITYSTUDIO\V4\DEVELOPER\TOOLCHAINS\KEIL_8051\9.60\LIB\C51L.LIB (?C?PSTXDATA)
         COMMENT TYPE 1: A51 / ASM51 Assembler
  C:\SILICONLABS\SIMPLICITYSTUDIO\V4\DEVELOPER\TOOLCHAINS\KEIL_8051\9.60\LIB\C51L.LIB (?C?PLDPDATA)
         COMMENT TYPE 1: A51 / ASM51 Assembler
  C:\SILICONLABS\SIMPLICITYSTUDIO\V4\DEVELOPER\TOOLCHAINS\KEIL_8051\9.60\LIB\C51L.LIB (?C?PSTPDATA)
         COMMENT TYPE 1: A51 / ASM51 Assembler
  C:\SILICONLABS\SIMPLICITYSTUDIO\V4\DEVELOPER\TOOLCHAINS\KEIL_8051\9.60\LIB\C51L.LIB (?C?PLDCODE)
         COMMENT TYPE 1: A51 / ASM51 Assembler


ACTIVE MEMORY CLASSES OF MODULE:  DFSK-F508-EFM8BB21F16G-C-QFN20.OMF.CRBUILD (ADC)

BASE        START       END         USED      MEMORY CLASS
==========================================================
C:000000H   C:000000H   C:003FFEH             ECODE
C:000000H   C:000000H   C:003FFEH             HCONST
X:000000H   X:000000H   X:0007FFH   0003C2H   XDATA
X:000000H   X:000000H   X:0007FFH             HDATA
C:000000H   C:000000H   C:00FFFFH   003F00H   CODE
I:000020H.0 I:000020H.0 I:00002FH.7 000000H.1 BIT
I:000000H   I:000000H   I:0000FFH   000001H   IDATA
I:000000H   I:000000H   I:00007FH   000008H   DATA


MEMORY MAP OF MODULE:  DFSK-F508-EFM8BB21F16G-C-QFN20.OMF.CRBUILD (ADC)


START     STOP      LENGTH    ALIGN  RELOC    MEMORY CLASS   SEGMENT NAME
=========================================================================

* * * * * * * * * * *   D A T A   M E M O R Y   * * * * * * * * * * * * *
LX51 LINKER/LOCATER V4.66.97.0                                                        09/02/2020  13:20:23  PAGE 3


000000H   000007H   000008H   ---    AT..     DATA           "REG BANK 0"
000008H.0 00001FH.7 000018H.0 ---    ---      **GAP**
000020H.0 000020H.0 000000H.1 BIT    UNIT     BIT            _BIT_GROUP_
000020H.1 000020H   000000H.7 ---    ---      **GAP**
000021H   000021H   000001H   BYTE   UNIT     IDATA          ?STACK

* * * * * * * * * * *   C O D E   M E M O R Y   * * * * * * * * * * * * *
000000H   000002H   000003H   ---    OFFS..   CODE           ?CO?SILABS_STARTUP?3
000003H   00000AH   000008H   BYTE   UNIT     CODE           ?PR?STOP_PCA0_COMPARATOR?TIMER
00000BH   00000DH   000003H   BYTE   OFFS..   CODE           ?TIMER?0000B
00000EH   000020H   000013H   BYTE   UNIT     CODE           ?PR?TIME_STOPADCTRIGGER?TIMER
000021H   000021H   000001H   BYTE   UNIT     CODE           ?PR?SILABS_STARTUP?MAIN
000022H   000022H   000001H   BYTE   UNIT     CODE           ?PR?TIMER0_ISR?TIMER
000023H   000025H   000003H   BYTE   OFFS..   CODE           ?UART?00023
000026H   00002AH   000005H   BYTE   UNIT     CODE           ?PR?STARTTHEUART0TIMER?TIMER
00002BH   00002DH   000003H   BYTE   OFFS..   CODE           ?TIMER?0002B
00002EH   00004AH   00001DH   BYTE   UNIT     CODE           ?PR?_DELAY1MS?TIMER
00004BH   00004DH   000003H   BYTE   OFFS..   CODE           ?ADC?0004B
00004EH   000050H   000003H   BYTE   UNIT     CODE           ?PR?ADC_WINDOW_ISR?ADC
000051H   000052H   000002H   ---    ---      **GAP**
000053H   000055H   000003H   BYTE   OFFS..   CODE           ?ADC?00053
000056H   000058H   000003H   BYTE   UNIT     CODE           ?PR?CPU_ENABLEINTERRUPT?CPU
000059H   00005AH   000002H   ---    ---      **GAP**
00005BH   00005DH   000003H   BYTE   OFFS..   CODE           ?SERIAL?0005B
00005EH   00006FH   000012H   BYTE   UNIT     CODE           ?PR?_FLASH_BYTEREAD?EFM8BB2_FLASHPRIMITIVES
000070H   000072H   000003H   BYTE   UNIT     CODE           ?PR?CPU_DISABLEINTERRUPT?CPU
000073H   000075H   000003H   BYTE   OFFS..   CODE           ?TIMER?00073
000076H   00009AH   000025H   BYTE   UNIT     CODE           ?PR?UART0_MOUDLE_DIS?UART
00009BH   00009DH   000003H   BYTE   OFFS..   CODE           ?TIMER?0009B
00009EH   0006E0H   000643H   BYTE   UNIT     CODE           ?PR?CMD_PROCESS?COMMAND
0006E1H   000AB4H   0003D4H   BYTE   UNIT     CODE           ?C?LIB_CODE
000AB5H   000E01H   00034DH   BYTE   UNIT     CODE           ?PR?DETOBJ_RAWECHODATAANS?DETECTOBJ
000E02H   0010A9H   0002A8H   BYTE   UNIT     CODE           ?PR?DETOBJ_COMPARETHEDATA?DETECTOBJ
0010AAH   001314H   00026BH   BYTE   UNIT     CODE           ?PR?_RECEIVEFRAMERECORRESPONDING?UARTCFG
001315H   00154EH   00023AH   BYTE   UNIT     CODE           ?PR?_UART0_RXDATA?UART
00154FH   00177CH   00022EH   BYTE   UNIT     CODE           ?PR?DETOBJ_DETTHEOBJ?DETECTOBJ
00177DH   00197CH   000200H   BYTE   UNIT     CODE           ?PR?ADC_READID?ADC
00197DH   001B6EH   0001F2H   BYTE   UNIT     CODE           ?PR?DETOBJ_CALSAMPNOISE?DETECTOBJ
001B6FH   001D54H   0001E6H   BYTE   UNIT     CODE           ?PR?CMD_UPDATADISTANCE?COMMAND
001D55H   001F2AH   0001D6H   BYTE   UNIT     CODE           ?PR?DETOBJ_RAWFILTER?DETECTOBJ
001F2BH   0020C0H   000196H   BYTE   UNIT     CODE           ?PR?DETOBJ_GENERATETHENEARESTOBSTACLE?DETECTOBJ
0020C1H   002246H   000186H   BYTE   UNIT     CODE           ?PR?_SRL_SENDDATA?SERIAL
002247H   0023A0H   00015AH   BYTE   UNIT     CODE           ?PR?PCA0_ISR?SERIAL
0023A1H   0024E9H   000149H   BYTE   UNIT     CODE           ?PR?DETOBJ_RAWNOISEDATAANS?DETECTOBJ
0024EAH   002627H   00013EH   BYTE   UNIT     CODE           ?PR?CMD_DISTANCETOCOMINFO?COMMAND
002628H   002754H   00012DH   BYTE   UNIT     CODE           ?PR?CMD_RENEWVECHILECFG?COMMAND
002755H   00286FH   00011BH   BYTE   UNIT     CODE           ?PR?DETOBJ_DIAGNOSTICTHERINGTIME?DETECTOBJ
002870H   002980H   000111H   BYTE   UNIT     CODE           ?PR?CMD_GETVECHILEMODE?COMMAND
002981H   002A8AH   00010AH   BYTE   UNIT     CODE           ?PR?_SRL_GETDATA?SERIAL
002A8BH   002B60H   0000D6H   BYTE   UNIT     CODE           ?PR?_CALCFRAMECHECKSUM?UARTCFG
002B61H   002C30H   0000D0H   BYTE   UNIT     CODE           ?PR?INITGLOBALVARIABLE?MAIN
002C31H   002CFDH   0000CDH   BYTE   UNIT     CODE           ?PR?UART0_DATAINIT?UARTCFG
002CFEH   002DC8H   0000CBH   BYTE   UNIT     CODE           ?PR?CMD_SENDDISTANCETOBCM?COMMAND
002DC9H   002E92H   0000CAH   BYTE   UNIT     CODE           ?PR?ADC_ISR?ADC
002E93H   002F47H   0000B5H   BYTE   UNIT     CODE           ?C_INITSEG
002F48H   002FFBH   0000B4H   BYTE   UNIT     CODE           ?PR?CMD_SENDSELFCHECKTOBCM?COMMAND
002FFCH   0030A4H   0000A9H   BYTE   UNIT     CODE           ?PR?DETOBJ_PROCESSTHERINGTIME?DETECTOBJ
0030A5H   00314BH   0000A7H   BYTE   UNIT     CODE           ?PR?_SRL_GETHEADER?SERIAL
00314CH   0031ECH   0000A1H   BYTE   UNIT     CODE           ?PR?MAIN?MAIN
0031EDH   00327BH   00008FH   BYTE   UNIT     CODE           ?C_C51STARTUP
00327CH   003308H   00008DH   BYTE   UNIT     CODE           ?PR?DETOBJ_INITTHEEPD?DETECTOBJ
003309H   00337BH   000073H   BYTE   UNIT     CODE           ?PR?DETOBJ_CLEARTHENOISEBUFF?DETECTOBJ
LX51 LINKER/LOCATER V4.66.97.0                                                        09/02/2020  13:20:23  PAGE 4


00337CH   0033E7H   00006CH   BYTE   UNIT     CODE           ?PR?UART0_ISR?UART
0033E8H   003452H   00006BH   BYTE   UNIT     CODE           ?PR?DETOBJ_HOLDTHEOBSTACLESTATE?DETECTOBJ
003453H   0034BCH   00006AH   BYTE   UNIT     CODE           ?PR?CMD_NEXTSENSORDET?COMMAND
0034BDH   003525H   000069H   BYTE   UNIT     CODE           ?PR?ADC_POWERSAMPLE?ADC
003526H   00358BH   000066H   BYTE   UNIT     CODE           ?PR?CMD_SAVEDATA?COMMAND
00358CH   0035F0H   000065H   BYTE   UNIT     CODE           ?PR?DETOBJ_SENDTHE58KHZULTRASONIC?DETECTOBJ
0035F1H   003655H   000065H   BYTE   UNIT     CODE           ?PR?_GETDISTANCE?DETECTOBJ
003656H   0036B9H   000064H   BYTE   UNIT     CODE           ?PR?TIMER2_ISR?TIMER
0036BAH   003716H   00005DH   BYTE   UNIT     CODE           ?PR?_CMD_RELEASEVECHILECFGINFO?COMMAND
003717H   003771H   00005BH   BYTE   UNIT     CODE           ?PR?DETOBJ_INITTHECCD?DETECTOBJ
003772H   0037CCH   00005BH   BYTE   UNIT     CODE           ?PR?RXDATAPARITY?SERIAL
0037CDH   003825H   000059H   BYTE   UNIT     CODE           ?PR?DETOBJ_INITALLCHANNELDISTANCE?DETECTOBJ
003826H   003877H   000052H   BYTE   UNIT     CODE           ?PR?INITUART0RECEIVEVAR?UARTCFG
003878H   0038C4H   00004DH   BYTE   UNIT     CODE           ?PR?ADC_CALUE?ADC
0038C5H   00390DH   000049H   BYTE   UNIT     CODE           ?PR?CMD_NEXTSENSORSELF?COMMAND
00390EH   003956H   000049H   BYTE   UNIT     CODE           ?PR?CMD_SENDREQVECHIMODETOBCM?COMMAND
003957H   00399EH   000048H   BYTE   UNIT     CODE           ?PR?_CALCBYTEEVEN?UARTCFG
00399FH   0039E1H   000043H   BYTE   UNIT     CODE           ?PR?_DETOBJ_COPYSAMPLINGBUFFER?DETECTOBJ
0039E2H   003A1BH   00003AH   BYTE   UNIT     CODE           ?PR?INITUART0ALLVAR?UARTCFG
003A1CH   003A53H   000038H   BYTE   UNIT     CODE           ?PR?_DELAY1US?TIMER
003A54H   003A8AH   000037H   BYTE   UNIT     CODE           ?PR?TIME_INITPCA0?TIMER
003A8BH   003ABDH   000033H   BYTE   UNIT     CODE           ?PR?ADC_INITDETECT?ADC
003ABEH   003AECH   00002FH   BYTE   UNIT     CODE           ?PR?ADC_POWERSAMPLINGINIT?ADC
003AEDH   003B1BH   00002FH   BYTE   UNIT     CODE           ?PR?ADC_IDSAMPLINGINIT?ADC
003B1CH   003B4AH   00002FH   BYTE   UNIT     CODE           ?PR?_START_PCA0_CAPTURE?TIMER
003B4BH   003B79H   00002FH   BYTE   UNIT     CODE           ?PR?_STOP_PCA0_CAPTURE?TIMER
003B7AH   003BA8H   00002FH   BYTE   UNIT     CODE           ?PR?TIMER3_ISR?TIMER
003BA9H   003BD6H   00002EH   BYTE   UNIT     CODE           ?PR?_COMMUNICATIONMODE?SERIAL
003BD7H   003C01H   00002BH   BYTE   UNIT     CODE           ?PR?TIME_INIT1MSTIMER?TIMER
003C02H   003C2CH   00002BH   BYTE   UNIT     CODE           ?PR?TIME_INITTHEDELAYTIMER?TIMER
003C2DH   003C56H   00002AH   BYTE   UNIT     CODE           ?PR?DETOBJ_REALTIMECLOCK?DETECTOBJ
003C57H   003C80H   00002AH   BYTE   UNIT     CODE           ?PR?DETOBJ_DIAGNOSTICTHESENSOR?DETECTOBJ
003C81H   003CAAH   00002AH   BYTE   UNIT     CODE           ?PR?DETOBJ_CLEARTHERAWDATABUFF?DETECTOBJ
003CABH   003CD3H   000029H   BYTE   UNIT     CODE           ?PR?_FLASH_BYTEWRITE?EFM8BB2_FLASHPRIMITIVES
003CD4H   003CFCH   000029H   BYTE   UNIT     CODE           ?PR?_FLASH_PAGEERASE?EFM8BB2_FLASHPRIMITIVES
003CFDH   003D25H   000029H   BYTE   UNIT     CODE           ?PR?TIME_INITUART0TIMER?TIMER
003D26H   003D4CH   000027H   BYTE   UNIT     CODE           ?PR?TIME_INITADCTRIGGERTIMER?TIMER
003D4DH   003D73H   000027H   BYTE   UNIT     CODE           ?PR?UART0_INIT?UART
003D74H   003D9AH   000027H   BYTE   UNIT     CODE           ?PR?_UART0_WRITEBYTE?UART
003D9BH   003DC0H   000026H   BYTE   UNIT     CODE           ?PR?ENABLEINTERNALCOMMUNICAITON?SERIAL
003DC1H   003DE4H   000024H   BYTE   UNIT     CODE           ?PR?CPU_INITHARDWAREPORT?CPU
003DE5H   003E04H   000020H   BYTE   UNIT     CODE           ?PR?CPU_CLK_INIT?CPU
003E05H   003E20H   00001CH   BYTE   UNIT     CODE           ?PR?_CPU_WDG_INIT?CPU
003E21H   003E3CH   00001CH   BYTE   UNIT     CODE           ?PR?TIME_INIT32MSTIMER?TIMER
003E3DH   003E58H   00001CH   BYTE   UNIT     CODE           ?PR?TIME_STARTADCTRIGGER?TIMER
003E59H   003E73H   00001BH   BYTE   UNIT     CODE           ?PR?TIMER4_ISR?TIMER
003E74H   003E83H   000010H   BYTE   UNIT     CODE           ?PR?UART0_MODEDATAL?UART
003E84H   003E93H   000010H   BYTE   UNIT     CODE           ?PR?UART0_MODEDATAH?UART
003E94H   003EA1H   00000EH   BYTE   UNIT     CODE           ?PR?_FLASH_WRITEVECHILEMODE?EFM8BB2_FLASHPRIMITIVES
003EA2H   003EAEH   00000DH   BYTE   UNIT     CODE           ?PR?ADC_START?ADC
003EAFH   003EBBH   00000DH   BYTE   UNIT     CODE           ?PR?START_PCA0_COMPARATOR?TIMER
003EBCH   003EC7H   00000CH   BYTE   UNIT     CODE           ?PR?UART0_INTRX_DIS?UART
003EC8H   003ED3H   00000CH   BYTE   UNIT     CODE           ?PR?UART0_INTRX_EN?UART
003ED4H   003EDDH   00000AH   BYTE   UNIT     CODE           ?PR?ADC_STOP?ADC
003EDEH   003EE7H   00000AH   BYTE   UNIT     CODE           ?PR?DISABLEINTERNALCOMMUNICAITON?SERIAL
003EE8H   003EF0H   000009H   BYTE   UNIT     CODE           ?PR?DETOBJ_START?DETECTOBJ
003EF1H   003EF7H   000007H   BYTE   UNIT     CODE           ?PR?FLASH_READVECHILEMODE?EFM8BB2_FLASHPRIMITIVES
003EF8H   003EFDH   000006H   BYTE   UNIT     CODE           ?PR?DETOBJ_STOP?DETECTOBJ
003EFEH   003F03H   000006H   BYTE   UNIT     CODE           ?PR?DETOBJ_INITTHEANALYSISDATA?DETECTOBJ

* * * * * * * * * * *  X D A T A   M E M O R Y  * * * * * * * * * * * * *
000000H   000227H   000228H   BYTE   UNIT     XDATA          ?XD?DETECTOBJ
LX51 LINKER/LOCATER V4.66.97.0                                                        09/02/2020  13:20:23  PAGE 5


000228H   000287H   000060H   BYTE   UNIT     XDATA          ?XD?UARTCFG
000288H   0002E1H   00005AH   BYTE   UNIT     XDATA          ?XD?COMMAND
0002E2H   000338H   000057H   BYTE   UNIT     XDATA          ?XD?SERIAL
000339H   000361H   000029H   BYTE   UNIT     XDATA          ?XD?ADC
000362H   000384H   000023H   BYTE   UNIT     XDATA          ?XD?UART
000385H   0003A5H   000021H   BYTE   UNIT     XDATA          _XDATA_GROUP_
0003A6H   0003B0H   00000BH   BYTE   UNIT     XDATA          ?XD?MAIN
0003B1H   0003BAH   00000AH   BYTE   UNIT     XDATA          ?XD?TIMER
0003BBH   0003C0H   000006H   BYTE   UNIT     XDATA          ?XD?SPEAKER
0003C1H   0003C1H   000001H   BYTE   UNIT     XDATA          ?XD?CPU

* * * * * * * * *   R E M O V E D     S E G M E N T S   * * * * * * * *
   *DEL*:           00001CH   BYTE   UNIT     CODE           ?PR?ADC_INITVARIABLE?ADC
   *DEL*:           00001DH   BYTE   UNIT     CODE           ?PR?CMD_CLEARBUFFER?COMMAND
   *DEL*:           000003H   BYTE   UNIT     CODE           ?PR?CMD_VECHILECFGCHECK?COMMAND
   *DEL*:           000001H   BYTE   UNIT     CODE           ?PR?CPU_INIT_VECT?CPU
   *DEL*:           000001H   BYTE   UNIT     CODE           ?PR?NULL?DETECTOBJ
   *DEL*:           000058H   BYTE   UNIT     CODE           ?PR?DETOBJ_INITSELFCHECKVAR?DETECTOBJ
   *DEL*:           000241H   BYTE   UNIT     CODE           ?PR?DETOBJ_INITVARIABLE?DETECTOBJ
   *DEL*:           000002H   BYTE   UNIT     XDATA          ?XD?DETOBJ_INITVARIABLE?DETECTOBJ
   *DEL*:           000001H   BYTE   UNIT     CODE           ?PR?DETOBJ_PREECHOPROCESS?DETECTOBJ
   *DEL*:           000005H   BYTE   UNIT     CODE           ?PR?ENTER_DEFAULTMODE_FROM_RESET?INITDEVICE
   *DEL*:           00001EH   BYTE   UNIT     CODE           ?PR?SRL_INITVARIABLE?SERIAL
   *DEL*:           000006H   BYTE   UNIT     CODE           ?PR?SPK_INITHARDWARE?SPEAKER
   *DEL*:           000012H   BYTE   UNIT     CODE           ?PR?SPK_INITVARIABLE?SPEAKER
   *DEL*:           0000DCH   BYTE   UNIT     CODE           ?PR?SPK_DRIVETHESPEAKER?SPEAKER
   *DEL*:           00001AH   BYTE   UNIT     CODE           ?PR?TIME_INITVARIABLE?TIMER
   *DEL*:           000005H   BYTE   UNIT     CODE           ?PR?ENABLETHE32MSTIMERINTERRUPT?TIMER
   *DEL*:           000003H   BYTE   UNIT     CODE           ?PR?DISABLETHE32MSTIMERINTERRUPT?TIMER
   *DEL*:           000005H   BYTE   UNIT     CODE           ?PR?STOPTHEUART0TIMER?TIMER
   *DEL*:           000013H   BYTE   UNIT     CODE           ?PR?STARTTHE32MSTIMER?TIMER
   *DEL*:           00000FH   BYTE   UNIT     CODE           ?PR?STOPTHE32MSTIMER?TIMER
   *DEL*:           000017H   BYTE   UNIT     CODE           ?PR?START1MSTIMER?TIMER
   *DEL*:           000011H   BYTE   UNIT     CODE           ?PR?STOP1MSTIMER?TIMER



OVERLAY MAP OF MODULE:   DFSK-F508-EFM8BB21F16G-C-QFN20.OMF.CRBUILD (ADC)


FUNCTION/MODULE                                BIT_GROUP   XDATA_GROUP
--> CALLED FUNCTION/MODULE                    START  STOP  START  STOP
======================================================================
ADC_ISR/ADC                                   ----- -----  0385H 0387H

*** NEW ROOT ********************************

ADC_WINDOW_ISR/ADC                            ----- -----  ----- -----

*** NEW ROOT ********************************

?C_C51STARTUP                                 ----- -----  ----- -----
  +--> SILABS_STARTUP/MAIN
  +--> MAIN/MAIN
  +--> ?C_INITSEG

SILABS_STARTUP/MAIN                           ----- -----  ----- -----

MAIN/MAIN                                     ----- -----  ----- -----
  +--> CPU_CLK_INIT/CPU
  +--> CPU_INITHARDWAREPORT/CPU
  +--> _CPU_WDG_INIT/CPU
LX51 LINKER/LOCATER V4.66.97.0                                                        09/02/2020  13:20:23  PAGE 6


  +--> TIME_INITTHEDELAYTIMER/TIMER
  +--> TIME_INIT1MSTIMER/TIMER
  +--> TIME_INIT32MSTIMER/TIMER
  +--> INITGLOBALVARIABLE/MAIN
  +--> TIME_INITUART0TIMER/TIMER
  +--> TIME_INITPCA0/TIMER
  +--> CPU_ENABLEINTERRUPT/CPU
  +--> _DELAY1MS/TIMER
  +--> ADC_READID/ADC
  +--> CMD_GETVECHILEMODE/COMMAND
  +--> DETOBJ_DETTHEOBJ/DETECTOBJ
  +--> _COMMUNICATIONMODE/SERIAL
  +--> DETOBJ_INITALLCHANNELDISTANCE/DETECTOBJ

CPU_CLK_INIT/CPU                              ----- -----  ----- -----

CPU_INITHARDWAREPORT/CPU                      ----- -----  ----- -----

_CPU_WDG_INIT/CPU                             ----- -----  ----- -----

TIME_INITTHEDELAYTIMER/TIMER                  ----- -----  ----- -----

TIME_INIT1MSTIMER/TIMER                       ----- -----  ----- -----

TIME_INIT32MSTIMER/TIMER                      ----- -----  ----- -----

INITGLOBALVARIABLE/MAIN                       ----- -----  ----- -----
  +--> INITUART0ALLVAR/UARTCFG
  +--> DETOBJ_INITALLCHANNELDISTANCE/DETECTOBJ
  +--> _SRL_GETHEADER/SERIAL

INITUART0ALLVAR/UARTCFG                       ----- -----  ----- -----
  +--> UART0_DATAINIT/UARTCFG
  +--> INITUART0RECEIVEVAR/UARTCFG

UART0_DATAINIT/UARTCFG                        ----- -----  ----- -----

INITUART0RECEIVEVAR/UARTCFG                   ----- -----  ----- -----

DETOBJ_INITALLCHANNELDISTANCE/DETECTOBJ       ----- -----  ----- -----
  +--> DETOBJ_STOP/DETECTOBJ

DETOBJ_STOP/DETECTOBJ                         ----- -----  ----- -----
  +--> TIME_STOPADCTRIGGER/TIMER
  +--> ADC_STOP/ADC

TIME_STOPADCTRIGGER/TIMER                     ----- -----  ----- -----

ADC_STOP/ADC                                  ----- -----  ----- -----

_SRL_GETHEADER/SERIAL                         ----- -----  ----- -----
  +--> _SRL_GETDATA/SERIAL

_SRL_GETDATA/SERIAL                           ----- -----  0388H 038AH
  +--> RXDATAPARITY/SERIAL

RXDATAPARITY/SERIAL                           ----- -----  ----- -----

TIME_INITUART0TIMER/TIMER                     ----- -----  ----- -----

TIME_INITPCA0/TIMER                           ----- -----  ----- -----

LX51 LINKER/LOCATER V4.66.97.0                                                        09/02/2020  13:20:23  PAGE 7


CPU_ENABLEINTERRUPT/CPU                       ----- -----  ----- -----

_DELAY1MS/TIMER                               ----- -----  ----- -----
  +--> _DELAY1US/TIMER

_DELAY1US/TIMER                               ----- -----  ----- -----

ADC_READID/ADC                                ----- -----  ----- -----
  +--> ADC_POWERSAMPLE/ADC
  +--> _DELAY1MS/TIMER

ADC_POWERSAMPLE/ADC                           ----- -----  ----- -----
  +--> ADC_POWERSAMPLINGINIT/ADC
  +--> ADC_CALUE/ADC
  +--> ADC_IDSAMPLINGINIT/ADC

ADC_POWERSAMPLINGINIT/ADC                     ----- -----  ----- -----

ADC_CALUE/ADC                                 ----- -----  ----- -----
  +--> _DELAY1US/TIMER
  +--> ADC_STOP/ADC

ADC_IDSAMPLINGINIT/ADC                        ----- -----  ----- -----

CMD_GETVECHILEMODE/COMMAND                    ----- -----  0388H 0388H
  +--> _COMMUNICATIONMODE/SERIAL
  +--> _DELAY1US/TIMER
  +--> CMD_SENDREQVECHIMODETOBCM/COMMAND
  +--> _FLASH_WRITEVECHILEMODE/EFM8BB2_FLASHPRIMITIVES
  +--> FLASH_READVECHILEMODE/EFM8BB2_FLASHPRIMITIVES
  +--> _CMD_RELEASEVECHILECFGINFO/COMMAND

_COMMUNICATIONMODE/SERIAL                     ----- -----  038AH 038AH
  +--> UART0_MOUDLE_DIS/UART
  +--> ENABLEINTERNALCOMMUNICAITON/SERIAL
  +--> _STOP_PCA0_CAPTURE/TIMER
  +--> UART0_INIT/UART
  +--> DISABLEINTERNALCOMMUNICAITON/SERIAL

UART0_MOUDLE_DIS/UART                         ----- -----  ----- -----

ENABLEINTERNALCOMMUNICAITON/SERIAL            ----- -----  ----- -----
  +--> _START_PCA0_CAPTURE/TIMER

_START_PCA0_CAPTURE/TIMER                     ----- -----  ----- -----

_STOP_PCA0_CAPTURE/TIMER                      ----- -----  ----- -----

UART0_INIT/UART                               ----- -----  ----- -----
  +--> STARTTHEUART0TIMER/TIMER

STARTTHEUART0TIMER/TIMER                      ----- -----  ----- -----

DISABLEINTERNALCOMMUNICAITON/SERIAL           ----- -----  ----- -----
  +--> _STOP_PCA0_CAPTURE/TIMER

CMD_SENDREQVECHIMODETOBCM/COMMAND             ----- -----  0389H 0389H
  +--> UART0_MODEDATAL/UART
  +--> UART0_INTRX_DIS/UART
  +--> _DELAY1US/TIMER
  +--> _UART0_WRITEBYTE/UART
  +--> UART0_INTRX_EN/UART
LX51 LINKER/LOCATER V4.66.97.0                                                        09/02/2020  13:20:23  PAGE 8


  +--> UART0_MODEDATAH/UART

UART0_MODEDATAL/UART                          ----- -----  ----- -----

UART0_INTRX_DIS/UART                          ----- -----  ----- -----

_UART0_WRITEBYTE/UART                         ----- -----  ----- -----

UART0_INTRX_EN/UART                           ----- -----  ----- -----

UART0_MODEDATAH/UART                          ----- -----  ----- -----

_FLASH_WRITEVECHILEMODE/EFM8BB2_FLASHPRI+     ----- -----  ----- -----
... MITIVES
  +--> _FLASH_PAGEERASE/EFM8BB2_FLASHPRIMITIVES
  +--> _FLASH_BYTEWRITE/EFM8BB2_FLASHPRIMITIVES

_FLASH_PAGEERASE/EFM8BB2_FLASHPRIMITIVES      20H.0 20H.0  ----- -----

_FLASH_BYTEWRITE/EFM8BB2_FLASHPRIMITIVES      20H.0 20H.0  ----- -----

FLASH_READVECHILEMODE/EFM8BB2_FLASHPRIMI+     ----- -----  ----- -----
... TIVES
  +--> _FLASH_BYTEREAD/EFM8BB2_FLASHPRIMITIVES

_FLASH_BYTEREAD/EFM8BB2_FLASHPRIMITIVES       20H.0 20H.0  ----- -----

_CMD_RELEASEVECHILECFGINFO/COMMAND            ----- -----  ----- -----

DETOBJ_DETTHEOBJ/DETECTOBJ                    ----- -----  ----- -----
  +--> CMD_PROCESS/COMMAND
  +--> DETOBJ_INITTHECCD/DETECTOBJ
  +--> DETOBJ_CLEARTHERAWDATABUFF/DETECTOBJ
  +--> DETOBJ_CLEARTHENOISEBUFF/DETECTOBJ
  +--> ADC_INITDETECT/ADC
  +--> DETOBJ_START/DETECTOBJ
  +--> DETOBJ_STOP/DETECTOBJ
  +--> DETOBJ_CALSAMPNOISE/DETECTOBJ
  +--> DETOBJ_INITTHEEPD/DETECTOBJ
  +--> DETOBJ_SENDTHE58KHZULTRASONIC/DETECTOBJ
  +--> DETOBJ_RAWECHODATAANS/DETECTOBJ
  +--> DETOBJ_DIAGNOSTICTHERINGTIME/DETECTOBJ
  +--> DETOBJ_HOLDTHEOBSTACLESTATE/DETECTOBJ
  +--> DETOBJ_COMPARETHEDATA/DETECTOBJ
  +--> DETOBJ_PROCESSTHERINGTIME/DETECTOBJ
  +--> DETOBJ_GENERATETHENEARESTOBSTACLE/DETECTOBJ

CMD_PROCESS/COMMAND                           ----- -----  0388H 0389H
  +--> _SRL_SENDDATA/SERIAL
  +--> CMD_SAVEDATA/COMMAND
  +--> CMD_NEXTSENSORSELF/COMMAND
  +--> _COMMUNICATIONMODE/SERIAL
  +--> CMD_SENDSELFCHECKTOBCM/COMMAND
  +--> _DELAY1MS/TIMER
  +--> CMD_UPDATADISTANCE/COMMAND
  +--> INITUART0RECEIVEVAR/UARTCFG
  +--> CMD_SENDDISTANCETOBCM/COMMAND
  +--> CMD_RENEWVECHILECFG/COMMAND
  +--> DETOBJ_INITALLCHANNELDISTANCE/DETECTOBJ
  +--> CMD_NEXTSENSORDET/COMMAND
  +--> _STOP_PCA0_CAPTURE/TIMER
  +--> _START_PCA0_CAPTURE/TIMER
LX51 LINKER/LOCATER V4.66.97.0                                                        09/02/2020  13:20:23  PAGE 9



_SRL_SENDDATA/SERIAL                          ----- -----  038AH 0392H
  +--> START_PCA0_COMPARATOR/TIMER

START_PCA0_COMPARATOR/TIMER                   ----- -----  ----- -----

CMD_SAVEDATA/COMMAND                          ----- -----  ----- -----

CMD_NEXTSENSORSELF/COMMAND                    ----- -----  ----- -----

CMD_SENDSELFCHECKTOBCM/COMMAND                ----- -----  038AH 038BH
  +--> _CALCFRAMECHECKSUM/UARTCFG
  +--> _CALCBYTEEVEN/UARTCFG
  +--> UART0_MODEDATAL/UART
  +--> UART0_INTRX_DIS/UART
  +--> _DELAY1US/TIMER
  +--> _UART0_WRITEBYTE/UART
  +--> UART0_MODEDATAH/UART

_CALCFRAMECHECKSUM/UARTCFG                    ----- -----  ----- -----

_CALCBYTEEVEN/UARTCFG                         ----- -----  03A4H 03A4H

CMD_UPDATADISTANCE/COMMAND                    ----- -----  ----- -----
  +--> CMD_DISTANCETOCOMINFO/COMMAND

CMD_DISTANCETOCOMINFO/COMMAND                 ----- -----  ----- -----

CMD_SENDDISTANCETOBCM/COMMAND                 ----- -----  038AH 038BH
  +--> _CALCFRAMECHECKSUM/UARTCFG
  +--> _CALCBYTEEVEN/UARTCFG
  +--> UART0_MODEDATAL/UART
  +--> UART0_INTRX_DIS/UART
  +--> _DELAY1US/TIMER
  +--> _UART0_WRITEBYTE/UART
  +--> UART0_INTRX_EN/UART
  +--> UART0_MODEDATAH/UART

CMD_RENEWVECHILECFG/COMMAND                   ----- -----  ----- -----

CMD_NEXTSENSORDET/COMMAND                     ----- -----  ----- -----
  +--> _COMMUNICATIONMODE/SERIAL

DETOBJ_INITTHECCD/DETECTOBJ                   ----- -----  ----- -----

DETOBJ_CLEARTHERAWDATABUFF/DETECTOBJ          ----- -----  ----- -----
  +--> DETOBJ_INITTHEANALYSISDATA/DETECTOBJ

DETOBJ_INITTHEANALYSISDATA/DETECTOBJ          ----- -----  ----- -----

DETOBJ_CLEARTHENOISEBUFF/DETECTOBJ            ----- -----  ----- -----

ADC_INITDETECT/ADC                            ----- -----  ----- -----
  +--> ADC_START/ADC

ADC_START/ADC                                 ----- -----  ----- -----

DETOBJ_START/DETECTOBJ                        ----- -----  ----- -----
  +--> TIME_INITADCTRIGGERTIMER/TIMER
  +--> TIME_STARTADCTRIGGER/TIMER
  +--> ADC_START/ADC

LX51 LINKER/LOCATER V4.66.97.0                                                        09/02/2020  13:20:23  PAGE 10


TIME_INITADCTRIGGERTIMER/TIMER                ----- -----  ----- -----

TIME_STARTADCTRIGGER/TIMER                    ----- -----  ----- -----

DETOBJ_CALSAMPNOISE/DETECTOBJ                 ----- -----  0388H 038EH
  +--> _DETOBJ_COPYSAMPLINGBUFFER/DETECTOBJ
  +--> DETOBJ_RAWNOISEDATAANS/DETECTOBJ

_DETOBJ_COPYSAMPLINGBUFFER/DETECTOBJ          ----- -----  038FH 0395H

DETOBJ_RAWNOISEDATAANS/DETECTOBJ              ----- -----  038FH 0390H

DETOBJ_INITTHEEPD/DETECTOBJ                   ----- -----  ----- -----

DETOBJ_SENDTHE58KHZULTRASONIC/DETECTOBJ       ----- -----  0388H 0388H
  +--> CPU_DISABLEINTERRUPT/CPU
  +--> _DELAY1US/TIMER
  +--> CPU_ENABLEINTERRUPT/CPU

CPU_DISABLEINTERRUPT/CPU                      ----- -----  ----- -----

DETOBJ_RAWECHODATAANS/DETECTOBJ               ----- -----  0388H 038FH
  +--> DETOBJ_RAWFILTER/DETECTOBJ
  +--> _GETDISTANCE/DETECTOBJ

DETOBJ_RAWFILTER/DETECTOBJ                    ----- -----  0390H 0393H

_GETDISTANCE/DETECTOBJ                        ----- -----  0390H 0391H

DETOBJ_DIAGNOSTICTHERINGTIME/DETECTOBJ        ----- -----  ----- -----
  +--> DETOBJ_DIAGNOSTICTHESENSOR/DETECTOBJ

DETOBJ_DIAGNOSTICTHESENSOR/DETECTOBJ          ----- -----  ----- -----

DETOBJ_HOLDTHEOBSTACLESTATE/DETECTOBJ         ----- -----  ----- -----

DETOBJ_COMPARETHEDATA/DETECTOBJ               ----- -----  0388H 039EH

DETOBJ_PROCESSTHERINGTIME/DETECTOBJ           ----- -----  ----- -----

DETOBJ_GENERATETHENEARESTOBSTACLE/DETECT+     ----- -----  ----- -----
... OBJ

?C_INITSEG                                    ----- -----  ----- -----
  +--> _SRL_GETHEADER/SERIAL

*** NEW ROOT ********************************

PCA0_ISR/SERIAL                               ----- -----  ----- -----
  +--> STOP_PCA0_COMPARATOR/TIMER

STOP_PCA0_COMPARATOR/TIMER                    ----- -----  ----- -----

*** NEW ROOT ********************************

TIMER2_ISR/TIMER                              ----- -----  ----- -----
  +--> DETOBJ_REALTIMECLOCK/DETECTOBJ

DETOBJ_REALTIMECLOCK/DETECTOBJ                ----- -----  ----- -----

*** NEW ROOT ********************************

LX51 LINKER/LOCATER V4.66.97.0                                                        09/02/2020  13:20:23  PAGE 11


TIMER0_ISR/TIMER                              ----- -----  ----- -----

*** NEW ROOT ********************************

TIMER4_ISR/TIMER                              ----- -----  ----- -----

*** NEW ROOT ********************************

TIMER3_ISR/TIMER                              ----- -----  ----- -----

*** NEW ROOT ********************************

UART0_ISR/UART                                ----- -----  039FH 039FH
  +--> _UART0_RXDATA/UART

_UART0_RXDATA/UART                            ----- -----  03A0H 03A3H
  +--> _CALCBYTEEVEN/UARTCFG
  +--> _RECEIVEFRAMERECORRESPONDING/UARTCFG
  +--> INITUART0RECEIVEVAR/UARTCFG

_RECEIVEFRAMERECORRESPONDING/UARTCFG          ----- -----  03A4H 03A5H
  +--> INITUART0RECEIVEVAR/UARTCFG



PUBLIC SYMBOLS OF MODULE:  DFSK-F508-EFM8BB21F16G-C-QFN20.OMF.CRBUILD (ADC)


      VALUE       CLASS    TYPE      PUBLIC SYMBOL NAME
      =================================================
      0200038FH   XDATA    BYTE      ?_DetObj_CopySamplingBuffer?BYTE
      0200038AH   XDATA    BYTE      ?_Srl_SendData?BYTE
      0100070EH   CODE     ---       ?C?CILDOPTR
      010006E1H   CODE     ---       ?C?CLDOPTR
      00000000H   NUMBER   ---       ?C?CODESEG
      01000741H   CODE     ---       ?C?CSTOPTR
      01000A40H   CODE     ---       ?C?ICALL
      01000A44H   CODE     ---       ?C?ICALL2
      010007CAH   CODE     ---       ?C?IILDX
      0100080BH   CODE     ---       ?C?ILDOPTR
      010007E0H   CODE     ---       ?C?ILDPTR
      01000763H   CODE     ---       ?C?IMUL
      01000862H   CODE     ---       ?C?ISTOPTR
      01000843H   CODE     ---       ?C?ISTPTR
      01000A46H   CODE     ---       ?C?LIMUL
      0100097AH   CODE     ---       ?C?LSTKXDATA
      0100096EH   CODE     ---       ?C?LSTXDATA
      010009ABH   CODE     ---       ?C?OFFXADD
      01000AA9H   CODE     ---       ?C?PLDCODE
      01000A73H   CODE     ---       ?C?PLDIDATA
      010009B7H   CODE     ---       ?C?PLDOPTR
      01000A97H   CODE     ---       ?C?PLDPDATA
      01000A85H   CODE     ---       ?C?PLDXDATA
      01000A7CH   CODE     ---       ?C?PSTIDATA
      010009E7H   CODE     ---       ?C?PSTOPTR
      01000AA0H   CODE     ---       ?C?PSTPDATA
      01000A8EH   CODE     ---       ?C?PSTXDATA
      01000775H   CODE     ---       ?C?UIDIV
      0100095DH   CODE     ---       ?C?ULCMP
      010008CBH   CODE     ---       ?C?ULDIV
      00000000H   NUMBER   ---       ?C?XDATASEG
      01003237H   CODE     ---       ?C_START
LX51 LINKER/LOCATER V4.66.97.0                                                        09/02/2020  13:20:23  PAGE 12


      01000000H   CODE     NEAR LAB  ?C_STARTUP
      01003957H   CODE     ---       _CalcByteEVEN
      01002A8BH   CODE     ---       _CalcFrameChecksum
      010036BAH   CODE     ---       _Cmd_ReleaseVechileCfgInfo
      01003BA9H   CODE     ---       _CommunicationMode
      01003E05H   CODE     ---       _Cpu_WDG_Init
      0100002EH   CODE     ---       _Delay1ms
      01003A1CH   CODE     ---       _Delay1us
      0100399FH   CODE     ---       _DetObj_CopySamplingBuffer
      0100005EH   CODE     ---       _FLASH_ByteRead
      01003CABH   CODE     ---       _FLASH_ByteWrite
      01003CD4H   CODE     ---       _FLASH_PageErase
      01003E94H   CODE     ---       _Flash_WriteVechileMode
      010035F1H   CODE     ---       _GetDistance
      010010AAH   CODE     ---       _ReceiveFramereCorresponding
      01002981H   CODE     ---       _Srl_GetData
      010030A5H   CODE     ---       _Srl_GetHeader
      010020C1H   CODE     ---       _Srl_SendData
      01003B1CH   CODE     ---       _Start_PCA0_Capture
      01003B4BH   CODE     ---       _Stop_PCA0_Capture
      01001315H   CODE     ---       _UART0_RXData
      01003D74H   CODE     ---       _UART0_WriteByte
*SFR* 000000E0H   DATA     BYTE      ACC
*SFR* 000000E0H.0 DATA     BIT       ACC_ACC0
*SFR* 000000E0H.1 DATA     BIT       ACC_ACC1
*SFR* 000000E0H.2 DATA     BIT       ACC_ACC2
*SFR* 000000E0H.3 DATA     BIT       ACC_ACC3
*SFR* 000000E0H.4 DATA     BIT       ACC_ACC4
*SFR* 000000E0H.5 DATA     BIT       ACC_ACC5
*SFR* 000000E0H.6 DATA     BIT       ACC_ACC6
*SFR* 000000E0H.7 DATA     BIT       ACC_ACC7
      0200034EH   XDATA    ---       ADC
*SFR* 000000BDH   DATA     WORD      ADC0
*SFR* 000000B3H   DATA     BYTE      ADC0AC
*SFR* 000000BCH   DATA     BYTE      ADC0CF
*SFR* 000000E8H   DATA     BYTE      ADC0CN0
*SFR* 000000E8H.6 DATA     BIT       ADC0CN0_ADBMEN
*SFR* 000000E8H.4 DATA     BIT       ADC0CN0_ADBUSY
*SFR* 000000E8H.0 DATA     BIT       ADC0CN0_ADCM0
*SFR* 000000E8H.1 DATA     BIT       ADC0CN0_ADCM1
*SFR* 000000E8H.2 DATA     BIT       ADC0CN0_ADCM2
*SFR* 000000E8H.7 DATA     BIT       ADC0CN0_ADEN
*SFR* 000000E8H.5 DATA     BIT       ADC0CN0_ADINT
*SFR* 000000E8H.3 DATA     BIT       ADC0CN0_ADWINT
*SFR* 000000B2H   DATA     BYTE      ADC0CN1
*SFR* 000000C3H   DATA     WORD      ADC0GT
*SFR* 000000C4H   DATA     BYTE      ADC0GTH
*SFR* 000000C3H   DATA     BYTE      ADC0GTL
*SFR* 000000BEH   DATA     BYTE      ADC0H
*SFR* 000000BDH   DATA     BYTE      ADC0L
*SFR* 000000C5H   DATA     WORD      ADC0LT
*SFR* 000000C6H   DATA     BYTE      ADC0LTH
*SFR* 000000C5H   DATA     BYTE      ADC0LTL
*SFR* 000000BBH   DATA     BYTE      ADC0MX
*SFR* 000000DFH   DATA     BYTE      ADC0PWR
*SFR* 000000B9H   DATA     BYTE      ADC0TK
      01003878H   CODE     ---       ADC_CALUE
      01003AEDH   CODE     ---       ADC_IDSamplingInit
      01003A8BH   CODE     ---       ADC_InitDetect
*DEL*:00000000H   CODE     ---       ADC_InitVariable
      01002DC9H   CODE     ---       ADC_ISR
      010034BDH   CODE     ---       ADC_PowerSample
LX51 LINKER/LOCATER V4.66.97.0                                                        09/02/2020  13:20:23  PAGE 13


      01003ABEH   CODE     ---       ADC_PowerSamplingInit
      0100177DH   CODE     ---       ADC_ReadID
      01003EA2H   CODE     ---       ADC_Start
      01003ED4H   CODE     ---       ADC_Stop
      0100004EH   CODE     ---       ADC_WINDOW_ISR
      0200006BH   XDATA    ---       AnsData
*SFR* 000000F0H   DATA     BYTE      B
      020003B3H   XDATA    BYTE      b50msFlag
*SFR* 000000F0H.0 DATA     BIT       B_B0
*SFR* 000000F0H.1 DATA     BIT       B_B1
*SFR* 000000F0H.2 DATA     BIT       B_B2
*SFR* 000000F0H.3 DATA     BIT       B_B3
*SFR* 000000F0H.4 DATA     BIT       B_B4
*SFR* 000000F0H.5 DATA     BIT       B_B5
*SFR* 000000F0H.6 DATA     BIT       B_B6
*SFR* 000000F0H.7 DATA     BIT       B_B7
      02000344H   XDATA    BYTE      bDetectFlag
      020003B5H   XDATA    BYTE      bLevel
      0200035DH   XDATA    BYTE      bRadar_PoweFlag
      020003B4H   XDATA    BYTE      bSensorCheckFlag
      020003BAH   XDATA    BYTE      bTimeFlag
      020003ACH   XDATA    ---       buffer
      02000339H   XDATA    BYTE      bWorkFlag
      0200034DH   XDATA    BYTE      bySampleTimes
*SFR* 0000008EH   DATA     BYTE      CKCON0
*SFR* 000000A6H   DATA     BYTE      CKCON1
*SFR* 000000A9H   DATA     BYTE      CLKSEL
      02000018H   XDATA    ---       ClrtData
      02000289H   XDATA    ---       Cmd
*DEL*:00000000H   CODE     ---       Cmd_ClearBuffer
      010024EAH   CODE     ---       Cmd_DistancetoComInfo
      01002870H   CODE     ---       Cmd_GetVechileMode
      01003453H   CODE     ---       Cmd_NextSensorDet
      010038C5H   CODE     ---       Cmd_NextSensorSelf
      0100009EH   CODE     ---       Cmd_Process
      01002628H   CODE     ---       Cmd_RenewVechileCfg
      01003526H   CODE     ---       Cmd_SaveData
      01002CFEH   CODE     ---       Cmd_SendDistancetoBCM
      0100390EH   CODE     ---       Cmd_SendReqVechiModetoBCM
      01002F48H   CODE     ---       Cmd_SendSelfChecktoBCM
      01001B6FH   CODE     ---       Cmd_UpdataDistance
*DEL*:00000000H   CODE     ---       Cmd_VechileCfgCheck
*SFR* 0000009BH   DATA     BYTE      CMP0CN0
*SFR* 00000099H   DATA     BYTE      CMP0CN1
*SFR* 0000009DH   DATA     BYTE      CMP0MD
*SFR* 0000009FH   DATA     BYTE      CMP0MX
*SFR* 000000BFH   DATA     BYTE      CMP1CN0
*SFR* 000000ACH   DATA     BYTE      CMP1CN1
*SFR* 000000ABH   DATA     BYTE      CMP1MD
*SFR* 000000AAH   DATA     BYTE      CMP1MX
      0200001EH   XDATA    ---       CmpData
      01003DE5H   CODE     ---       Cpu_Clk_Init
      01000070H   CODE     ---       Cpu_DisableInterrupt
      01000056H   CODE     ---       Cpu_EnableInterrupt
*DEL*:00000000H   CODE     ---       Cpu_Init_Vect
      01003DC1H   CODE     ---       Cpu_InitHardwarePort
*SFR* 000000CEH   DATA     BYTE      CRC0CN0
*SFR* 00000086H   DATA     BYTE      CRC0CN1
*SFR* 000000D3H   DATA     BYTE      CRC0CNT
*SFR* 000000DEH   DATA     BYTE      CRC0DAT
*SFR* 000000CFH   DATA     BYTE      CRC0FLIP
*SFR* 000000DDH   DATA     BYTE      CRC0IN
LX51 LINKER/LOCATER V4.66.97.0                                                        09/02/2020  13:20:23  PAGE 14


*SFR* 000000D2H   DATA     BYTE      CRC0ST
      020003A6H   XDATA    BYTE      Debug_RD1
      020003A7H   XDATA    BYTE      Debug_RD2
*SFR* 000000ADH   DATA     BYTE      DERIVID
      02000076H   XDATA    ---       DetectInterval
      020001CBH   XDATA    ---       DetInfo
      0100197DH   CODE     ---       DetObj_CalSampNoise
      01003309H   CODE     ---       DetObj_ClearTheNoiseBuff
      01003C81H   CODE     ---       DetObj_ClearTheRawDataBuff
      01000E02H   CODE     ---       DetObj_CompareTheData
      020001D4H   XDATA    ---       DetObj_DataPrcs
      0100154FH   CODE     ---       DetObj_DetTheObj
      01002755H   CODE     ---       DetObj_DiagnosticTheRingTime
      01003C57H   CODE     ---       DetObj_DiagnosticTheSensor
      01001F2BH   CODE     ---       DetObj_GenerateTheNearestObstacle
      010033E8H   CODE     ---       DetObj_HoldTheObstaclestate
      010037CDH   CODE     ---       DetObj_InitAllChannelDistance
*DEL*:00000000H   CODE     ---       DetObj_InitSelfCheckVar
      01003EFEH   CODE     ---       DetObj_InitTheAnalysisData
      01003717H   CODE     ---       DetObj_InitTheCCD
      0100327CH   CODE     ---       DetObj_InitTheEPD
*DEL*:00000000H   CODE     ---       DetObj_InitVariable
*DEL*:00000000H   CODE     ---       DetObj_PreEchoProcess
      01002FFCH   CODE     ---       DetObj_ProcessTheRingTime
      01000AB5H   CODE     ---       DetObj_RawEchoDataAns
      01001D55H   CODE     ---       DetObj_RawFilter
      010023A1H   CODE     ---       DetObj_RawNoiseDataAns
      01003C2DH   CODE     ---       DetObj_RealTimeClock
      0100358CH   CODE     ---       DetObj_SendThe58KhzUltraSonic
      01003EE8H   CODE     ---       DetObj_Start
      01003EF8H   CODE     ---       DetObj_Stop
*SFR* 000000B5H   DATA     BYTE      DEVICEID
      0200000CH   XDATA    ---       DiagInfo
      01003EDEH   CODE     ---       DisableInternalCommunicaiton
*DEL*:00000000H   CODE     ---       DisableThe32msTimerInterrupt
*SFR* 00000082H   DATA     WORD      DP
*SFR* 00000083H   DATA     BYTE      DPH
*SFR* 00000082H   DATA     BYTE      DPL
      02000221H   XDATA    ---       EachSNMaxDistance
*SFR* 000000E6H   DATA     BYTE      EIE1
*SFR* 000000CEH   DATA     BYTE      EIE2
*SFR* 000000F3H   DATA     BYTE      EIP1
*SFR* 000000F5H   DATA     BYTE      EIP1H
*SFR* 000000F4H   DATA     BYTE      EIP2
*SFR* 000000F6H   DATA     BYTE      EIP2H
*SFR* 000000E7H   DATA     BYTE      EMI0CN
      01003D9BH   CODE     ---       EnableInternalCommunicaiton
*DEL*:00000000H   CODE     ---       EnableThe32msTimerInterrupt
*DEL*:00000000H   CODE     ---       enter_DefaultMode_from_RESET
      020003A8H   XDATA    DWORD     errorCount
      02000342H   XDATA    WORD      FL_MAX_VALUE
      02000340H   XDATA    WORD      FL_MIN_VALUE
      01003EF1H   CODE     ---       Flash_ReadVechileMode
*SFR* 000000B7H   DATA     BYTE      FLKEY
      02000347H   XDATA    WORD      FR_MAX_VALUE
      02000345H   XDATA    WORD      FR_MIN_VALUE
      02000362H   XDATA    ---       gslinContext
      0200036BH   XDATA    ---       gUart0ReceivePduInfo
*SFR* 000000C7H   DATA     BYTE      HFO0CAL
*SFR* 000000D6H   DATA     BYTE      HFO1CAL
*SFR* 000000EFH   DATA     BYTE      HFOCN
*SFR* 000000BAH   DATA     BYTE      I2C0CN0
LX51 LINKER/LOCATER V4.66.97.0                                                        09/02/2020  13:20:23  PAGE 15


*SFR* 000000BCH   DATA     BYTE      I2C0DIN
*SFR* 000000BBH   DATA     BYTE      I2C0DOUT
*SFR* 000000ADH   DATA     BYTE      I2C0FCN0
*SFR* 000000ABH   DATA     BYTE      I2C0FCN1
*SFR* 000000F5H   DATA     BYTE      I2C0FCT
*SFR* 000000BDH   DATA     BYTE      I2C0SLAD
*SFR* 000000B9H   DATA     BYTE      I2C0STAT
*SFR* 000000A8H   DATA     BYTE      IE
*SFR* 000000A8H.7 DATA     BIT       IE_EA
*SFR* 000000A8H.4 DATA     BIT       IE_ES0
*SFR* 000000A8H.6 DATA     BIT       IE_ESPI0
*SFR* 000000A8H.1 DATA     BIT       IE_ET0
*SFR* 000000A8H.3 DATA     BIT       IE_ET1
*SFR* 000000A8H.5 DATA     BIT       IE_ET2
*SFR* 000000A8H.0 DATA     BIT       IE_EX0
*SFR* 000000A8H.2 DATA     BIT       IE_EX1
      01002B61H   CODE     ---       InitGlobalVariable
      010039E2H   CODE     ---       InitUart0AllVar
      01003826H   CODE     ---       InitUart0ReceiveVar
*SFR* 000000B8H   DATA     BYTE      IP
*SFR* 000000B8H.4 DATA     BIT       IP_PS0
*SFR* 000000B8H.6 DATA     BIT       IP_PSPI0
*SFR* 000000B8H.1 DATA     BIT       IP_PT0
*SFR* 000000B8H.3 DATA     BIT       IP_PT1
*SFR* 000000B8H.5 DATA     BIT       IP_PT2
*SFR* 000000B8H.0 DATA     BIT       IP_PX0
*SFR* 000000B8H.2 DATA     BIT       IP_PX1
*SFR* 000000F2H   DATA     BYTE      IPH
*SFR* 000000E4H   DATA     BYTE      IT01CF
*SFR* 000000B1H   DATA     BYTE      LFO0CN
      0100314CH   CODE     ---       main
      02000278H   XDATA    ---       MsgBCM_Info
      02000268H   XDATA    ---       MsgBCM_Info_Init
      02000270H   XDATA    ---       MsgBCM_Mode
      02000260H   XDATA    ---       MsgBCM_Mode_Init
      02000248H   XDATA    ---       MsgRadar_Distance
      02000230H   XDATA    ---       MsgRadar_Distance_Init
      02000258H   XDATA    ---       MsgRadar_ReqMode
      02000240H   XDATA    ---       MsgRadar_ReqMode_Init
      02000228H   XDATA    ---       MsgRadar_Self
      02000280H   XDATA    ---       MsgRadar_Self_Init
      020001EBH   XDATA    ---       NearestData
      02000000H   XDATA    ---       Noise
*DEL*:00000000H   CODE     ---       Null
*SFR* 00000080H   DATA     BYTE      P0
*SFR* 00000080H.0 DATA     BIT       P0_B0
*SFR* 00000080H.1 DATA     BIT       P0_B1
*SFR* 00000080H.2 DATA     BIT       P0_B2
*SFR* 00000080H.3 DATA     BIT       P0_B3
*SFR* 00000080H.4 DATA     BIT       P0_B4
*SFR* 00000080H.5 DATA     BIT       P0_B5
*SFR* 00000080H.6 DATA     BIT       P0_B6
*SFR* 00000080H.7 DATA     BIT       P0_B7
*SFR* 000000FEH   DATA     BYTE      P0MASK
*SFR* 000000FDH   DATA     BYTE      P0MAT
*SFR* 000000F1H   DATA     BYTE      P0MDIN
*SFR* 000000A4H   DATA     BYTE      P0MDOUT
*SFR* 000000D4H   DATA     BYTE      P0SKIP
*SFR* 00000090H   DATA     BYTE      P1
*SFR* 00000090H.0 DATA     BIT       P1_B0
*SFR* 00000090H.1 DATA     BIT       P1_B1
*SFR* 00000090H.2 DATA     BIT       P1_B2
LX51 LINKER/LOCATER V4.66.97.0                                                        09/02/2020  13:20:23  PAGE 16


*SFR* 00000090H.3 DATA     BIT       P1_B3
*SFR* 00000090H.4 DATA     BIT       P1_B4
*SFR* 00000090H.5 DATA     BIT       P1_B5
*SFR* 00000090H.6 DATA     BIT       P1_B6
*SFR* 00000090H.7 DATA     BIT       P1_B7
*SFR* 000000EEH   DATA     BYTE      P1MASK
*SFR* 000000EDH   DATA     BYTE      P1MAT
*SFR* 000000F2H   DATA     BYTE      P1MDIN
*SFR* 000000A5H   DATA     BYTE      P1MDOUT
*SFR* 000000D5H   DATA     BYTE      P1SKIP
*SFR* 000000A0H   DATA     BYTE      P2
*SFR* 000000A0H.0 DATA     BIT       P2_B0
*SFR* 000000A0H.1 DATA     BIT       P2_B1
*SFR* 000000A0H.2 DATA     BIT       P2_B2
*SFR* 000000A0H.3 DATA     BIT       P2_B3
*SFR* 000000FCH   DATA     BYTE      P2MASK
*SFR* 000000FBH   DATA     BYTE      P2MAT
*SFR* 000000F3H   DATA     BYTE      P2MDIN
*SFR* 000000A6H   DATA     BYTE      P2MDOUT
*SFR* 000000CCH   DATA     BYTE      P2SKIP
*SFR* 000000B0H   DATA     BYTE      P3
*SFR* 000000B0H.0 DATA     BIT       P3_B0
*SFR* 000000B0H.1 DATA     BIT       P3_B1
*SFR* 000000F4H   DATA     BYTE      P3MDIN
*SFR* 0000009CH   DATA     BYTE      P3MDOUT
*SFR* 000000F9H   DATA     WORD      PCA0
      01002247H   CODE     ---       PCA0_ISR
*SFR* 0000009EH   DATA     BYTE      PCA0CENT
*SFR* 0000009CH   DATA     BYTE      PCA0CLR
*SFR* 000000D8H   DATA     BYTE      PCA0CN0
*SFR* 000000D8H.0 DATA     BIT       PCA0CN0_CCF0
*SFR* 000000D8H.1 DATA     BIT       PCA0CN0_CCF1
*SFR* 000000D8H.2 DATA     BIT       PCA0CN0_CCF2
*SFR* 000000D8H.7 DATA     BIT       PCA0CN0_CF
*SFR* 000000D8H.6 DATA     BIT       PCA0CN0_CR
*SFR* 000000FBH   DATA     WORD      PCA0CP0
*SFR* 000000E9H   DATA     WORD      PCA0CP1
*SFR* 000000EBH   DATA     WORD      PCA0CP2
*SFR* 000000FCH   DATA     BYTE      PCA0CPH0
*SFR* 000000EAH   DATA     BYTE      PCA0CPH1
*SFR* 000000ECH   DATA     BYTE      PCA0CPH2
*SFR* 000000FBH   DATA     BYTE      PCA0CPL0
*SFR* 000000E9H   DATA     BYTE      PCA0CPL1
*SFR* 000000EBH   DATA     BYTE      PCA0CPL2
*SFR* 000000DAH   DATA     BYTE      PCA0CPM0
*SFR* 000000DBH   DATA     BYTE      PCA0CPM1
*SFR* 000000DCH   DATA     BYTE      PCA0CPM2
*SFR* 000000FAH   DATA     BYTE      PCA0H
*SFR* 000000F9H   DATA     BYTE      PCA0L
*SFR* 000000D9H   DATA     BYTE      PCA0MD
*SFR* 00000096H   DATA     BYTE      PCA0POL
*SFR* 000000F7H   DATA     BYTE      PCA0PWM
*SFR* 00000087H   DATA     BYTE      PCON0
*SFR* 0000009AH   DATA     BYTE      PCON1
*SFR* 000000C1H   DATA     BYTE      PFE0CN
*SFR* 000000A0H   DATA     BYTE      PPAGE_SFR
*SFR* 000000F6H   DATA     BYTE      PRTDRV
*SFR* 0000008FH   DATA     BYTE      PSCTL
*SFR* 000000D0H   DATA     BYTE      PSW
*SFR* 000000D0H.6 DATA     BIT       PSW_AC
*SFR* 000000D0H.7 DATA     BIT       PSW_CY
*SFR* 000000D0H.5 DATA     BIT       PSW_F0
LX51 LINKER/LOCATER V4.66.97.0                                                        09/02/2020  13:20:23  PAGE 17


*SFR* 000000D0H.1 DATA     BIT       PSW_F1
*SFR* 000000D0H.2 DATA     BIT       PSW_OV
*SFR* 000000D0H.0 DATA     BIT       PSW_PARITY
*SFR* 000000D0H.3 DATA     BIT       PSW_RS0
*SFR* 000000D0H.4 DATA     BIT       PSW_RS1
      0200007CH   XDATA    ---       RawData
*SFR* 000000D1H   DATA     BYTE      REF0CN
*SFR* 000000C9H   DATA     BYTE      REG0CN
*SFR* 000000C6H   DATA     BYTE      REG1CN
*SFR* 000000B6H   DATA     BYTE      REVID
      0200034BH   XDATA    WORD      RL_MAX_VALUE
      02000349H   XDATA    WORD      RL_MIN_VALUE
      0200033EH   XDATA    WORD      RML_MAX_VALUE
      0200033CH   XDATA    WORD      RML_MIN_VALUE
      0200035EH   XDATA    WORD      RR_MAX_VALUE
      0200035BH   XDATA    WORD      RR_MIN_VALUE
*SFR* 000000EFH   DATA     BYTE      RSTSRC
      01003772H   CODE     ---       RxDataParity
*SFR* 00000094H   DATA     BYTE      SBCON1
*SFR* 00000095H   DATA     WORD      SBRL1
*SFR* 00000096H   DATA     BYTE      SBRLH1
*SFR* 00000095H   DATA     BYTE      SBRLL1
*SFR* 00000099H   DATA     BYTE      SBUF0
*SFR* 00000092H   DATA     BYTE      SBUF1
*SFR* 00000098H   DATA     BYTE      SCON0
*SFR* 00000098H.5 DATA     BIT       SCON0_MCE
*SFR* 00000098H.2 DATA     BIT       SCON0_RB8
*SFR* 00000098H.4 DATA     BIT       SCON0_REN
*SFR* 00000098H.0 DATA     BIT       SCON0_RI
*SFR* 00000098H.7 DATA     BIT       SCON0_SMODE
*SFR* 00000098H.3 DATA     BIT       SCON0_TB8
*SFR* 00000098H.1 DATA     BIT       SCON0_TI
*SFR* 000000C8H   DATA     BYTE      SCON1
*SFR* 000000C8H.7 DATA     BIT       SCON1_OVR
*SFR* 000000C8H.6 DATA     BIT       SCON1_PERR
*SFR* 000000C8H.2 DATA     BIT       SCON1_RBX
*SFR* 000000C8H.4 DATA     BIT       SCON1_REN
*SFR* 000000C8H.0 DATA     BIT       SCON1_RI
*SFR* 000000C8H.3 DATA     BIT       SCON1_TBX
*SFR* 000000C8H.1 DATA     BIT       SCON1_TI
      020002E9H   XDATA    ---       Serial
      020002E2H   XDATA    ---       Serial_ISP
*SFR* 000000A7H   DATA     BYTE      SFRPAGE
      020003C1H   XDATA    BYTE      SFRPAGE_TEMP
*SFR* 000000CFH   DATA     BYTE      SFRPGCN
*SFR* 000000D7H   DATA     BYTE      SFRSTACK
      01000021H   CODE     ---       SiLabs_Startup
*SFR* 000000D6H   DATA     BYTE      SMB0ADM
*SFR* 000000D7H   DATA     BYTE      SMB0ADR
*SFR* 000000C1H   DATA     BYTE      SMB0CF
*SFR* 000000C0H   DATA     BYTE      SMB0CN0
*SFR* 000000C0H.1 DATA     BIT       SMB0CN0_ACK
*SFR* 000000C0H.3 DATA     BIT       SMB0CN0_ACKRQ
*SFR* 000000C0H.2 DATA     BIT       SMB0CN0_ARBLOST
*SFR* 000000C0H.7 DATA     BIT       SMB0CN0_MASTER
*SFR* 000000C0H.0 DATA     BIT       SMB0CN0_SI
*SFR* 000000C0H.5 DATA     BIT       SMB0CN0_STA
*SFR* 000000C0H.4 DATA     BIT       SMB0CN0_STO
*SFR* 000000C0H.6 DATA     BIT       SMB0CN0_TXMODE
*SFR* 000000C2H   DATA     BYTE      SMB0DAT
*SFR* 000000C3H   DATA     BYTE      SMB0FCN0
*SFR* 000000C4H   DATA     BYTE      SMB0FCN1
LX51 LINKER/LOCATER V4.66.97.0                                                        09/02/2020  13:20:23  PAGE 18


*SFR* 000000EFH   DATA     BYTE      SMB0FCT
*SFR* 000000C5H   DATA     BYTE      SMB0RXLN
*SFR* 000000ACH   DATA     BYTE      SMB0TC
*SFR* 00000093H   DATA     BYTE      SMOD1
      020002E1H   XDATA    ---       SnrCfgSta
*SFR* 00000081H   DATA     BYTE      SP
      020003BBH   XDATA    ---       Speaker
*SFR* 000000A1H   DATA     BYTE      SPI0CFG
*SFR* 000000A2H   DATA     BYTE      SPI0CKR
*SFR* 000000F8H   DATA     BYTE      SPI0CN0
*SFR* 000000F8H.5 DATA     BIT       SPI0CN0_MODF
*SFR* 000000F8H.2 DATA     BIT       SPI0CN0_NSSMD0
*SFR* 000000F8H.3 DATA     BIT       SPI0CN0_NSSMD1
*SFR* 000000F8H.4 DATA     BIT       SPI0CN0_RXOVRN
*SFR* 000000F8H.0 DATA     BIT       SPI0CN0_SPIEN
*SFR* 000000F8H.7 DATA     BIT       SPI0CN0_SPIF
*SFR* 000000F8H.1 DATA     BIT       SPI0CN0_TXNF
*SFR* 000000F8H.6 DATA     BIT       SPI0CN0_WCOL
*SFR* 000000A3H   DATA     BYTE      SPI0DAT
*SFR* 0000009AH   DATA     BYTE      SPI0FCN0
*SFR* 0000009BH   DATA     BYTE      SPI0FCN1
*SFR* 000000F7H   DATA     BYTE      SPI0FCT
*DEL*:00000000H   CODE     ---       Spk_DriveTheSpeaker
*DEL*:00000000H   CODE     ---       Spk_InitHardware
*DEL*:00000000H   CODE     ---       Spk_InitVariable
*DEL*:00000000H   CODE     ---       Srl_InitVariable
*DEL*:00000000H   CODE     ---       Start1msTimer
      01003EAFH   CODE     ---       Start_PCA0_Comparator
*DEL*:00000000H   CODE     ---       StartThe32msTimer
      01000026H   CODE     ---       StartTheUart0Timer
*DEL*:00000000H   CODE     ---       Stop1msTimer
      01000003H   CODE     ---       Stop_PCA0_Comparator
*DEL*:00000000H   CODE     ---       StopThe32msTimer
*DEL*:00000000H   CODE     ---       StopTheUart0Timer
      020001D7H   XDATA    ---       TableHeight
      020001F9H   XDATA    ---       TableWidth
*SFR* 00000088H   DATA     BYTE      TCON
*SFR* 00000088H.1 DATA     BIT       TCON_IE0
*SFR* 00000088H.3 DATA     BIT       TCON_IE1
*SFR* 00000088H.0 DATA     BIT       TCON_IT0
*SFR* 00000088H.2 DATA     BIT       TCON_IT1
*SFR* 00000088H.5 DATA     BIT       TCON_TF0
*SFR* 00000088H.7 DATA     BIT       TCON_TF1
*SFR* 00000088H.4 DATA     BIT       TCON_TR0
*SFR* 00000088H.6 DATA     BIT       TCON_TR1
*SFR* 0000008CH   DATA     BYTE      TH0
*SFR* 0000008DH   DATA     BYTE      TH1
      01003BD7H   CODE     ---       Time_Init1msTimer
      01003E21H   CODE     ---       Time_Init32msTimer
      01003D26H   CODE     ---       Time_InitAdcTriggerTimer
      01003A54H   CODE     ---       Time_InitPCA0
      01003C02H   CODE     ---       Time_InitTheDelayTimer
      01003CFDH   CODE     ---       Time_InitUart0Timer
*DEL*:00000000H   CODE     ---       Time_InitVariable
      01003E3DH   CODE     ---       Time_StartAdcTrigger
      0100000EH   CODE     ---       Time_StopAdcTrigger
      01000022H   CODE     ---       TIMER0_ISR
      01003656H   CODE     ---       TIMER2_ISR
      01003B7AH   CODE     ---       TIMER3_ISR
      01003E59H   CODE     ---       TIMER4_ISR
*SFR* 0000008AH   DATA     BYTE      TL0
*SFR* 0000008BH   DATA     BYTE      TL1
LX51 LINKER/LOCATER V4.66.97.0                                                        09/02/2020  13:20:23  PAGE 19


*SFR* 00000089H   DATA     BYTE      TMOD
*SFR* 000000CCH   DATA     WORD      TMR2
*SFR* 000000C8H   DATA     BYTE      TMR2CN0
*SFR* 000000C8H.3 DATA     BIT       TMR2CN0_T2SPLIT
*SFR* 000000C8H.0 DATA     BIT       TMR2CN0_T2XCLK0
*SFR* 000000C8H.1 DATA     BIT       TMR2CN0_T2XCLK1
*SFR* 000000C8H.4 DATA     BIT       TMR2CN0_TF2CEN
*SFR* 000000C8H.7 DATA     BIT       TMR2CN0_TF2H
*SFR* 000000C8H.6 DATA     BIT       TMR2CN0_TF2L
*SFR* 000000C8H.5 DATA     BIT       TMR2CN0_TF2LEN
*SFR* 000000C8H.2 DATA     BIT       TMR2CN0_TR2
*SFR* 000000FDH   DATA     BYTE      TMR2CN1
*SFR* 000000CDH   DATA     BYTE      TMR2H
*SFR* 000000CCH   DATA     BYTE      TMR2L
*SFR* 000000CAH   DATA     WORD      TMR2RL
*SFR* 000000CBH   DATA     BYTE      TMR2RLH
*SFR* 000000CAH   DATA     BYTE      TMR2RLL
*SFR* 00000094H   DATA     WORD      TMR3
*SFR* 00000091H   DATA     BYTE      TMR3CN0
*SFR* 000000FEH   DATA     BYTE      TMR3CN1
*SFR* 00000095H   DATA     BYTE      TMR3H
*SFR* 00000094H   DATA     BYTE      TMR3L
*SFR* 00000092H   DATA     WORD      TMR3RL
*SFR* 00000093H   DATA     BYTE      TMR3RLH
*SFR* 00000092H   DATA     BYTE      TMR3RLL
*SFR* 000000A4H   DATA     WORD      TMR4
*SFR* 00000098H   DATA     BYTE      TMR4CN0
*SFR* 00000098H.3 DATA     BIT       TMR4CN0_T4SPLIT
*SFR* 00000098H.0 DATA     BIT       TMR4CN0_T4XCLK0
*SFR* 00000098H.1 DATA     BIT       TMR4CN0_T4XCLK1
*SFR* 00000098H.4 DATA     BIT       TMR4CN0_TF4CEN
*SFR* 00000098H.7 DATA     BIT       TMR4CN0_TF4H
*SFR* 00000098H.6 DATA     BIT       TMR4CN0_TF4L
*SFR* 00000098H.5 DATA     BIT       TMR4CN0_TF4LEN
*SFR* 00000098H.2 DATA     BIT       TMR4CN0_TR4
*SFR* 000000FFH   DATA     BYTE      TMR4CN1
*SFR* 000000A5H   DATA     BYTE      TMR4H
*SFR* 000000A4H   DATA     BYTE      TMR4L
*SFR* 000000A2H   DATA     WORD      TMR4RL
*SFR* 000000A3H   DATA     BYTE      TMR4RLH
*SFR* 000000A2H   DATA     BYTE      TMR4RLL
      01002C31H   CODE     ---       UART0_DataInit
      01003D4DH   CODE     ---       Uart0_Init
      01003EBCH   CODE     ---       UART0_INTRX_Dis
      01003EC8H   CODE     ---       UART0_INTRX_En
      0100337CH   CODE     ---       UART0_ISR
      01003E84H   CODE     ---       UART0_ModeDataH
      01003E74H   CODE     ---       UART0_ModeDataL
      01000076H   CODE     ---       UART0_Moudle_Dis
      02000384H   XDATA    BYTE      Uart0RX_OK_Flag
      0200036AH   XDATA    BYTE      Uart0TX_ALL_Flag
      02000383H   XDATA    BYTE      Uart0TX_NOTOK_Flag
*SFR* 0000009DH   DATA     BYTE      UART1FCN0
*SFR* 000000D8H   DATA     BYTE      UART1FCN1
*SFR* 000000D8H.3 DATA     BIT       UART1FCN1_RFRQ
*SFR* 000000D8H.0 DATA     BIT       UART1FCN1_RIE
*SFR* 000000D8H.1 DATA     BIT       UART1FCN1_RXTO0
*SFR* 000000D8H.2 DATA     BIT       UART1FCN1_RXTO1
*SFR* 000000D8H.7 DATA     BIT       UART1FCN1_TFRQ
*SFR* 000000D8H.4 DATA     BIT       UART1FCN1_TIE
*SFR* 000000D8H.5 DATA     BIT       UART1FCN1_TXHOLD
*SFR* 000000D8H.6 DATA     BIT       UART1FCN1_TXNF
LX51 LINKER/LOCATER V4.66.97.0                                                        09/02/2020  13:20:23  PAGE 20


*SFR* 000000FAH   DATA     BYTE      UART1FCT
*SFR* 0000009EH   DATA     BYTE      UART1LIN
*SFR* 000000FFH   DATA     BYTE      VDM0CN
      020003B6H   XDATA    WORD      w50msCnt
*SFR* 00000097H   DATA     BYTE      WDTCN
      0200033AH   XDATA    WORD      wPowerValue
      02000360H   XDATA    WORD      wSampleValue
      020003B8H   XDATA    WORD      wSensorCheckTime
      020003B1H   XDATA    WORD      wTime
*SFR* 000000E1H   DATA     BYTE      XBR0
*SFR* 000000E2H   DATA     BYTE      XBR1
*SFR* 000000E3H   DATA     BYTE      XBR2



SYMBOL TABLE OF MODULE:  DFSK-F508-EFM8BB21F16G-C-QFN20.OMF.CRBUILD (ADC)

      VALUE       REP       CLASS    TYPE      SYMBOL NAME
      ====================================================
      ---         MODULE    ---      ---       ADC
      02000360H   PUBLIC    XDATA    WORD      wSampleValue
      0200035EH   PUBLIC    XDATA    WORD      RR_MAX_VALUE
      0200035DH   PUBLIC    XDATA    BYTE      bRadar_PoweFlag
      0200035BH   PUBLIC    XDATA    WORD      RR_MIN_VALUE
      0200034EH   PUBLIC    XDATA    ---       ADC
      0200034DH   PUBLIC    XDATA    BYTE      bySampleTimes
      0200034BH   PUBLIC    XDATA    WORD      RL_MAX_VALUE
      02000349H   PUBLIC    XDATA    WORD      RL_MIN_VALUE
      02000347H   PUBLIC    XDATA    WORD      FR_MAX_VALUE
      02000345H   PUBLIC    XDATA    WORD      FR_MIN_VALUE
      02000344H   PUBLIC    XDATA    BYTE      bDetectFlag
      02000342H   PUBLIC    XDATA    WORD      FL_MAX_VALUE
      02000340H   PUBLIC    XDATA    WORD      FL_MIN_VALUE
      0200033EH   PUBLIC    XDATA    WORD      RML_MAX_VALUE
      0200033CH   PUBLIC    XDATA    WORD      RML_MIN_VALUE
      0200033AH   PUBLIC    XDATA    WORD      wPowerValue
      02000339H   PUBLIC    XDATA    BYTE      bWorkFlag
      0100004EH   PUBLIC    CODE     ---       ADC_WINDOW_ISR
      01002DC9H   PUBLIC    CODE     ---       ADC_ISR
      01003A8BH   PUBLIC    CODE     ---       ADC_InitDetect
      01003ED4H   PUBLIC    CODE     ---       ADC_Stop
      01003EA2H   PUBLIC    CODE     ---       ADC_Start
      0100177DH   PUBLIC    CODE     ---       ADC_ReadID
      010034BDH   PUBLIC    CODE     ---       ADC_PowerSample
      01003878H   PUBLIC    CODE     ---       ADC_CALUE
      01003AEDH   PUBLIC    CODE     ---       ADC_IDSamplingInit
      01003ABEH   PUBLIC    CODE     ---       ADC_PowerSamplingInit
      000000A2H   SFRSYM    DATA     BYTE      SPI0CKR
      00000080H   SFRSYM    DATA     BYTE      P0
      000000C8H.6 SFRSYM    DATA     BIT       SCON1_PERR
      000000D0H.2 SFRSYM    DATA     BIT       PSW_OV
      00000090H   SFRSYM    DATA     BYTE      P1
      000000F8H.1 SFRSYM    DATA     BIT       SPI0CN0_TXNF
      00000097H   SFRSYM    DATA     BYTE      WDTCN
      000000A0H   SFRSYM    DATA     BYTE      P2
      000000B0H   SFRSYM    DATA     BYTE      P3
      000000BCH   SFRSYM    DATA     BYTE      ADC0CF
      000000C0H.7 SFRSYM    DATA     BIT       SMB0CN0_MASTER
      000000F9H   SFRSYM    DATA     WORD      PCA0
      000000E6H   SFRSYM    DATA     BYTE      EIE1
      000000C0H.1 SFRSYM    DATA     BIT       SMB0CN0_ACK
      000000CEH   SFRSYM    DATA     BYTE      EIE2
LX51 LINKER/LOCATER V4.66.97.0                                                        09/02/2020  13:20:23  PAGE 21


      0000008FH   SFRSYM    DATA     BYTE      PSCTL
      000000E4H   SFRSYM    DATA     BYTE      IT01CF
      000000C0H.6 SFRSYM    DATA     BIT       SMB0CN0_TXMODE
      000000ADH   SFRSYM    DATA     BYTE      DERIVID
      000000A7H   SFRSYM    DATA     BYTE      SFRPAGE
      000000A4H   SFRSYM    DATA     BYTE      P0MDOUT
      000000A5H   SFRSYM    DATA     BYTE      P1MDOUT
      000000E8H.5 SFRSYM    DATA     BIT       ADC0CN0_ADINT
      000000CBH   SFRSYM    DATA     BYTE      TMR2RLH
      000000A6H   SFRSYM    DATA     BYTE      P2MDOUT
      000000A8H   SFRSYM    DATA     BYTE      IE
      00000093H   SFRSYM    DATA     BYTE      TMR3RLH
      0000009CH   SFRSYM    DATA     BYTE      P3MDOUT
      000000A3H   SFRSYM    DATA     BYTE      TMR4RLH
      000000F3H   SFRSYM    DATA     BYTE      EIP1
      000000F4H   SFRSYM    DATA     BYTE      EIP2
      00000098H.2 SFRSYM    DATA     BIT       SCON0_RB8
      000000CAH   SFRSYM    DATA     BYTE      TMR2RLL
      000000FCH   SFRSYM    DATA     BYTE      PCA0CPH0
      00000092H   SFRSYM    DATA     BYTE      TMR3RLL
      000000EAH   SFRSYM    DATA     BYTE      PCA0CPH1
      00000098H.3 SFRSYM    DATA     BIT       SCON0_TB8
      000000F0H.0 SFRSYM    DATA     BIT       B_B0
      00000082H   SFRSYM    DATA     WORD      DP
      000000A2H   SFRSYM    DATA     BYTE      TMR4RLL
      000000ECH   SFRSYM    DATA     BYTE      PCA0CPH2
      000000F0H.1 SFRSYM    DATA     BIT       B_B1
      000000C3H   SFRSYM    DATA     WORD      ADC0GT
      000000BDH   SFRSYM    DATA     BYTE      I2C0SLAD
      000000D8H.3 SFRSYM    DATA     BIT       UART1FCN1_RFRQ
      000000F0H.2 SFRSYM    DATA     BIT       B_B2
      000000CFH   SFRSYM    DATA     BYTE      SFRPGCN
      000000FBH   SFRSYM    DATA     BYTE      PCA0CPL0
      000000F0H.3 SFRSYM    DATA     BIT       B_B3
      000000D9H   SFRSYM    DATA     BYTE      PCA0MD
      000000DAH   SFRSYM    DATA     BYTE      PCA0CPM0
      000000E9H   SFRSYM    DATA     BYTE      PCA0CPL1
      000000D8H.7 SFRSYM    DATA     BIT       UART1FCN1_TFRQ
      000000F0H.4 SFRSYM    DATA     BIT       B_B4
      000000DBH   SFRSYM    DATA     BYTE      PCA0CPM1
      000000EBH   SFRSYM    DATA     BYTE      PCA0CPL2
      000000F0H.5 SFRSYM    DATA     BIT       B_B5
      000000DCH   SFRSYM    DATA     BYTE      PCA0CPM2
      000000B8H   SFRSYM    DATA     BYTE      IP
      000000B9H   SFRSYM    DATA     BYTE      ADC0TK
      000000F0H.6 SFRSYM    DATA     BIT       B_B6
      000000C5H   SFRSYM    DATA     WORD      ADC0LT
      000000D8H.6 SFRSYM    DATA     BIT       UART1FCN1_TXNF
      00000098H.5 SFRSYM    DATA     BIT       SCON0_MCE
      000000F0H.7 SFRSYM    DATA     BIT       B_B7
      000000C3H   SFRSYM    DATA     BYTE      SMB0FCN0
      000000E1H   SFRSYM    DATA     BYTE      XBR0
      000000C4H   SFRSYM    DATA     BYTE      SMB0FCN1
      000000C1H   SFRSYM    DATA     BYTE      SMB0CF
      000000E2H   SFRSYM    DATA     BYTE      XBR1
      000000C1H   SFRSYM    DATA     BYTE      PFE0CN
      000000E7H   SFRSYM    DATA     BYTE      EMI0CN
      000000C0H.5 SFRSYM    DATA     BIT       SMB0CN0_STA
      000000E3H   SFRSYM    DATA     BYTE      XBR2
      000000BBH   SFRSYM    DATA     BYTE      ADC0MX
      000000E0H.0 SFRSYM    DATA     BIT       ACC_ACC0
      000000D1H   SFRSYM    DATA     BYTE      REF0CN
LX51 LINKER/LOCATER V4.66.97.0                                                        09/02/2020  13:20:23  PAGE 22


      0000008EH   SFRSYM    DATA     BYTE      CKCON0
      000000E0H.1 SFRSYM    DATA     BIT       ACC_ACC1
      000000C9H   SFRSYM    DATA     BYTE      REG0CN
      000000DDH   SFRSYM    DATA     BYTE      CRC0IN
      000000A6H   SFRSYM    DATA     BYTE      CKCON1
      000000C8H.2 SFRSYM    DATA     BIT       TMR2CN0_TR2
      000000E0H.2 SFRSYM    DATA     BIT       ACC_ACC2
      000000C6H   SFRSYM    DATA     BYTE      REG1CN
      000000E0H.3 SFRSYM    DATA     BIT       ACC_ACC3
      00000081H   SFRSYM    DATA     BYTE      SP
      0000009DH   SFRSYM    DATA     BYTE      CMP0MD
      000000E0H.4 SFRSYM    DATA     BIT       ACC_ACC4
      000000B1H   SFRSYM    DATA     BYTE      LFO0CN
      000000ABH   SFRSYM    DATA     BYTE      CMP1MD
      000000D8H.0 SFRSYM    DATA     BIT       PCA0CN0_CCF0
      000000E0H.5 SFRSYM    DATA     BIT       ACC_ACC5
      00000098H.2 SFRSYM    DATA     BIT       TMR4CN0_TR4
      000000D8H.1 SFRSYM    DATA     BIT       PCA0CN0_CCF1
      000000E0H.6 SFRSYM    DATA     BIT       ACC_ACC6
      000000CCH   SFRSYM    DATA     WORD      TMR2
      0000009AH   SFRSYM    DATA     BYTE      SPI0FCN0
      000000D8H.2 SFRSYM    DATA     BIT       PCA0CN0_CCF2
      000000E0H.7 SFRSYM    DATA     BIT       ACC_ACC7
      00000094H   SFRSYM    DATA     WORD      TMR3
      0000009BH   SFRSYM    DATA     BYTE      SPI0FCN1
      000000A4H   SFRSYM    DATA     WORD      TMR4
      00000094H   SFRSYM    DATA     BYTE      SBCON1
      000000C0H.3 SFRSYM    DATA     BIT       SMB0CN0_ACKRQ
      000000FFH   SFRSYM    DATA     BYTE      VDM0CN
      000000F1H   SFRSYM    DATA     BYTE      P0MDIN
      00000098H.4 SFRSYM    DATA     BIT       SCON0_REN
      000000ACH   SFRSYM    DATA     BYTE      SMB0TC
      000000F2H   SFRSYM    DATA     BYTE      P1MDIN
      000000C8H.4 SFRSYM    DATA     BIT       SCON1_REN
      000000F3H   SFRSYM    DATA     BYTE      P2MDIN
      000000C0H.4 SFRSYM    DATA     BIT       SMB0CN0_STO
      000000F4H   SFRSYM    DATA     BYTE      P3MDIN
      000000B9H   SFRSYM    DATA     BYTE      I2C0STAT
      000000BBH   SFRSYM    DATA     BYTE      I2C0DOUT
      00000096H   SFRSYM    DATA     BYTE      SBRLH1
      000000FEH   SFRSYM    DATA     BYTE      P0MASK
      000000D8H.5 SFRSYM    DATA     BIT       UART1FCN1_TXHOLD
      000000EEH   SFRSYM    DATA     BYTE      P1MASK
      000000FCH   SFRSYM    DATA     BYTE      P2MASK
      000000D0H.3 SFRSYM    DATA     BIT       PSW_RS0
      000000D8H.7 SFRSYM    DATA     BIT       PCA0CN0_CF
      0000009EH   SFRSYM    DATA     BYTE      PCA0CENT
      000000BAH   SFRSYM    DATA     BYTE      I2C0CN0
      000000D2H   SFRSYM    DATA     BYTE      CRC0ST
      000000F8H.4 SFRSYM    DATA     BIT       SPI0CN0_RXOVRN
      000000D0H.4 SFRSYM    DATA     BIT       PSW_RS1
      00000095H   SFRSYM    DATA     BYTE      SBRLL1
      000000C8H.2 SFRSYM    DATA     BIT       SCON1_RBX
      000000C8H.0 SFRSYM    DATA     BIT       TMR2CN0_T2XCLK0
      000000C8H.1 SFRSYM    DATA     BIT       TMR2CN0_T2XCLK1
      000000C8H.3 SFRSYM    DATA     BIT       SCON1_TBX
      000000E8H.7 SFRSYM    DATA     BIT       ADC0CN0_ADEN
      00000089H   SFRSYM    DATA     BYTE      TMOD
      00000088H   SFRSYM    DATA     BYTE      TCON
      000000CFH   SFRSYM    DATA     BYTE      CRC0FLIP
      000000D0H.0 SFRSYM    DATA     BIT       PSW_PARITY
      000000A8H.4 SFRSYM    DATA     BIT       IE_ES0
LX51 LINKER/LOCATER V4.66.97.0                                                        09/02/2020  13:20:23  PAGE 23


      0000009FH   SFRSYM    DATA     BYTE      CMP0MX
      00000098H.0 SFRSYM    DATA     BIT       TMR4CN0_T4XCLK0
      000000A8H.1 SFRSYM    DATA     BIT       IE_ET0
      000000AAH   SFRSYM    DATA     BYTE      CMP1MX
      00000098H.1 SFRSYM    DATA     BIT       TMR4CN0_T4XCLK1
      000000A8H.3 SFRSYM    DATA     BIT       IE_ET1
      000000D4H   SFRSYM    DATA     BYTE      P0SKIP
      000000D8H.0 SFRSYM    DATA     BIT       UART1FCN1_RIE
      000000A8H.5 SFRSYM    DATA     BIT       IE_ET2
      000000D5H   SFRSYM    DATA     BYTE      P1SKIP
      000000CCH   SFRSYM    DATA     BYTE      P2SKIP
      000000E8H   SFRSYM    DATA     BYTE      ADC0CN0
      000000D8H.4 SFRSYM    DATA     BIT       UART1FCN1_TIE
      000000A8H.0 SFRSYM    DATA     BIT       IE_EX0
      000000B2H   SFRSYM    DATA     BYTE      ADC0CN1
      000000D8H.6 SFRSYM    DATA     BIT       PCA0CN0_CR
      000000A8H.2 SFRSYM    DATA     BIT       IE_EX1
      000000C8H.7 SFRSYM    DATA     BIT       SCON1_OVR
      00000098H.7 SFRSYM    DATA     BIT       SCON0_SMODE
      000000B5H   SFRSYM    DATA     BYTE      DEVICEID
      000000A9H   SFRSYM    DATA     BYTE      CLKSEL
      000000F8H.0 SFRSYM    DATA     BIT       SPI0CN0_SPIEN
      000000F0H   SFRSYM    DATA     BYTE      B
      000000BEH   SFRSYM    DATA     BYTE      ADC0H
      000000E8H.6 SFRSYM    DATA     BIT       ADC0CN0_ADBMEN
      000000CAH   SFRSYM    DATA     WORD      TMR2RL
      000000BDH   SFRSYM    DATA     BYTE      ADC0L
      00000092H   SFRSYM    DATA     WORD      TMR3RL
      000000A2H   SFRSYM    DATA     WORD      TMR4RL
      000000D8H   SFRSYM    DATA     BYTE      PCA0CN0
      000000E0H   SFRSYM    DATA     BYTE      ACC
      000000FBH   SFRSYM    DATA     WORD      PCA0CP0
      000000E9H   SFRSYM    DATA     WORD      PCA0CP1
      000000EBH   SFRSYM    DATA     WORD      PCA0CP2
      000000BCH   SFRSYM    DATA     BYTE      I2C0DIN
      000000CEH   SFRSYM    DATA     BYTE      CRC0CN0
      0000008CH   SFRSYM    DATA     BYTE      TH0
      00000086H   SFRSYM    DATA     BYTE      CRC0CN1
      000000B8H.4 SFRSYM    DATA     BIT       IP_PS0
      000000FAH   SFRSYM    DATA     BYTE      UART1FCT
      0000008DH   SFRSYM    DATA     BYTE      TH1
      000000FAH   SFRSYM    DATA     BYTE      PCA0H
      000000F5H   SFRSYM    DATA     BYTE      I2C0FCT
      000000B8H.1 SFRSYM    DATA     BIT       IP_PT0
      000000B8H.3 SFRSYM    DATA     BIT       IP_PT1
      000000C0H.2 SFRSYM    DATA     BIT       SMB0CN0_ARBLOST
      000000B8H.5 SFRSYM    DATA     BIT       IP_PT2
      0000008AH   SFRSYM    DATA     BYTE      TL0
      000000D0H.5 SFRSYM    DATA     BIT       PSW_F0
      000000A8H.6 SFRSYM    DATA     BIT       IE_ESPI0
      0000008BH   SFRSYM    DATA     BYTE      TL1
      000000F9H   SFRSYM    DATA     BYTE      PCA0L
      000000C0H.0 SFRSYM    DATA     BIT       SMB0CN0_SI
      000000D0H.1 SFRSYM    DATA     BIT       PSW_F1
      00000080H.0 SFRSYM    DATA     BIT       P0_B0
      000000B8H.0 SFRSYM    DATA     BIT       IP_PX0
      00000090H.0 SFRSYM    DATA     BIT       P1_B0
      00000080H.1 SFRSYM    DATA     BIT       P0_B1
      000000B8H.2 SFRSYM    DATA     BIT       IP_PX1
      0000009EH   SFRSYM    DATA     BYTE      UART1LIN
      0000009BH   SFRSYM    DATA     BYTE      CMP0CN0
      00000088H.1 SFRSYM    DATA     BIT       TCON_IE0
LX51 LINKER/LOCATER V4.66.97.0                                                        09/02/2020  13:20:23  PAGE 24


      000000A0H.0 SFRSYM    DATA     BIT       P2_B0
      00000090H.1 SFRSYM    DATA     BIT       P1_B1
      00000080H.2 SFRSYM    DATA     BIT       P0_B2
      000000BFH   SFRSYM    DATA     BYTE      CMP1CN0
      00000099H   SFRSYM    DATA     BYTE      CMP0CN1
      00000088H.3 SFRSYM    DATA     BIT       TCON_IE1
      000000B0H.0 SFRSYM    DATA     BIT       P3_B0
      000000A0H.1 SFRSYM    DATA     BIT       P2_B1
      00000090H.2 SFRSYM    DATA     BIT       P1_B2
      00000080H.3 SFRSYM    DATA     BIT       P0_B3
      000000C0H   SFRSYM    DATA     BYTE      SMB0CN0
      000000ACH   SFRSYM    DATA     BYTE      CMP1CN1
      000000B0H.1 SFRSYM    DATA     BIT       P3_B1
      000000A0H.2 SFRSYM    DATA     BIT       P2_B2
      00000090H.3 SFRSYM    DATA     BIT       P1_B3
      00000080H.4 SFRSYM    DATA     BIT       P0_B4
      000000A0H.3 SFRSYM    DATA     BIT       P2_B3
      00000090H.4 SFRSYM    DATA     BIT       P1_B4
      00000080H.5 SFRSYM    DATA     BIT       P0_B5
      000000D8H.1 SFRSYM    DATA     BIT       UART1FCN1_RXTO0
      00000090H.5 SFRSYM    DATA     BIT       P1_B5
      00000080H.6 SFRSYM    DATA     BIT       P0_B6
      000000F5H   SFRSYM    DATA     BYTE      EIP1H
      000000D8H.2 SFRSYM    DATA     BIT       UART1FCN1_RXTO1
      00000090H.6 SFRSYM    DATA     BIT       P1_B6
      00000080H.7 SFRSYM    DATA     BIT       P0_B7
      000000C5H   SFRSYM    DATA     BYTE      SMB0RXLN
      000000F6H   SFRSYM    DATA     BYTE      EIP2H
      00000090H.7 SFRSYM    DATA     BIT       P1_B7
      00000083H   SFRSYM    DATA     BYTE      DPH
      000000C4H   SFRSYM    DATA     BYTE      ADC0GTH
      000000C8H.7 SFRSYM    DATA     BIT       TMR2CN0_TF2H
      000000C8H.3 SFRSYM    DATA     BIT       TMR2CN0_T2SPLIT
      000000D0H.6 SFRSYM    DATA     BIT       PSW_AC
      000000F8H   SFRSYM    DATA     BYTE      SPI0CN0
      000000C7H   SFRSYM    DATA     BYTE      HFO0CAL
      00000088H.5 SFRSYM    DATA     BIT       TCON_TF0
      00000098H.0 SFRSYM    DATA     BIT       SCON0_RI
      000000D6H   SFRSYM    DATA     BYTE      HFO1CAL
      00000082H   SFRSYM    DATA     BYTE      DPL
      00000088H.7 SFRSYM    DATA     BIT       TCON_TF1
      000000C8H.0 SFRSYM    DATA     BIT       SCON1_RI
      00000099H   SFRSYM    DATA     BYTE      SBUF0
      00000087H   SFRSYM    DATA     BYTE      PCON0
      000000F2H   SFRSYM    DATA     BYTE      IPH
      000000C3H   SFRSYM    DATA     BYTE      ADC0GTL
      00000098H.7 SFRSYM    DATA     BIT       TMR4CN0_TF4H
      00000098H.3 SFRSYM    DATA     BIT       TMR4CN0_T4SPLIT
      000000C8H.6 SFRSYM    DATA     BIT       TMR2CN0_TF2L
      00000098H.1 SFRSYM    DATA     BIT       SCON0_TI
      000000E8H.0 SFRSYM    DATA     BIT       ADC0CN0_ADCM0
      00000092H   SFRSYM    DATA     BYTE      SBUF1
      0000009AH   SFRSYM    DATA     BYTE      PCON1
      000000C6H   SFRSYM    DATA     BYTE      ADC0LTH
      00000088H.0 SFRSYM    DATA     BIT       TCON_IT0
      000000C8H.1 SFRSYM    DATA     BIT       SCON1_TI
      000000E8H.1 SFRSYM    DATA     BIT       ADC0CN0_ADCM1
      000000EFH   SFRSYM    DATA     BYTE      RSTSRC
      000000FDH   SFRSYM    DATA     BYTE      P0MAT
      000000DEH   SFRSYM    DATA     BYTE      CRC0DAT
      00000088H.2 SFRSYM    DATA     BIT       TCON_IT1
      000000E8H.2 SFRSYM    DATA     BIT       ADC0CN0_ADCM2
LX51 LINKER/LOCATER V4.66.97.0                                                        09/02/2020  13:20:23  PAGE 25


      000000D7H   SFRSYM    DATA     BYTE      SFRSTACK
      00000098H   SFRSYM    DATA     BYTE      SCON0
      000000F6H   SFRSYM    DATA     BYTE      PRTDRV
      000000EDH   SFRSYM    DATA     BYTE      P1MAT
      000000E8H.3 SFRSYM    DATA     BIT       ADC0CN0_ADWINT
      00000095H   SFRSYM    DATA     WORD      SBRL1
      00000093H   SFRSYM    DATA     BYTE      SMOD1
      000000C8H   SFRSYM    DATA     BYTE      SCON1
      000000FBH   SFRSYM    DATA     BYTE      P2MAT
      00000098H.6 SFRSYM    DATA     BIT       TMR4CN0_TF4L
      000000E8H.4 SFRSYM    DATA     BIT       ADC0CN0_ADBUSY
      000000D6H   SFRSYM    DATA     BYTE      SMB0ADM
      000000C5H   SFRSYM    DATA     BYTE      ADC0LTL
      000000F8H.5 SFRSYM    DATA     BIT       SPI0CN0_MODF
      000000B8H.6 SFRSYM    DATA     BIT       IP_PSPI0
      0000009CH   SFRSYM    DATA     BYTE      PCA0CLR
      000000C8H   SFRSYM    DATA     BYTE      TMR2CN0
      00000091H   SFRSYM    DATA     BYTE      TMR3CN0
      000000FDH   SFRSYM    DATA     BYTE      TMR2CN1
      00000098H   SFRSYM    DATA     BYTE      TMR4CN0
      000000FEH   SFRSYM    DATA     BYTE      TMR3CN1
      000000FFH   SFRSYM    DATA     BYTE      TMR4CN1
      000000D7H   SFRSYM    DATA     BYTE      SMB0ADR
      00000088H.4 SFRSYM    DATA     BIT       TCON_TR0
      000000C8H.4 SFRSYM    DATA     BIT       TMR2CN0_TF2CEN
      00000088H.6 SFRSYM    DATA     BIT       TCON_TR1
      000000C2H   SFRSYM    DATA     BYTE      SMB0DAT
      000000CDH   SFRSYM    DATA     BYTE      TMR2H
      000000A1H   SFRSYM    DATA     BYTE      SPI0CFG
      00000095H   SFRSYM    DATA     BYTE      TMR3H
      000000EFH   SFRSYM    DATA     BYTE      HFOCN
      000000D3H   SFRSYM    DATA     BYTE      CRC0CNT
      000000A5H   SFRSYM    DATA     BYTE      TMR4H
      00000098H.4 SFRSYM    DATA     BIT       TMR4CN0_TF4CEN
      000000EFH   SFRSYM    DATA     BYTE      SMB0FCT
      00000096H   SFRSYM    DATA     BYTE      PCA0POL
      000000CCH   SFRSYM    DATA     BYTE      TMR2L
      000000F8H.7 SFRSYM    DATA     BIT       SPI0CN0_SPIF
      00000094H   SFRSYM    DATA     BYTE      TMR3L
      000000DFH   SFRSYM    DATA     BYTE      ADC0PWR
      000000A8H.7 SFRSYM    DATA     BIT       IE_EA
      000000A4H   SFRSYM    DATA     BYTE      TMR4L
      000000C8H.5 SFRSYM    DATA     BIT       TMR2CN0_TF2LEN
      000000F8H.6 SFRSYM    DATA     BIT       SPI0CN0_WCOL
      000000F8H.2 SFRSYM    DATA     BIT       SPI0CN0_NSSMD0
      000000D0H.7 SFRSYM    DATA     BIT       PSW_CY
      0000009DH   SFRSYM    DATA     BYTE      UART1FCN0
      000000A3H   SFRSYM    DATA     BYTE      SPI0DAT
      000000ADH   SFRSYM    DATA     BYTE      I2C0FCN0
      000000F8H.3 SFRSYM    DATA     BIT       SPI0CN0_NSSMD1
      000000BDH   SFRSYM    DATA     WORD      ADC0
      000000D8H   SFRSYM    DATA     BYTE      UART1FCN1
      000000ABH   SFRSYM    DATA     BYTE      I2C0FCN1
      00000098H.5 SFRSYM    DATA     BIT       TMR4CN0_TF4LEN
      000000D0H   SFRSYM    DATA     BYTE      PSW
      000000F7H   SFRSYM    DATA     BYTE      PCA0PWM
      000000F7H   SFRSYM    DATA     BYTE      SPI0FCT
      000000B6H   SFRSYM    DATA     BYTE      REVID
      000000B7H   SFRSYM    DATA     BYTE      FLKEY
      000000B3H   SFRSYM    DATA     BYTE      ADC0AC

      01003ABEH   BLOCK     CODE     ---       LVL=0
LX51 LINKER/LOCATER V4.66.97.0                                                        09/02/2020  13:20:23  PAGE 26


      01003ABEH   LINE      CODE     ---       #52
      01003ABEH   LINE      CODE     ---       #53
      01003ABEH   LINE      CODE     ---       #54
      01003AC0H   LINE      CODE     ---       #55
      01003AC2H   LINE      CODE     ---       #56
      01003AC4H   LINE      CODE     ---       #57
      01003AC7H   LINE      CODE     ---       #58
      01003ACAH   LINE      CODE     ---       #63
      01003ACDH   LINE      CODE     ---       #68
      01003AD0H   LINE      CODE     ---       #73
      01003AD3H   LINE      CODE     ---       #74
      01003AD6H   LINE      CODE     ---       #75
      01003AD9H   LINE      CODE     ---       #76
      01003ADBH   LINE      CODE     ---       #77
      01003ADDH   LINE      CODE     ---       #78
      01003AE0H   LINE      CODE     ---       #79
      01003AE3H   LINE      CODE     ---       #86
      01003AE7H   LINE      CODE     ---       #87
      01003AE9H   LINE      CODE     ---       #88
      01003AECH   LINE      CODE     ---       #91
      ---         BLOCKEND  ---      ---       LVL=0

      01003AEDH   BLOCK     CODE     ---       LVL=0
      01003AEDH   LINE      CODE     ---       #93
      01003AEDH   LINE      CODE     ---       #94
      01003AEDH   LINE      CODE     ---       #95
      01003AEFH   LINE      CODE     ---       #96
      01003AF1H   LINE      CODE     ---       #97
      01003AF3H   LINE      CODE     ---       #98
      01003AF6H   LINE      CODE     ---       #99
      01003AF9H   LINE      CODE     ---       #104
      01003AFCH   LINE      CODE     ---       #109
      01003AFFH   LINE      CODE     ---       #114
      01003B02H   LINE      CODE     ---       #115
      01003B05H   LINE      CODE     ---       #116
      01003B08H   LINE      CODE     ---       #117
      01003B0AH   LINE      CODE     ---       #118
      01003B0CH   LINE      CODE     ---       #119
      01003B0FH   LINE      CODE     ---       #120
      01003B12H   LINE      CODE     ---       #127
      01003B16H   LINE      CODE     ---       #128
      01003B18H   LINE      CODE     ---       #129
      01003B1BH   LINE      CODE     ---       #133
      ---         BLOCKEND  ---      ---       LVL=0

      01003878H   BLOCK     CODE     ---       LVL=0
      01003878H   LINE      CODE     ---       #135
      01003878H   LINE      CODE     ---       #136
      01003878H   LINE      CODE     ---       #137
      0100387DH   LINE      CODE     ---       #138
      0100388EH   LINE      CODE     ---       #139
      0100388EH   LINE      CODE     ---       #140
      01003890H   LINE      CODE     ---       #141
      01003892H   LINE      CODE     ---       #142
      01003899H   LINE      CODE     ---       #143
      010038A1H   LINE      CODE     ---       #144
      010038ABH   LINE      CODE     ---       #145
      010038AEH   LINE      CODE     ---       #146
      010038C4H   LINE      CODE     ---       #147
      ---         BLOCKEND  ---      ---       LVL=0

      010034BDH   BLOCK     CODE     ---       LVL=0
LX51 LINKER/LOCATER V4.66.97.0                                                        09/02/2020  13:20:23  PAGE 27


      010034BDH   LINE      CODE     ---       #149
      010034BDH   LINE      CODE     ---       #150
      010034BDH   LINE      CODE     ---       #151
      010034C0H   LINE      CODE     ---       #152
      010034C3H   LINE      CODE     ---       #153
      010034D2H   LINE      CODE     ---       #154
      010034D5H   LINE      CODE     ---       #155
      010034D8H   LINE      CODE     ---       #156
      010034E7H   LINE      CODE     ---       #159
      01003519H   LINE      CODE     ---       #160
      01003519H   LINE      CODE     ---       #161
      0100351FH   LINE      CODE     ---       #162
      01003520H   LINE      CODE     ---       #164
      01003520H   LINE      CODE     ---       #165
      01003525H   LINE      CODE     ---       #166
      01003525H   LINE      CODE     ---       #172
      ---         BLOCKEND  ---      ---       LVL=0

      0100177DH   BLOCK     CODE     ---       LVL=0
      0100177DH   LINE      CODE     ---       #174
      0100177DH   LINE      CODE     ---       #175
      0100177DH   LINE      CODE     ---       #176
      01001780H   LINE      CODE     ---       #179
      0100179DH   LINE      CODE     ---       #180
      0100179DH   LINE      CODE     ---       #181
      010017A3H   LINE      CODE     ---       #182
      010017ABH   LINE      CODE     ---       #183
      010017ADH   LINE      CODE     ---       #185
      010017ADH   LINE      CODE     ---       #186
      010017B2H   LINE      CODE     ---       #187
      010017BAH   LINE      CODE     ---       #188
      010017BAH   LINE      CODE     ---       #190
      010017C1H   LINE      CODE     ---       #191
      010017C7H   LINE      CODE     ---       #193
      010017E7H   LINE      CODE     ---       #194
      01001807H   LINE      CODE     ---       #196
      01001810H   LINE      CODE     ---       #197
      01001830H   LINE      CODE     ---       #199
      01001837H   LINE      CODE     ---       #200
      0100183DH   LINE      CODE     ---       #202
      01001846H   LINE      CODE     ---       #203
      01001866H   LINE      CODE     ---       #206
      0100186FH   LINE      CODE     ---       #207
      0100186FH   LINE      CODE     ---       #208
      01001893H   LINE      CODE     ---       #209
      01001893H   LINE      CODE     ---       #210
      01001898H   LINE      CODE     ---       #211
      01001898H   LINE      CODE     ---       #212
      010018B9H   LINE      CODE     ---       #213
      010018B9H   LINE      CODE     ---       #214
      010018C0H   LINE      CODE     ---       #215
      010018C2H   LINE      CODE     ---       #216
      010018C9H   LINE      CODE     ---       #217
      010018CCH   LINE      CODE     ---       #218
      010018CEH   LINE      CODE     ---       #219
      010018F2H   LINE      CODE     ---       #220
      010018F2H   LINE      CODE     ---       #221
      010018F8H   LINE      CODE     ---       #222
      010018FAH   LINE      CODE     ---       #224
      010018FAH   LINE      CODE     ---       #225
      01001900H   LINE      CODE     ---       #226
      01001900H   LINE      CODE     ---       #227
LX51 LINKER/LOCATER V4.66.97.0                                                        09/02/2020  13:20:23  PAGE 28


      01001900H   LINE      CODE     ---       #228
      01001924H   LINE      CODE     ---       #229
      01001924H   LINE      CODE     ---       #230
      0100192AH   LINE      CODE     ---       #231
      0100192AH   LINE      CODE     ---       #232
      0100192BH   LINE      CODE     ---       #234
      0100192BH   LINE      CODE     ---       #235
      0100194FH   LINE      CODE     ---       #236
      0100194FH   LINE      CODE     ---       #237
      01001955H   LINE      CODE     ---       #238
      01001955H   LINE      CODE     ---       #239
      01001976H   LINE      CODE     ---       #240
      01001976H   LINE      CODE     ---       #241
      0100197CH   LINE      CODE     ---       #242
      0100197CH   LINE      CODE     ---       #243
      0100197CH   LINE      CODE     ---       #244
      ---         BLOCKEND  ---      ---       LVL=0

      01003EA2H   BLOCK     CODE     ---       LVL=0
      01003EA2H   LINE      CODE     ---       #249
      01003EA2H   LINE      CODE     ---       #250
      01003EA2H   LINE      CODE     ---       #251
      01003EA4H   LINE      CODE     ---       #252
      01003EA6H   LINE      CODE     ---       #253
      01003EA8H   LINE      CODE     ---       #254
      01003EAEH   LINE      CODE     ---       #255
      ---         BLOCKEND  ---      ---       LVL=0

      01003ED4H   BLOCK     CODE     ---       LVL=0
      01003ED4H   LINE      CODE     ---       #257
      01003ED4H   LINE      CODE     ---       #258
      01003ED4H   LINE      CODE     ---       #259
      01003ED6H   LINE      CODE     ---       #260
      01003ED8H   LINE      CODE     ---       #261
      01003EDDH   LINE      CODE     ---       #262
      ---         BLOCKEND  ---      ---       LVL=0

      01003A8BH   BLOCK     CODE     ---       LVL=0
      01003A8BH   LINE      CODE     ---       #265
      01003A8BH   LINE      CODE     ---       #266
      01003A8BH   LINE      CODE     ---       #267
      01003A8DH   LINE      CODE     ---       #268
      01003A8FH   LINE      CODE     ---       #269
      01003A91H   LINE      CODE     ---       #270
      01003A94H   LINE      CODE     ---       #271
      01003A97H   LINE      CODE     ---       #276
      01003A9AH   LINE      CODE     ---       #281
      01003A9DH   LINE      CODE     ---       #286
      01003AA0H   LINE      CODE     ---       #287
      01003AA3H   LINE      CODE     ---       #288
      01003AA6H   LINE      CODE     ---       #289
      01003AA8H   LINE      CODE     ---       #290
      01003AAAH   LINE      CODE     ---       #291
      01003AADH   LINE      CODE     ---       #292
      01003AB0H   LINE      CODE     ---       #299
      01003AB3H   LINE      CODE     ---       #300
      01003AB6H   LINE      CODE     ---       #301
      01003AB9H   LINE      CODE     ---       #302
      01003ABBH   LINE      CODE     ---       #303
      ---         BLOCKEND  ---      ---       LVL=0

      01002DC9H   BLOCK     CODE     ---       LVL=0
LX51 LINKER/LOCATER V4.66.97.0                                                        09/02/2020  13:20:23  PAGE 29


      01002DFCH   BLOCK     CODE     NEAR LAB  LVL=1
      02000385H   SYMBOL    XDATA    BYTE      i
      02000386H   SYMBOL    XDATA    BYTE      Max
      02000387H   SYMBOL    XDATA    BYTE      Min
      ---         BLOCKEND  ---      ---       LVL=1
      01002DC9H   LINE      CODE     ---       #309
      01002DD8H   LINE      CODE     ---       #311
      01002DE6H   LINE      CODE     ---       #312
      01002DE6H   LINE      CODE     ---       #313
      01002DF3H   LINE      CODE     ---       #314
      01002DF9H   LINE      CODE     ---       #315
      01002DFCH   LINE      CODE     ---       #317
      01002DFCH   LINE      CODE     ---       #319
      01002E01H   LINE      CODE     ---       #320
      01002E05H   LINE      CODE     ---       #321
      01002E15H   LINE      CODE     ---       #322
      01002E1AH   LINE      CODE     ---       #323
      01002E2CH   LINE      CODE     ---       #324
      01002E2CH   LINE      CODE     ---       #325
      01002E40H   LINE      CODE     ---       #326
      01002E42H   LINE      CODE     ---       #327
      01002E4AH   LINE      CODE     ---       #328
      01002E5CH   LINE      CODE     ---       #329
      01002E64H   LINE      CODE     ---       #330
      01002E82H   LINE      CODE     ---       #331
      01002E82H   LINE      CODE     ---       #332
      01002E84H   LINE      CODE     ---       #333
      01002E86H   LINE      CODE     ---       #334
      ---         BLOCKEND  ---      ---       LVL=0

      0100004EH   BLOCK     CODE     ---       LVL=0
      0100004EH   LINE      CODE     ---       #340
      0100004EH   LINE      CODE     ---       #342
      01000050H   LINE      CODE     ---       #343
      ---         BLOCKEND  ---      ---       LVL=0

      ---         MODULE    ---      ---       COMMAND
      020002E1H   PUBLIC    XDATA    ---       SnrCfgSta
      02000289H   PUBLIC    XDATA    ---       Cmd
      01002628H   PUBLIC    CODE     ---       Cmd_RenewVechileCfg
      01002CFEH   PUBLIC    CODE     ---       Cmd_SendDistancetoBCM
      01002F48H   PUBLIC    CODE     ---       Cmd_SendSelfChecktoBCM
      0100390EH   PUBLIC    CODE     ---       Cmd_SendReqVechiModetoBCM
      01003453H   PUBLIC    CODE     ---       Cmd_NextSensorDet
      010038C5H   PUBLIC    CODE     ---       Cmd_NextSensorSelf
      010024EAH   PUBLIC    CODE     ---       Cmd_DistancetoComInfo
      01001B6FH   PUBLIC    CODE     ---       Cmd_UpdataDistance
      01003526H   PUBLIC    CODE     ---       Cmd_SaveData
      0100009EH   PUBLIC    CODE     ---       Cmd_Process
      01002870H   PUBLIC    CODE     ---       Cmd_GetVechileMode
      010036BAH   PUBLIC    CODE     ---       _Cmd_ReleaseVechileCfgInfo
      000000A2H   SFRSYM    DATA     BYTE      SPI0CKR
      00000080H   SFRSYM    DATA     BYTE      P0
      000000C8H.6 SFRSYM    DATA     BIT       SCON1_PERR
      000000D0H.2 SFRSYM    DATA     BIT       PSW_OV
      00000090H   SFRSYM    DATA     BYTE      P1
      000000F8H.1 SFRSYM    DATA     BIT       SPI0CN0_TXNF
      00000097H   SFRSYM    DATA     BYTE      WDTCN
      000000A0H   SFRSYM    DATA     BYTE      P2
      000000B0H   SFRSYM    DATA     BYTE      P3
      000000BCH   SFRSYM    DATA     BYTE      ADC0CF
      000000C0H.7 SFRSYM    DATA     BIT       SMB0CN0_MASTER
LX51 LINKER/LOCATER V4.66.97.0                                                        09/02/2020  13:20:23  PAGE 30


      000000F9H   SFRSYM    DATA     WORD      PCA0
      000000E6H   SFRSYM    DATA     BYTE      EIE1
      000000C0H.1 SFRSYM    DATA     BIT       SMB0CN0_ACK
      000000CEH   SFRSYM    DATA     BYTE      EIE2
      0000008FH   SFRSYM    DATA     BYTE      PSCTL
      000000E4H   SFRSYM    DATA     BYTE      IT01CF
      000000C0H.6 SFRSYM    DATA     BIT       SMB0CN0_TXMODE
      000000ADH   SFRSYM    DATA     BYTE      DERIVID
      000000A7H   SFRSYM    DATA     BYTE      SFRPAGE
      000000A4H   SFRSYM    DATA     BYTE      P0MDOUT
      000000A5H   SFRSYM    DATA     BYTE      P1MDOUT
      000000E8H.5 SFRSYM    DATA     BIT       ADC0CN0_ADINT
      000000CBH   SFRSYM    DATA     BYTE      TMR2RLH
      000000A6H   SFRSYM    DATA     BYTE      P2MDOUT
      000000A8H   SFRSYM    DATA     BYTE      IE
      00000093H   SFRSYM    DATA     BYTE      TMR3RLH
      0000009CH   SFRSYM    DATA     BYTE      P3MDOUT
      000000A3H   SFRSYM    DATA     BYTE      TMR4RLH
      000000F3H   SFRSYM    DATA     BYTE      EIP1
      000000F4H   SFRSYM    DATA     BYTE      EIP2
      00000098H.2 SFRSYM    DATA     BIT       SCON0_RB8
      000000CAH   SFRSYM    DATA     BYTE      TMR2RLL
      000000FCH   SFRSYM    DATA     BYTE      PCA0CPH0
      00000092H   SFRSYM    DATA     BYTE      TMR3RLL
      000000EAH   SFRSYM    DATA     BYTE      PCA0CPH1
      00000098H.3 SFRSYM    DATA     BIT       SCON0_TB8
      000000F0H.0 SFRSYM    DATA     BIT       B_B0
      00000082H   SFRSYM    DATA     WORD      DP
      000000A2H   SFRSYM    DATA     BYTE      TMR4RLL
      000000ECH   SFRSYM    DATA     BYTE      PCA0CPH2
      000000F0H.1 SFRSYM    DATA     BIT       B_B1
      000000C3H   SFRSYM    DATA     WORD      ADC0GT
      000000BDH   SFRSYM    DATA     BYTE      I2C0SLAD
      000000D8H.3 SFRSYM    DATA     BIT       UART1FCN1_RFRQ
      000000F0H.2 SFRSYM    DATA     BIT       B_B2
      000000CFH   SFRSYM    DATA     BYTE      SFRPGCN
      000000FBH   SFRSYM    DATA     BYTE      PCA0CPL0
      000000F0H.3 SFRSYM    DATA     BIT       B_B3
      000000D9H   SFRSYM    DATA     BYTE      PCA0MD
      000000DAH   SFRSYM    DATA     BYTE      PCA0CPM0
      000000E9H   SFRSYM    DATA     BYTE      PCA0CPL1
      000000D8H.7 SFRSYM    DATA     BIT       UART1FCN1_TFRQ
      000000F0H.4 SFRSYM    DATA     BIT       B_B4
      000000DBH   SFRSYM    DATA     BYTE      PCA0CPM1
      000000EBH   SFRSYM    DATA     BYTE      PCA0CPL2
      000000F0H.5 SFRSYM    DATA     BIT       B_B5
      000000DCH   SFRSYM    DATA     BYTE      PCA0CPM2
      000000B8H   SFRSYM    DATA     BYTE      IP
      000000B9H   SFRSYM    DATA     BYTE      ADC0TK
      000000F0H.6 SFRSYM    DATA     BIT       B_B6
      000000C5H   SFRSYM    DATA     WORD      ADC0LT
      000000D8H.6 SFRSYM    DATA     BIT       UART1FCN1_TXNF
      00000098H.5 SFRSYM    DATA     BIT       SCON0_MCE
      000000F0H.7 SFRSYM    DATA     BIT       B_B7
      000000C3H   SFRSYM    DATA     BYTE      SMB0FCN0
      000000E1H   SFRSYM    DATA     BYTE      XBR0
      000000C4H   SFRSYM    DATA     BYTE      SMB0FCN1
      000000C1H   SFRSYM    DATA     BYTE      SMB0CF
      000000E2H   SFRSYM    DATA     BYTE      XBR1
      000000C1H   SFRSYM    DATA     BYTE      PFE0CN
      000000E7H   SFRSYM    DATA     BYTE      EMI0CN
      000000C0H.5 SFRSYM    DATA     BIT       SMB0CN0_STA
LX51 LINKER/LOCATER V4.66.97.0                                                        09/02/2020  13:20:23  PAGE 31


      000000E3H   SFRSYM    DATA     BYTE      XBR2
      000000BBH   SFRSYM    DATA     BYTE      ADC0MX
      000000E0H.0 SFRSYM    DATA     BIT       ACC_ACC0
      000000D1H   SFRSYM    DATA     BYTE      REF0CN
      0000008EH   SFRSYM    DATA     BYTE      CKCON0
      000000E0H.1 SFRSYM    DATA     BIT       ACC_ACC1
      000000C9H   SFRSYM    DATA     BYTE      REG0CN
      000000DDH   SFRSYM    DATA     BYTE      CRC0IN
      000000A6H   SFRSYM    DATA     BYTE      CKCON1
      000000C8H.2 SFRSYM    DATA     BIT       TMR2CN0_TR2
      000000E0H.2 SFRSYM    DATA     BIT       ACC_ACC2
      000000C6H   SFRSYM    DATA     BYTE      REG1CN
      000000E0H.3 SFRSYM    DATA     BIT       ACC_ACC3
      00000081H   SFRSYM    DATA     BYTE      SP
      0000009DH   SFRSYM    DATA     BYTE      CMP0MD
      000000E0H.4 SFRSYM    DATA     BIT       ACC_ACC4
      000000B1H   SFRSYM    DATA     BYTE      LFO0CN
      000000ABH   SFRSYM    DATA     BYTE      CMP1MD
      000000D8H.0 SFRSYM    DATA     BIT       PCA0CN0_CCF0
      000000E0H.5 SFRSYM    DATA     BIT       ACC_ACC5
      00000098H.2 SFRSYM    DATA     BIT       TMR4CN0_TR4
      000000D8H.1 SFRSYM    DATA     BIT       PCA0CN0_CCF1
      000000E0H.6 SFRSYM    DATA     BIT       ACC_ACC6
      000000CCH   SFRSYM    DATA     WORD      TMR2
      0000009AH   SFRSYM    DATA     BYTE      SPI0FCN0
      000000D8H.2 SFRSYM    DATA     BIT       PCA0CN0_CCF2
      000000E0H.7 SFRSYM    DATA     BIT       ACC_ACC7
      00000094H   SFRSYM    DATA     WORD      TMR3
      0000009BH   SFRSYM    DATA     BYTE      SPI0FCN1
      000000A4H   SFRSYM    DATA     WORD      TMR4
      00000094H   SFRSYM    DATA     BYTE      SBCON1
      000000C0H.3 SFRSYM    DATA     BIT       SMB0CN0_ACKRQ
      000000FFH   SFRSYM    DATA     BYTE      VDM0CN
      000000F1H   SFRSYM    DATA     BYTE      P0MDIN
      00000098H.4 SFRSYM    DATA     BIT       SCON0_REN
      000000ACH   SFRSYM    DATA     BYTE      SMB0TC
      000000F2H   SFRSYM    DATA     BYTE      P1MDIN
      000000C8H.4 SFRSYM    DATA     BIT       SCON1_REN
      000000F3H   SFRSYM    DATA     BYTE      P2MDIN
      000000C0H.4 SFRSYM    DATA     BIT       SMB0CN0_STO
      000000F4H   SFRSYM    DATA     BYTE      P3MDIN
      000000B9H   SFRSYM    DATA     BYTE      I2C0STAT
      000000BBH   SFRSYM    DATA     BYTE      I2C0DOUT
      00000096H   SFRSYM    DATA     BYTE      SBRLH1
      000000FEH   SFRSYM    DATA     BYTE      P0MASK
      000000D8H.5 SFRSYM    DATA     BIT       UART1FCN1_TXHOLD
      000000EEH   SFRSYM    DATA     BYTE      P1MASK
      000000FCH   SFRSYM    DATA     BYTE      P2MASK
      000000D0H.3 SFRSYM    DATA     BIT       PSW_RS0
      000000D8H.7 SFRSYM    DATA     BIT       PCA0CN0_CF
      0000009EH   SFRSYM    DATA     BYTE      PCA0CENT
      000000BAH   SFRSYM    DATA     BYTE      I2C0CN0
      000000D2H   SFRSYM    DATA     BYTE      CRC0ST
      000000F8H.4 SFRSYM    DATA     BIT       SPI0CN0_RXOVRN
      000000D0H.4 SFRSYM    DATA     BIT       PSW_RS1
      00000095H   SFRSYM    DATA     BYTE      SBRLL1
      000000C8H.2 SFRSYM    DATA     BIT       SCON1_RBX
      000000C8H.0 SFRSYM    DATA     BIT       TMR2CN0_T2XCLK0
      000000C8H.1 SFRSYM    DATA     BIT       TMR2CN0_T2XCLK1
      000000C8H.3 SFRSYM    DATA     BIT       SCON1_TBX
      000000E8H.7 SFRSYM    DATA     BIT       ADC0CN0_ADEN
      00000089H   SFRSYM    DATA     BYTE      TMOD
LX51 LINKER/LOCATER V4.66.97.0                                                        09/02/2020  13:20:23  PAGE 32


      00000088H   SFRSYM    DATA     BYTE      TCON
      000000CFH   SFRSYM    DATA     BYTE      CRC0FLIP
      000000D0H.0 SFRSYM    DATA     BIT       PSW_PARITY
      000000A8H.4 SFRSYM    DATA     BIT       IE_ES0
      0000009FH   SFRSYM    DATA     BYTE      CMP0MX
      00000098H.0 SFRSYM    DATA     BIT       TMR4CN0_T4XCLK0
      000000A8H.1 SFRSYM    DATA     BIT       IE_ET0
      000000AAH   SFRSYM    DATA     BYTE      CMP1MX
      00000098H.1 SFRSYM    DATA     BIT       TMR4CN0_T4XCLK1
      000000A8H.3 SFRSYM    DATA     BIT       IE_ET1
      000000D4H   SFRSYM    DATA     BYTE      P0SKIP
      000000D8H.0 SFRSYM    DATA     BIT       UART1FCN1_RIE
      000000A8H.5 SFRSYM    DATA     BIT       IE_ET2
      000000D5H   SFRSYM    DATA     BYTE      P1SKIP
      000000CCH   SFRSYM    DATA     BYTE      P2SKIP
      000000E8H   SFRSYM    DATA     BYTE      ADC0CN0
      000000D8H.4 SFRSYM    DATA     BIT       UART1FCN1_TIE
      000000A8H.0 SFRSYM    DATA     BIT       IE_EX0
      000000B2H   SFRSYM    DATA     BYTE      ADC0CN1
      000000D8H.6 SFRSYM    DATA     BIT       PCA0CN0_CR
      000000A8H.2 SFRSYM    DATA     BIT       IE_EX1
      000000C8H.7 SFRSYM    DATA     BIT       SCON1_OVR
      00000098H.7 SFRSYM    DATA     BIT       SCON0_SMODE
      000000B5H   SFRSYM    DATA     BYTE      DEVICEID
      000000A9H   SFRSYM    DATA     BYTE      CLKSEL
      000000F8H.0 SFRSYM    DATA     BIT       SPI0CN0_SPIEN
      000000F0H   SFRSYM    DATA     BYTE      B
      000000BEH   SFRSYM    DATA     BYTE      ADC0H
      000000E8H.6 SFRSYM    DATA     BIT       ADC0CN0_ADBMEN
      000000CAH   SFRSYM    DATA     WORD      TMR2RL
      000000BDH   SFRSYM    DATA     BYTE      ADC0L
      00000092H   SFRSYM    DATA     WORD      TMR3RL
      000000A2H   SFRSYM    DATA     WORD      TMR4RL
      000000D8H   SFRSYM    DATA     BYTE      PCA0CN0
      000000E0H   SFRSYM    DATA     BYTE      ACC
      000000FBH   SFRSYM    DATA     WORD      PCA0CP0
      000000E9H   SFRSYM    DATA     WORD      PCA0CP1
      000000EBH   SFRSYM    DATA     WORD      PCA0CP2
      000000BCH   SFRSYM    DATA     BYTE      I2C0DIN
      000000CEH   SFRSYM    DATA     BYTE      CRC0CN0
      0000008CH   SFRSYM    DATA     BYTE      TH0
      00000086H   SFRSYM    DATA     BYTE      CRC0CN1
      000000B8H.4 SFRSYM    DATA     BIT       IP_PS0
      000000FAH   SFRSYM    DATA     BYTE      UART1FCT
      0000008DH   SFRSYM    DATA     BYTE      TH1
      000000FAH   SFRSYM    DATA     BYTE      PCA0H
      000000F5H   SFRSYM    DATA     BYTE      I2C0FCT
      000000B8H.1 SFRSYM    DATA     BIT       IP_PT0
      000000B8H.3 SFRSYM    DATA     BIT       IP_PT1
      000000C0H.2 SFRSYM    DATA     BIT       SMB0CN0_ARBLOST
      000000B8H.5 SFRSYM    DATA     BIT       IP_PT2
      0000008AH   SFRSYM    DATA     BYTE      TL0
      000000D0H.5 SFRSYM    DATA     BIT       PSW_F0
      000000A8H.6 SFRSYM    DATA     BIT       IE_ESPI0
      0000008BH   SFRSYM    DATA     BYTE      TL1
      000000F9H   SFRSYM    DATA     BYTE      PCA0L
      000000C0H.0 SFRSYM    DATA     BIT       SMB0CN0_SI
      000000D0H.1 SFRSYM    DATA     BIT       PSW_F1
      00000080H.0 SFRSYM    DATA     BIT       P0_B0
      000000B8H.0 SFRSYM    DATA     BIT       IP_PX0
      00000090H.0 SFRSYM    DATA     BIT       P1_B0
      00000080H.1 SFRSYM    DATA     BIT       P0_B1
LX51 LINKER/LOCATER V4.66.97.0                                                        09/02/2020  13:20:23  PAGE 33


      000000B8H.2 SFRSYM    DATA     BIT       IP_PX1
      0000009EH   SFRSYM    DATA     BYTE      UART1LIN
      0000009BH   SFRSYM    DATA     BYTE      CMP0CN0
      00000088H.1 SFRSYM    DATA     BIT       TCON_IE0
      000000A0H.0 SFRSYM    DATA     BIT       P2_B0
      00000090H.1 SFRSYM    DATA     BIT       P1_B1
      00000080H.2 SFRSYM    DATA     BIT       P0_B2
      000000BFH   SFRSYM    DATA     BYTE      CMP1CN0
      00000099H   SFRSYM    DATA     BYTE      CMP0CN1
      00000088H.3 SFRSYM    DATA     BIT       TCON_IE1
      000000B0H.0 SFRSYM    DATA     BIT       P3_B0
      000000A0H.1 SFRSYM    DATA     BIT       P2_B1
      00000090H.2 SFRSYM    DATA     BIT       P1_B2
      00000080H.3 SFRSYM    DATA     BIT       P0_B3
      000000C0H   SFRSYM    DATA     BYTE      SMB0CN0
      000000ACH   SFRSYM    DATA     BYTE      CMP1CN1
      000000B0H.1 SFRSYM    DATA     BIT       P3_B1
      000000A0H.2 SFRSYM    DATA     BIT       P2_B2
      00000090H.3 SFRSYM    DATA     BIT       P1_B3
      00000080H.4 SFRSYM    DATA     BIT       P0_B4
      000000A0H.3 SFRSYM    DATA     BIT       P2_B3
      00000090H.4 SFRSYM    DATA     BIT       P1_B4
      00000080H.5 SFRSYM    DATA     BIT       P0_B5
      000000D8H.1 SFRSYM    DATA     BIT       UART1FCN1_RXTO0
      00000090H.5 SFRSYM    DATA     BIT       P1_B5
      00000080H.6 SFRSYM    DATA     BIT       P0_B6
      000000F5H   SFRSYM    DATA     BYTE      EIP1H
      000000D8H.2 SFRSYM    DATA     BIT       UART1FCN1_RXTO1
      00000090H.6 SFRSYM    DATA     BIT       P1_B6
      00000080H.7 SFRSYM    DATA     BIT       P0_B7
      000000C5H   SFRSYM    DATA     BYTE      SMB0RXLN
      000000F6H   SFRSYM    DATA     BYTE      EIP2H
      00000090H.7 SFRSYM    DATA     BIT       P1_B7
      00000083H   SFRSYM    DATA     BYTE      DPH
      000000C4H   SFRSYM    DATA     BYTE      ADC0GTH
      000000C8H.7 SFRSYM    DATA     BIT       TMR2CN0_TF2H
      000000C8H.3 SFRSYM    DATA     BIT       TMR2CN0_T2SPLIT
      000000D0H.6 SFRSYM    DATA     BIT       PSW_AC
      000000F8H   SFRSYM    DATA     BYTE      SPI0CN0
      000000C7H   SFRSYM    DATA     BYTE      HFO0CAL
      00000088H.5 SFRSYM    DATA     BIT       TCON_TF0
      00000098H.0 SFRSYM    DATA     BIT       SCON0_RI
      000000D6H   SFRSYM    DATA     BYTE      HFO1CAL
      00000082H   SFRSYM    DATA     BYTE      DPL
      00000088H.7 SFRSYM    DATA     BIT       TCON_TF1
      000000C8H.0 SFRSYM    DATA     BIT       SCON1_RI
      00000099H   SFRSYM    DATA     BYTE      SBUF0
      00000087H   SFRSYM    DATA     BYTE      PCON0
      000000F2H   SFRSYM    DATA     BYTE      IPH
      000000C3H   SFRSYM    DATA     BYTE      ADC0GTL
      00000098H.7 SFRSYM    DATA     BIT       TMR4CN0_TF4H
      00000098H.3 SFRSYM    DATA     BIT       TMR4CN0_T4SPLIT
      000000C8H.6 SFRSYM    DATA     BIT       TMR2CN0_TF2L
      00000098H.1 SFRSYM    DATA     BIT       SCON0_TI
      000000E8H.0 SFRSYM    DATA     BIT       ADC0CN0_ADCM0
      00000092H   SFRSYM    DATA     BYTE      SBUF1
      0000009AH   SFRSYM    DATA     BYTE      PCON1
      000000C6H   SFRSYM    DATA     BYTE      ADC0LTH
      00000088H.0 SFRSYM    DATA     BIT       TCON_IT0
      000000C8H.1 SFRSYM    DATA     BIT       SCON1_TI
      000000E8H.1 SFRSYM    DATA     BIT       ADC0CN0_ADCM1
      000000EFH   SFRSYM    DATA     BYTE      RSTSRC
LX51 LINKER/LOCATER V4.66.97.0                                                        09/02/2020  13:20:23  PAGE 34


      000000FDH   SFRSYM    DATA     BYTE      P0MAT
      000000DEH   SFRSYM    DATA     BYTE      CRC0DAT
      00000088H.2 SFRSYM    DATA     BIT       TCON_IT1
      000000E8H.2 SFRSYM    DATA     BIT       ADC0CN0_ADCM2
      000000D7H   SFRSYM    DATA     BYTE      SFRSTACK
      00000098H   SFRSYM    DATA     BYTE      SCON0
      000000F6H   SFRSYM    DATA     BYTE      PRTDRV
      000000EDH   SFRSYM    DATA     BYTE      P1MAT
      000000E8H.3 SFRSYM    DATA     BIT       ADC0CN0_ADWINT
      00000095H   SFRSYM    DATA     WORD      SBRL1
      00000093H   SFRSYM    DATA     BYTE      SMOD1
      000000C8H   SFRSYM    DATA     BYTE      SCON1
      000000FBH   SFRSYM    DATA     BYTE      P2MAT
      00000098H.6 SFRSYM    DATA     BIT       TMR4CN0_TF4L
      000000E8H.4 SFRSYM    DATA     BIT       ADC0CN0_ADBUSY
      000000D6H   SFRSYM    DATA     BYTE      SMB0ADM
      000000C5H   SFRSYM    DATA     BYTE      ADC0LTL
      000000F8H.5 SFRSYM    DATA     BIT       SPI0CN0_MODF
      000000B8H.6 SFRSYM    DATA     BIT       IP_PSPI0
      0000009CH   SFRSYM    DATA     BYTE      PCA0CLR
      000000C8H   SFRSYM    DATA     BYTE      TMR2CN0
      00000091H   SFRSYM    DATA     BYTE      TMR3CN0
      000000FDH   SFRSYM    DATA     BYTE      TMR2CN1
      00000098H   SFRSYM    DATA     BYTE      TMR4CN0
      000000FEH   SFRSYM    DATA     BYTE      TMR3CN1
      000000FFH   SFRSYM    DATA     BYTE      TMR4CN1
      000000D7H   SFRSYM    DATA     BYTE      SMB0ADR
      00000088H.4 SFRSYM    DATA     BIT       TCON_TR0
      000000C8H.4 SFRSYM    DATA     BIT       TMR2CN0_TF2CEN
      00000088H.6 SFRSYM    DATA     BIT       TCON_TR1
      000000C2H   SFRSYM    DATA     BYTE      SMB0DAT
      000000CDH   SFRSYM    DATA     BYTE      TMR2H
      000000A1H   SFRSYM    DATA     BYTE      SPI0CFG
      00000095H   SFRSYM    DATA     BYTE      TMR3H
      000000EFH   SFRSYM    DATA     BYTE      HFOCN
      000000D3H   SFRSYM    DATA     BYTE      CRC0CNT
      000000A5H   SFRSYM    DATA     BYTE      TMR4H
      00000098H.4 SFRSYM    DATA     BIT       TMR4CN0_TF4CEN
      000000EFH   SFRSYM    DATA     BYTE      SMB0FCT
      00000096H   SFRSYM    DATA     BYTE      PCA0POL
      000000CCH   SFRSYM    DATA     BYTE      TMR2L
      000000F8H.7 SFRSYM    DATA     BIT       SPI0CN0_SPIF
      00000094H   SFRSYM    DATA     BYTE      TMR3L
      000000DFH   SFRSYM    DATA     BYTE      ADC0PWR
      000000A8H.7 SFRSYM    DATA     BIT       IE_EA
      000000A4H   SFRSYM    DATA     BYTE      TMR4L
      000000C8H.5 SFRSYM    DATA     BIT       TMR2CN0_TF2LEN
      000000F8H.6 SFRSYM    DATA     BIT       SPI0CN0_WCOL
      000000F8H.2 SFRSYM    DATA     BIT       SPI0CN0_NSSMD0
      000000D0H.7 SFRSYM    DATA     BIT       PSW_CY
      0000009DH   SFRSYM    DATA     BYTE      UART1FCN0
      000000A3H   SFRSYM    DATA     BYTE      SPI0DAT
      000000ADH   SFRSYM    DATA     BYTE      I2C0FCN0
      000000F8H.3 SFRSYM    DATA     BIT       SPI0CN0_NSSMD1
      000000BDH   SFRSYM    DATA     WORD      ADC0
      000000D8H   SFRSYM    DATA     BYTE      UART1FCN1
      000000ABH   SFRSYM    DATA     BYTE      I2C0FCN1
      00000098H.5 SFRSYM    DATA     BIT       TMR4CN0_TF4LEN
      000000D0H   SFRSYM    DATA     BYTE      PSW
      000000F7H   SFRSYM    DATA     BYTE      PCA0PWM
      000000F7H   SFRSYM    DATA     BYTE      SPI0FCT
      000000B6H   SFRSYM    DATA     BYTE      REVID
LX51 LINKER/LOCATER V4.66.97.0                                                        09/02/2020  13:20:23  PAGE 35


      000000B7H   SFRSYM    DATA     BYTE      FLKEY
      000000B3H   SFRSYM    DATA     BYTE      ADC0AC

      010036BAH   BLOCK     CODE     ---       LVL=0
      00000007H   SYMBOL    DATA     BYTE      VhCcfg
      010036BAH   LINE      CODE     ---       #25
      010036BAH   LINE      CODE     ---       #26
      010036BAH   LINE      CODE     ---       #27
      010036CCH   LINE      CODE     ---       #28
      010036CCH   LINE      CODE     ---       #29
      010036CCH   LINE      CODE     ---       #30
      010036D1H   LINE      CODE     ---       #31
      010036D1H   LINE      CODE     ---       #32
      010036D1H   LINE      CODE     ---       #33
      010036D1H   LINE      CODE     ---       #34
      010036D1H   LINE      CODE     ---       #35
      010036D1H   LINE      CODE     ---       #36
      010036D1H   LINE      CODE     ---       #37
      010036D3H   LINE      CODE     ---       #38
      010036D3H   LINE      CODE     ---       #39
      010036D8H   LINE      CODE     ---       #40
      010036D8H   LINE      CODE     ---       #41
      010036D8H   LINE      CODE     ---       #42
      010036D8H   LINE      CODE     ---       #43
      010036D8H   LINE      CODE     ---       #44
      010036D8H   LINE      CODE     ---       #45
      010036D8H   LINE      CODE     ---       #46
      010036DAH   LINE      CODE     ---       #47
      010036DAH   LINE      CODE     ---       #48
      010036DFH   LINE      CODE     ---       #49
      010036DFH   LINE      CODE     ---       #50
      010036DFH   LINE      CODE     ---       #51
      010036DFH   LINE      CODE     ---       #52
      010036DFH   LINE      CODE     ---       #53
      010036DFH   LINE      CODE     ---       #54
      010036DFH   LINE      CODE     ---       #55
      010036E1H   LINE      CODE     ---       #56
      010036E1H   LINE      CODE     ---       #57
      010036E7H   LINE      CODE     ---       #58
      010036EDH   LINE      CODE     ---       #59
      010036F1H   LINE      CODE     ---       #60
      010036F3H   LINE      CODE     ---       #61
      010036F7H   LINE      CODE     ---       #62
      010036F8H   LINE      CODE     ---       #63
      010036F8H   LINE      CODE     ---       #64
      010036FAH   LINE      CODE     ---       #65
      010036FAH   LINE      CODE     ---       #66
      01003700H   LINE      CODE     ---       #67
      01003706H   LINE      CODE     ---       #68
      0100370AH   LINE      CODE     ---       #69
      0100370CH   LINE      CODE     ---       #70
      01003710H   LINE      CODE     ---       #71
      01003714H   LINE      CODE     ---       #72
      01003716H   LINE      CODE     ---       #73
      01003716H   LINE      CODE     ---       #74
      01003716H   LINE      CODE     ---       #76
      01003716H   LINE      CODE     ---       #78
      ---         BLOCKEND  ---      ---       LVL=0

      01002870H   BLOCK     CODE     ---       LVL=0
      01002870H   BLOCK     CODE     NEAR LAB  LVL=1
      02000388H   SYMBOL    XDATA    BYTE      mode_temp
LX51 LINKER/LOCATER V4.66.97.0                                                        09/02/2020  13:20:23  PAGE 36


      ---         BLOCKEND  ---      ---       LVL=1
      01002870H   LINE      CODE     ---       #80
      01002870H   LINE      CODE     ---       #81
      01002870H   LINE      CODE     ---       #83
      01002875H   LINE      CODE     ---       #84
      0100287DH   LINE      CODE     ---       #86
      01002882H   LINE      CODE     ---       #88
      01002889H   LINE      CODE     ---       #89
      01002896H   LINE      CODE     ---       #90
      01002896H   LINE      CODE     ---       #91
      0100289FH   LINE      CODE     ---       #92
      0100289FH   LINE      CODE     ---       #93
      010028A1H   LINE      CODE     ---       #94
      010028AFH   LINE      CODE     ---       #95
      010028BFH   LINE      CODE     ---       #96
      010028BFH   LINE      CODE     ---       #97
      010028C2H   LINE      CODE     ---       #98
      010028C2H   LINE      CODE     ---       #99
      010028CAH   LINE      CODE     ---       #100
      010028CAH   LINE      CODE     ---       #101
      010028D4H   LINE      CODE     ---       #102
      010028D4H   LINE      CODE     ---       #103
      010028DAH   LINE      CODE     ---       #104
      010028DCH   LINE      CODE     ---       #105
      010028E6H   LINE      CODE     ---       #106
      010028E6H   LINE      CODE     ---       #107
      010028ECH   LINE      CODE     ---       #108
      010028EEH   LINE      CODE     ---       #109
      010028F8H   LINE      CODE     ---       #110
      010028F8H   LINE      CODE     ---       #111
      010028FEH   LINE      CODE     ---       #112
      01002900H   LINE      CODE     ---       #113
      0100290AH   LINE      CODE     ---       #114
      0100290AH   LINE      CODE     ---       #115
      01002910H   LINE      CODE     ---       #116
      01002912H   LINE      CODE     ---       #117
      0100291CH   LINE      CODE     ---       #118
      0100291CH   LINE      CODE     ---       #119
      01002922H   LINE      CODE     ---       #120
      01002922H   LINE      CODE     ---       #121
      0100292AH   LINE      CODE     ---       #122
      0100292FH   LINE      CODE     ---       #123
      01002936H   LINE      CODE     ---       #124
      01002938H   LINE      CODE     ---       #125
      01002938H   LINE      CODE     ---       #126
      01002938H   LINE      CODE     ---       #127
      0100293BH   LINE      CODE     ---       #128
      0100293EH   LINE      CODE     ---       #130
      01002948H   LINE      CODE     ---       #131
      01002948H   LINE      CODE     ---       #132
      01002950H   LINE      CODE     ---       #133
      01002959H   LINE      CODE     ---       #134
      0100296EH   LINE      CODE     ---       #135
      0100296EH   LINE      CODE     ---       #136
      01002974H   LINE      CODE     ---       #137
      01002974H   LINE      CODE     ---       #138
      0100297CH   LINE      CODE     ---       #139
      0100297CH   LINE      CODE     ---       #140
      ---         BLOCKEND  ---      ---       LVL=0

      0100009EH   BLOCK     CODE     ---       LVL=0
      0100009EH   BLOCK     CODE     NEAR LAB  LVL=1
LX51 LINKER/LOCATER V4.66.97.0                                                        09/02/2020  13:20:23  PAGE 37


      02000388H   SYMBOL    XDATA    BYTE      i
      00000007H   SYMBOL    DATA     BYTE      self_temp
      02000389H   SYMBOL    XDATA    BYTE      cnt
      ---         BLOCKEND  ---      ---       LVL=1
      0100009EH   LINE      CODE     ---       #145
      0100009EH   LINE      CODE     ---       #146
      0100009EH   LINE      CODE     ---       #149
      010000A6H   LINE      CODE     ---       #150
      010000A6H   LINE      CODE     ---       #151
      010000ACH   LINE      CODE     ---       #153
      010000ACH   LINE      CODE     ---       #155
      010000E6H   LINE      CODE     ---       #156
      010000E6H   LINE      CODE     ---       #157
      010000E6H   LINE      CODE     ---       #158
      010000E6H   LINE      CODE     ---       #159
      010000FDH   LINE      CODE     ---       #160
      01000106H   LINE      CODE     ---       #161
      0100010CH   LINE      CODE     ---       #162
      0100010DH   LINE      CODE     ---       #163
      0100010DH   LINE      CODE     ---       #164
      0100010DH   LINE      CODE     ---       #165
      0100010DH   LINE      CODE     ---       #166
      0100011CH   LINE      CODE     ---       #167
      0100011CH   LINE      CODE     ---       #168
      01000127H   LINE      CODE     ---       #169
      01000127H   LINE      CODE     ---       #170
      01000132H   LINE      CODE     ---       #171
      01000132H   LINE      CODE     ---       #172
      01000133H   LINE      CODE     ---       #173
      01000143H   LINE      CODE     ---       #174
      0100014DH   LINE      CODE     ---       #175
      0100014DH   LINE      CODE     ---       #176
      01000150H   LINE      CODE     ---       #177
      01000153H   LINE      CODE     ---       #178
      01000153H   LINE      CODE     ---       #179
      01000153H   LINE      CODE     ---       #180
      01000153H   LINE      CODE     ---       #181
      01000153H   LINE      CODE     ---       #182
      01000156H   LINE      CODE     ---       #184
      01000156H   LINE      CODE     ---       #185
      0100015BH   LINE      CODE     ---       #186
      01000177H   LINE      CODE     ---       #187
      01000177H   LINE      CODE     ---       #188
      01000187H   LINE      CODE     ---       #189
      01000194H   LINE      CODE     ---       #190
      01000197H   LINE      CODE     ---       #191
      01000197H   LINE      CODE     ---       #192
      01000197H   LINE      CODE     ---       #194
      01000197H   LINE      CODE     ---       #195
      01000197H   LINE      CODE     ---       #197
      01000197H   LINE      CODE     ---       #198
      01000197H   LINE      CODE     ---       #199
      01000199H   LINE      CODE     ---       #200
      010001AEH   LINE      CODE     ---       #201
      010001AEH   LINE      CODE     ---       #202
      010001BFH   LINE      CODE     ---       #203
      010001BFH   LINE      CODE     ---       #204
      010001CAH   LINE      CODE     ---       #205
      010001CAH   LINE      CODE     ---       #206
      010001DDH   LINE      CODE     ---       #207
      010001DDH   LINE      CODE     ---       #208
      010001EEH   LINE      CODE     ---       #209
LX51 LINKER/LOCATER V4.66.97.0                                                        09/02/2020  13:20:23  PAGE 38


      010001EEH   LINE      CODE     ---       #210
      010001F0H   LINE      CODE     ---       #212
      01000203H   LINE      CODE     ---       #213
      01000203H   LINE      CODE     ---       #214
      01000214H   LINE      CODE     ---       #215
      01000214H   LINE      CODE     ---       #216
      01000214H   LINE      CODE     ---       #217
      01000214H   LINE      CODE     ---       #218
      0100021CH   LINE      CODE     ---       #221
      01000224H   LINE      CODE     ---       #223
      0100022AH   LINE      CODE     ---       #224
      010002A0H   LINE      CODE     ---       #230
      010002A0H   LINE      CODE     ---       #231
      010002A6H   LINE      CODE     ---       #232
      010002A6H   LINE      CODE     ---       #233
      010002ABH   LINE      CODE     ---       #234
      010002BDH   LINE      CODE     ---       #235
      010002BDH   LINE      CODE     ---       #236
      010002C0H   LINE      CODE     ---       #237
      010002C7H   LINE      CODE     ---       #238
      010002CFH   LINE      CODE     ---       #239
      010002D5H   LINE      CODE     ---       #240
      010002DAH   LINE      CODE     ---       #241
      010002DFH   LINE      CODE     ---       #242
      010002DFH   LINE      CODE     ---       #243
      010002DFH   LINE      CODE     ---       #245
      010002DFH   LINE      CODE     ---       #246
      010002DFH   LINE      CODE     ---       #247
      010002E6H   LINE      CODE     ---       #248
      010002FDH   LINE      CODE     ---       #249
      01000306H   LINE      CODE     ---       #250
      0100030CH   LINE      CODE     ---       #251
      0100030DH   LINE      CODE     ---       #252
      0100030DH   LINE      CODE     ---       #254
      0100030DH   LINE      CODE     ---       #255
      0100030DH   LINE      CODE     ---       #256
      0100031CH   LINE      CODE     ---       #257
      0100031CH   LINE      CODE     ---       #258
      01000324H   LINE      CODE     ---       #259
      01000324H   LINE      CODE     ---       #260
      0100032CH   LINE      CODE     ---       #261
      0100032CH   LINE      CODE     ---       #262
      0100032DH   LINE      CODE     ---       #263
      0100033CH   LINE      CODE     ---       #264
      0100033CH   LINE      CODE     ---       #265
      01000348H   LINE      CODE     ---       #266
      0100034BH   LINE      CODE     ---       #267
      01000384H   LINE      CODE     ---       #268
      0100038AH   LINE      CODE     ---       #269
      0100038AH   LINE      CODE     ---       #270
      0100038AH   LINE      CODE     ---       #271
      0100038AH   LINE      CODE     ---       #272
      0100038AH   LINE      CODE     ---       #273
      0100038DH   LINE      CODE     ---       #275
      0100038DH   LINE      CODE     ---       #276
      010003C6H   LINE      CODE     ---       #277
      010003DFH   LINE      CODE     ---       #278
      010003DFH   LINE      CODE     ---       #279
      010003F0H   LINE      CODE     ---       #280
      010003FDH   LINE      CODE     ---       #281
      0100040AH   LINE      CODE     ---       #282
      0100040AH   LINE      CODE     ---       #283
LX51 LINKER/LOCATER V4.66.97.0                                                        09/02/2020  13:20:23  PAGE 39


      01000410H   LINE      CODE     ---       #284
      01000410H   LINE      CODE     ---       #285
      01000411H   LINE      CODE     ---       #286
      01000411H   LINE      CODE     ---       #288
      01000411H   LINE      CODE     ---       #289
      01000411H   LINE      CODE     ---       #290
      01000420H   LINE      CODE     ---       #291
      01000420H   LINE      CODE     ---       #292
      01000423H   LINE      CODE     ---       #293
      01000428H   LINE      CODE     ---       #294
      0100042BH   LINE      CODE     ---       #295
      0100042EH   LINE      CODE     ---       #296
      01000437H   LINE      CODE     ---       #297
      01000438H   LINE      CODE     ---       #298
      01000447H   LINE      CODE     ---       #299
      01000447H   LINE      CODE     ---       #307
      0100044FH   LINE      CODE     ---       #308
      0100044FH   LINE      CODE     ---       #309
      01000455H   LINE      CODE     ---       #310
      0100045EH   LINE      CODE     ---       #311
      0100045EH   LINE      CODE     ---       #312
      0100045EH   LINE      CODE     ---       #313
      01000461H   LINE      CODE     ---       #315
      01000461H   LINE      CODE     ---       #316
      01000470H   LINE      CODE     ---       #317
      01000470H   LINE      CODE     ---       #318
      01000473H   LINE      CODE     ---       #319
      01000476H   LINE      CODE     ---       #320
      01000479H   LINE      CODE     ---       #321
      0100047EH   LINE      CODE     ---       #322
      0100047EH   LINE      CODE     ---       #323
      01000484H   LINE      CODE     ---       #324
      0100048DH   LINE      CODE     ---       #325
      0100048DH   LINE      CODE     ---       #326
      0100048EH   LINE      CODE     ---       #327
      0100048EH   LINE      CODE     ---       #329
      0100048EH   LINE      CODE     ---       #330
      0100048EH   LINE      CODE     ---       #337
      0100049DH   LINE      CODE     ---       #338
      0100049DH   LINE      CODE     ---       #339
      010004A5H   LINE      CODE     ---       #340
      010004A5H   LINE      CODE     ---       #341
      010004A8H   LINE      CODE     ---       #342
      010004AEH   LINE      CODE     ---       #343
      010004AEH   LINE      CODE     ---       #344
      010004AEH   LINE      CODE     ---       #345
      010004B1H   LINE      CODE     ---       #347
      010004B1H   LINE      CODE     ---       #348
      010004B4H   LINE      CODE     ---       #349
      010004C6H   LINE      CODE     ---       #350
      010004C6H   LINE      CODE     ---       #351
      010004C9H   LINE      CODE     ---       #352
      010004CCH   LINE      CODE     ---       #353
      010004CFH   LINE      CODE     ---       #354
      010004D4H   LINE      CODE     ---       #355
      010004DAH   LINE      CODE     ---       #356
      010004DAH   LINE      CODE     ---       #357
      010004DAH   LINE      CODE     ---       #358
      010004DBH   LINE      CODE     ---       #359
      010004DBH   LINE      CODE     ---       #361
      010004DBH   LINE      CODE     ---       #362
      010004DBH   LINE      CODE     ---       #369
LX51 LINKER/LOCATER V4.66.97.0                                                        09/02/2020  13:20:23  PAGE 40


      010004DEH   LINE      CODE     ---       #371
      010004DEH   LINE      CODE     ---       #372
      010004DEH   LINE      CODE     ---       #374
      010004DEH   LINE      CODE     ---       #375
      010004DEH   LINE      CODE     ---       #376
      010004E6H   LINE      CODE     ---       #377
      010004E6H   LINE      CODE     ---       #378
      010004EEH   LINE      CODE     ---       #379
      010004EEH   LINE      CODE     ---       #380
      010004EFH   LINE      CODE     ---       #381
      010004FEH   LINE      CODE     ---       #382
      010004FEH   LINE      CODE     ---       #383
      01000506H   LINE      CODE     ---       #384
      0100050CH   LINE      CODE     ---       #385
      01000511H   LINE      CODE     ---       #386
      01000517H   LINE      CODE     ---       #387
      01000517H   LINE      CODE     ---       #388
      01000517H   LINE      CODE     ---       #389
      01000517H   LINE      CODE     ---       #391
      0100051FH   LINE      CODE     ---       #392
      0100051FH   LINE      CODE     ---       #393
      01000527H   LINE      CODE     ---       #394
      01000527H   LINE      CODE     ---       #395
      01000528H   LINE      CODE     ---       #396
      0100052DH   LINE      CODE     ---       #397
      01000533H   LINE      CODE     ---       #398
      01000533H   LINE      CODE     ---       #399
      01000533H   LINE      CODE     ---       #401
      0100053EH   LINE      CODE     ---       #402
      0100053EH   LINE      CODE     ---       #403
      01000549H   LINE      CODE     ---       #404
      01000549H   LINE      CODE     ---       #405
      0100054AH   LINE      CODE     ---       #406
      0100055EH   LINE      CODE     ---       #407
      0100055EH   LINE      CODE     ---       #408
      01000566H   LINE      CODE     ---       #409
      0100056BH   LINE      CODE     ---       #410
      01000570H   LINE      CODE     ---       #411
      01000576H   LINE      CODE     ---       #412
      01000576H   LINE      CODE     ---       #413
      01000576H   LINE      CODE     ---       #414
      01000576H   LINE      CODE     ---       #416
      01000577H   LINE      CODE     ---       #417
      01000577H   LINE      CODE     ---       #419
      01000577H   LINE      CODE     ---       #420
      01000577H   LINE      CODE     ---       #431
      0100059FH   LINE      CODE     ---       #432
      010005BBH   LINE      CODE     ---       #433
      010005C0H   LINE      CODE     ---       #434
      010005C6H   LINE      CODE     ---       #435
      010005C7H   LINE      CODE     ---       #436
      010005C7H   LINE      CODE     ---       #438
      010005C7H   LINE      CODE     ---       #439
      010005C7H   LINE      CODE     ---       #440
      010005D2H   LINE      CODE     ---       #441
      010005D2H   LINE      CODE     ---       #442
      010005DDH   LINE      CODE     ---       #443
      010005DDH   LINE      CODE     ---       #444
      010005DEH   LINE      CODE     ---       #445
      010005E9H   LINE      CODE     ---       #446
      010005EFH   LINE      CODE     ---       #447
      010005F4H   LINE      CODE     ---       #448
LX51 LINKER/LOCATER V4.66.97.0                                                        09/02/2020  13:20:23  PAGE 41


      010005FAH   LINE      CODE     ---       #449
      010005FAH   LINE      CODE     ---       #450
      010005FAH   LINE      CODE     ---       #451
      010005FBH   LINE      CODE     ---       #452
      010005FBH   LINE      CODE     ---       #454
      010005FBH   LINE      CODE     ---       #455
      010005FBH   LINE      CODE     ---       #456
      01000616H   LINE      CODE     ---       #457
      01000616H   LINE      CODE     ---       #458
      0100061BH   LINE      CODE     ---       #459
      01000630H   LINE      CODE     ---       #460
      0100063DH   LINE      CODE     ---       #461
      01000648H   LINE      CODE     ---       #462
      01000648H   LINE      CODE     ---       #463
      01000652H   LINE      CODE     ---       #464
      01000652H   LINE      CODE     ---       #465
      0100065FH   LINE      CODE     ---       #466
      01000661H   LINE      CODE     ---       #467
      01000661H   LINE      CODE     ---       #468
      01000668H   LINE      CODE     ---       #469
      01000668H   LINE      CODE     ---       #470
      01000689H   LINE      CODE     ---       #471
      0100068EH   LINE      CODE     ---       #472
      01000694H   LINE      CODE     ---       #473
      01000695H   LINE      CODE     ---       #474
      01000695H   LINE      CODE     ---       #476
      01000695H   LINE      CODE     ---       #477
      01000695H   LINE      CODE     ---       #484
      010006A4H   LINE      CODE     ---       #485
      010006A4H   LINE      CODE     ---       #486
      010006ACH   LINE      CODE     ---       #487
      010006ACH   LINE      CODE     ---       #488
      010006B2H   LINE      CODE     ---       #489
      010006BAH   LINE      CODE     ---       #490
      010006BAH   LINE      CODE     ---       #491
      010006C8H   LINE      CODE     ---       #492
      010006C9H   LINE      CODE     ---       #494
      010006C9H   LINE      CODE     ---       #495
      010006CCH   LINE      CODE     ---       #496
      010006CFH   LINE      CODE     ---       #497
      010006D4H   LINE      CODE     ---       #498
      010006D7H   LINE      CODE     ---       #499
      010006E0H   LINE      CODE     ---       #500
      010006E0H   LINE      CODE     ---       #501
      010006E0H   LINE      CODE     ---       #502
      010006E0H   LINE      CODE     ---       #505
      010006E0H   LINE      CODE     ---       #507
      010006E0H   LINE      CODE     ---       #512
      ---         BLOCKEND  ---      ---       LVL=0

      01003526H   BLOCK     CODE     ---       LVL=0
      01003526H   LINE      CODE     ---       #514
      01003526H   LINE      CODE     ---       #515
      01003526H   LINE      CODE     ---       #516
      0100352FH   LINE      CODE     ---       #517
      0100352FH   LINE      CODE     ---       #518
      01003540H   LINE      CODE     ---       #519
      01003540H   LINE      CODE     ---       #521
      0100354CH   LINE      CODE     ---       #522
      01003565H   LINE      CODE     ---       #523
      01003567H   LINE      CODE     ---       #525
      01003567H   LINE      CODE     ---       #526
LX51 LINKER/LOCATER V4.66.97.0                                                        09/02/2020  13:20:23  PAGE 42


      01003577H   LINE      CODE     ---       #527
      01003584H   LINE      CODE     ---       #528
      01003584H   LINE      CODE     ---       #529
      01003584H   LINE      CODE     ---       #530
      0100358BH   LINE      CODE     ---       #531
      ---         BLOCKEND  ---      ---       LVL=0

      01001B6FH   BLOCK     CODE     ---       LVL=0
      01001B6FH   LINE      CODE     ---       #533
      01001B6FH   LINE      CODE     ---       #534
      01001B6FH   LINE      CODE     ---       #535
      01001B72H   LINE      CODE     ---       #537
      01001B9DH   LINE      CODE     ---       #538
      01001BBBH   LINE      CODE     ---       #539
      01001BE6H   LINE      CODE     ---       #540
      01001C04H   LINE      CODE     ---       #541
      01001C2FH   LINE      CODE     ---       #542
      01001C4DH   LINE      CODE     ---       #544
      01001C77H   LINE      CODE     ---       #545
      01001CA1H   LINE      CODE     ---       #546
      01001CC5H   LINE      CODE     ---       #547
      01001CE3H   LINE      CODE     ---       #548
      01001D0DH   LINE      CODE     ---       #549
      01001D38H   LINE      CODE     ---       #550
      01001D42H   LINE      CODE     ---       #552
      01001D54H   LINE      CODE     ---       #553
      ---         BLOCKEND  ---      ---       LVL=0

      010024EAH   BLOCK     CODE     ---       LVL=0
      010024EAH   BLOCK     CODE     NEAR LAB  LVL=1
      00000002H   SYMBOL    DATA     BYTE      i
      00000003H   SYMBOL    DATA     BYTE      NearestDis
      ---         BLOCKEND  ---      ---       LVL=1
      010024EAH   LINE      CODE     ---       #555
      010024EAH   LINE      CODE     ---       #556
      010024EAH   LINE      CODE     ---       #559
      010024ECH   LINE      CODE     ---       #561
      010024FBH   LINE      CODE     ---       #562
      010024FBH   LINE      CODE     ---       #563
      01002516H   LINE      CODE     ---       #564
      01002516H   LINE      CODE     ---       #565
      01002523H   LINE      CODE     ---       #566
      01002523H   LINE      CODE     ---       #567
      01002534H   LINE      CODE     ---       #568
      01002534H   LINE      CODE     ---       #569
      01002536H   LINE      CODE     ---       #570
      01002536H   LINE      CODE     ---       #572
      01002549H   LINE      CODE     ---       #574
      01002549H   LINE      CODE     ---       #575
      01002556H   LINE      CODE     ---       #576
      01002558H   LINE      CODE     ---       #577
      0100256FH   LINE      CODE     ---       #578
      0100256FH   LINE      CODE     ---       #579
      0100258AH   LINE      CODE     ---       #580
      0100258CH   LINE      CODE     ---       #581
      0100259BH   LINE      CODE     ---       #582
      0100259BH   LINE      CODE     ---       #583
      010025A8H   LINE      CODE     ---       #584
      010025AAH   LINE      CODE     ---       #586
      010025AAH   LINE      CODE     ---       #587
      010025B6H   LINE      CODE     ---       #588
      010025B6H   LINE      CODE     ---       #590
LX51 LINKER/LOCATER V4.66.97.0                                                        09/02/2020  13:20:23  PAGE 43


      010025C3H   LINE      CODE     ---       #591
      010025C3H   LINE      CODE     ---       #592
      010025CFH   LINE      CODE     ---       #593
      010025D1H   LINE      CODE     ---       #595
      010025D1H   LINE      CODE     ---       #596
      010025DEH   LINE      CODE     ---       #597
      010025DEH   LINE      CODE     ---       #599
      010025E2H   LINE      CODE     ---       #601
      010025EFH   LINE      CODE     ---       #602
      010025EFH   LINE      CODE     ---       #603
      010025F4H   LINE      CODE     ---       #604
      010025F5H   LINE      CODE     ---       #605
      01002600H   LINE      CODE     ---       #606
      01002600H   LINE      CODE     ---       #607
      01002606H   LINE      CODE     ---       #608
      01002607H   LINE      CODE     ---       #609
      01002612H   LINE      CODE     ---       #610
      01002612H   LINE      CODE     ---       #611
      01002618H   LINE      CODE     ---       #612
      01002619H   LINE      CODE     ---       #613
      01002621H   LINE      CODE     ---       #614
      01002621H   LINE      CODE     ---       #615
      01002627H   LINE      CODE     ---       #616
      01002627H   LINE      CODE     ---       #617
      ---         BLOCKEND  ---      ---       LVL=0

      010038C5H   BLOCK     CODE     ---       LVL=0
      010038C5H   LINE      CODE     ---       #619
      010038C5H   LINE      CODE     ---       #620
      010038C5H   LINE      CODE     ---       #621
      010038CAH   LINE      CODE     ---       #623
      010038D7H   LINE      CODE     ---       #624
      010038D7H   LINE      CODE     ---       #625
      010038DAH   LINE      CODE     ---       #626
      010038E2H   LINE      CODE     ---       #628
      010038F8H   LINE      CODE     ---       #629
      010038F8H   LINE      CODE     ---       #630
      010038F8H   LINE      CODE     ---       #631
      010038F8H   LINE      CODE     ---       #632
      010038F8H   LINE      CODE     ---       #634
      01003905H   LINE      CODE     ---       #635
      01003905H   LINE      CODE     ---       #636
      01003907H   LINE      CODE     ---       #637
      0100390DH   LINE      CODE     ---       #638
      0100390DH   LINE      CODE     ---       #639
      ---         BLOCKEND  ---      ---       LVL=0

      01003453H   BLOCK     CODE     ---       LVL=0
      01003453H   BLOCK     CODE     NEAR LAB  LVL=1
      02000288H   SYMBOL    XDATA    BYTE      SendToBcmFlag
      ---         BLOCKEND  ---      ---       LVL=1
      01003453H   LINE      CODE     ---       #641
      01003453H   LINE      CODE     ---       #642
      01003453H   LINE      CODE     ---       #654
      01003465H   LINE      CODE     ---       #657
      01003465H   LINE      CODE     ---       #658
      0100346BH   LINE      CODE     ---       #659
      01003474H   LINE      CODE     ---       #660
      01003479H   LINE      CODE     ---       #661
      0100347FH   LINE      CODE     ---       #662
      01003480H   LINE      CODE     ---       #664
      01003480H   LINE      CODE     ---       #665
LX51 LINKER/LOCATER V4.66.97.0                                                        09/02/2020  13:20:23  PAGE 44


      01003485H   LINE      CODE     ---       #666
      01003496H   LINE      CODE     ---       #667
      010034A6H   LINE      CODE     ---       #668
      010034A6H   LINE      CODE     ---       #669
      010034ABH   LINE      CODE     ---       #670
      010034ABH   LINE      CODE     ---       #671
      010034B0H   LINE      CODE     ---       #672
      010034B1H   LINE      CODE     ---       #673
      010034B1H   LINE      CODE     ---       #674
      010034B6H   LINE      CODE     ---       #675
      010034BCH   LINE      CODE     ---       #676
      010034BCH   LINE      CODE     ---       #677
      010034BCH   LINE      CODE     ---       #678
      010034BCH   LINE      CODE     ---       #679
      ---         BLOCKEND  ---      ---       LVL=0
      00000007H   SYMBOL    DATA     BYTE      i

      0100390EH   BLOCK     CODE     ---       LVL=0
      0100390EH   BLOCK     CODE     NEAR LAB  LVL=1
      02000389H   SYMBOL    XDATA    BYTE      i
      ---         BLOCKEND  ---      ---       LVL=1
      0100390EH   LINE      CODE     ---       #690
      0100390EH   LINE      CODE     ---       #691
      0100390EH   LINE      CODE     ---       #694
      01003911H   LINE      CODE     ---       #695
      01003914H   LINE      CODE     ---       #696
      0100391BH   LINE      CODE     ---       #698
      0100392EH   LINE      CODE     ---       #699
      0100392EH   LINE      CODE     ---       #700
      01003942H   LINE      CODE     ---       #701
      0100394AH   LINE      CODE     ---       #702
      01003951H   LINE      CODE     ---       #703
      01003954H   LINE      CODE     ---       #704
      ---         BLOCKEND  ---      ---       LVL=0

      01002F48H   BLOCK     CODE     ---       LVL=0
      01002F48H   BLOCK     CODE     NEAR LAB  LVL=1
      0200038AH   SYMBOL    XDATA    BYTE      i
      0200038BH   SYMBOL    XDATA    BYTE      eve_temp
      00000006H   SYMBOL    DATA     WORD      checksum_temp
      ---         BLOCKEND  ---      ---       LVL=1
      01002F48H   LINE      CODE     ---       #707
      01002F48H   LINE      CODE     ---       #708
      01002F48H   LINE      CODE     ---       #713
      01002F4FH   LINE      CODE     ---       #714
      01002F57H   LINE      CODE     ---       #715
      01002F6AH   LINE      CODE     ---       #716
      01002F6AH   LINE      CODE     ---       #717
      01002F82H   LINE      CODE     ---       #718
      01002FAEH   LINE      CODE     ---       #719
      01002FB6H   LINE      CODE     ---       #721
      01002FB9H   LINE      CODE     ---       #722
      01002FBCH   LINE      CODE     ---       #723
      01002FC3H   LINE      CODE     ---       #725
      01002FD6H   LINE      CODE     ---       #726
      01002FD6H   LINE      CODE     ---       #727
      01002FEAH   LINE      CODE     ---       #728
      01002FF2H   LINE      CODE     ---       #730
      01002FF9H   LINE      CODE     ---       #731
      ---         BLOCKEND  ---      ---       LVL=0

      01002CFEH   BLOCK     CODE     ---       LVL=0
LX51 LINKER/LOCATER V4.66.97.0                                                        09/02/2020  13:20:23  PAGE 45


      01002CFEH   BLOCK     CODE     NEAR LAB  LVL=1
      0200038AH   SYMBOL    XDATA    BYTE      i
      0200038BH   SYMBOL    XDATA    BYTE      eve_temp
      00000006H   SYMBOL    DATA     WORD      checksum_temp
      ---         BLOCKEND  ---      ---       LVL=1
      01002CFEH   LINE      CODE     ---       #734
      01002CFEH   LINE      CODE     ---       #735
      01002CFEH   LINE      CODE     ---       #739
      01002D05H   LINE      CODE     ---       #740
      01002D0DH   LINE      CODE     ---       #741
      01002D1FH   LINE      CODE     ---       #742
      01002D1FH   LINE      CODE     ---       #743
      01002D2FH   LINE      CODE     ---       #744
      01002D47H   LINE      CODE     ---       #745
      01002D73H   LINE      CODE     ---       #746
      01002D7BH   LINE      CODE     ---       #748
      01002D80H   LINE      CODE     ---       #749
      01002D83H   LINE      CODE     ---       #750
      01002D86H   LINE      CODE     ---       #752
      01002D8DH   LINE      CODE     ---       #753
      01002DA0H   LINE      CODE     ---       #754
      01002DA0H   LINE      CODE     ---       #755
      01002DB4H   LINE      CODE     ---       #756
      01002DBCH   LINE      CODE     ---       #757
      01002DC3H   LINE      CODE     ---       #758
      01002DC6H   LINE      CODE     ---       #759
      ---         BLOCKEND  ---      ---       LVL=0

      01002628H   BLOCK     CODE     ---       LVL=0
      01002628H   LINE      CODE     ---       #772
      01002628H   LINE      CODE     ---       #773
      01002628H   LINE      CODE     ---       #778
      01002633H   LINE      CODE     ---       #779
      01002633H   LINE      CODE     ---       #780
      01002637H   LINE      CODE     ---       #781
      0100263BH   LINE      CODE     ---       #783
      01002642H   LINE      CODE     ---       #784
      01002642H   LINE      CODE     ---       #785
      01002651H   LINE      CODE     ---       #786
      01002662H   LINE      CODE     ---       #787
      01002673H   LINE      CODE     ---       #788
      01002685H   LINE      CODE     ---       #789
      01002695H   LINE      CODE     ---       #790
      010026A6H   LINE      CODE     ---       #791
      010026A9H   LINE      CODE     ---       #792
      010026A9H   LINE      CODE     ---       #793
      010026B0H   LINE      CODE     ---       #794
      010026B0H   LINE      CODE     ---       #795
      010026B0H   LINE      CODE     ---       #796
      010026B0H   LINE      CODE     ---       #797
      010026B0H   LINE      CODE     ---       #798
      010026B0H   LINE      CODE     ---       #799
      010026B0H   LINE      CODE     ---       #800
      010026B0H   LINE      CODE     ---       #802
      010026B0H   LINE      CODE     ---       #803
      010026B0H   LINE      CODE     ---       #804
      010026B0H   LINE      CODE     ---       #805
      010026B0H   LINE      CODE     ---       #806
      010026B0H   LINE      CODE     ---       #807
      010026B0H   LINE      CODE     ---       #809
      010026B3H   LINE      CODE     ---       #810
      010026CCH   LINE      CODE     ---       #813
LX51 LINKER/LOCATER V4.66.97.0                                                        09/02/2020  13:20:23  PAGE 46


      010026CCH   LINE      CODE     ---       #814
      010026DBH   LINE      CODE     ---       #815
      010026ECH   LINE      CODE     ---       #816
      010026FDH   LINE      CODE     ---       #817
      0100270FH   LINE      CODE     ---       #818
      0100271FH   LINE      CODE     ---       #819
      01002730H   LINE      CODE     ---       #820
      01002733H   LINE      CODE     ---       #822
      01002733H   LINE      CODE     ---       #824
      01002733H   LINE      CODE     ---       #825
      01002738H   LINE      CODE     ---       #826
      0100273AH   LINE      CODE     ---       #827
      0100273CH   LINE      CODE     ---       #828
      0100273EH   LINE      CODE     ---       #829
      01002740H   LINE      CODE     ---       #830
      01002742H   LINE      CODE     ---       #832
      01002748H   LINE      CODE     ---       #833
      0100274AH   LINE      CODE     ---       #834
      0100274CH   LINE      CODE     ---       #835
      0100274EH   LINE      CODE     ---       #836
      01002750H   LINE      CODE     ---       #837
      01002752H   LINE      CODE     ---       #838
      01002752H   LINE      CODE     ---       #839
      01002752H   LINE      CODE     ---       #840
      01002754H   LINE      CODE     ---       #842
      ---         BLOCKEND  ---      ---       LVL=0

      ---         MODULE    ---      ---       CPU
      020003C1H   PUBLIC    XDATA    BYTE      SFRPAGE_TEMP
      01003DC1H   PUBLIC    CODE     ---       Cpu_InitHardwarePort
      01000070H   PUBLIC    CODE     ---       Cpu_DisableInterrupt
      01000056H   PUBLIC    CODE     ---       Cpu_EnableInterrupt
      01003E05H   PUBLIC    CODE     ---       _Cpu_WDG_Init
      01003DE5H   PUBLIC    CODE     ---       Cpu_Clk_Init
      000000A2H   SFRSYM    DATA     BYTE      SPI0CKR
      00000080H   SFRSYM    DATA     BYTE      P0
      000000C8H.6 SFRSYM    DATA     BIT       SCON1_PERR
      000000D0H.2 SFRSYM    DATA     BIT       PSW_OV
      00000090H   SFRSYM    DATA     BYTE      P1
      000000F8H.1 SFRSYM    DATA     BIT       SPI0CN0_TXNF
      00000097H   SFRSYM    DATA     BYTE      WDTCN
      000000A0H   SFRSYM    DATA     BYTE      P2
      000000B0H   SFRSYM    DATA     BYTE      P3
      000000BCH   SFRSYM    DATA     BYTE      ADC0CF
      000000C0H.7 SFRSYM    DATA     BIT       SMB0CN0_MASTER
      000000F9H   SFRSYM    DATA     WORD      PCA0
      000000E6H   SFRSYM    DATA     BYTE      EIE1
      000000C0H.1 SFRSYM    DATA     BIT       SMB0CN0_ACK
      000000CEH   SFRSYM    DATA     BYTE      EIE2
      0000008FH   SFRSYM    DATA     BYTE      PSCTL
      000000E4H   SFRSYM    DATA     BYTE      IT01CF
      000000C0H.6 SFRSYM    DATA     BIT       SMB0CN0_TXMODE
      000000ADH   SFRSYM    DATA     BYTE      DERIVID
      000000A7H   SFRSYM    DATA     BYTE      SFRPAGE
      000000A4H   SFRSYM    DATA     BYTE      P0MDOUT
      000000A5H   SFRSYM    DATA     BYTE      P1MDOUT
      000000E8H.5 SFRSYM    DATA     BIT       ADC0CN0_ADINT
      000000CBH   SFRSYM    DATA     BYTE      TMR2RLH
      000000A6H   SFRSYM    DATA     BYTE      P2MDOUT
      000000A8H   SFRSYM    DATA     BYTE      IE
      00000093H   SFRSYM    DATA     BYTE      TMR3RLH
      0000009CH   SFRSYM    DATA     BYTE      P3MDOUT
LX51 LINKER/LOCATER V4.66.97.0                                                        09/02/2020  13:20:23  PAGE 47


      000000A3H   SFRSYM    DATA     BYTE      TMR4RLH
      000000F3H   SFRSYM    DATA     BYTE      EIP1
      000000F4H   SFRSYM    DATA     BYTE      EIP2
      00000098H.2 SFRSYM    DATA     BIT       SCON0_RB8
      000000CAH   SFRSYM    DATA     BYTE      TMR2RLL
      000000FCH   SFRSYM    DATA     BYTE      PCA0CPH0
      00000092H   SFRSYM    DATA     BYTE      TMR3RLL
      000000EAH   SFRSYM    DATA     BYTE      PCA0CPH1
      00000098H.3 SFRSYM    DATA     BIT       SCON0_TB8
      000000F0H.0 SFRSYM    DATA     BIT       B_B0
      00000082H   SFRSYM    DATA     WORD      DP
      000000A2H   SFRSYM    DATA     BYTE      TMR4RLL
      000000ECH   SFRSYM    DATA     BYTE      PCA0CPH2
      000000F0H.1 SFRSYM    DATA     BIT       B_B1
      000000C3H   SFRSYM    DATA     WORD      ADC0GT
      000000BDH   SFRSYM    DATA     BYTE      I2C0SLAD
      000000D8H.3 SFRSYM    DATA     BIT       UART1FCN1_RFRQ
      000000F0H.2 SFRSYM    DATA     BIT       B_B2
      000000CFH   SFRSYM    DATA     BYTE      SFRPGCN
      000000FBH   SFRSYM    DATA     BYTE      PCA0CPL0
      000000F0H.3 SFRSYM    DATA     BIT       B_B3
      000000D9H   SFRSYM    DATA     BYTE      PCA0MD
      000000DAH   SFRSYM    DATA     BYTE      PCA0CPM0
      000000E9H   SFRSYM    DATA     BYTE      PCA0CPL1
      000000D8H.7 SFRSYM    DATA     BIT       UART1FCN1_TFRQ
      000000F0H.4 SFRSYM    DATA     BIT       B_B4
      000000DBH   SFRSYM    DATA     BYTE      PCA0CPM1
      000000EBH   SFRSYM    DATA     BYTE      PCA0CPL2
      000000F0H.5 SFRSYM    DATA     BIT       B_B5
      000000DCH   SFRSYM    DATA     BYTE      PCA0CPM2
      000000B8H   SFRSYM    DATA     BYTE      IP
      000000B9H   SFRSYM    DATA     BYTE      ADC0TK
      000000F0H.6 SFRSYM    DATA     BIT       B_B6
      000000C5H   SFRSYM    DATA     WORD      ADC0LT
      000000D8H.6 SFRSYM    DATA     BIT       UART1FCN1_TXNF
      00000098H.5 SFRSYM    DATA     BIT       SCON0_MCE
      000000F0H.7 SFRSYM    DATA     BIT       B_B7
      000000C3H   SFRSYM    DATA     BYTE      SMB0FCN0
      000000E1H   SFRSYM    DATA     BYTE      XBR0
      000000C4H   SFRSYM    DATA     BYTE      SMB0FCN1
      000000C1H   SFRSYM    DATA     BYTE      SMB0CF
      000000E2H   SFRSYM    DATA     BYTE      XBR1
      000000C1H   SFRSYM    DATA     BYTE      PFE0CN
      000000E7H   SFRSYM    DATA     BYTE      EMI0CN
      000000C0H.5 SFRSYM    DATA     BIT       SMB0CN0_STA
      000000E3H   SFRSYM    DATA     BYTE      XBR2
      000000BBH   SFRSYM    DATA     BYTE      ADC0MX
      000000E0H.0 SFRSYM    DATA     BIT       ACC_ACC0
      000000D1H   SFRSYM    DATA     BYTE      REF0CN
      0000008EH   SFRSYM    DATA     BYTE      CKCON0
      000000E0H.1 SFRSYM    DATA     BIT       ACC_ACC1
      000000C9H   SFRSYM    DATA     BYTE      REG0CN
      000000DDH   SFRSYM    DATA     BYTE      CRC0IN
      000000A6H   SFRSYM    DATA     BYTE      CKCON1
      000000C8H.2 SFRSYM    DATA     BIT       TMR2CN0_TR2
      000000E0H.2 SFRSYM    DATA     BIT       ACC_ACC2
      000000C6H   SFRSYM    DATA     BYTE      REG1CN
      000000E0H.3 SFRSYM    DATA     BIT       ACC_ACC3
      00000081H   SFRSYM    DATA     BYTE      SP
      0000009DH   SFRSYM    DATA     BYTE      CMP0MD
      000000E0H.4 SFRSYM    DATA     BIT       ACC_ACC4
      000000B1H   SFRSYM    DATA     BYTE      LFO0CN
LX51 LINKER/LOCATER V4.66.97.0                                                        09/02/2020  13:20:23  PAGE 48


      000000ABH   SFRSYM    DATA     BYTE      CMP1MD
      000000D8H.0 SFRSYM    DATA     BIT       PCA0CN0_CCF0
      000000E0H.5 SFRSYM    DATA     BIT       ACC_ACC5
      00000098H.2 SFRSYM    DATA     BIT       TMR4CN0_TR4
      000000D8H.1 SFRSYM    DATA     BIT       PCA0CN0_CCF1
      000000E0H.6 SFRSYM    DATA     BIT       ACC_ACC6
      000000CCH   SFRSYM    DATA     WORD      TMR2
      0000009AH   SFRSYM    DATA     BYTE      SPI0FCN0
      000000D8H.2 SFRSYM    DATA     BIT       PCA0CN0_CCF2
      000000E0H.7 SFRSYM    DATA     BIT       ACC_ACC7
      00000094H   SFRSYM    DATA     WORD      TMR3
      0000009BH   SFRSYM    DATA     BYTE      SPI0FCN1
      000000A4H   SFRSYM    DATA     WORD      TMR4
      00000094H   SFRSYM    DATA     BYTE      SBCON1
      000000C0H.3 SFRSYM    DATA     BIT       SMB0CN0_ACKRQ
      000000FFH   SFRSYM    DATA     BYTE      VDM0CN
      000000F1H   SFRSYM    DATA     BYTE      P0MDIN
      00000098H.4 SFRSYM    DATA     BIT       SCON0_REN
      000000ACH   SFRSYM    DATA     BYTE      SMB0TC
      000000F2H   SFRSYM    DATA     BYTE      P1MDIN
      000000C8H.4 SFRSYM    DATA     BIT       SCON1_REN
      000000F3H   SFRSYM    DATA     BYTE      P2MDIN
      000000C0H.4 SFRSYM    DATA     BIT       SMB0CN0_STO
      000000F4H   SFRSYM    DATA     BYTE      P3MDIN
      000000B9H   SFRSYM    DATA     BYTE      I2C0STAT
      000000BBH   SFRSYM    DATA     BYTE      I2C0DOUT
      00000096H   SFRSYM    DATA     BYTE      SBRLH1
      000000FEH   SFRSYM    DATA     BYTE      P0MASK
      000000D8H.5 SFRSYM    DATA     BIT       UART1FCN1_TXHOLD
      000000EEH   SFRSYM    DATA     BYTE      P1MASK
      000000FCH   SFRSYM    DATA     BYTE      P2MASK
      000000D0H.3 SFRSYM    DATA     BIT       PSW_RS0
      000000D8H.7 SFRSYM    DATA     BIT       PCA0CN0_CF
      0000009EH   SFRSYM    DATA     BYTE      PCA0CENT
      000000BAH   SFRSYM    DATA     BYTE      I2C0CN0
      000000D2H   SFRSYM    DATA     BYTE      CRC0ST
      000000F8H.4 SFRSYM    DATA     BIT       SPI0CN0_RXOVRN
      000000D0H.4 SFRSYM    DATA     BIT       PSW_RS1
      00000095H   SFRSYM    DATA     BYTE      SBRLL1
      000000C8H.2 SFRSYM    DATA     BIT       SCON1_RBX
      000000C8H.0 SFRSYM    DATA     BIT       TMR2CN0_T2XCLK0
      000000C8H.1 SFRSYM    DATA     BIT       TMR2CN0_T2XCLK1
      000000C8H.3 SFRSYM    DATA     BIT       SCON1_TBX
      000000E8H.7 SFRSYM    DATA     BIT       ADC0CN0_ADEN
      00000089H   SFRSYM    DATA     BYTE      TMOD
      00000088H   SFRSYM    DATA     BYTE      TCON
      000000CFH   SFRSYM    DATA     BYTE      CRC0FLIP
      000000D0H.0 SFRSYM    DATA     BIT       PSW_PARITY
      000000A8H.4 SFRSYM    DATA     BIT       IE_ES0
      0000009FH   SFRSYM    DATA     BYTE      CMP0MX
      00000098H.0 SFRSYM    DATA     BIT       TMR4CN0_T4XCLK0
      000000A8H.1 SFRSYM    DATA     BIT       IE_ET0
      000000AAH   SFRSYM    DATA     BYTE      CMP1MX
      00000098H.1 SFRSYM    DATA     BIT       TMR4CN0_T4XCLK1
      000000A8H.3 SFRSYM    DATA     BIT       IE_ET1
      000000D4H   SFRSYM    DATA     BYTE      P0SKIP
      000000D8H.0 SFRSYM    DATA     BIT       UART1FCN1_RIE
      000000A8H.5 SFRSYM    DATA     BIT       IE_ET2
      000000D5H   SFRSYM    DATA     BYTE      P1SKIP
      000000CCH   SFRSYM    DATA     BYTE      P2SKIP
      000000E8H   SFRSYM    DATA     BYTE      ADC0CN0
      000000D8H.4 SFRSYM    DATA     BIT       UART1FCN1_TIE
LX51 LINKER/LOCATER V4.66.97.0                                                        09/02/2020  13:20:23  PAGE 49


      000000A8H.0 SFRSYM    DATA     BIT       IE_EX0
      000000B2H   SFRSYM    DATA     BYTE      ADC0CN1
      000000D8H.6 SFRSYM    DATA     BIT       PCA0CN0_CR
      000000A8H.2 SFRSYM    DATA     BIT       IE_EX1
      000000C8H.7 SFRSYM    DATA     BIT       SCON1_OVR
      00000098H.7 SFRSYM    DATA     BIT       SCON0_SMODE
      000000B5H   SFRSYM    DATA     BYTE      DEVICEID
      000000A9H   SFRSYM    DATA     BYTE      CLKSEL
      000000F8H.0 SFRSYM    DATA     BIT       SPI0CN0_SPIEN
      000000F0H   SFRSYM    DATA     BYTE      B
      000000BEH   SFRSYM    DATA     BYTE      ADC0H
      000000E8H.6 SFRSYM    DATA     BIT       ADC0CN0_ADBMEN
      000000CAH   SFRSYM    DATA     WORD      TMR2RL
      000000BDH   SFRSYM    DATA     BYTE      ADC0L
      00000092H   SFRSYM    DATA     WORD      TMR3RL
      000000A2H   SFRSYM    DATA     WORD      TMR4RL
      000000D8H   SFRSYM    DATA     BYTE      PCA0CN0
      000000E0H   SFRSYM    DATA     BYTE      ACC
      000000FBH   SFRSYM    DATA     WORD      PCA0CP0
      000000E9H   SFRSYM    DATA     WORD      PCA0CP1
      000000EBH   SFRSYM    DATA     WORD      PCA0CP2
      000000BCH   SFRSYM    DATA     BYTE      I2C0DIN
      000000CEH   SFRSYM    DATA     BYTE      CRC0CN0
      0000008CH   SFRSYM    DATA     BYTE      TH0
      00000086H   SFRSYM    DATA     BYTE      CRC0CN1
      000000B8H.4 SFRSYM    DATA     BIT       IP_PS0
      000000FAH   SFRSYM    DATA     BYTE      UART1FCT
      0000008DH   SFRSYM    DATA     BYTE      TH1
      000000FAH   SFRSYM    DATA     BYTE      PCA0H
      000000F5H   SFRSYM    DATA     BYTE      I2C0FCT
      000000B8H.1 SFRSYM    DATA     BIT       IP_PT0
      000000B8H.3 SFRSYM    DATA     BIT       IP_PT1
      000000C0H.2 SFRSYM    DATA     BIT       SMB0CN0_ARBLOST
      000000B8H.5 SFRSYM    DATA     BIT       IP_PT2
      0000008AH   SFRSYM    DATA     BYTE      TL0
      000000D0H.5 SFRSYM    DATA     BIT       PSW_F0
      000000A8H.6 SFRSYM    DATA     BIT       IE_ESPI0
      0000008BH   SFRSYM    DATA     BYTE      TL1
      000000F9H   SFRSYM    DATA     BYTE      PCA0L
      000000C0H.0 SFRSYM    DATA     BIT       SMB0CN0_SI
      000000D0H.1 SFRSYM    DATA     BIT       PSW_F1
      00000080H.0 SFRSYM    DATA     BIT       P0_B0
      000000B8H.0 SFRSYM    DATA     BIT       IP_PX0
      00000090H.0 SFRSYM    DATA     BIT       P1_B0
      00000080H.1 SFRSYM    DATA     BIT       P0_B1
      000000B8H.2 SFRSYM    DATA     BIT       IP_PX1
      0000009EH   SFRSYM    DATA     BYTE      UART1LIN
      0000009BH   SFRSYM    DATA     BYTE      CMP0CN0
      00000088H.1 SFRSYM    DATA     BIT       TCON_IE0
      000000A0H.0 SFRSYM    DATA     BIT       P2_B0
      00000090H.1 SFRSYM    DATA     BIT       P1_B1
      00000080H.2 SFRSYM    DATA     BIT       P0_B2
      000000BFH   SFRSYM    DATA     BYTE      CMP1CN0
      00000099H   SFRSYM    DATA     BYTE      CMP0CN1
      00000088H.3 SFRSYM    DATA     BIT       TCON_IE1
      000000B0H.0 SFRSYM    DATA     BIT       P3_B0
      000000A0H.1 SFRSYM    DATA     BIT       P2_B1
      00000090H.2 SFRSYM    DATA     BIT       P1_B2
      00000080H.3 SFRSYM    DATA     BIT       P0_B3
      000000C0H   SFRSYM    DATA     BYTE      SMB0CN0
      000000ACH   SFRSYM    DATA     BYTE      CMP1CN1
      000000B0H.1 SFRSYM    DATA     BIT       P3_B1
LX51 LINKER/LOCATER V4.66.97.0                                                        09/02/2020  13:20:23  PAGE 50


      000000A0H.2 SFRSYM    DATA     BIT       P2_B2
      00000090H.3 SFRSYM    DATA     BIT       P1_B3
      00000080H.4 SFRSYM    DATA     BIT       P0_B4
      000000A0H.3 SFRSYM    DATA     BIT       P2_B3
      00000090H.4 SFRSYM    DATA     BIT       P1_B4
      00000080H.5 SFRSYM    DATA     BIT       P0_B5
      000000D8H.1 SFRSYM    DATA     BIT       UART1FCN1_RXTO0
      00000090H.5 SFRSYM    DATA     BIT       P1_B5
      00000080H.6 SFRSYM    DATA     BIT       P0_B6
      000000F5H   SFRSYM    DATA     BYTE      EIP1H
      000000D8H.2 SFRSYM    DATA     BIT       UART1FCN1_RXTO1
      00000090H.6 SFRSYM    DATA     BIT       P1_B6
      00000080H.7 SFRSYM    DATA     BIT       P0_B7
      000000C5H   SFRSYM    DATA     BYTE      SMB0RXLN
      000000F6H   SFRSYM    DATA     BYTE      EIP2H
      00000090H.7 SFRSYM    DATA     BIT       P1_B7
      00000083H   SFRSYM    DATA     BYTE      DPH
      000000C4H   SFRSYM    DATA     BYTE      ADC0GTH
      000000C8H.7 SFRSYM    DATA     BIT       TMR2CN0_TF2H
      000000C8H.3 SFRSYM    DATA     BIT       TMR2CN0_T2SPLIT
      000000D0H.6 SFRSYM    DATA     BIT       PSW_AC
      000000F8H   SFRSYM    DATA     BYTE      SPI0CN0
      000000C7H   SFRSYM    DATA     BYTE      HFO0CAL
      00000088H.5 SFRSYM    DATA     BIT       TCON_TF0
      00000098H.0 SFRSYM    DATA     BIT       SCON0_RI
      000000D6H   SFRSYM    DATA     BYTE      HFO1CAL
      00000082H   SFRSYM    DATA     BYTE      DPL
      00000088H.7 SFRSYM    DATA     BIT       TCON_TF1
      000000C8H.0 SFRSYM    DATA     BIT       SCON1_RI
      00000099H   SFRSYM    DATA     BYTE      SBUF0
      00000087H   SFRSYM    DATA     BYTE      PCON0
      000000F2H   SFRSYM    DATA     BYTE      IPH
      000000C3H   SFRSYM    DATA     BYTE      ADC0GTL
      00000098H.7 SFRSYM    DATA     BIT       TMR4CN0_TF4H
      00000098H.3 SFRSYM    DATA     BIT       TMR4CN0_T4SPLIT
      000000C8H.6 SFRSYM    DATA     BIT       TMR2CN0_TF2L
      00000098H.1 SFRSYM    DATA     BIT       SCON0_TI
      000000E8H.0 SFRSYM    DATA     BIT       ADC0CN0_ADCM0
      00000092H   SFRSYM    DATA     BYTE      SBUF1
      0000009AH   SFRSYM    DATA     BYTE      PCON1
      000000C6H   SFRSYM    DATA     BYTE      ADC0LTH
      00000088H.0 SFRSYM    DATA     BIT       TCON_IT0
      000000C8H.1 SFRSYM    DATA     BIT       SCON1_TI
      000000E8H.1 SFRSYM    DATA     BIT       ADC0CN0_ADCM1
      000000EFH   SFRSYM    DATA     BYTE      RSTSRC
      000000FDH   SFRSYM    DATA     BYTE      P0MAT
      000000DEH   SFRSYM    DATA     BYTE      CRC0DAT
      00000088H.2 SFRSYM    DATA     BIT       TCON_IT1
      000000E8H.2 SFRSYM    DATA     BIT       ADC0CN0_ADCM2
      000000D7H   SFRSYM    DATA     BYTE      SFRSTACK
      00000098H   SFRSYM    DATA     BYTE      SCON0
      000000F6H   SFRSYM    DATA     BYTE      PRTDRV
      000000EDH   SFRSYM    DATA     BYTE      P1MAT
      000000E8H.3 SFRSYM    DATA     BIT       ADC0CN0_ADWINT
      00000095H   SFRSYM    DATA     WORD      SBRL1
      00000093H   SFRSYM    DATA     BYTE      SMOD1
      000000C8H   SFRSYM    DATA     BYTE      SCON1
      000000FBH   SFRSYM    DATA     BYTE      P2MAT
      00000098H.6 SFRSYM    DATA     BIT       TMR4CN0_TF4L
      000000E8H.4 SFRSYM    DATA     BIT       ADC0CN0_ADBUSY
      000000D6H   SFRSYM    DATA     BYTE      SMB0ADM
      000000C5H   SFRSYM    DATA     BYTE      ADC0LTL
LX51 LINKER/LOCATER V4.66.97.0                                                        09/02/2020  13:20:23  PAGE 51


      000000F8H.5 SFRSYM    DATA     BIT       SPI0CN0_MODF
      000000B8H.6 SFRSYM    DATA     BIT       IP_PSPI0
      0000009CH   SFRSYM    DATA     BYTE      PCA0CLR
      000000C8H   SFRSYM    DATA     BYTE      TMR2CN0
      00000091H   SFRSYM    DATA     BYTE      TMR3CN0
      000000FDH   SFRSYM    DATA     BYTE      TMR2CN1
      00000098H   SFRSYM    DATA     BYTE      TMR4CN0
      000000FEH   SFRSYM    DATA     BYTE      TMR3CN1
      000000FFH   SFRSYM    DATA     BYTE      TMR4CN1
      000000D7H   SFRSYM    DATA     BYTE      SMB0ADR
      00000088H.4 SFRSYM    DATA     BIT       TCON_TR0
      000000C8H.4 SFRSYM    DATA     BIT       TMR2CN0_TF2CEN
      00000088H.6 SFRSYM    DATA     BIT       TCON_TR1
      000000C2H   SFRSYM    DATA     BYTE      SMB0DAT
      000000CDH   SFRSYM    DATA     BYTE      TMR2H
      000000A1H   SFRSYM    DATA     BYTE      SPI0CFG
      00000095H   SFRSYM    DATA     BYTE      TMR3H
      000000EFH   SFRSYM    DATA     BYTE      HFOCN
      000000D3H   SFRSYM    DATA     BYTE      CRC0CNT
      000000A5H   SFRSYM    DATA     BYTE      TMR4H
      00000098H.4 SFRSYM    DATA     BIT       TMR4CN0_TF4CEN
      000000EFH   SFRSYM    DATA     BYTE      SMB0FCT
      00000096H   SFRSYM    DATA     BYTE      PCA0POL
      000000CCH   SFRSYM    DATA     BYTE      TMR2L
      000000F8H.7 SFRSYM    DATA     BIT       SPI0CN0_SPIF
      00000094H   SFRSYM    DATA     BYTE      TMR3L
      000000DFH   SFRSYM    DATA     BYTE      ADC0PWR
      000000A8H.7 SFRSYM    DATA     BIT       IE_EA
      000000A4H   SFRSYM    DATA     BYTE      TMR4L
      000000C8H.5 SFRSYM    DATA     BIT       TMR2CN0_TF2LEN
      000000F8H.6 SFRSYM    DATA     BIT       SPI0CN0_WCOL
      000000F8H.2 SFRSYM    DATA     BIT       SPI0CN0_NSSMD0
      000000D0H.7 SFRSYM    DATA     BIT       PSW_CY
      0000009DH   SFRSYM    DATA     BYTE      UART1FCN0
      000000A3H   SFRSYM    DATA     BYTE      SPI0DAT
      000000ADH   SFRSYM    DATA     BYTE      I2C0FCN0
      000000F8H.3 SFRSYM    DATA     BIT       SPI0CN0_NSSMD1
      000000BDH   SFRSYM    DATA     WORD      ADC0
      000000D8H   SFRSYM    DATA     BYTE      UART1FCN1
      000000ABH   SFRSYM    DATA     BYTE      I2C0FCN1
      00000098H.5 SFRSYM    DATA     BIT       TMR4CN0_TF4LEN
      000000D0H   SFRSYM    DATA     BYTE      PSW
      000000F7H   SFRSYM    DATA     BYTE      PCA0PWM
      000000F7H   SFRSYM    DATA     BYTE      SPI0FCT
      000000B6H   SFRSYM    DATA     BYTE      REVID
      000000B7H   SFRSYM    DATA     BYTE      FLKEY
      000000B3H   SFRSYM    DATA     BYTE      ADC0AC

      01003DE5H   BLOCK     CODE     ---       LVL=0
      01003DE5H   LINE      CODE     ---       #18
      01003DE5H   LINE      CODE     ---       #19
      01003DE5H   LINE      CODE     ---       #20
      01003DE8H   LINE      CODE     ---       #21
      01003DEBH   LINE      CODE     ---       #23
      01003DEEH   LINE      CODE     ---       #24
      01003DF0H   LINE      CODE     ---       #25
      01003DF2H   LINE      CODE     ---       #26
      01003DF8H   LINE      CODE     ---       #27
      01003DFBH   LINE      CODE     ---       #28
      01003DFEH   LINE      CODE     ---       #29
      01003E04H   LINE      CODE     ---       #31
      ---         BLOCKEND  ---      ---       LVL=0
LX51 LINKER/LOCATER V4.66.97.0                                                        09/02/2020  13:20:23  PAGE 52



      01003E05H   BLOCK     CODE     ---       LVL=0
      00000007H   SYMBOL    DATA     BYTE      Switch
      01003E05H   LINE      CODE     ---       #34
      01003E05H   LINE      CODE     ---       #35
      01003E05H   LINE      CODE     ---       #36
      01003E08H   LINE      CODE     ---       #37
      01003E10H   LINE      CODE     ---       #38
      01003E10H   LINE      CODE     ---       #39
      01003E13H   LINE      CODE     ---       #40
      01003E16H   LINE      CODE     ---       #41
      01003E16H   LINE      CODE     ---       #42
      01003E1AH   LINE      CODE     ---       #43
      01003E1AH   LINE      CODE     ---       #44
      01003E1DH   LINE      CODE     ---       #45
      01003E20H   LINE      CODE     ---       #46
      01003E20H   LINE      CODE     ---       #47
      ---         BLOCKEND  ---      ---       LVL=0

      01000056H   BLOCK     CODE     ---       LVL=0
      01000056H   LINE      CODE     ---       #49
      01000056H   LINE      CODE     ---       #50
      01000056H   LINE      CODE     ---       #51
      01000058H   LINE      CODE     ---       #52
      ---         BLOCKEND  ---      ---       LVL=0

      01000070H   BLOCK     CODE     ---       LVL=0
      01000070H   LINE      CODE     ---       #54
      01000070H   LINE      CODE     ---       #55
      01000070H   LINE      CODE     ---       #56
      01000072H   LINE      CODE     ---       #57
      ---         BLOCKEND  ---      ---       LVL=0

      01003DC1H   BLOCK     CODE     ---       LVL=0
      01003DC1H   LINE      CODE     ---       #59
      01003DC1H   LINE      CODE     ---       #60
      01003DC1H   LINE      CODE     ---       #61
      01003DC4H   LINE      CODE     ---       #63
      01003DC7H   LINE      CODE     ---       #65
      01003DCAH   LINE      CODE     ---       #67
      01003DCDH   LINE      CODE     ---       #69
      01003DD0H   LINE      CODE     ---       #73
      01003DD3H   LINE      CODE     ---       #75
      01003DD6H   LINE      CODE     ---       #77
      01003DD9H   LINE      CODE     ---       #79
      01003DDCH   LINE      CODE     ---       #84
      01003DDFH   LINE      CODE     ---       #87
      01003DE1H   LINE      CODE     ---       #90
      01003DE4H   LINE      CODE     ---       #92
      ---         BLOCKEND  ---      ---       LVL=0

      ---         MODULE    ---      ---       DETECTOBJ
      02000221H   PUBLIC    XDATA    ---       EachSNMaxDistance
      020001F9H   PUBLIC    XDATA    ---       TableWidth
      020001EBH   PUBLIC    XDATA    ---       NearestData
      020001D7H   PUBLIC    XDATA    ---       TableHeight
      020001D4H   PUBLIC    XDATA    ---       DetObj_DataPrcs
      020001CBH   PUBLIC    XDATA    ---       DetInfo
      0200007CH   PUBLIC    XDATA    ---       RawData
      02000076H   PUBLIC    XDATA    ---       DetectInterval
      0200006BH   PUBLIC    XDATA    ---       AnsData
      0200001EH   PUBLIC    XDATA    ---       CmpData
LX51 LINKER/LOCATER V4.66.97.0                                                        09/02/2020  13:20:23  PAGE 53


      02000018H   PUBLIC    XDATA    ---       ClrtData
      0200000CH   PUBLIC    XDATA    ---       DiagInfo
      02000000H   PUBLIC    XDATA    ---       Noise
      01000E02H   PUBLIC    CODE     ---       DetObj_CompareTheData
      01002FFCH   PUBLIC    CODE     ---       DetObj_ProcessTheRingTime
      01001F2BH   PUBLIC    CODE     ---       DetObj_GenerateTheNearestObstacle
      010033E8H   PUBLIC    CODE     ---       DetObj_HoldTheObstaclestate
      0100154FH   PUBLIC    CODE     ---       DetObj_DetTheObj
      010023A1H   PUBLIC    CODE     ---       DetObj_RawNoiseDataAns
      01000AB5H   PUBLIC    CODE     ---       DetObj_RawEchoDataAns
      01001D55H   PUBLIC    CODE     ---       DetObj_RawFilter
      0100197DH   PUBLIC    CODE     ---       DetObj_CalSampNoise
      0200038FH   PUBLIC    XDATA    BYTE      ?_DetObj_CopySamplingBuffer?BYTE
      0100399FH   PUBLIC    CODE     ---       _DetObj_CopySamplingBuffer
      01003309H   PUBLIC    CODE     ---       DetObj_ClearTheNoiseBuff
      010035F1H   PUBLIC    CODE     ---       _GetDistance
      01003C81H   PUBLIC    CODE     ---       DetObj_ClearTheRawDataBuff
      01003717H   PUBLIC    CODE     ---       DetObj_InitTheCCD
      0100327CH   PUBLIC    CODE     ---       DetObj_InitTheEPD
      01003EFEH   PUBLIC    CODE     ---       DetObj_InitTheAnalysisData
      01003EF8H   PUBLIC    CODE     ---       DetObj_Stop
      01003EE8H   PUBLIC    CODE     ---       DetObj_Start
      01002755H   PUBLIC    CODE     ---       DetObj_DiagnosticTheRingTime
      01003C57H   PUBLIC    CODE     ---       DetObj_DiagnosticTheSensor
      0100358CH   PUBLIC    CODE     ---       DetObj_SendThe58KhzUltraSonic
      01003C2DH   PUBLIC    CODE     ---       DetObj_RealTimeClock
      010037CDH   PUBLIC    CODE     ---       DetObj_InitAllChannelDistance
      000000A2H   SFRSYM    DATA     BYTE      SPI0CKR
      00000080H   SFRSYM    DATA     BYTE      P0
      000000C8H.6 SFRSYM    DATA     BIT       SCON1_PERR
      000000D0H.2 SFRSYM    DATA     BIT       PSW_OV
      00000090H   SFRSYM    DATA     BYTE      P1
      000000F8H.1 SFRSYM    DATA     BIT       SPI0CN0_TXNF
      00000097H   SFRSYM    DATA     BYTE      WDTCN
      000000A0H   SFRSYM    DATA     BYTE      P2
      000000B0H   SFRSYM    DATA     BYTE      P3
      000000BCH   SFRSYM    DATA     BYTE      ADC0CF
      000000C0H.7 SFRSYM    DATA     BIT       SMB0CN0_MASTER
      000000F9H   SFRSYM    DATA     WORD      PCA0
      000000E6H   SFRSYM    DATA     BYTE      EIE1
      000000C0H.1 SFRSYM    DATA     BIT       SMB0CN0_ACK
      000000CEH   SFRSYM    DATA     BYTE      EIE2
      0000008FH   SFRSYM    DATA     BYTE      PSCTL
      000000E4H   SFRSYM    DATA     BYTE      IT01CF
      000000C0H.6 SFRSYM    DATA     BIT       SMB0CN0_TXMODE
      000000ADH   SFRSYM    DATA     BYTE      DERIVID
      000000A7H   SFRSYM    DATA     BYTE      SFRPAGE
      000000A4H   SFRSYM    DATA     BYTE      P0MDOUT
      000000A5H   SFRSYM    DATA     BYTE      P1MDOUT
      000000E8H.5 SFRSYM    DATA     BIT       ADC0CN0_ADINT
      000000CBH   SFRSYM    DATA     BYTE      TMR2RLH
      000000A6H   SFRSYM    DATA     BYTE      P2MDOUT
      000000A8H   SFRSYM    DATA     BYTE      IE
      00000093H   SFRSYM    DATA     BYTE      TMR3RLH
      0000009CH   SFRSYM    DATA     BYTE      P3MDOUT
      000000A3H   SFRSYM    DATA     BYTE      TMR4RLH
      000000F3H   SFRSYM    DATA     BYTE      EIP1
      000000F4H   SFRSYM    DATA     BYTE      EIP2
      00000098H.2 SFRSYM    DATA     BIT       SCON0_RB8
      000000CAH   SFRSYM    DATA     BYTE      TMR2RLL
      000000FCH   SFRSYM    DATA     BYTE      PCA0CPH0
      00000092H   SFRSYM    DATA     BYTE      TMR3RLL
LX51 LINKER/LOCATER V4.66.97.0                                                        09/02/2020  13:20:23  PAGE 54


      000000EAH   SFRSYM    DATA     BYTE      PCA0CPH1
      00000098H.3 SFRSYM    DATA     BIT       SCON0_TB8
      000000F0H.0 SFRSYM    DATA     BIT       B_B0
      00000082H   SFRSYM    DATA     WORD      DP
      000000A2H   SFRSYM    DATA     BYTE      TMR4RLL
      000000ECH   SFRSYM    DATA     BYTE      PCA0CPH2
      000000F0H.1 SFRSYM    DATA     BIT       B_B1
      000000C3H   SFRSYM    DATA     WORD      ADC0GT
      000000BDH   SFRSYM    DATA     BYTE      I2C0SLAD
      000000D8H.3 SFRSYM    DATA     BIT       UART1FCN1_RFRQ
      000000F0H.2 SFRSYM    DATA     BIT       B_B2
      000000CFH   SFRSYM    DATA     BYTE      SFRPGCN
      000000FBH   SFRSYM    DATA     BYTE      PCA0CPL0
      000000F0H.3 SFRSYM    DATA     BIT       B_B3
      000000D9H   SFRSYM    DATA     BYTE      PCA0MD
      000000DAH   SFRSYM    DATA     BYTE      PCA0CPM0
      000000E9H   SFRSYM    DATA     BYTE      PCA0CPL1
      000000D8H.7 SFRSYM    DATA     BIT       UART1FCN1_TFRQ
      000000F0H.4 SFRSYM    DATA     BIT       B_B4
      000000DBH   SFRSYM    DATA     BYTE      PCA0CPM1
      000000EBH   SFRSYM    DATA     BYTE      PCA0CPL2
      000000F0H.5 SFRSYM    DATA     BIT       B_B5
      000000DCH   SFRSYM    DATA     BYTE      PCA0CPM2
      000000B8H   SFRSYM    DATA     BYTE      IP
      000000B9H   SFRSYM    DATA     BYTE      ADC0TK
      000000F0H.6 SFRSYM    DATA     BIT       B_B6
      000000C5H   SFRSYM    DATA     WORD      ADC0LT
      000000D8H.6 SFRSYM    DATA     BIT       UART1FCN1_TXNF
      00000098H.5 SFRSYM    DATA     BIT       SCON0_MCE
      000000F0H.7 SFRSYM    DATA     BIT       B_B7
      000000C3H   SFRSYM    DATA     BYTE      SMB0FCN0
      000000E1H   SFRSYM    DATA     BYTE      XBR0
      000000C4H   SFRSYM    DATA     BYTE      SMB0FCN1
      000000C1H   SFRSYM    DATA     BYTE      SMB0CF
      000000E2H   SFRSYM    DATA     BYTE      XBR1
      000000C1H   SFRSYM    DATA     BYTE      PFE0CN
      000000E7H   SFRSYM    DATA     BYTE      EMI0CN
      000000C0H.5 SFRSYM    DATA     BIT       SMB0CN0_STA
      000000E3H   SFRSYM    DATA     BYTE      XBR2
      000000BBH   SFRSYM    DATA     BYTE      ADC0MX
      000000E0H.0 SFRSYM    DATA     BIT       ACC_ACC0
      000000D1H   SFRSYM    DATA     BYTE      REF0CN
      0000008EH   SFRSYM    DATA     BYTE      CKCON0
      000000E0H.1 SFRSYM    DATA     BIT       ACC_ACC1
      000000C9H   SFRSYM    DATA     BYTE      REG0CN
      000000DDH   SFRSYM    DATA     BYTE      CRC0IN
      000000A6H   SFRSYM    DATA     BYTE      CKCON1
      000000C8H.2 SFRSYM    DATA     BIT       TMR2CN0_TR2
      000000E0H.2 SFRSYM    DATA     BIT       ACC_ACC2
      000000C6H   SFRSYM    DATA     BYTE      REG1CN
      000000E0H.3 SFRSYM    DATA     BIT       ACC_ACC3
      00000081H   SFRSYM    DATA     BYTE      SP
      0000009DH   SFRSYM    DATA     BYTE      CMP0MD
      000000E0H.4 SFRSYM    DATA     BIT       ACC_ACC4
      000000B1H   SFRSYM    DATA     BYTE      LFO0CN
      000000ABH   SFRSYM    DATA     BYTE      CMP1MD
      000000D8H.0 SFRSYM    DATA     BIT       PCA0CN0_CCF0
      000000E0H.5 SFRSYM    DATA     BIT       ACC_ACC5
      00000098H.2 SFRSYM    DATA     BIT       TMR4CN0_TR4
      000000D8H.1 SFRSYM    DATA     BIT       PCA0CN0_CCF1
      000000E0H.6 SFRSYM    DATA     BIT       ACC_ACC6
      000000CCH   SFRSYM    DATA     WORD      TMR2
LX51 LINKER/LOCATER V4.66.97.0                                                        09/02/2020  13:20:23  PAGE 55


      0000009AH   SFRSYM    DATA     BYTE      SPI0FCN0
      000000D8H.2 SFRSYM    DATA     BIT       PCA0CN0_CCF2
      000000E0H.7 SFRSYM    DATA     BIT       ACC_ACC7
      00000094H   SFRSYM    DATA     WORD      TMR3
      0000009BH   SFRSYM    DATA     BYTE      SPI0FCN1
      000000A4H   SFRSYM    DATA     WORD      TMR4
      00000094H   SFRSYM    DATA     BYTE      SBCON1
      000000C0H.3 SFRSYM    DATA     BIT       SMB0CN0_ACKRQ
      000000FFH   SFRSYM    DATA     BYTE      VDM0CN
      000000F1H   SFRSYM    DATA     BYTE      P0MDIN
      00000098H.4 SFRSYM    DATA     BIT       SCON0_REN
      000000ACH   SFRSYM    DATA     BYTE      SMB0TC
      000000F2H   SFRSYM    DATA     BYTE      P1MDIN
      000000C8H.4 SFRSYM    DATA     BIT       SCON1_REN
      000000F3H   SFRSYM    DATA     BYTE      P2MDIN
      000000C0H.4 SFRSYM    DATA     BIT       SMB0CN0_STO
      000000F4H   SFRSYM    DATA     BYTE      P3MDIN
      000000B9H   SFRSYM    DATA     BYTE      I2C0STAT
      000000BBH   SFRSYM    DATA     BYTE      I2C0DOUT
      00000096H   SFRSYM    DATA     BYTE      SBRLH1
      000000FEH   SFRSYM    DATA     BYTE      P0MASK
      000000D8H.5 SFRSYM    DATA     BIT       UART1FCN1_TXHOLD
      000000EEH   SFRSYM    DATA     BYTE      P1MASK
      000000FCH   SFRSYM    DATA     BYTE      P2MASK
      000000D0H.3 SFRSYM    DATA     BIT       PSW_RS0
      000000D8H.7 SFRSYM    DATA     BIT       PCA0CN0_CF
      0000009EH   SFRSYM    DATA     BYTE      PCA0CENT
      000000BAH   SFRSYM    DATA     BYTE      I2C0CN0
      000000D2H   SFRSYM    DATA     BYTE      CRC0ST
      000000F8H.4 SFRSYM    DATA     BIT       SPI0CN0_RXOVRN
      000000D0H.4 SFRSYM    DATA     BIT       PSW_RS1
      00000095H   SFRSYM    DATA     BYTE      SBRLL1
      000000C8H.2 SFRSYM    DATA     BIT       SCON1_RBX
      000000C8H.0 SFRSYM    DATA     BIT       TMR2CN0_T2XCLK0
      000000C8H.1 SFRSYM    DATA     BIT       TMR2CN0_T2XCLK1
      000000C8H.3 SFRSYM    DATA     BIT       SCON1_TBX
      000000E8H.7 SFRSYM    DATA     BIT       ADC0CN0_ADEN
      00000089H   SFRSYM    DATA     BYTE      TMOD
      00000088H   SFRSYM    DATA     BYTE      TCON
      000000CFH   SFRSYM    DATA     BYTE      CRC0FLIP
      000000D0H.0 SFRSYM    DATA     BIT       PSW_PARITY
      000000A8H.4 SFRSYM    DATA     BIT       IE_ES0
      0000009FH   SFRSYM    DATA     BYTE      CMP0MX
      00000098H.0 SFRSYM    DATA     BIT       TMR4CN0_T4XCLK0
      000000A8H.1 SFRSYM    DATA     BIT       IE_ET0
      000000AAH   SFRSYM    DATA     BYTE      CMP1MX
      00000098H.1 SFRSYM    DATA     BIT       TMR4CN0_T4XCLK1
      000000A8H.3 SFRSYM    DATA     BIT       IE_ET1
      000000D4H   SFRSYM    DATA     BYTE      P0SKIP
      000000D8H.0 SFRSYM    DATA     BIT       UART1FCN1_RIE
      000000A8H.5 SFRSYM    DATA     BIT       IE_ET2
      000000D5H   SFRSYM    DATA     BYTE      P1SKIP
      000000CCH   SFRSYM    DATA     BYTE      P2SKIP
      000000E8H   SFRSYM    DATA     BYTE      ADC0CN0
      000000D8H.4 SFRSYM    DATA     BIT       UART1FCN1_TIE
      000000A8H.0 SFRSYM    DATA     BIT       IE_EX0
      000000B2H   SFRSYM    DATA     BYTE      ADC0CN1
      000000D8H.6 SFRSYM    DATA     BIT       PCA0CN0_CR
      000000A8H.2 SFRSYM    DATA     BIT       IE_EX1
      000000C8H.7 SFRSYM    DATA     BIT       SCON1_OVR
      00000098H.7 SFRSYM    DATA     BIT       SCON0_SMODE
      000000B5H   SFRSYM    DATA     BYTE      DEVICEID
LX51 LINKER/LOCATER V4.66.97.0                                                        09/02/2020  13:20:23  PAGE 56


      000000A9H   SFRSYM    DATA     BYTE      CLKSEL
      000000F8H.0 SFRSYM    DATA     BIT       SPI0CN0_SPIEN
      000000F0H   SFRSYM    DATA     BYTE      B
      000000BEH   SFRSYM    DATA     BYTE      ADC0H
      000000E8H.6 SFRSYM    DATA     BIT       ADC0CN0_ADBMEN
      000000CAH   SFRSYM    DATA     WORD      TMR2RL
      000000BDH   SFRSYM    DATA     BYTE      ADC0L
      00000092H   SFRSYM    DATA     WORD      TMR3RL
      000000A2H   SFRSYM    DATA     WORD      TMR4RL
      000000D8H   SFRSYM    DATA     BYTE      PCA0CN0
      000000E0H   SFRSYM    DATA     BYTE      ACC
      000000FBH   SFRSYM    DATA     WORD      PCA0CP0
      000000E9H   SFRSYM    DATA     WORD      PCA0CP1
      000000EBH   SFRSYM    DATA     WORD      PCA0CP2
      000000BCH   SFRSYM    DATA     BYTE      I2C0DIN
      000000CEH   SFRSYM    DATA     BYTE      CRC0CN0
      0000008CH   SFRSYM    DATA     BYTE      TH0
      00000086H   SFRSYM    DATA     BYTE      CRC0CN1
      000000B8H.4 SFRSYM    DATA     BIT       IP_PS0
      000000FAH   SFRSYM    DATA     BYTE      UART1FCT
      0000008DH   SFRSYM    DATA     BYTE      TH1
      000000FAH   SFRSYM    DATA     BYTE      PCA0H
      000000F5H   SFRSYM    DATA     BYTE      I2C0FCT
      000000B8H.1 SFRSYM    DATA     BIT       IP_PT0
      000000B8H.3 SFRSYM    DATA     BIT       IP_PT1
      000000C0H.2 SFRSYM    DATA     BIT       SMB0CN0_ARBLOST
      000000B8H.5 SFRSYM    DATA     BIT       IP_PT2
      0000008AH   SFRSYM    DATA     BYTE      TL0
      000000D0H.5 SFRSYM    DATA     BIT       PSW_F0
      000000A8H.6 SFRSYM    DATA     BIT       IE_ESPI0
      0000008BH   SFRSYM    DATA     BYTE      TL1
      000000F9H   SFRSYM    DATA     BYTE      PCA0L
      000000C0H.0 SFRSYM    DATA     BIT       SMB0CN0_SI
      000000D0H.1 SFRSYM    DATA     BIT       PSW_F1
      00000080H.0 SFRSYM    DATA     BIT       P0_B0
      000000B8H.0 SFRSYM    DATA     BIT       IP_PX0
      00000090H.0 SFRSYM    DATA     BIT       P1_B0
      00000080H.1 SFRSYM    DATA     BIT       P0_B1
      000000B8H.2 SFRSYM    DATA     BIT       IP_PX1
      0000009EH   SFRSYM    DATA     BYTE      UART1LIN
      0000009BH   SFRSYM    DATA     BYTE      CMP0CN0
      00000088H.1 SFRSYM    DATA     BIT       TCON_IE0
      000000A0H.0 SFRSYM    DATA     BIT       P2_B0
      00000090H.1 SFRSYM    DATA     BIT       P1_B1
      00000080H.2 SFRSYM    DATA     BIT       P0_B2
      000000BFH   SFRSYM    DATA     BYTE      CMP1CN0
      00000099H   SFRSYM    DATA     BYTE      CMP0CN1
      00000088H.3 SFRSYM    DATA     BIT       TCON_IE1
      000000B0H.0 SFRSYM    DATA     BIT       P3_B0
      000000A0H.1 SFRSYM    DATA     BIT       P2_B1
      00000090H.2 SFRSYM    DATA     BIT       P1_B2
      00000080H.3 SFRSYM    DATA     BIT       P0_B3
      000000C0H   SFRSYM    DATA     BYTE      SMB0CN0
      000000ACH   SFRSYM    DATA     BYTE      CMP1CN1
      000000B0H.1 SFRSYM    DATA     BIT       P3_B1
      000000A0H.2 SFRSYM    DATA     BIT       P2_B2
      00000090H.3 SFRSYM    DATA     BIT       P1_B3
      00000080H.4 SFRSYM    DATA     BIT       P0_B4
      000000A0H.3 SFRSYM    DATA     BIT       P2_B3
      00000090H.4 SFRSYM    DATA     BIT       P1_B4
      00000080H.5 SFRSYM    DATA     BIT       P0_B5
      000000D8H.1 SFRSYM    DATA     BIT       UART1FCN1_RXTO0
LX51 LINKER/LOCATER V4.66.97.0                                                        09/02/2020  13:20:23  PAGE 57


      00000090H.5 SFRSYM    DATA     BIT       P1_B5
      00000080H.6 SFRSYM    DATA     BIT       P0_B6
      000000F5H   SFRSYM    DATA     BYTE      EIP1H
      000000D8H.2 SFRSYM    DATA     BIT       UART1FCN1_RXTO1
      00000090H.6 SFRSYM    DATA     BIT       P1_B6
      00000080H.7 SFRSYM    DATA     BIT       P0_B7
      000000C5H   SFRSYM    DATA     BYTE      SMB0RXLN
      000000F6H   SFRSYM    DATA     BYTE      EIP2H
      00000090H.7 SFRSYM    DATA     BIT       P1_B7
      00000083H   SFRSYM    DATA     BYTE      DPH
      000000C4H   SFRSYM    DATA     BYTE      ADC0GTH
      000000C8H.7 SFRSYM    DATA     BIT       TMR2CN0_TF2H
      000000C8H.3 SFRSYM    DATA     BIT       TMR2CN0_T2SPLIT
      000000D0H.6 SFRSYM    DATA     BIT       PSW_AC
      000000F8H   SFRSYM    DATA     BYTE      SPI0CN0
      000000C7H   SFRSYM    DATA     BYTE      HFO0CAL
      00000088H.5 SFRSYM    DATA     BIT       TCON_TF0
      00000098H.0 SFRSYM    DATA     BIT       SCON0_RI
      000000D6H   SFRSYM    DATA     BYTE      HFO1CAL
      00000082H   SFRSYM    DATA     BYTE      DPL
      00000088H.7 SFRSYM    DATA     BIT       TCON_TF1
      000000C8H.0 SFRSYM    DATA     BIT       SCON1_RI
      00000099H   SFRSYM    DATA     BYTE      SBUF0
      00000087H   SFRSYM    DATA     BYTE      PCON0
      000000F2H   SFRSYM    DATA     BYTE      IPH
      000000C3H   SFRSYM    DATA     BYTE      ADC0GTL
      00000098H.7 SFRSYM    DATA     BIT       TMR4CN0_TF4H
      00000098H.3 SFRSYM    DATA     BIT       TMR4CN0_T4SPLIT
      000000C8H.6 SFRSYM    DATA     BIT       TMR2CN0_TF2L
      00000098H.1 SFRSYM    DATA     BIT       SCON0_TI
      000000E8H.0 SFRSYM    DATA     BIT       ADC0CN0_ADCM0
      00000092H   SFRSYM    DATA     BYTE      SBUF1
      0000009AH   SFRSYM    DATA     BYTE      PCON1
      000000C6H   SFRSYM    DATA     BYTE      ADC0LTH
      00000088H.0 SFRSYM    DATA     BIT       TCON_IT0
      000000C8H.1 SFRSYM    DATA     BIT       SCON1_TI
      000000E8H.1 SFRSYM    DATA     BIT       ADC0CN0_ADCM1
      000000EFH   SFRSYM    DATA     BYTE      RSTSRC
      000000FDH   SFRSYM    DATA     BYTE      P0MAT
      000000DEH   SFRSYM    DATA     BYTE      CRC0DAT
      00000088H.2 SFRSYM    DATA     BIT       TCON_IT1
      000000E8H.2 SFRSYM    DATA     BIT       ADC0CN0_ADCM2
      000000D7H   SFRSYM    DATA     BYTE      SFRSTACK
      00000098H   SFRSYM    DATA     BYTE      SCON0
      000000F6H   SFRSYM    DATA     BYTE      PRTDRV
      000000EDH   SFRSYM    DATA     BYTE      P1MAT
      000000E8H.3 SFRSYM    DATA     BIT       ADC0CN0_ADWINT
      00000095H   SFRSYM    DATA     WORD      SBRL1
      00000093H   SFRSYM    DATA     BYTE      SMOD1
      000000C8H   SFRSYM    DATA     BYTE      SCON1
      000000FBH   SFRSYM    DATA     BYTE      P2MAT
      00000098H.6 SFRSYM    DATA     BIT       TMR4CN0_TF4L
      000000E8H.4 SFRSYM    DATA     BIT       ADC0CN0_ADBUSY
      000000D6H   SFRSYM    DATA     BYTE      SMB0ADM
      000000C5H   SFRSYM    DATA     BYTE      ADC0LTL
      000000F8H.5 SFRSYM    DATA     BIT       SPI0CN0_MODF
      000000B8H.6 SFRSYM    DATA     BIT       IP_PSPI0
      0000009CH   SFRSYM    DATA     BYTE      PCA0CLR
      000000C8H   SFRSYM    DATA     BYTE      TMR2CN0
      00000091H   SFRSYM    DATA     BYTE      TMR3CN0
      000000FDH   SFRSYM    DATA     BYTE      TMR2CN1
      00000098H   SFRSYM    DATA     BYTE      TMR4CN0
LX51 LINKER/LOCATER V4.66.97.0                                                        09/02/2020  13:20:23  PAGE 58


      000000FEH   SFRSYM    DATA     BYTE      TMR3CN1
      000000FFH   SFRSYM    DATA     BYTE      TMR4CN1
      000000D7H   SFRSYM    DATA     BYTE      SMB0ADR
      00000088H.4 SFRSYM    DATA     BIT       TCON_TR0
      000000C8H.4 SFRSYM    DATA     BIT       TMR2CN0_TF2CEN
      00000088H.6 SFRSYM    DATA     BIT       TCON_TR1
      000000C2H   SFRSYM    DATA     BYTE      SMB0DAT
      000000CDH   SFRSYM    DATA     BYTE      TMR2H
      000000A1H   SFRSYM    DATA     BYTE      SPI0CFG
      00000095H   SFRSYM    DATA     BYTE      TMR3H
      000000EFH   SFRSYM    DATA     BYTE      HFOCN
      000000D3H   SFRSYM    DATA     BYTE      CRC0CNT
      000000A5H   SFRSYM    DATA     BYTE      TMR4H
      00000098H.4 SFRSYM    DATA     BIT       TMR4CN0_TF4CEN
      000000EFH   SFRSYM    DATA     BYTE      SMB0FCT
      00000096H   SFRSYM    DATA     BYTE      PCA0POL
      000000CCH   SFRSYM    DATA     BYTE      TMR2L
      000000F8H.7 SFRSYM    DATA     BIT       SPI0CN0_SPIF
      00000094H   SFRSYM    DATA     BYTE      TMR3L
      000000DFH   SFRSYM    DATA     BYTE      ADC0PWR
      000000A8H.7 SFRSYM    DATA     BIT       IE_EA
      000000A4H   SFRSYM    DATA     BYTE      TMR4L
      000000C8H.5 SFRSYM    DATA     BIT       TMR2CN0_TF2LEN
      000000F8H.6 SFRSYM    DATA     BIT       SPI0CN0_WCOL
      000000F8H.2 SFRSYM    DATA     BIT       SPI0CN0_NSSMD0
      000000D0H.7 SFRSYM    DATA     BIT       PSW_CY
      0000009DH   SFRSYM    DATA     BYTE      UART1FCN0
      000000A3H   SFRSYM    DATA     BYTE      SPI0DAT
      000000ADH   SFRSYM    DATA     BYTE      I2C0FCN0
      000000F8H.3 SFRSYM    DATA     BIT       SPI0CN0_NSSMD1
      000000BDH   SFRSYM    DATA     WORD      ADC0
      000000D8H   SFRSYM    DATA     BYTE      UART1FCN1
      000000ABH   SFRSYM    DATA     BYTE      I2C0FCN1
      00000098H.5 SFRSYM    DATA     BIT       TMR4CN0_TF4LEN
      000000D0H   SFRSYM    DATA     BYTE      PSW
      000000F7H   SFRSYM    DATA     BYTE      PCA0PWM
      000000F7H   SFRSYM    DATA     BYTE      SPI0FCT
      000000B6H   SFRSYM    DATA     BYTE      REVID
      000000B7H   SFRSYM    DATA     BYTE      FLKEY
      000000B3H   SFRSYM    DATA     BYTE      ADC0AC
      00000007H   SYMBOL    DATA     BYTE      i
      00000002H   SYMBOL    DATA     WORD      i

      010037CDH   BLOCK     CODE     ---       LVL=0
      010037CDH   BLOCK     CODE     NEAR LAB  LVL=1
      00000007H   SYMBOL    DATA     BYTE      i
      ---         BLOCKEND  ---      ---       LVL=1
      010037CDH   LINE      CODE     ---       #206
      010037CDH   LINE      CODE     ---       #207
      010037CDH   LINE      CODE     ---       #209
      010037D3H   LINE      CODE     ---       #210
      010037D8H   LINE      CODE     ---       #211
      010037DEH   LINE      CODE     ---       #212
      010037EAH   LINE      CODE     ---       #213
      010037EAH   LINE      CODE     ---       #214
      010037F7H   LINE      CODE     ---       #215
      01003804H   LINE      CODE     ---       #216
      01003810H   LINE      CODE     ---       #217
      01003813H   LINE      CODE     ---       #218
      01003818H   LINE      CODE     ---       #219
      0100381EH   LINE      CODE     ---       #220
      01003823H   LINE      CODE     ---       #221
LX51 LINKER/LOCATER V4.66.97.0                                                        09/02/2020  13:20:23  PAGE 59


      ---         BLOCKEND  ---      ---       LVL=0

      01003C2DH   BLOCK     CODE     ---       LVL=0
      01003C2DH   LINE      CODE     ---       #224
      01003C2DH   LINE      CODE     ---       #225
      01003C2DH   LINE      CODE     ---       #226
      01003C3BH   LINE      CODE     ---       #227
      01003C4AH   LINE      CODE     ---       #228
      01003C4AH   LINE      CODE     ---       #229
      01003C56H   LINE      CODE     ---       #230
      01003C56H   LINE      CODE     ---       #231
      ---         BLOCKEND  ---      ---       LVL=0

      0100358CH   BLOCK     CODE     ---       LVL=0
      0100358CH   BLOCK     CODE     NEAR LAB  LVL=1
      02000388H   SYMBOL    XDATA    BYTE      i
      ---         BLOCKEND  ---      ---       LVL=1
      0100358CH   LINE      CODE     ---       #308
      0100358CH   LINE      CODE     ---       #309
      0100358CH   LINE      CODE     ---       #312
      0100358FH   LINE      CODE     ---       #313
      010035A2H   LINE      CODE     ---       #314
      010035A2H   LINE      CODE     ---       #315
      010035A4H   LINE      CODE     ---       #316
      010035A6H   LINE      CODE     ---       #317
      010035ADH   LINE      CODE     ---       #318
      010035BDH   LINE      CODE     ---       #319
      010035C8H   LINE      CODE     ---       #320
      010035CAH   LINE      CODE     ---       #321
      010035CCH   LINE      CODE     ---       #322
      010035D3H   LINE      CODE     ---       #323
      010035D8H   LINE      CODE     ---       #324
      010035E0H   LINE      CODE     ---       #325
      010035E2H   LINE      CODE     ---       #326
      010035E4H   LINE      CODE     ---       #327
      010035EEH   LINE      CODE     ---       #328
      ---         BLOCKEND  ---      ---       LVL=0

      01003C57H   BLOCK     CODE     ---       LVL=0
      01003C57H   LINE      CODE     ---       #335
      01003C57H   LINE      CODE     ---       #336
      01003C57H   LINE      CODE     ---       #337
      01003C68H   LINE      CODE     ---       #338
      01003C68H   LINE      CODE     ---       #339
      01003C74H   LINE      CODE     ---       #340
      01003C75H   LINE      CODE     ---       #342
      01003C75H   LINE      CODE     ---       #343
      01003C80H   LINE      CODE     ---       #344
      01003C80H   LINE      CODE     ---       #345
      ---         BLOCKEND  ---      ---       LVL=0

      01002755H   BLOCK     CODE     ---       LVL=0
      01002755H   LINE      CODE     ---       #357
      01002755H   LINE      CODE     ---       #358
      01002755H   LINE      CODE     ---       #359
      01002766H   LINE      CODE     ---       #360
      01002766H   LINE      CODE     ---       #361
      0100278CH   LINE      CODE     ---       #363
      0100278CH   LINE      CODE     ---       #364
      01002793H   LINE      CODE     ---       #365
      010027B0H   LINE      CODE     ---       #366
      010027BDH   LINE      CODE     ---       #367
LX51 LINKER/LOCATER V4.66.97.0                                                        09/02/2020  13:20:23  PAGE 60


      010027BDH   LINE      CODE     ---       #368
      010027C0H   LINE      CODE     ---       #369
      010027C0H   LINE      CODE     ---       #370
      010027C2H   LINE      CODE     ---       #371
      010027E8H   LINE      CODE     ---       #373
      010027E8H   LINE      CODE     ---       #374
      010027F0H   LINE      CODE     ---       #375
      010027FAH   LINE      CODE     ---       #376
      010027FCH   LINE      CODE     ---       #378
      010027FCH   LINE      CODE     ---       #379
      01002809H   LINE      CODE     ---       #380
      01002809H   LINE      CODE     ---       #381
      0100280CH   LINE      CODE     ---       #382
      0100280CH   LINE      CODE     ---       #383
      0100280CH   LINE      CODE     ---       #384
      0100281BH   LINE      CODE     ---       #385
      0100281BH   LINE      CODE     ---       #386
      01002822H   LINE      CODE     ---       #387
      01002822H   LINE      CODE     ---       #388
      01002824H   LINE      CODE     ---       #390
      01002824H   LINE      CODE     ---       #392
      0100284BH   LINE      CODE     ---       #394
      0100284BH   LINE      CODE     ---       #395
      01002858H   LINE      CODE     ---       #396
      01002858H   LINE      CODE     ---       #397
      0100285BH   LINE      CODE     ---       #398
      0100285BH   LINE      CODE     ---       #399
      0100285DH   LINE      CODE     ---       #401
      0100285DH   LINE      CODE     ---       #403
      0100286AH   LINE      CODE     ---       #404
      0100286AH   LINE      CODE     ---       #405
      0100286DH   LINE      CODE     ---       #406
      0100286DH   LINE      CODE     ---       #407
      0100286DH   LINE      CODE     ---       #408
      0100286DH   LINE      CODE     ---       #409
      ---         BLOCKEND  ---      ---       LVL=0

      01003EE8H   BLOCK     CODE     ---       LVL=0
      01003EE8H   LINE      CODE     ---       #416
      01003EE8H   LINE      CODE     ---       #417
      01003EE8H   LINE      CODE     ---       #418
      01003EEBH   LINE      CODE     ---       #419
      01003EEEH   LINE      CODE     ---       #420
      ---         BLOCKEND  ---      ---       LVL=0

      01003EF8H   BLOCK     CODE     ---       LVL=0
      01003EF8H   LINE      CODE     ---       #423
      01003EF8H   LINE      CODE     ---       #424
      01003EF8H   LINE      CODE     ---       #425
      01003EFBH   LINE      CODE     ---       #426
      ---         BLOCKEND  ---      ---       LVL=0

      01003EFEH   BLOCK     CODE     ---       LVL=0
      01003EFEH   LINE      CODE     ---       #429
      01003EFEH   LINE      CODE     ---       #430
      01003EFEH   LINE      CODE     ---       #431
      01003F03H   LINE      CODE     ---       #432
      ---         BLOCKEND  ---      ---       LVL=0

      0100327CH   BLOCK     CODE     ---       LVL=0
      0100327CH   BLOCK     CODE     NEAR LAB  LVL=1
      00000007H   SYMBOL    DATA     BYTE      i
LX51 LINKER/LOCATER V4.66.97.0                                                        09/02/2020  13:20:23  PAGE 61


      ---         BLOCKEND  ---      ---       LVL=1
      0100327CH   LINE      CODE     ---       #437
      0100327CH   LINE      CODE     ---       #438
      0100327CH   LINE      CODE     ---       #440
      01003290H   LINE      CODE     ---       #441
      010032A2H   LINE      CODE     ---       #442
      010032B5H   LINE      CODE     ---       #443
      010032C5H   LINE      CODE     ---       #445
      010032CBH   LINE      CODE     ---       #446
      010032D0H   LINE      CODE     ---       #447
      010032D6H   LINE      CODE     ---       #448
      010032DCH   LINE      CODE     ---       #450
      010032E7H   LINE      CODE     ---       #451
      010032E7H   LINE      CODE     ---       #452
      01003305H   LINE      CODE     ---       #453
      01003308H   LINE      CODE     ---       #454
      ---         BLOCKEND  ---      ---       LVL=0

      01003717H   BLOCK     CODE     ---       LVL=0
      01003717H   BLOCK     CODE     NEAR LAB  LVL=1
      00000007H   SYMBOL    DATA     BYTE      i
      ---         BLOCKEND  ---      ---       LVL=1
      01003717H   LINE      CODE     ---       #459
      01003717H   LINE      CODE     ---       #460
      01003717H   LINE      CODE     ---       #462
      0100371CH   LINE      CODE     ---       #463
      01003720H   LINE      CODE     ---       #464
      01003726H   LINE      CODE     ---       #465
      01003729H   LINE      CODE     ---       #466
      0100372DH   LINE      CODE     ---       #468
      01003731H   LINE      CODE     ---       #469
      01003736H   LINE      CODE     ---       #470
      01003742H   LINE      CODE     ---       #471
      01003742H   LINE      CODE     ---       #472
      01003752H   LINE      CODE     ---       #473
      01003755H   LINE      CODE     ---       #474
      01003761H   LINE      CODE     ---       #475
      01003761H   LINE      CODE     ---       #476
      0100376EH   LINE      CODE     ---       #477
      01003771H   LINE      CODE     ---       #478
      ---         BLOCKEND  ---      ---       LVL=0

      01003C81H   BLOCK     CODE     ---       LVL=0
      01003C81H   BLOCK     CODE     NEAR LAB  LVL=1
      00000006H   SYMBOL    DATA     WORD      i
      ---         BLOCKEND  ---      ---       LVL=1
      01003C81H   LINE      CODE     ---       #483
      01003C81H   LINE      CODE     ---       #484
      01003C81H   LINE      CODE     ---       #486
      01003C84H   LINE      CODE     ---       #487
      01003C84H   LINE      CODE     ---       #488
      01003C90H   LINE      CODE     ---       #489
      01003C9BH   LINE      CODE     ---       #490
      01003CA2H   LINE      CODE     ---       #491
      01003CA8H   LINE      CODE     ---       #492
      ---         BLOCKEND  ---      ---       LVL=0

      010035F1H   BLOCK     CODE     ---       LVL=0
      02000390H   SYMBOL    XDATA    WORD      ObsTime
      00000004H   SYMBOL    DATA     WORD      EchoWidth
      00000001H   SYMBOL    DATA     BYTE      VolHeight
      010035FBH   BLOCK     CODE     NEAR LAB  LVL=1
LX51 LINKER/LOCATER V4.66.97.0                                                        09/02/2020  13:20:23  PAGE 62


      00000003H   SYMBOL    DATA     BYTE      ret
      00000007H   SYMBOL    DATA     BYTE      Index
      ---         BLOCKEND  ---      ---       LVL=1
      010035F1H   LINE      CODE     ---       #495
      010035FBH   LINE      CODE     ---       #496
      010035FBH   LINE      CODE     ---       #497
      010035FDH   LINE      CODE     ---       #500
      01003604H   LINE      CODE     ---       #501
      0100362FH   LINE      CODE     ---       #502
      0100362FH   LINE      CODE     ---       #503
      01003645H   LINE      CODE     ---       #504
      01003653H   LINE      CODE     ---       #505
      01003653H   LINE      CODE     ---       #506
      01003655H   LINE      CODE     ---       #507
      ---         BLOCKEND  ---      ---       LVL=0

      01003309H   BLOCK     CODE     ---       LVL=0
      01003309H   LINE      CODE     ---       #512
      01003309H   LINE      CODE     ---       #513
      01003309H   LINE      CODE     ---       #514
      0100331DH   LINE      CODE     ---       #515
      0100332DH   LINE      CODE     ---       #516
      0100333DH   LINE      CODE     ---       #517
      01003352H   LINE      CODE     ---       #518
      0100336BH   LINE      CODE     ---       #519
      0100337BH   LINE      CODE     ---       #520
      ---         BLOCKEND  ---      ---       LVL=0

      0100399FH   BLOCK     CODE     ---       LVL=0
      0200038FH   SYMBOL    XDATA    ---       SP
      02000392H   SYMBOL    XDATA    ---       EP
      02000395H   SYMBOL    XDATA    BYTE      Len
      010039AAH   BLOCK     CODE     NEAR LAB  LVL=1
      00000007H   SYMBOL    DATA     BYTE      i
      ---         BLOCKEND  ---      ---       LVL=1
      0100399FH   LINE      CODE     ---       #522
      010039AAH   LINE      CODE     ---       #523
      010039AAH   LINE      CODE     ---       #525
      010039B6H   LINE      CODE     ---       #526
      010039B6H   LINE      CODE     ---       #527
      010039DEH   LINE      CODE     ---       #528
      010039E1H   LINE      CODE     ---       #529
      ---         BLOCKEND  ---      ---       LVL=0

      0100197DH   BLOCK     CODE     ---       LVL=0
      0100197DH   BLOCK     CODE     NEAR LAB  LVL=1
      00000007H   SYMBOL    DATA     BYTE      i
      00000006H   SYMBOL    DATA     BYTE      j
      02000388H   SYMBOL    XDATA    BYTE      temp
      00000001H   SYMBOL    DATA     BYTE      add
      02000389H   SYMBOL    XDATA    WORD      AdLow
      0200038BH   SYMBOL    XDATA    WORD      AdMid
      0200038DH   SYMBOL    XDATA    WORD      AdHigh
      ---         BLOCKEND  ---      ---       LVL=1
      0100197DH   LINE      CODE     ---       #532
      0100197DH   LINE      CODE     ---       #533
      0100197DH   LINE      CODE     ---       #539
      010019A4H   LINE      CODE     ---       #541
      010019ACH   LINE      CODE     ---       #543
      010019C0H   LINE      CODE     ---       #544
      010019C0H   LINE      CODE     ---       #545
      010019D5H   LINE      CODE     ---       #546
LX51 LINKER/LOCATER V4.66.97.0                                                        09/02/2020  13:20:23  PAGE 63


      010019D5H   LINE      CODE     ---       #547
      010019F1H   LINE      CODE     ---       #548
      010019F1H   LINE      CODE     ---       #549
      010019F6H   LINE      CODE     ---       #550
      01001A02H   LINE      CODE     ---       #551
      01001A0EH   LINE      CODE     ---       #552
      01001A0EH   LINE      CODE     ---       #553
      01001A11H   LINE      CODE     ---       #554
      01001A14H   LINE      CODE     ---       #555
      01001A1BH   LINE      CODE     ---       #556
      01001A1FH   LINE      CODE     ---       #557
      01001A23H   LINE      CODE     ---       #558
      01001A38H   LINE      CODE     ---       #559
      01001A38H   LINE      CODE     ---       #560
      01001A51H   LINE      CODE     ---       #561
      01001A6AH   LINE      CODE     ---       #562
      01001A83H   LINE      CODE     ---       #563
      01001A86H   LINE      CODE     ---       #564
      01001A98H   LINE      CODE     ---       #565
      01001AA8H   LINE      CODE     ---       #566
      01001AC0H   LINE      CODE     ---       #568
      01001ADEH   LINE      CODE     ---       #570
      01001AE7H   LINE      CODE     ---       #571
      01001AE7H   LINE      CODE     ---       #572
      01001AEEH   LINE      CODE     ---       #573
      01001AF4H   LINE      CODE     ---       #574
      01001AFEH   LINE      CODE     ---       #575
      01001AFEH   LINE      CODE     ---       #581
      01001B0EH   LINE      CODE     ---       #582
      01001B0EH   LINE      CODE     ---       #583
      01001B11H   LINE      CODE     ---       #584
      01001B25H   LINE      CODE     ---       #585
      01001B27H   LINE      CODE     ---       #586
      01001B39H   LINE      CODE     ---       #587
      01001B39H   LINE      CODE     ---       #588
      01001B46H   LINE      CODE     ---       #589
      01001B48H   LINE      CODE     ---       #591
      01001B48H   LINE      CODE     ---       #592
      01001B54H   LINE      CODE     ---       #593
      01001B54H   LINE      CODE     ---       #594
      01001B6CH   LINE      CODE     ---       #596
      ---         BLOCKEND  ---      ---       LVL=0

      01001D55H   BLOCK     CODE     ---       LVL=0
      01001D55H   BLOCK     CODE     NEAR LAB  LVL=1
      00000002H   SYMBOL    DATA     WORD      i
      02000390H   SYMBOL    XDATA    WORD      j
      02000392H   SYMBOL    XDATA    WORD      k
      00000007H   SYMBOL    DATA     BYTE      Temp
      ---         BLOCKEND  ---      ---       LVL=1
      01001D55H   LINE      CODE     ---       #601
      01001D55H   LINE      CODE     ---       #602
      01001D55H   LINE      CODE     ---       #603
      01001D58H   LINE      CODE     ---       #604
      01001D5EH   LINE      CODE     ---       #605
      01001D62H   LINE      CODE     ---       #606
      01001D63H   LINE      CODE     ---       #609
      01001D70H   LINE      CODE     ---       #610
      01001D70H   LINE      CODE     ---       #611
      01001D7DH   LINE      CODE     ---       #612
      01001D7DH   LINE      CODE     ---       #613
      01001D7EH   LINE      CODE     ---       #614
LX51 LINKER/LOCATER V4.66.97.0                                                        09/02/2020  13:20:23  PAGE 64


      01001D87H   LINE      CODE     ---       #615
      01001D8FH   LINE      CODE     ---       #616
      01001D8FH   LINE      CODE     ---       #617
      01001D95H   LINE      CODE     ---       #618
      01001D95H   LINE      CODE     ---       #619
      01001D97H   LINE      CODE     ---       #620
      01001D97H   LINE      CODE     ---       #621
      01001D9EH   LINE      CODE     ---       #622
      01001DAEH   LINE      CODE     ---       #623
      01001DAEH   LINE      CODE     ---       #624
      01001DBAH   LINE      CODE     ---       #625
      01001DC1H   LINE      CODE     ---       #629
      01001DDAH   LINE      CODE     ---       #630
      01001DDAH   LINE      CODE     ---       #631
      01001DE7H   LINE      CODE     ---       #632
      01001DE7H   LINE      CODE     ---       #635
      01001DE7H   LINE      CODE     ---       #636
      01001DFFH   LINE      CODE     ---       #637
      01001DFFH   LINE      CODE     ---       #638
      01001DFFH   LINE      CODE     ---       #639
      01001E06H   LINE      CODE     ---       #643
      01001E22H   LINE      CODE     ---       #644
      01001E22H   LINE      CODE     ---       #645
      01001E6DH   LINE      CODE     ---       #647
      01001E6DH   LINE      CODE     ---       #648
      01001E92H   LINE      CODE     ---       #649
      01001E92H   LINE      CODE     ---       #650
      01001EB9H   LINE      CODE     ---       #651
      01001EB9H   LINE      CODE     ---       #652
      01001ECDH   LINE      CODE     ---       #653
      01001EE9H   LINE      CODE     ---       #654
      01001EE9H   LINE      CODE     ---       #655
      01001F01H   LINE      CODE     ---       #656
      01001F11H   LINE      CODE     ---       #657
      01001F11H   LINE      CODE     ---       #658
      01001F11H   LINE      CODE     ---       #659
      01001F22H   LINE      CODE     ---       #660
      01001F22H   LINE      CODE     ---       #661
      01001F2AH   LINE      CODE     ---       #663
      ---         BLOCKEND  ---      ---       LVL=0

      01000AB5H   BLOCK     CODE     ---       LVL=0
      01000AB5H   BLOCK     CODE     NEAR LAB  LVL=1
      02000388H   SYMBOL    XDATA    WORD      i
      00000007H   SYMBOL    DATA     BYTE      Distc
      0200038AH   SYMBOL    XDATA    WORD      EchoWidth
      0200038CH   SYMBOL    XDATA    WORD      ObsStartThre
      0200038EH   SYMBOL    XDATA    WORD      ObsExitThreFixed
      ---         BLOCKEND  ---      ---       LVL=1
      01000AB5H   LINE      CODE     ---       #665
      01000AB5H   LINE      CODE     ---       #666
      01000AB5H   LINE      CODE     ---       #675
      01000AD7H   LINE      CODE     ---       #677
      01000AE9H   LINE      CODE     ---       #680
      01000AECH   LINE      CODE     ---       #682
      01000AFEH   LINE      CODE     ---       #685
      01000B1CH   LINE      CODE     ---       #686
      01000B1CH   LINE      CODE     ---       #687
      01000B65H   LINE      CODE     ---       #688
      01000B87H   LINE      CODE     ---       #689
      01000B87H   LINE      CODE     ---       #690
      01000B8DH   LINE      CODE     ---       #691
LX51 LINKER/LOCATER V4.66.97.0                                                        09/02/2020  13:20:23  PAGE 65


      01000B8DH   LINE      CODE     ---       #694
      01000B8DH   LINE      CODE     ---       #695
      01000B8FH   LINE      CODE     ---       #696
      01000B94H   LINE      CODE     ---       #697
      01000BADH   LINE      CODE     ---       #698
      01000BB2H   LINE      CODE     ---       #699
      01000BB4H   LINE      CODE     ---       #700
      01000BBAH   LINE      CODE     ---       #701
      01000BBAH   LINE      CODE     ---       #702
      01000BBAH   LINE      CODE     ---       #703
      01000BBAH   LINE      CODE     ---       #705
      01000BEBH   LINE      CODE     ---       #706
      01000BEBH   LINE      CODE     ---       #707
      01000BF6H   LINE      CODE     ---       #708
      01000BF6H   LINE      CODE     ---       #711
      01000BF6H   LINE      CODE     ---       #712
      01000BF7H   LINE      CODE     ---       #713
      01000C12H   LINE      CODE     ---       #715
      01000C12H   LINE      CODE     ---       #716
      01000C26H   LINE      CODE     ---       #717
      01000C26H   LINE      CODE     ---       #718
      01000C35H   LINE      CODE     ---       #720
      01000C4AH   LINE      CODE     ---       #721
      01000C4AH   LINE      CODE     ---       #722
      01000C81H   LINE      CODE     ---       #723
      01000C9BH   LINE      CODE     ---       #724
      01000CACH   LINE      CODE     ---       #725
      01000CAFH   LINE      CODE     ---       #726
      01000CAFH   LINE      CODE     ---       #729
      01000CCFH   LINE      CODE     ---       #733
      01000CDCH   LINE      CODE     ---       #734
      01000CDCH   LINE      CODE     ---       #735
      01000CF4H   LINE      CODE     ---       #736
      01000CF8H   LINE      CODE     ---       #737
      01000CF8H   LINE      CODE     ---       #738
      01000D26H   LINE      CODE     ---       #739
      01000D3CH   LINE      CODE     ---       #740
      01000D3CH   LINE      CODE     ---       #741
      01000D4BH   LINE      CODE     ---       #742
      01000D53H   LINE      CODE     ---       #744
      01000D53H   LINE      CODE     ---       #745
      01000D67H   LINE      CODE     ---       #746
      01000D67H   LINE      CODE     ---       #747
      01000D67H   LINE      CODE     ---       #748
      01000D67H   LINE      CODE     ---       #749
      01000D67H   LINE      CODE     ---       #750
      01000D67H   LINE      CODE     ---       #752
      01000D6FH   LINE      CODE     ---       #753
      01000D6FH   LINE      CODE     ---       #754
      01000D7DH   LINE      CODE     ---       #755
      01000D97H   LINE      CODE     ---       #756
      01000D97H   LINE      CODE     ---       #757
      01000D99H   LINE      CODE     ---       #758
      01000D99H   LINE      CODE     ---       #761
      01000DBFH   LINE      CODE     ---       #762
      01000DBFH   LINE      CODE     ---       #763
      01000DD4H   LINE      CODE     ---       #764
      01000DD4H   LINE      CODE     ---       #765
      01000DD9H   LINE      CODE     ---       #766
      01000DD9H   LINE      CODE     ---       #767
      01000DD9H   LINE      CODE     ---       #768
      01000DD9H   LINE      CODE     ---       #769
LX51 LINKER/LOCATER V4.66.97.0                                                        09/02/2020  13:20:23  PAGE 66


      01000DEDH   LINE      CODE     ---       #771
      01000E01H   LINE      CODE     ---       #773
      ---         BLOCKEND  ---      ---       LVL=0

      010023A1H   BLOCK     CODE     ---       LVL=0
      010023A1H   BLOCK     CODE     NEAR LAB  LVL=1
      0200038FH   SYMBOL    XDATA    WORD      i
      ---         BLOCKEND  ---      ---       LVL=1
      010023A1H   LINE      CODE     ---       #775
      010023A1H   LINE      CODE     ---       #776
      010023A1H   LINE      CODE     ---       #777
      010023A8H   LINE      CODE     ---       #779
      010023BAH   LINE      CODE     ---       #782
      010023D8H   LINE      CODE     ---       #783
      010023D8H   LINE      CODE     ---       #784
      01002421H   LINE      CODE     ---       #785
      01002448H   LINE      CODE     ---       #786
      01002448H   LINE      CODE     ---       #787
      0100244EH   LINE      CODE     ---       #788
      0100244EH   LINE      CODE     ---       #791
      0100244EH   LINE      CODE     ---       #792
      01002450H   LINE      CODE     ---       #793
      01002455H   LINE      CODE     ---       #794
      0100245BH   LINE      CODE     ---       #795
      0100245BH   LINE      CODE     ---       #796
      0100245BH   LINE      CODE     ---       #797
      0100245DH   LINE      CODE     ---       #798
      0100246BH   LINE      CODE     ---       #799
      0100246BH   LINE      CODE     ---       #800
      01002473H   LINE      CODE     ---       #801
      01002473H   LINE      CODE     ---       #804
      01002473H   LINE      CODE     ---       #805
      01002474H   LINE      CODE     ---       #806
      0100248FH   LINE      CODE     ---       #808
      0100248FH   LINE      CODE     ---       #809
      010024A3H   LINE      CODE     ---       #810
      010024A3H   LINE      CODE     ---       #811
      010024A3H   LINE      CODE     ---       #812
      010024A3H   LINE      CODE     ---       #813
      010024A3H   LINE      CODE     ---       #815
      010024ABH   LINE      CODE     ---       #816
      010024ABH   LINE      CODE     ---       #817
      010024B9H   LINE      CODE     ---       #818
      010024D3H   LINE      CODE     ---       #819
      010024D3H   LINE      CODE     ---       #820
      010024D5H   LINE      CODE     ---       #821
      010024D5H   LINE      CODE     ---       #822
      010024D5H   LINE      CODE     ---       #823
      010024E9H   LINE      CODE     ---       #824
      ---         BLOCKEND  ---      ---       LVL=0

      0100154FH   BLOCK     CODE     ---       LVL=0
      0100154FH   LINE      CODE     ---       #829
      0100154FH   LINE      CODE     ---       #830
      0100154FH   LINE      CODE     ---       #831
      0100157AH   LINE      CODE     ---       #832
      0100157AH   LINE      CODE     ---       #833
      0100157AH   LINE      CODE     ---       #835
      0100157DH   LINE      CODE     ---       #837
      01001588H   LINE      CODE     ---       #838
      01001588H   LINE      CODE     ---       #839
      01001589H   LINE      CODE     ---       #840
LX51 LINKER/LOCATER V4.66.97.0                                                        09/02/2020  13:20:23  PAGE 67


      0100158CH   LINE      CODE     ---       #841
      01001591H   LINE      CODE     ---       #842
      01001597H   LINE      CODE     ---       #843
      0100159CH   LINE      CODE     ---       #844
      0100159CH   LINE      CODE     ---       #846
      0100159DH   LINE      CODE     ---       #847
      0100159DH   LINE      CODE     ---       #848
      010015ADH   LINE      CODE     ---       #850
      010015ADH   LINE      CODE     ---       #851
      010015B3H   LINE      CODE     ---       #852
      010015B3H   LINE      CODE     ---       #853
      010015B4H   LINE      CODE     ---       #854
      010015B4H   LINE      CODE     ---       #855
      010015BAH   LINE      CODE     ---       #856
      010015BDH   LINE      CODE     ---       #857
      010015C0H   LINE      CODE     ---       #858
      010015C3H   LINE      CODE     ---       #859
      010015C6H   LINE      CODE     ---       #860
      010015CCH   LINE      CODE     ---       #861
      010015CDH   LINE      CODE     ---       #862
      010015CDH   LINE      CODE     ---       #863
      010015DCH   LINE      CODE     ---       #865
      010015DCH   LINE      CODE     ---       #866
      010015DFH   LINE      CODE     ---       #867
      010015E2H   LINE      CODE     ---       #868
      010015E8H   LINE      CODE     ---       #869
      010015E8H   LINE      CODE     ---       #870
      010015E9H   LINE      CODE     ---       #871
      010015E9H   LINE      CODE     ---       #872
      010015ECH   LINE      CODE     ---       #873
      010015EFH   LINE      CODE     ---       #874
      010015F2H   LINE      CODE     ---       #875
      010015F5H   LINE      CODE     ---       #876
      010015F8H   LINE      CODE     ---       #877
      010015FEH   LINE      CODE     ---       #878
      0100161CH   LINE      CODE     ---       #880
      01001622H   LINE      CODE     ---       #881
      01001623H   LINE      CODE     ---       #882
      01001623H   LINE      CODE     ---       #883
      01001634H   LINE      CODE     ---       #885
      01001634H   LINE      CODE     ---       #886
      01001637H   LINE      CODE     ---       #887
      0100163AH   LINE      CODE     ---       #888
      01001640H   LINE      CODE     ---       #889
      01001640H   LINE      CODE     ---       #890
      01001641H   LINE      CODE     ---       #891
      01001641H   LINE      CODE     ---       #892
      01001644H   LINE      CODE     ---       #900
      010016DFH   LINE      CODE     ---       #903
      010016DFH   LINE      CODE     ---       #904
      010016E4H   LINE      CODE     ---       #905
      010016E7H   LINE      CODE     ---       #906
      010016FBH   LINE      CODE     ---       #907
      010016FDH   LINE      CODE     ---       #909
      010016FDH   LINE      CODE     ---       #910
      01001700H   LINE      CODE     ---       #911
      01001700H   LINE      CODE     ---       #912
      01001703H   LINE      CODE     ---       #913
      01001705H   LINE      CODE     ---       #914
      01001705H   LINE      CODE     ---       #915
      01001708H   LINE      CODE     ---       #916
      01001716H   LINE      CODE     ---       #917
LX51 LINKER/LOCATER V4.66.97.0                                                        09/02/2020  13:20:23  PAGE 68


      01001723H   LINE      CODE     ---       #918
      01001723H   LINE      CODE     ---       #919
      01001726H   LINE      CODE     ---       #920
      01001744H   LINE      CODE     ---       #921
      0100174CH   LINE      CODE     ---       #922
      0100174CH   LINE      CODE     ---       #923
      0100174EH   LINE      CODE     ---       #925
      0100174EH   LINE      CODE     ---       #926
      01001751H   LINE      CODE     ---       #927
      01001756H   LINE      CODE     ---       #928
      0100175CH   LINE      CODE     ---       #929
      0100175CH   LINE      CODE     ---       #930
      01001762H   LINE      CODE     ---       #931
      01001763H   LINE      CODE     ---       #933
      01001763H   LINE      CODE     ---       #934
      0100176BH   LINE      CODE     ---       #935
      0100176BH   LINE      CODE     ---       #936
      0100176EH   LINE      CODE     ---       #937
      0100176FH   LINE      CODE     ---       #939
      0100176FH   LINE      CODE     ---       #940
      01001775H   LINE      CODE     ---       #941
      01001775H   LINE      CODE     ---       #942
      01001775H   LINE      CODE     ---       #943
      01001775H   LINE      CODE     ---       #944
      01001776H   LINE      CODE     ---       #945
      01001776H   LINE      CODE     ---       #946
      0100177CH   LINE      CODE     ---       #947
      0100177CH   LINE      CODE     ---       #948
      0100177CH   LINE      CODE     ---       #949
      ---         BLOCKEND  ---      ---       LVL=0

      010033E8H   BLOCK     CODE     ---       LVL=0
      010033E8H   BLOCK     CODE     NEAR LAB  LVL=1
      00000007H   SYMBOL    DATA     BYTE      i
      ---         BLOCKEND  ---      ---       LVL=1
      010033E8H   LINE      CODE     ---       #951
      010033E8H   LINE      CODE     ---       #952
      010033E8H   LINE      CODE     ---       #954
      010033EDH   LINE      CODE     ---       #955
      010033F1H   LINE      CODE     ---       #956
      01003405H   LINE      CODE     ---       #957
      0100340FH   LINE      CODE     ---       #958
      0100341EH   LINE      CODE     ---       #959
      01003424H   LINE      CODE     ---       #960
      01003436H   LINE      CODE     ---       #961
      01003442H   LINE      CODE     ---       #962
      01003442H   LINE      CODE     ---       #963
      0100344FH   LINE      CODE     ---       #964
      01003452H   LINE      CODE     ---       #965
      ---         BLOCKEND  ---      ---       LVL=0

      01001F2BH   BLOCK     CODE     ---       LVL=0
      01001F2BH   BLOCK     CODE     NEAR LAB  LVL=1
      00000005H   SYMBOL    DATA     BYTE      i
      00000006H   SYMBOL    DATA     BYTE      bDis
      00000007H   SYMBOL    DATA     BYTE      bDiff
      00000006H   SYMBOL    DATA     BYTE      bFrockDis
      ---         BLOCKEND  ---      ---       LVL=1
      01001F2BH   LINE      CODE     ---       #970
      01001F2BH   LINE      CODE     ---       #971
      01001F2BH   LINE      CODE     ---       #976
      01001F2DH   LINE      CODE     ---       #977
LX51 LINKER/LOCATER V4.66.97.0                                                        09/02/2020  13:20:23  PAGE 69


      01001F39H   LINE      CODE     ---       #978
      01001F39H   LINE      CODE     ---       #979
      01001F4AH   LINE      CODE     ---       #980
      01001F4AH   LINE      CODE     ---       #981
      01001F4CH   LINE      CODE     ---       #982
      01001F4CH   LINE      CODE     ---       #983
      01001F4FH   LINE      CODE     ---       #984
      01001F54H   LINE      CODE     ---       #988
      01001F56H   LINE      CODE     ---       #989
      01001F62H   LINE      CODE     ---       #990
      01001F62H   LINE      CODE     ---       #991
      01001F80H   LINE      CODE     ---       #992
      01001F80H   LINE      CODE     ---       #993
      01001F8DH   LINE      CODE     ---       #994
      01001F8DH   LINE      CODE     ---       #995
      01001F90H   LINE      CODE     ---       #997
      01001F9CH   LINE      CODE     ---       #998
      01001F9CH   LINE      CODE     ---       #999
      01001FADH   LINE      CODE     ---       #1000
      01001FADH   LINE      CODE     ---       #1001
      01001FAFH   LINE      CODE     ---       #1002
      01001FAFH   LINE      CODE     ---       #1003
      01001FB2H   LINE      CODE     ---       #1005
      01001FBFH   LINE      CODE     ---       #1006
      01001FBFH   LINE      CODE     ---       #1007
      01001FC8H   LINE      CODE     ---       #1008
      01001FC8H   LINE      CODE     ---       #1009
      01001FCBH   LINE      CODE     ---       #1010
      01001FCDH   LINE      CODE     ---       #1012
      01001FCDH   LINE      CODE     ---       #1013
      01001FDFH   LINE      CODE     ---       #1016
      01001FDFH   LINE      CODE     ---       #1018
      01001FEEH   LINE      CODE     ---       #1019
      01001FEEH   LINE      CODE     ---       #1020
      01001FEEH   LINE      CODE     ---       #1021
      01001FEEH   LINE      CODE     ---       #1023
      01001FF8H   LINE      CODE     ---       #1024
      01001FF8H   LINE      CODE     ---       #1025
      01002002H   LINE      CODE     ---       #1026
      01002002H   LINE      CODE     ---       #1027
      01002012H   LINE      CODE     ---       #1028
      01002012H   LINE      CODE     ---       #1029
      01002014H   LINE      CODE     ---       #1031
      01002014H   LINE      CODE     ---       #1032
      0100201FH   LINE      CODE     ---       #1033
      0100201FH   LINE      CODE     ---       #1034
      0100202DH   LINE      CODE     ---       #1035
      0100203BH   LINE      CODE     ---       #1037
      01002046H   LINE      CODE     ---       #1038
      01002050H   LINE      CODE     ---       #1039
      01002052H   LINE      CODE     ---       #1040
      0100205AH   LINE      CODE     ---       #1041
      0100205AH   LINE      CODE     ---       #1042
      0100205AH   LINE      CODE     ---       #1043
      0100205AH   LINE      CODE     ---       #1044
      0100205AH   LINE      CODE     ---       #1046
      0100205AH   LINE      CODE     ---       #1047
      01002069H   LINE      CODE     ---       #1048
      01002073H   LINE      CODE     ---       #1049
      01002073H   LINE      CODE     ---       #1050
      01002073H   LINE      CODE     ---       #1053
      01002075H   LINE      CODE     ---       #1054
LX51 LINKER/LOCATER V4.66.97.0                                                        09/02/2020  13:20:23  PAGE 70


      01002081H   LINE      CODE     ---       #1055
      01002081H   LINE      CODE     ---       #1056
      01002092H   LINE      CODE     ---       #1057
      01002092H   LINE      CODE     ---       #1058
      01002094H   LINE      CODE     ---       #1059
      01002094H   LINE      CODE     ---       #1060
      01002097H   LINE      CODE     ---       #1062
      010020A1H   LINE      CODE     ---       #1063
      010020A1H   LINE      CODE     ---       #1066
      010020A3H   LINE      CODE     ---       #1067
      010020ACH   LINE      CODE     ---       #1068
      010020ACH   LINE      CODE     ---       #1070
      010020AEH   LINE      CODE     ---       #1071
      010020AEH   LINE      CODE     ---       #1072
      010020AFH   LINE      CODE     ---       #1074
      010020AFH   LINE      CODE     ---       #1076
      010020B5H   LINE      CODE     ---       #1077
      010020BEH   LINE      CODE     ---       #1078
      010020BEH   LINE      CODE     ---       #1080
      010020C0H   LINE      CODE     ---       #1081
      010020C0H   LINE      CODE     ---       #1082
      010020C0H   LINE      CODE     ---       #1085
      ---         BLOCKEND  ---      ---       LVL=0

      01002FFCH   BLOCK     CODE     ---       LVL=0
      01002FFCH   BLOCK     CODE     NEAR LAB  LVL=1
      00000004H   SYMBOL    DATA     WORD      wRingTimeDiff
      ---         BLOCKEND  ---      ---       LVL=1
      01002FFCH   LINE      CODE     ---       #1091
      01002FFCH   LINE      CODE     ---       #1092
      01002FFCH   LINE      CODE     ---       #1095
      01003015H   LINE      CODE     ---       #1096
      01003027H   LINE      CODE     ---       #1098
      0100302DH   LINE      CODE     ---       #1099
      0100302DH   LINE      CODE     ---       #1100
      0100303CH   LINE      CODE     ---       #1101
      0100303CH   LINE      CODE     ---       #1103
      01003046H   LINE      CODE     ---       #1104
      0100304FH   LINE      CODE     ---       #1105
      0100304FH   LINE      CODE     ---       #1106
      01003058H   LINE      CODE     ---       #1107
      01003058H   LINE      CODE     ---       #1108
      0100305EH   LINE      CODE     ---       #1109
      0100306AH   LINE      CODE     ---       #1110
      0100306AH   LINE      CODE     ---       #1111
      0100306AH   LINE      CODE     ---       #1112
      0100306AH   LINE      CODE     ---       #1113
      0100306CH   LINE      CODE     ---       #1115
      0100306CH   LINE      CODE     ---       #1116
      01003075H   LINE      CODE     ---       #1117
      01003075H   LINE      CODE     ---       #1118
      0100307BH   LINE      CODE     ---       #1119
      01003087H   LINE      CODE     ---       #1120
      01003087H   LINE      CODE     ---       #1121
      01003087H   LINE      CODE     ---       #1122
      01003087H   LINE      CODE     ---       #1123
      01003089H   LINE      CODE     ---       #1125
      01003089H   LINE      CODE     ---       #1126
      0100309BH   LINE      CODE     ---       #1127
      010030A1H   LINE      CODE     ---       #1128
      010030A1H   LINE      CODE     ---       #1129
      010030A4H   LINE      CODE     ---       #1130
LX51 LINKER/LOCATER V4.66.97.0                                                        09/02/2020  13:20:23  PAGE 71


      010030A4H   LINE      CODE     ---       #1131
      010030A4H   LINE      CODE     ---       #1132
      010030A4H   LINE      CODE     ---       #1133
      010030A4H   LINE      CODE     ---       #1134
      010030A4H   LINE      CODE     ---       #1136
      010030A4H   LINE      CODE     ---       #1137
      010030A4H   LINE      CODE     ---       #1138
      010030A4H   LINE      CODE     ---       #1139
      ---         BLOCKEND  ---      ---       LVL=0

      01000E02H   BLOCK     CODE     ---       LVL=0
      01000E02H   BLOCK     CODE     NEAR LAB  LVL=1
      02000388H   SYMBOL    XDATA    WORD      RingTimeDiff
      0200038AH   SYMBOL    XDATA    BYTE      DistanceDiff
      0200038BH   SYMBOL    XDATA    ---       bObsDistance
      02000395H   SYMBOL    XDATA    ---       bEPDObsDistance
      00000001H   SYMBOL    DATA     BYTE      k
      00000003H   SYMBOL    DATA     BYTE      i
      00000002H   SYMBOL    DATA     BYTE      j
      ---         BLOCKEND  ---      ---       LVL=1
      01000E02H   LINE      CODE     ---       #1145
      01000E02H   LINE      CODE     ---       #1146
      01000E02H   LINE      CODE     ---       #1151
      01000E04H   LINE      CODE     ---       #1154
      01000E0FH   LINE      CODE     ---       #1155
      01000E0FH   LINE      CODE     ---       #1156
      01000E10H   LINE      CODE     ---       #1158
      01000E11H   LINE      CODE     ---       #1159
      01000E2BH   LINE      CODE     ---       #1160
      01000E2BH   LINE      CODE     ---       #1161
      01000E48H   LINE      CODE     ---       #1162
      01000E48H   LINE      CODE     ---       #1163
      01000E54H   LINE      CODE     ---       #1164
      01000E55H   LINE      CODE     ---       #1165
      01000E55H   LINE      CODE     ---       #1166
      01000E58H   LINE      CODE     ---       #1167
      01000E5DH   LINE      CODE     ---       #1168
      01000E7AH   LINE      CODE     ---       #1170
      01000E83H   LINE      CODE     ---       #1171
      01000E83H   LINE      CODE     ---       #1172
      01000E8CH   LINE      CODE     ---       #1173
      01000E8CH   LINE      CODE     ---       #1174
      01000EB7H   LINE      CODE     ---       #1175
      01000EB7H   LINE      CODE     ---       #1176
      01000EB7H   LINE      CODE     ---       #1177
      01000EB7H   LINE      CODE     ---       #1178
      01000EB7H   LINE      CODE     ---       #1179
      01000EB7H   LINE      CODE     ---       #1180
      01000EBAH   LINE      CODE     ---       #1182
      01000EBAH   LINE      CODE     ---       #1184
      01000EE6H   LINE      CODE     ---       #1185
      01000EE6H   LINE      CODE     ---       #1186
      01000EF9H   LINE      CODE     ---       #1187
      01000EFBH   LINE      CODE     ---       #1189
      01000EFBH   LINE      CODE     ---       #1190
      01000F17H   LINE      CODE     ---       #1191
      01000F17H   LINE      CODE     ---       #1192
      01000F26H   LINE      CODE     ---       #1193
      01000F26H   LINE      CODE     ---       #1194
      01000F2BH   LINE      CODE     ---       #1195
      01000F48H   LINE      CODE     ---       #1196
      01000F4AH   LINE      CODE     ---       #1198
LX51 LINKER/LOCATER V4.66.97.0                                                        09/02/2020  13:20:23  PAGE 72


      01000F4AH   LINE      CODE     ---       #1200
      01000F5CH   LINE      CODE     ---       #1201
      01000F69H   LINE      CODE     ---       #1202
      01000F69H   LINE      CODE     ---       #1203
      01000F6CH   LINE      CODE     ---       #1204
      01000F6CH   LINE      CODE     ---       #1205
      01000F73H   LINE      CODE     ---       #1207
      01000F73H   LINE      CODE     ---       #1209
      01000F7FH   LINE      CODE     ---       #1210
      01000F7FH   LINE      CODE     ---       #1211
      01000FA8H   LINE      CODE     ---       #1212
      01000FABH   LINE      CODE     ---       #1213
      01000FADH   LINE      CODE     ---       #1214
      01000FBBH   LINE      CODE     ---       #1215
      01000FBBH   LINE      CODE     ---       #1216
      01000FD8H   LINE      CODE     ---       #1217
      01000FD8H   LINE      CODE     ---       #1218
      01000FE7H   LINE      CODE     ---       #1219
      01000FE7H   LINE      CODE     ---       #1221
      01000FF7H   LINE      CODE     ---       #1222
      01000FF7H   LINE      CODE     ---       #1223
      01001005H   LINE      CODE     ---       #1224
      01001007H   LINE      CODE     ---       #1225
      01001024H   LINE      CODE     ---       #1226
      01001024H   LINE      CODE     ---       #1227
      01001031H   LINE      CODE     ---       #1228
      01001031H   LINE      CODE     ---       #1230
      01001049H   LINE      CODE     ---       #1231
      01001056H   LINE      CODE     ---       #1232
      01001057H   LINE      CODE     ---       #1233
      01001057H   LINE      CODE     ---       #1234
      01001057H   LINE      CODE     ---       #1235
      0100105BH   LINE      CODE     ---       #1236
      0100105FH   LINE      CODE     ---       #1239
      01001066H   LINE      CODE     ---       #1240
      01001066H   LINE      CODE     ---       #1241
      0100107EH   LINE      CODE     ---       #1242
      01001081H   LINE      CODE     ---       #1243
      01001088H   LINE      CODE     ---       #1245
      010010A4H   LINE      CODE     ---       #1247
      010010A4H   LINE      CODE     ---       #1249
      010010A9H   LINE      CODE     ---       #1250
      010010A9H   LINE      CODE     ---       #1251
      010010A9H   LINE      CODE     ---       #1272
      ---         BLOCKEND  ---      ---       LVL=0

      ---         MODULE    ---      ---       EFM8BB2_FLASHPRIMITIVES
      01003EF1H   PUBLIC    CODE     ---       Flash_ReadVechileMode
      01003E94H   PUBLIC    CODE     ---       _Flash_WriteVechileMode
      01003CD4H   PUBLIC    CODE     ---       _FLASH_PageErase
      0100005EH   PUBLIC    CODE     ---       _FLASH_ByteRead
      01003CABH   PUBLIC    CODE     ---       _FLASH_ByteWrite
      000000A2H   SFRSYM    DATA     BYTE      SPI0CKR
      00000080H   SFRSYM    DATA     BYTE      P0
      000000C8H.6 SFRSYM    DATA     BIT       SCON1_PERR
      000000D0H.2 SFRSYM    DATA     BIT       PSW_OV
      00000090H   SFRSYM    DATA     BYTE      P1
      000000F8H.1 SFRSYM    DATA     BIT       SPI0CN0_TXNF
      00000097H   SFRSYM    DATA     BYTE      WDTCN
      000000A0H   SFRSYM    DATA     BYTE      P2
      000000B0H   SFRSYM    DATA     BYTE      P3
      000000BCH   SFRSYM    DATA     BYTE      ADC0CF
LX51 LINKER/LOCATER V4.66.97.0                                                        09/02/2020  13:20:23  PAGE 73


      000000C0H.7 SFRSYM    DATA     BIT       SMB0CN0_MASTER
      000000F9H   SFRSYM    DATA     WORD      PCA0
      000000E6H   SFRSYM    DATA     BYTE      EIE1
      000000C0H.1 SFRSYM    DATA     BIT       SMB0CN0_ACK
      000000CEH   SFRSYM    DATA     BYTE      EIE2
      0000008FH   SFRSYM    DATA     BYTE      PSCTL
      000000E4H   SFRSYM    DATA     BYTE      IT01CF
      000000C0H.6 SFRSYM    DATA     BIT       SMB0CN0_TXMODE
      000000ADH   SFRSYM    DATA     BYTE      DERIVID
      000000A7H   SFRSYM    DATA     BYTE      SFRPAGE
      000000A4H   SFRSYM    DATA     BYTE      P0MDOUT
      000000A5H   SFRSYM    DATA     BYTE      P1MDOUT
      000000E8H.5 SFRSYM    DATA     BIT       ADC0CN0_ADINT
      000000CBH   SFRSYM    DATA     BYTE      TMR2RLH
      000000A6H   SFRSYM    DATA     BYTE      P2MDOUT
      000000A8H   SFRSYM    DATA     BYTE      IE
      00000093H   SFRSYM    DATA     BYTE      TMR3RLH
      0000009CH   SFRSYM    DATA     BYTE      P3MDOUT
      000000A3H   SFRSYM    DATA     BYTE      TMR4RLH
      000000F3H   SFRSYM    DATA     BYTE      EIP1
      000000F4H   SFRSYM    DATA     BYTE      EIP2
      00000098H.2 SFRSYM    DATA     BIT       SCON0_RB8
      000000CAH   SFRSYM    DATA     BYTE      TMR2RLL
      000000FCH   SFRSYM    DATA     BYTE      PCA0CPH0
      00000092H   SFRSYM    DATA     BYTE      TMR3RLL
      000000EAH   SFRSYM    DATA     BYTE      PCA0CPH1
      00000098H.3 SFRSYM    DATA     BIT       SCON0_TB8
      000000F0H.0 SFRSYM    DATA     BIT       B_B0
      00000082H   SFRSYM    DATA     WORD      DP
      000000A2H   SFRSYM    DATA     BYTE      TMR4RLL
      000000ECH   SFRSYM    DATA     BYTE      PCA0CPH2
      000000F0H.1 SFRSYM    DATA     BIT       B_B1
      000000C3H   SFRSYM    DATA     WORD      ADC0GT
      000000BDH   SFRSYM    DATA     BYTE      I2C0SLAD
      000000D8H.3 SFRSYM    DATA     BIT       UART1FCN1_RFRQ
      000000F0H.2 SFRSYM    DATA     BIT       B_B2
      000000CFH   SFRSYM    DATA     BYTE      SFRPGCN
      000000FBH   SFRSYM    DATA     BYTE      PCA0CPL0
      000000F0H.3 SFRSYM    DATA     BIT       B_B3
      000000D9H   SFRSYM    DATA     BYTE      PCA0MD
      000000DAH   SFRSYM    DATA     BYTE      PCA0CPM0
      000000E9H   SFRSYM    DATA     BYTE      PCA0CPL1
      000000D8H.7 SFRSYM    DATA     BIT       UART1FCN1_TFRQ
      000000F0H.4 SFRSYM    DATA     BIT       B_B4
      000000DBH   SFRSYM    DATA     BYTE      PCA0CPM1
      000000EBH   SFRSYM    DATA     BYTE      PCA0CPL2
      000000F0H.5 SFRSYM    DATA     BIT       B_B5
      000000DCH   SFRSYM    DATA     BYTE      PCA0CPM2
      000000B8H   SFRSYM    DATA     BYTE      IP
      000000B9H   SFRSYM    DATA     BYTE      ADC0TK
      000000F0H.6 SFRSYM    DATA     BIT       B_B6
      000000C5H   SFRSYM    DATA     WORD      ADC0LT
      000000D8H.6 SFRSYM    DATA     BIT       UART1FCN1_TXNF
      00000098H.5 SFRSYM    DATA     BIT       SCON0_MCE
      000000F0H.7 SFRSYM    DATA     BIT       B_B7
      000000C3H   SFRSYM    DATA     BYTE      SMB0FCN0
      000000E1H   SFRSYM    DATA     BYTE      XBR0
      000000C4H   SFRSYM    DATA     BYTE      SMB0FCN1
      000000C1H   SFRSYM    DATA     BYTE      SMB0CF
      000000E2H   SFRSYM    DATA     BYTE      XBR1
      000000C1H   SFRSYM    DATA     BYTE      PFE0CN
      000000E7H   SFRSYM    DATA     BYTE      EMI0CN
LX51 LINKER/LOCATER V4.66.97.0                                                        09/02/2020  13:20:23  PAGE 74


      000000C0H.5 SFRSYM    DATA     BIT       SMB0CN0_STA
      000000E3H   SFRSYM    DATA     BYTE      XBR2
      000000BBH   SFRSYM    DATA     BYTE      ADC0MX
      000000E0H.0 SFRSYM    DATA     BIT       ACC_ACC0
      000000D1H   SFRSYM    DATA     BYTE      REF0CN
      0000008EH   SFRSYM    DATA     BYTE      CKCON0
      000000E0H.1 SFRSYM    DATA     BIT       ACC_ACC1
      000000C9H   SFRSYM    DATA     BYTE      REG0CN
      000000DDH   SFRSYM    DATA     BYTE      CRC0IN
      000000A6H   SFRSYM    DATA     BYTE      CKCON1
      000000C8H.2 SFRSYM    DATA     BIT       TMR2CN0_TR2
      000000E0H.2 SFRSYM    DATA     BIT       ACC_ACC2
      000000C6H   SFRSYM    DATA     BYTE      REG1CN
      000000E0H.3 SFRSYM    DATA     BIT       ACC_ACC3
      00000081H   SFRSYM    DATA     BYTE      SP
      0000009DH   SFRSYM    DATA     BYTE      CMP0MD
      000000E0H.4 SFRSYM    DATA     BIT       ACC_ACC4
      000000B1H   SFRSYM    DATA     BYTE      LFO0CN
      000000ABH   SFRSYM    DATA     BYTE      CMP1MD
      000000D8H.0 SFRSYM    DATA     BIT       PCA0CN0_CCF0
      000000E0H.5 SFRSYM    DATA     BIT       ACC_ACC5
      00000098H.2 SFRSYM    DATA     BIT       TMR4CN0_TR4
      000000D8H.1 SFRSYM    DATA     BIT       PCA0CN0_CCF1
      000000E0H.6 SFRSYM    DATA     BIT       ACC_ACC6
      000000CCH   SFRSYM    DATA     WORD      TMR2
      0000009AH   SFRSYM    DATA     BYTE      SPI0FCN0
      000000D8H.2 SFRSYM    DATA     BIT       PCA0CN0_CCF2
      000000E0H.7 SFRSYM    DATA     BIT       ACC_ACC7
      00000094H   SFRSYM    DATA     WORD      TMR3
      0000009BH   SFRSYM    DATA     BYTE      SPI0FCN1
      000000A4H   SFRSYM    DATA     WORD      TMR4
      00000094H   SFRSYM    DATA     BYTE      SBCON1
      000000C0H.3 SFRSYM    DATA     BIT       SMB0CN0_ACKRQ
      000000FFH   SFRSYM    DATA     BYTE      VDM0CN
      000000F1H   SFRSYM    DATA     BYTE      P0MDIN
      00000098H.4 SFRSYM    DATA     BIT       SCON0_REN
      000000ACH   SFRSYM    DATA     BYTE      SMB0TC
      000000F2H   SFRSYM    DATA     BYTE      P1MDIN
      000000C8H.4 SFRSYM    DATA     BIT       SCON1_REN
      000000F3H   SFRSYM    DATA     BYTE      P2MDIN
      000000C0H.4 SFRSYM    DATA     BIT       SMB0CN0_STO
      000000F4H   SFRSYM    DATA     BYTE      P3MDIN
      000000B9H   SFRSYM    DATA     BYTE      I2C0STAT
      000000BBH   SFRSYM    DATA     BYTE      I2C0DOUT
      00000096H   SFRSYM    DATA     BYTE      SBRLH1
      000000FEH   SFRSYM    DATA     BYTE      P0MASK
      000000D8H.5 SFRSYM    DATA     BIT       UART1FCN1_TXHOLD
      000000EEH   SFRSYM    DATA     BYTE      P1MASK
      000000FCH   SFRSYM    DATA     BYTE      P2MASK
      000000D0H.3 SFRSYM    DATA     BIT       PSW_RS0
      000000D8H.7 SFRSYM    DATA     BIT       PCA0CN0_CF
      0000009EH   SFRSYM    DATA     BYTE      PCA0CENT
      000000BAH   SFRSYM    DATA     BYTE      I2C0CN0
      000000D2H   SFRSYM    DATA     BYTE      CRC0ST
      000000F8H.4 SFRSYM    DATA     BIT       SPI0CN0_RXOVRN
      000000D0H.4 SFRSYM    DATA     BIT       PSW_RS1
      00000095H   SFRSYM    DATA     BYTE      SBRLL1
      000000C8H.2 SFRSYM    DATA     BIT       SCON1_RBX
      000000C8H.0 SFRSYM    DATA     BIT       TMR2CN0_T2XCLK0
      000000C8H.1 SFRSYM    DATA     BIT       TMR2CN0_T2XCLK1
      000000C8H.3 SFRSYM    DATA     BIT       SCON1_TBX
      000000E8H.7 SFRSYM    DATA     BIT       ADC0CN0_ADEN
LX51 LINKER/LOCATER V4.66.97.0                                                        09/02/2020  13:20:23  PAGE 75


      00000089H   SFRSYM    DATA     BYTE      TMOD
      00000088H   SFRSYM    DATA     BYTE      TCON
      000000CFH   SFRSYM    DATA     BYTE      CRC0FLIP
      000000D0H.0 SFRSYM    DATA     BIT       PSW_PARITY
      000000A8H.4 SFRSYM    DATA     BIT       IE_ES0
      0000009FH   SFRSYM    DATA     BYTE      CMP0MX
      00000098H.0 SFRSYM    DATA     BIT       TMR4CN0_T4XCLK0
      000000A8H.1 SFRSYM    DATA     BIT       IE_ET0
      000000AAH   SFRSYM    DATA     BYTE      CMP1MX
      00000098H.1 SFRSYM    DATA     BIT       TMR4CN0_T4XCLK1
      000000A8H.3 SFRSYM    DATA     BIT       IE_ET1
      000000D4H   SFRSYM    DATA     BYTE      P0SKIP
      000000D8H.0 SFRSYM    DATA     BIT       UART1FCN1_RIE
      000000A8H.5 SFRSYM    DATA     BIT       IE_ET2
      000000D5H   SFRSYM    DATA     BYTE      P1SKIP
      000000CCH   SFRSYM    DATA     BYTE      P2SKIP
      000000E8H   SFRSYM    DATA     BYTE      ADC0CN0
      000000D8H.4 SFRSYM    DATA     BIT       UART1FCN1_TIE
      000000A8H.0 SFRSYM    DATA     BIT       IE_EX0
      000000B2H   SFRSYM    DATA     BYTE      ADC0CN1
      000000D8H.6 SFRSYM    DATA     BIT       PCA0CN0_CR
      000000A8H.2 SFRSYM    DATA     BIT       IE_EX1
      000000C8H.7 SFRSYM    DATA     BIT       SCON1_OVR
      00000098H.7 SFRSYM    DATA     BIT       SCON0_SMODE
      000000B5H   SFRSYM    DATA     BYTE      DEVICEID
      000000A9H   SFRSYM    DATA     BYTE      CLKSEL
      000000F8H.0 SFRSYM    DATA     BIT       SPI0CN0_SPIEN
      000000F0H   SFRSYM    DATA     BYTE      B
      000000BEH   SFRSYM    DATA     BYTE      ADC0H
      000000E8H.6 SFRSYM    DATA     BIT       ADC0CN0_ADBMEN
      000000CAH   SFRSYM    DATA     WORD      TMR2RL
      000000BDH   SFRSYM    DATA     BYTE      ADC0L
      00000092H   SFRSYM    DATA     WORD      TMR3RL
      000000A2H   SFRSYM    DATA     WORD      TMR4RL
      000000D8H   SFRSYM    DATA     BYTE      PCA0CN0
      000000E0H   SFRSYM    DATA     BYTE      ACC
      000000FBH   SFRSYM    DATA     WORD      PCA0CP0
      000000E9H   SFRSYM    DATA     WORD      PCA0CP1
      000000EBH   SFRSYM    DATA     WORD      PCA0CP2
      000000BCH   SFRSYM    DATA     BYTE      I2C0DIN
      000000CEH   SFRSYM    DATA     BYTE      CRC0CN0
      0000008CH   SFRSYM    DATA     BYTE      TH0
      00000086H   SFRSYM    DATA     BYTE      CRC0CN1
      000000B8H.4 SFRSYM    DATA     BIT       IP_PS0
      000000FAH   SFRSYM    DATA     BYTE      UART1FCT
      0000008DH   SFRSYM    DATA     BYTE      TH1
      000000FAH   SFRSYM    DATA     BYTE      PCA0H
      000000F5H   SFRSYM    DATA     BYTE      I2C0FCT
      000000B8H.1 SFRSYM    DATA     BIT       IP_PT0
      000000B8H.3 SFRSYM    DATA     BIT       IP_PT1
      000000C0H.2 SFRSYM    DATA     BIT       SMB0CN0_ARBLOST
      000000B8H.5 SFRSYM    DATA     BIT       IP_PT2
      0000008AH   SFRSYM    DATA     BYTE      TL0
      000000D0H.5 SFRSYM    DATA     BIT       PSW_F0
      000000A8H.6 SFRSYM    DATA     BIT       IE_ESPI0
      0000008BH   SFRSYM    DATA     BYTE      TL1
      000000F9H   SFRSYM    DATA     BYTE      PCA0L
      000000C0H.0 SFRSYM    DATA     BIT       SMB0CN0_SI
      000000D0H.1 SFRSYM    DATA     BIT       PSW_F1
      00000080H.0 SFRSYM    DATA     BIT       P0_B0
      000000B8H.0 SFRSYM    DATA     BIT       IP_PX0
      00000090H.0 SFRSYM    DATA     BIT       P1_B0
LX51 LINKER/LOCATER V4.66.97.0                                                        09/02/2020  13:20:23  PAGE 76


      00000080H.1 SFRSYM    DATA     BIT       P0_B1
      000000B8H.2 SFRSYM    DATA     BIT       IP_PX1
      0000009EH   SFRSYM    DATA     BYTE      UART1LIN
      0000009BH   SFRSYM    DATA     BYTE      CMP0CN0
      00000088H.1 SFRSYM    DATA     BIT       TCON_IE0
      000000A0H.0 SFRSYM    DATA     BIT       P2_B0
      00000090H.1 SFRSYM    DATA     BIT       P1_B1
      00000080H.2 SFRSYM    DATA     BIT       P0_B2
      000000BFH   SFRSYM    DATA     BYTE      CMP1CN0
      00000099H   SFRSYM    DATA     BYTE      CMP0CN1
      00000088H.3 SFRSYM    DATA     BIT       TCON_IE1
      000000B0H.0 SFRSYM    DATA     BIT       P3_B0
      000000A0H.1 SFRSYM    DATA     BIT       P2_B1
      00000090H.2 SFRSYM    DATA     BIT       P1_B2
      00000080H.3 SFRSYM    DATA     BIT       P0_B3
      000000C0H   SFRSYM    DATA     BYTE      SMB0CN0
      000000ACH   SFRSYM    DATA     BYTE      CMP1CN1
      000000B0H.1 SFRSYM    DATA     BIT       P3_B1
      000000A0H.2 SFRSYM    DATA     BIT       P2_B2
      00000090H.3 SFRSYM    DATA     BIT       P1_B3
      00000080H.4 SFRSYM    DATA     BIT       P0_B4
      000000A0H.3 SFRSYM    DATA     BIT       P2_B3
      00000090H.4 SFRSYM    DATA     BIT       P1_B4
      00000080H.5 SFRSYM    DATA     BIT       P0_B5
      000000D8H.1 SFRSYM    DATA     BIT       UART1FCN1_RXTO0
      00000090H.5 SFRSYM    DATA     BIT       P1_B5
      00000080H.6 SFRSYM    DATA     BIT       P0_B6
      000000F5H   SFRSYM    DATA     BYTE      EIP1H
      000000D8H.2 SFRSYM    DATA     BIT       UART1FCN1_RXTO1
      00000090H.6 SFRSYM    DATA     BIT       P1_B6
      00000080H.7 SFRSYM    DATA     BIT       P0_B7
      000000C5H   SFRSYM    DATA     BYTE      SMB0RXLN
      000000F6H   SFRSYM    DATA     BYTE      EIP2H
      00000090H.7 SFRSYM    DATA     BIT       P1_B7
      00000083H   SFRSYM    DATA     BYTE      DPH
      000000C4H   SFRSYM    DATA     BYTE      ADC0GTH
      000000C8H.7 SFRSYM    DATA     BIT       TMR2CN0_TF2H
      000000C8H.3 SFRSYM    DATA     BIT       TMR2CN0_T2SPLIT
      000000D0H.6 SFRSYM    DATA     BIT       PSW_AC
      000000F8H   SFRSYM    DATA     BYTE      SPI0CN0
      000000C7H   SFRSYM    DATA     BYTE      HFO0CAL
      00000088H.5 SFRSYM    DATA     BIT       TCON_TF0
      00000098H.0 SFRSYM    DATA     BIT       SCON0_RI
      000000D6H   SFRSYM    DATA     BYTE      HFO1CAL
      00000082H   SFRSYM    DATA     BYTE      DPL
      00000088H.7 SFRSYM    DATA     BIT       TCON_TF1
      000000C8H.0 SFRSYM    DATA     BIT       SCON1_RI
      00000099H   SFRSYM    DATA     BYTE      SBUF0
      00000087H   SFRSYM    DATA     BYTE      PCON0
      000000F2H   SFRSYM    DATA     BYTE      IPH
      000000C3H   SFRSYM    DATA     BYTE      ADC0GTL
      00000098H.7 SFRSYM    DATA     BIT       TMR4CN0_TF4H
      00000098H.3 SFRSYM    DATA     BIT       TMR4CN0_T4SPLIT
      000000C8H.6 SFRSYM    DATA     BIT       TMR2CN0_TF2L
      00000098H.1 SFRSYM    DATA     BIT       SCON0_TI
      000000E8H.0 SFRSYM    DATA     BIT       ADC0CN0_ADCM0
      00000092H   SFRSYM    DATA     BYTE      SBUF1
      0000009AH   SFRSYM    DATA     BYTE      PCON1
      000000C6H   SFRSYM    DATA     BYTE      ADC0LTH
      00000088H.0 SFRSYM    DATA     BIT       TCON_IT0
      000000C8H.1 SFRSYM    DATA     BIT       SCON1_TI
      000000E8H.1 SFRSYM    DATA     BIT       ADC0CN0_ADCM1
LX51 LINKER/LOCATER V4.66.97.0                                                        09/02/2020  13:20:23  PAGE 77


      000000EFH   SFRSYM    DATA     BYTE      RSTSRC
      000000FDH   SFRSYM    DATA     BYTE      P0MAT
      000000DEH   SFRSYM    DATA     BYTE      CRC0DAT
      00000088H.2 SFRSYM    DATA     BIT       TCON_IT1
      000000E8H.2 SFRSYM    DATA     BIT       ADC0CN0_ADCM2
      000000D7H   SFRSYM    DATA     BYTE      SFRSTACK
      00000098H   SFRSYM    DATA     BYTE      SCON0
      000000F6H   SFRSYM    DATA     BYTE      PRTDRV
      000000EDH   SFRSYM    DATA     BYTE      P1MAT
      000000E8H.3 SFRSYM    DATA     BIT       ADC0CN0_ADWINT
      00000095H   SFRSYM    DATA     WORD      SBRL1
      00000093H   SFRSYM    DATA     BYTE      SMOD1
      000000C8H   SFRSYM    DATA     BYTE      SCON1
      000000FBH   SFRSYM    DATA     BYTE      P2MAT
      00000098H.6 SFRSYM    DATA     BIT       TMR4CN0_TF4L
      000000E8H.4 SFRSYM    DATA     BIT       ADC0CN0_ADBUSY
      000000D6H   SFRSYM    DATA     BYTE      SMB0ADM
      000000C5H   SFRSYM    DATA     BYTE      ADC0LTL
      000000F8H.5 SFRSYM    DATA     BIT       SPI0CN0_MODF
      000000B8H.6 SFRSYM    DATA     BIT       IP_PSPI0
      0000009CH   SFRSYM    DATA     BYTE      PCA0CLR
      000000C8H   SFRSYM    DATA     BYTE      TMR2CN0
      00000091H   SFRSYM    DATA     BYTE      TMR3CN0
      000000FDH   SFRSYM    DATA     BYTE      TMR2CN1
      00000098H   SFRSYM    DATA     BYTE      TMR4CN0
      000000FEH   SFRSYM    DATA     BYTE      TMR3CN1
      000000FFH   SFRSYM    DATA     BYTE      TMR4CN1
      000000D7H   SFRSYM    DATA     BYTE      SMB0ADR
      00000088H.4 SFRSYM    DATA     BIT       TCON_TR0
      000000C8H.4 SFRSYM    DATA     BIT       TMR2CN0_TF2CEN
      00000088H.6 SFRSYM    DATA     BIT       TCON_TR1
      000000C2H   SFRSYM    DATA     BYTE      SMB0DAT
      000000CDH   SFRSYM    DATA     BYTE      TMR2H
      000000A1H   SFRSYM    DATA     BYTE      SPI0CFG
      00000095H   SFRSYM    DATA     BYTE      TMR3H
      000000EFH   SFRSYM    DATA     BYTE      HFOCN
      000000D3H   SFRSYM    DATA     BYTE      CRC0CNT
      000000A5H   SFRSYM    DATA     BYTE      TMR4H
      00000098H.4 SFRSYM    DATA     BIT       TMR4CN0_TF4CEN
      000000EFH   SFRSYM    DATA     BYTE      SMB0FCT
      00000096H   SFRSYM    DATA     BYTE      PCA0POL
      000000CCH   SFRSYM    DATA     BYTE      TMR2L
      000000F8H.7 SFRSYM    DATA     BIT       SPI0CN0_SPIF
      00000094H   SFRSYM    DATA     BYTE      TMR3L
      000000DFH   SFRSYM    DATA     BYTE      ADC0PWR
      000000A8H.7 SFRSYM    DATA     BIT       IE_EA
      000000A4H   SFRSYM    DATA     BYTE      TMR4L
      000000C8H.5 SFRSYM    DATA     BIT       TMR2CN0_TF2LEN
      000000F8H.6 SFRSYM    DATA     BIT       SPI0CN0_WCOL
      000000F8H.2 SFRSYM    DATA     BIT       SPI0CN0_NSSMD0
      000000D0H.7 SFRSYM    DATA     BIT       PSW_CY
      0000009DH   SFRSYM    DATA     BYTE      UART1FCN0
      000000A3H   SFRSYM    DATA     BYTE      SPI0DAT
      000000ADH   SFRSYM    DATA     BYTE      I2C0FCN0
      000000F8H.3 SFRSYM    DATA     BIT       SPI0CN0_NSSMD1
      000000BDH   SFRSYM    DATA     WORD      ADC0
      000000D8H   SFRSYM    DATA     BYTE      UART1FCN1
      000000ABH   SFRSYM    DATA     BYTE      I2C0FCN1
      00000098H.5 SFRSYM    DATA     BIT       TMR4CN0_TF4LEN
      000000D0H   SFRSYM    DATA     BYTE      PSW
      000000F7H   SFRSYM    DATA     BYTE      PCA0PWM
      000000F7H   SFRSYM    DATA     BYTE      SPI0FCT
LX51 LINKER/LOCATER V4.66.97.0                                                        09/02/2020  13:20:23  PAGE 78


      000000B6H   SFRSYM    DATA     BYTE      REVID
      000000B7H   SFRSYM    DATA     BYTE      FLKEY
      000000B3H   SFRSYM    DATA     BYTE      ADC0AC

      01003CABH   BLOCK     CODE     ---       LVL=0
      00000006H   SYMBOL    DATA     WORD      addr
      00000005H   SYMBOL    DATA     BYTE      byte
      01003CABH   BLOCK     CODE     NEAR LAB  LVL=1
      00000020H.0 SYMBOL    BIT      BIT       EA_SAVE
      00000082H   SYMBOL    DATA     ---       pwrite
      ---         BLOCKEND  ---      ---       LVL=1
      01003CABH   LINE      CODE     ---       #41
      01003CABH   LINE      CODE     ---       #42
      01003CABH   LINE      CODE     ---       #43
      01003CAFH   LINE      CODE     ---       #46
      01003CB1H   LINE      CODE     ---       #48
      01003CB4H   LINE      CODE     ---       #50
      01003CB7H   LINE      CODE     ---       #52
      01003CBBH   LINE      CODE     ---       #54
      01003CBEH   LINE      CODE     ---       #55
      01003CC1H   LINE      CODE     ---       #56
      01003CC4H   LINE      CODE     ---       #58
      01003CC7H   LINE      CODE     ---       #60
      01003CCAH   LINE      CODE     ---       #61
      01003CCCH   LINE      CODE     ---       #63
      01003CCFH   LINE      CODE     ---       #65
      01003CD3H   LINE      CODE     ---       #66
      ---         BLOCKEND  ---      ---       LVL=0

      0100005EH   BLOCK     CODE     ---       LVL=0
      00000006H   SYMBOL    DATA     WORD      addr
      0100005EH   BLOCK     CODE     NEAR LAB  LVL=1
      00000020H.0 SYMBOL    BIT      BIT       EA_SAVE
      00000082H   SYMBOL    DATA     ---       pread
      00000007H   SYMBOL    DATA     BYTE      byte
      ---         BLOCKEND  ---      ---       LVL=1
      0100005EH   LINE      CODE     ---       #83
      0100005EH   LINE      CODE     ---       #84
      0100005EH   LINE      CODE     ---       #85
      01000062H   LINE      CODE     ---       #89
      01000064H   LINE      CODE     ---       #91
      01000068H   LINE      CODE     ---       #93
      0100006BH   LINE      CODE     ---       #95
      0100006FH   LINE      CODE     ---       #97
      0100006FH   LINE      CODE     ---       #98
      ---         BLOCKEND  ---      ---       LVL=0

      01003CD4H   BLOCK     CODE     ---       LVL=0
      00000006H   SYMBOL    DATA     WORD      addr
      01003CD4H   BLOCK     CODE     NEAR LAB  LVL=1
      00000020H.0 SYMBOL    BIT      BIT       EA_SAVE
      00000082H   SYMBOL    DATA     ---       pwrite
      ---         BLOCKEND  ---      ---       LVL=1
      01003CD4H   LINE      CODE     ---       #116
      01003CD4H   LINE      CODE     ---       #117
      01003CD4H   LINE      CODE     ---       #118
      01003CD8H   LINE      CODE     ---       #121
      01003CDAH   LINE      CODE     ---       #123
      01003CDDH   LINE      CODE     ---       #125
      01003CE0H   LINE      CODE     ---       #127
      01003CE4H   LINE      CODE     ---       #129
      01003CE7H   LINE      CODE     ---       #130
LX51 LINKER/LOCATER V4.66.97.0                                                        09/02/2020  13:20:23  PAGE 79


      01003CEAH   LINE      CODE     ---       #131
      01003CEDH   LINE      CODE     ---       #133
      01003CF0H   LINE      CODE     ---       #135
      01003CF3H   LINE      CODE     ---       #136
      01003CF5H   LINE      CODE     ---       #138
      01003CF8H   LINE      CODE     ---       #140
      01003CFCH   LINE      CODE     ---       #141
      ---         BLOCKEND  ---      ---       LVL=0

      01003E94H   BLOCK     CODE     ---       LVL=0
      00000005H   SYMBOL    DATA     BYTE      mode
      01003E94H   LINE      CODE     ---       #145
      01003E96H   LINE      CODE     ---       #146
      01003E96H   LINE      CODE     ---       #147
      01003E9DH   LINE      CODE     ---       #148
      ---         BLOCKEND  ---      ---       LVL=0

      01003EF1H   BLOCK     CODE     ---       LVL=0
      01003EF1H   BLOCK     CODE     NEAR LAB  LVL=1
      00000007H   SYMBOL    DATA     BYTE      temp_byte
      ---         BLOCKEND  ---      ---       LVL=1
      01003EF1H   LINE      CODE     ---       #151
      01003EF1H   LINE      CODE     ---       #152
      01003EF1H   LINE      CODE     ---       #154
      ---         BLOCKEND  ---      ---       LVL=0

      ---         MODULE    ---      ---       INITDEVICE
      000000A2H   SFRSYM    DATA     BYTE      SPI0CKR
      00000080H   SFRSYM    DATA     BYTE      P0
      000000C8H.6 SFRSYM    DATA     BIT       SCON1_PERR
      000000D0H.2 SFRSYM    DATA     BIT       PSW_OV
      00000090H   SFRSYM    DATA     BYTE      P1
      000000F8H.1 SFRSYM    DATA     BIT       SPI0CN0_TXNF
      00000097H   SFRSYM    DATA     BYTE      WDTCN
      000000A0H   SFRSYM    DATA     BYTE      P2
      000000B0H   SFRSYM    DATA     BYTE      P3
      000000BCH   SFRSYM    DATA     BYTE      ADC0CF
      000000C0H.7 SFRSYM    DATA     BIT       SMB0CN0_MASTER
      000000F9H   SFRSYM    DATA     WORD      PCA0
      000000E6H   SFRSYM    DATA     BYTE      EIE1
      000000C0H.1 SFRSYM    DATA     BIT       SMB0CN0_ACK
      000000CEH   SFRSYM    DATA     BYTE      EIE2
      0000008FH   SFRSYM    DATA     BYTE      PSCTL
      000000E4H   SFRSYM    DATA     BYTE      IT01CF
      000000C0H.6 SFRSYM    DATA     BIT       SMB0CN0_TXMODE
      000000ADH   SFRSYM    DATA     BYTE      DERIVID
      000000A7H   SFRSYM    DATA     BYTE      SFRPAGE
      000000A4H   SFRSYM    DATA     BYTE      P0MDOUT
      000000A5H   SFRSYM    DATA     BYTE      P1MDOUT
      000000E8H.5 SFRSYM    DATA     BIT       ADC0CN0_ADINT
      000000CBH   SFRSYM    DATA     BYTE      TMR2RLH
      000000A6H   SFRSYM    DATA     BYTE      P2MDOUT
      000000A8H   SFRSYM    DATA     BYTE      IE
      00000093H   SFRSYM    DATA     BYTE      TMR3RLH
      0000009CH   SFRSYM    DATA     BYTE      P3MDOUT
      000000A3H   SFRSYM    DATA     BYTE      TMR4RLH
      000000F3H   SFRSYM    DATA     BYTE      EIP1
      000000F4H   SFRSYM    DATA     BYTE      EIP2
      00000098H.2 SFRSYM    DATA     BIT       SCON0_RB8
      000000CAH   SFRSYM    DATA     BYTE      TMR2RLL
      000000FCH   SFRSYM    DATA     BYTE      PCA0CPH0
      00000092H   SFRSYM    DATA     BYTE      TMR3RLL
LX51 LINKER/LOCATER V4.66.97.0                                                        09/02/2020  13:20:23  PAGE 80


      000000EAH   SFRSYM    DATA     BYTE      PCA0CPH1
      00000098H.3 SFRSYM    DATA     BIT       SCON0_TB8
      000000F0H.0 SFRSYM    DATA     BIT       B_B0
      00000082H   SFRSYM    DATA     WORD      DP
      000000A2H   SFRSYM    DATA     BYTE      TMR4RLL
      000000ECH   SFRSYM    DATA     BYTE      PCA0CPH2
      000000F0H.1 SFRSYM    DATA     BIT       B_B1
      000000C3H   SFRSYM    DATA     WORD      ADC0GT
      000000BDH   SFRSYM    DATA     BYTE      I2C0SLAD
      000000D8H.3 SFRSYM    DATA     BIT       UART1FCN1_RFRQ
      000000F0H.2 SFRSYM    DATA     BIT       B_B2
      000000CFH   SFRSYM    DATA     BYTE      SFRPGCN
      000000FBH   SFRSYM    DATA     BYTE      PCA0CPL0
      000000F0H.3 SFRSYM    DATA     BIT       B_B3
      000000D9H   SFRSYM    DATA     BYTE      PCA0MD
      000000DAH   SFRSYM    DATA     BYTE      PCA0CPM0
      000000E9H   SFRSYM    DATA     BYTE      PCA0CPL1
      000000D8H.7 SFRSYM    DATA     BIT       UART1FCN1_TFRQ
      000000F0H.4 SFRSYM    DATA     BIT       B_B4
      000000DBH   SFRSYM    DATA     BYTE      PCA0CPM1
      000000EBH   SFRSYM    DATA     BYTE      PCA0CPL2
      000000F0H.5 SFRSYM    DATA     BIT       B_B5
      000000DCH   SFRSYM    DATA     BYTE      PCA0CPM2
      000000B8H   SFRSYM    DATA     BYTE      IP
      000000B9H   SFRSYM    DATA     BYTE      ADC0TK
      000000F0H.6 SFRSYM    DATA     BIT       B_B6
      000000C5H   SFRSYM    DATA     WORD      ADC0LT
      000000D8H.6 SFRSYM    DATA     BIT       UART1FCN1_TXNF
      00000098H.5 SFRSYM    DATA     BIT       SCON0_MCE
      000000F0H.7 SFRSYM    DATA     BIT       B_B7
      000000C3H   SFRSYM    DATA     BYTE      SMB0FCN0
      000000E1H   SFRSYM    DATA     BYTE      XBR0
      000000C4H   SFRSYM    DATA     BYTE      SMB0FCN1
      000000C1H   SFRSYM    DATA     BYTE      SMB0CF
      000000E2H   SFRSYM    DATA     BYTE      XBR1
      000000C1H   SFRSYM    DATA     BYTE      PFE0CN
      000000E7H   SFRSYM    DATA     BYTE      EMI0CN
      000000C0H.5 SFRSYM    DATA     BIT       SMB0CN0_STA
      000000E3H   SFRSYM    DATA     BYTE      XBR2
      000000BBH   SFRSYM    DATA     BYTE      ADC0MX
      000000E0H.0 SFRSYM    DATA     BIT       ACC_ACC0
      000000D1H   SFRSYM    DATA     BYTE      REF0CN
      0000008EH   SFRSYM    DATA     BYTE      CKCON0
      000000E0H.1 SFRSYM    DATA     BIT       ACC_ACC1
      000000C9H   SFRSYM    DATA     BYTE      REG0CN
      000000DDH   SFRSYM    DATA     BYTE      CRC0IN
      000000A6H   SFRSYM    DATA     BYTE      CKCON1
      000000C8H.2 SFRSYM    DATA     BIT       TMR2CN0_TR2
      000000E0H.2 SFRSYM    DATA     BIT       ACC_ACC2
      000000C6H   SFRSYM    DATA     BYTE      REG1CN
      000000E0H.3 SFRSYM    DATA     BIT       ACC_ACC3
      00000081H   SFRSYM    DATA     BYTE      SP
      0000009DH   SFRSYM    DATA     BYTE      CMP0MD
      000000E0H.4 SFRSYM    DATA     BIT       ACC_ACC4
      000000B1H   SFRSYM    DATA     BYTE      LFO0CN
      000000ABH   SFRSYM    DATA     BYTE      CMP1MD
      000000D8H.0 SFRSYM    DATA     BIT       PCA0CN0_CCF0
      000000E0H.5 SFRSYM    DATA     BIT       ACC_ACC5
      00000098H.2 SFRSYM    DATA     BIT       TMR4CN0_TR4
      000000D8H.1 SFRSYM    DATA     BIT       PCA0CN0_CCF1
      000000E0H.6 SFRSYM    DATA     BIT       ACC_ACC6
      000000CCH   SFRSYM    DATA     WORD      TMR2
LX51 LINKER/LOCATER V4.66.97.0                                                        09/02/2020  13:20:23  PAGE 81


      0000009AH   SFRSYM    DATA     BYTE      SPI0FCN0
      000000D8H.2 SFRSYM    DATA     BIT       PCA0CN0_CCF2
      000000E0H.7 SFRSYM    DATA     BIT       ACC_ACC7
      00000094H   SFRSYM    DATA     WORD      TMR3
      0000009BH   SFRSYM    DATA     BYTE      SPI0FCN1
      000000A4H   SFRSYM    DATA     WORD      TMR4
      00000094H   SFRSYM    DATA     BYTE      SBCON1
      000000C0H.3 SFRSYM    DATA     BIT       SMB0CN0_ACKRQ
      000000FFH   SFRSYM    DATA     BYTE      VDM0CN
      000000F1H   SFRSYM    DATA     BYTE      P0MDIN
      00000098H.4 SFRSYM    DATA     BIT       SCON0_REN
      000000ACH   SFRSYM    DATA     BYTE      SMB0TC
      000000F2H   SFRSYM    DATA     BYTE      P1MDIN
      000000C8H.4 SFRSYM    DATA     BIT       SCON1_REN
      000000F3H   SFRSYM    DATA     BYTE      P2MDIN
      000000C0H.4 SFRSYM    DATA     BIT       SMB0CN0_STO
      000000F4H   SFRSYM    DATA     BYTE      P3MDIN
      000000B9H   SFRSYM    DATA     BYTE      I2C0STAT
      000000BBH   SFRSYM    DATA     BYTE      I2C0DOUT
      00000096H   SFRSYM    DATA     BYTE      SBRLH1
      000000FEH   SFRSYM    DATA     BYTE      P0MASK
      000000D8H.5 SFRSYM    DATA     BIT       UART1FCN1_TXHOLD
      000000EEH   SFRSYM    DATA     BYTE      P1MASK
      000000FCH   SFRSYM    DATA     BYTE      P2MASK
      000000D0H.3 SFRSYM    DATA     BIT       PSW_RS0
      000000D8H.7 SFRSYM    DATA     BIT       PCA0CN0_CF
      0000009EH   SFRSYM    DATA     BYTE      PCA0CENT
      000000BAH   SFRSYM    DATA     BYTE      I2C0CN0
      000000D2H   SFRSYM    DATA     BYTE      CRC0ST
      000000F8H.4 SFRSYM    DATA     BIT       SPI0CN0_RXOVRN
      000000D0H.4 SFRSYM    DATA     BIT       PSW_RS1
      00000095H   SFRSYM    DATA     BYTE      SBRLL1
      000000C8H.2 SFRSYM    DATA     BIT       SCON1_RBX
      000000C8H.0 SFRSYM    DATA     BIT       TMR2CN0_T2XCLK0
      000000C8H.1 SFRSYM    DATA     BIT       TMR2CN0_T2XCLK1
      000000C8H.3 SFRSYM    DATA     BIT       SCON1_TBX
      000000E8H.7 SFRSYM    DATA     BIT       ADC0CN0_ADEN
      00000089H   SFRSYM    DATA     BYTE      TMOD
      00000088H   SFRSYM    DATA     BYTE      TCON
      000000CFH   SFRSYM    DATA     BYTE      CRC0FLIP
      000000D0H.0 SFRSYM    DATA     BIT       PSW_PARITY
      000000A8H.4 SFRSYM    DATA     BIT       IE_ES0
      0000009FH   SFRSYM    DATA     BYTE      CMP0MX
      00000098H.0 SFRSYM    DATA     BIT       TMR4CN0_T4XCLK0
      000000A8H.1 SFRSYM    DATA     BIT       IE_ET0
      000000AAH   SFRSYM    DATA     BYTE      CMP1MX
      00000098H.1 SFRSYM    DATA     BIT       TMR4CN0_T4XCLK1
      000000A8H.3 SFRSYM    DATA     BIT       IE_ET1
      000000D4H   SFRSYM    DATA     BYTE      P0SKIP
      000000D8H.0 SFRSYM    DATA     BIT       UART1FCN1_RIE
      000000A8H.5 SFRSYM    DATA     BIT       IE_ET2
      000000D5H   SFRSYM    DATA     BYTE      P1SKIP
      000000CCH   SFRSYM    DATA     BYTE      P2SKIP
      000000E8H   SFRSYM    DATA     BYTE      ADC0CN0
      000000D8H.4 SFRSYM    DATA     BIT       UART1FCN1_TIE
      000000A8H.0 SFRSYM    DATA     BIT       IE_EX0
      000000B2H   SFRSYM    DATA     BYTE      ADC0CN1
      000000D8H.6 SFRSYM    DATA     BIT       PCA0CN0_CR
      000000A8H.2 SFRSYM    DATA     BIT       IE_EX1
      000000C8H.7 SFRSYM    DATA     BIT       SCON1_OVR
      00000098H.7 SFRSYM    DATA     BIT       SCON0_SMODE
      000000B5H   SFRSYM    DATA     BYTE      DEVICEID
LX51 LINKER/LOCATER V4.66.97.0                                                        09/02/2020  13:20:23  PAGE 82


      000000A9H   SFRSYM    DATA     BYTE      CLKSEL
      000000F8H.0 SFRSYM    DATA     BIT       SPI0CN0_SPIEN
      000000F0H   SFRSYM    DATA     BYTE      B
      000000BEH   SFRSYM    DATA     BYTE      ADC0H
      000000E8H.6 SFRSYM    DATA     BIT       ADC0CN0_ADBMEN
      000000CAH   SFRSYM    DATA     WORD      TMR2RL
      000000BDH   SFRSYM    DATA     BYTE      ADC0L
      00000092H   SFRSYM    DATA     WORD      TMR3RL
      000000A2H   SFRSYM    DATA     WORD      TMR4RL
      000000D8H   SFRSYM    DATA     BYTE      PCA0CN0
      000000E0H   SFRSYM    DATA     BYTE      ACC
      000000FBH   SFRSYM    DATA     WORD      PCA0CP0
      000000E9H   SFRSYM    DATA     WORD      PCA0CP1
      000000EBH   SFRSYM    DATA     WORD      PCA0CP2
      000000BCH   SFRSYM    DATA     BYTE      I2C0DIN
      000000CEH   SFRSYM    DATA     BYTE      CRC0CN0
      0000008CH   SFRSYM    DATA     BYTE      TH0
      00000086H   SFRSYM    DATA     BYTE      CRC0CN1
      000000B8H.4 SFRSYM    DATA     BIT       IP_PS0
      000000FAH   SFRSYM    DATA     BYTE      UART1FCT
      0000008DH   SFRSYM    DATA     BYTE      TH1
      000000FAH   SFRSYM    DATA     BYTE      PCA0H
      000000F5H   SFRSYM    DATA     BYTE      I2C0FCT
      000000B8H.1 SFRSYM    DATA     BIT       IP_PT0
      000000B8H.3 SFRSYM    DATA     BIT       IP_PT1
      000000C0H.2 SFRSYM    DATA     BIT       SMB0CN0_ARBLOST
      000000B8H.5 SFRSYM    DATA     BIT       IP_PT2
      0000008AH   SFRSYM    DATA     BYTE      TL0
      000000D0H.5 SFRSYM    DATA     BIT       PSW_F0
      000000A8H.6 SFRSYM    DATA     BIT       IE_ESPI0
      0000008BH   SFRSYM    DATA     BYTE      TL1
      000000F9H   SFRSYM    DATA     BYTE      PCA0L
      000000C0H.0 SFRSYM    DATA     BIT       SMB0CN0_SI
      000000D0H.1 SFRSYM    DATA     BIT       PSW_F1
      00000080H.0 SFRSYM    DATA     BIT       P0_B0
      000000B8H.0 SFRSYM    DATA     BIT       IP_PX0
      00000090H.0 SFRSYM    DATA     BIT       P1_B0
      00000080H.1 SFRSYM    DATA     BIT       P0_B1
      000000B8H.2 SFRSYM    DATA     BIT       IP_PX1
      0000009EH   SFRSYM    DATA     BYTE      UART1LIN
      0000009BH   SFRSYM    DATA     BYTE      CMP0CN0
      00000088H.1 SFRSYM    DATA     BIT       TCON_IE0
      000000A0H.0 SFRSYM    DATA     BIT       P2_B0
      00000090H.1 SFRSYM    DATA     BIT       P1_B1
      00000080H.2 SFRSYM    DATA     BIT       P0_B2
      000000BFH   SFRSYM    DATA     BYTE      CMP1CN0
      00000099H   SFRSYM    DATA     BYTE      CMP0CN1
      00000088H.3 SFRSYM    DATA     BIT       TCON_IE1
      000000B0H.0 SFRSYM    DATA     BIT       P3_B0
      000000A0H.1 SFRSYM    DATA     BIT       P2_B1
      00000090H.2 SFRSYM    DATA     BIT       P1_B2
      00000080H.3 SFRSYM    DATA     BIT       P0_B3
      000000C0H   SFRSYM    DATA     BYTE      SMB0CN0
      000000ACH   SFRSYM    DATA     BYTE      CMP1CN1
      000000B0H.1 SFRSYM    DATA     BIT       P3_B1
      000000A0H.2 SFRSYM    DATA     BIT       P2_B2
      00000090H.3 SFRSYM    DATA     BIT       P1_B3
      00000080H.4 SFRSYM    DATA     BIT       P0_B4
      000000A0H.3 SFRSYM    DATA     BIT       P2_B3
      00000090H.4 SFRSYM    DATA     BIT       P1_B4
      00000080H.5 SFRSYM    DATA     BIT       P0_B5
      000000D8H.1 SFRSYM    DATA     BIT       UART1FCN1_RXTO0
LX51 LINKER/LOCATER V4.66.97.0                                                        09/02/2020  13:20:23  PAGE 83


      00000090H.5 SFRSYM    DATA     BIT       P1_B5
      00000080H.6 SFRSYM    DATA     BIT       P0_B6
      000000F5H   SFRSYM    DATA     BYTE      EIP1H
      000000D8H.2 SFRSYM    DATA     BIT       UART1FCN1_RXTO1
      00000090H.6 SFRSYM    DATA     BIT       P1_B6
      00000080H.7 SFRSYM    DATA     BIT       P0_B7
      000000C5H   SFRSYM    DATA     BYTE      SMB0RXLN
      000000F6H   SFRSYM    DATA     BYTE      EIP2H
      00000090H.7 SFRSYM    DATA     BIT       P1_B7
      00000083H   SFRSYM    DATA     BYTE      DPH
      000000C4H   SFRSYM    DATA     BYTE      ADC0GTH
      000000C8H.7 SFRSYM    DATA     BIT       TMR2CN0_TF2H
      000000C8H.3 SFRSYM    DATA     BIT       TMR2CN0_T2SPLIT
      000000D0H.6 SFRSYM    DATA     BIT       PSW_AC
      000000F8H   SFRSYM    DATA     BYTE      SPI0CN0
      000000C7H   SFRSYM    DATA     BYTE      HFO0CAL
      00000088H.5 SFRSYM    DATA     BIT       TCON_TF0
      00000098H.0 SFRSYM    DATA     BIT       SCON0_RI
      000000D6H   SFRSYM    DATA     BYTE      HFO1CAL
      00000082H   SFRSYM    DATA     BYTE      DPL
      00000088H.7 SFRSYM    DATA     BIT       TCON_TF1
      000000C8H.0 SFRSYM    DATA     BIT       SCON1_RI
      00000099H   SFRSYM    DATA     BYTE      SBUF0
      00000087H   SFRSYM    DATA     BYTE      PCON0
      000000F2H   SFRSYM    DATA     BYTE      IPH
      000000C3H   SFRSYM    DATA     BYTE      ADC0GTL
      00000098H.7 SFRSYM    DATA     BIT       TMR4CN0_TF4H
      00000098H.3 SFRSYM    DATA     BIT       TMR4CN0_T4SPLIT
      000000C8H.6 SFRSYM    DATA     BIT       TMR2CN0_TF2L
      00000098H.1 SFRSYM    DATA     BIT       SCON0_TI
      000000E8H.0 SFRSYM    DATA     BIT       ADC0CN0_ADCM0
      00000092H   SFRSYM    DATA     BYTE      SBUF1
      0000009AH   SFRSYM    DATA     BYTE      PCON1
      000000C6H   SFRSYM    DATA     BYTE      ADC0LTH
      00000088H.0 SFRSYM    DATA     BIT       TCON_IT0
      000000C8H.1 SFRSYM    DATA     BIT       SCON1_TI
      000000E8H.1 SFRSYM    DATA     BIT       ADC0CN0_ADCM1
      000000EFH   SFRSYM    DATA     BYTE      RSTSRC
      000000FDH   SFRSYM    DATA     BYTE      P0MAT
      000000DEH   SFRSYM    DATA     BYTE      CRC0DAT
      00000088H.2 SFRSYM    DATA     BIT       TCON_IT1
      000000E8H.2 SFRSYM    DATA     BIT       ADC0CN0_ADCM2
      000000D7H   SFRSYM    DATA     BYTE      SFRSTACK
      00000098H   SFRSYM    DATA     BYTE      SCON0
      000000F6H   SFRSYM    DATA     BYTE      PRTDRV
      000000EDH   SFRSYM    DATA     BYTE      P1MAT
      000000E8H.3 SFRSYM    DATA     BIT       ADC0CN0_ADWINT
      00000095H   SFRSYM    DATA     WORD      SBRL1
      00000093H   SFRSYM    DATA     BYTE      SMOD1
      000000C8H   SFRSYM    DATA     BYTE      SCON1
      000000FBH   SFRSYM    DATA     BYTE      P2MAT
      00000098H.6 SFRSYM    DATA     BIT       TMR4CN0_TF4L
      000000E8H.4 SFRSYM    DATA     BIT       ADC0CN0_ADBUSY
      000000D6H   SFRSYM    DATA     BYTE      SMB0ADM
      000000C5H   SFRSYM    DATA     BYTE      ADC0LTL
      000000F8H.5 SFRSYM    DATA     BIT       SPI0CN0_MODF
      000000B8H.6 SFRSYM    DATA     BIT       IP_PSPI0
      0000009CH   SFRSYM    DATA     BYTE      PCA0CLR
      000000C8H   SFRSYM    DATA     BYTE      TMR2CN0
      00000091H   SFRSYM    DATA     BYTE      TMR3CN0
      000000FDH   SFRSYM    DATA     BYTE      TMR2CN1
      00000098H   SFRSYM    DATA     BYTE      TMR4CN0
LX51 LINKER/LOCATER V4.66.97.0                                                        09/02/2020  13:20:23  PAGE 84


      000000FEH   SFRSYM    DATA     BYTE      TMR3CN1
      000000FFH   SFRSYM    DATA     BYTE      TMR4CN1
      000000D7H   SFRSYM    DATA     BYTE      SMB0ADR
      00000088H.4 SFRSYM    DATA     BIT       TCON_TR0
      000000C8H.4 SFRSYM    DATA     BIT       TMR2CN0_TF2CEN
      00000088H.6 SFRSYM    DATA     BIT       TCON_TR1
      000000C2H   SFRSYM    DATA     BYTE      SMB0DAT
      000000CDH   SFRSYM    DATA     BYTE      TMR2H
      000000A1H   SFRSYM    DATA     BYTE      SPI0CFG
      00000095H   SFRSYM    DATA     BYTE      TMR3H
      000000EFH   SFRSYM    DATA     BYTE      HFOCN
      000000D3H   SFRSYM    DATA     BYTE      CRC0CNT
      000000A5H   SFRSYM    DATA     BYTE      TMR4H
      00000098H.4 SFRSYM    DATA     BIT       TMR4CN0_TF4CEN
      000000EFH   SFRSYM    DATA     BYTE      SMB0FCT
      00000096H   SFRSYM    DATA     BYTE      PCA0POL
      000000CCH   SFRSYM    DATA     BYTE      TMR2L
      000000F8H.7 SFRSYM    DATA     BIT       SPI0CN0_SPIF
      00000094H   SFRSYM    DATA     BYTE      TMR3L
      000000DFH   SFRSYM    DATA     BYTE      ADC0PWR
      000000A8H.7 SFRSYM    DATA     BIT       IE_EA
      000000A4H   SFRSYM    DATA     BYTE      TMR4L
      000000C8H.5 SFRSYM    DATA     BIT       TMR2CN0_TF2LEN
      000000F8H.6 SFRSYM    DATA     BIT       SPI0CN0_WCOL
      000000F8H.2 SFRSYM    DATA     BIT       SPI0CN0_NSSMD0
      000000D0H.7 SFRSYM    DATA     BIT       PSW_CY
      0000009DH   SFRSYM    DATA     BYTE      UART1FCN0
      000000A3H   SFRSYM    DATA     BYTE      SPI0DAT
      000000ADH   SFRSYM    DATA     BYTE      I2C0FCN0
      000000F8H.3 SFRSYM    DATA     BIT       SPI0CN0_NSSMD1
      000000BDH   SFRSYM    DATA     WORD      ADC0
      000000D8H   SFRSYM    DATA     BYTE      UART1FCN1
      000000ABH   SFRSYM    DATA     BYTE      I2C0FCN1
      00000098H.5 SFRSYM    DATA     BIT       TMR4CN0_TF4LEN
      000000D0H   SFRSYM    DATA     BYTE      PSW
      000000F7H   SFRSYM    DATA     BYTE      PCA0PWM
      000000F7H   SFRSYM    DATA     BYTE      SPI0FCT
      000000B6H   SFRSYM    DATA     BYTE      REVID
      000000B7H   SFRSYM    DATA     BYTE      FLKEY
      000000B3H   SFRSYM    DATA     BYTE      ADC0AC
      00000007H   SYMBOL    DATA     BYTE      SFRPAGE_save

      ---         MODULE    ---      ---       MAIN
      020003ACH   PUBLIC    XDATA    ---       buffer
      020003A8H   PUBLIC    XDATA    DWORD     errorCount
      020003A7H   PUBLIC    XDATA    BYTE      Debug_RD2
      020003A6H   PUBLIC    XDATA    BYTE      Debug_RD1
      0100314CH   PUBLIC    CODE     ---       main
      01002B61H   PUBLIC    CODE     ---       InitGlobalVariable
      01000021H   PUBLIC    CODE     ---       SiLabs_Startup
      000000A2H   SFRSYM    DATA     BYTE      SPI0CKR
      00000080H   SFRSYM    DATA     BYTE      P0
      000000C8H.6 SFRSYM    DATA     BIT       SCON1_PERR
      000000D0H.2 SFRSYM    DATA     BIT       PSW_OV
      00000090H   SFRSYM    DATA     BYTE      P1
      000000F8H.1 SFRSYM    DATA     BIT       SPI0CN0_TXNF
      00000097H   SFRSYM    DATA     BYTE      WDTCN
      000000A0H   SFRSYM    DATA     BYTE      P2
      000000B0H   SFRSYM    DATA     BYTE      P3
      000000BCH   SFRSYM    DATA     BYTE      ADC0CF
      000000C0H.7 SFRSYM    DATA     BIT       SMB0CN0_MASTER
      000000F9H   SFRSYM    DATA     WORD      PCA0
LX51 LINKER/LOCATER V4.66.97.0                                                        09/02/2020  13:20:23  PAGE 85


      000000E6H   SFRSYM    DATA     BYTE      EIE1
      000000C0H.1 SFRSYM    DATA     BIT       SMB0CN0_ACK
      000000CEH   SFRSYM    DATA     BYTE      EIE2
      0000008FH   SFRSYM    DATA     BYTE      PSCTL
      000000E4H   SFRSYM    DATA     BYTE      IT01CF
      000000C0H.6 SFRSYM    DATA     BIT       SMB0CN0_TXMODE
      000000ADH   SFRSYM    DATA     BYTE      DERIVID
      000000A7H   SFRSYM    DATA     BYTE      SFRPAGE
      000000A4H   SFRSYM    DATA     BYTE      P0MDOUT
      000000A5H   SFRSYM    DATA     BYTE      P1MDOUT
      000000E8H.5 SFRSYM    DATA     BIT       ADC0CN0_ADINT
      000000CBH   SFRSYM    DATA     BYTE      TMR2RLH
      000000A6H   SFRSYM    DATA     BYTE      P2MDOUT
      000000A8H   SFRSYM    DATA     BYTE      IE
      00000093H   SFRSYM    DATA     BYTE      TMR3RLH
      0000009CH   SFRSYM    DATA     BYTE      P3MDOUT
      000000A3H   SFRSYM    DATA     BYTE      TMR4RLH
      000000F3H   SFRSYM    DATA     BYTE      EIP1
      000000F4H   SFRSYM    DATA     BYTE      EIP2
      00000098H.2 SFRSYM    DATA     BIT       SCON0_RB8
      000000CAH   SFRSYM    DATA     BYTE      TMR2RLL
      000000FCH   SFRSYM    DATA     BYTE      PCA0CPH0
      00000092H   SFRSYM    DATA     BYTE      TMR3RLL
      000000EAH   SFRSYM    DATA     BYTE      PCA0CPH1
      00000098H.3 SFRSYM    DATA     BIT       SCON0_TB8
      000000F0H.0 SFRSYM    DATA     BIT       B_B0
      00000082H   SFRSYM    DATA     WORD      DP
      000000A2H   SFRSYM    DATA     BYTE      TMR4RLL
      000000ECH   SFRSYM    DATA     BYTE      PCA0CPH2
      000000F0H.1 SFRSYM    DATA     BIT       B_B1
      000000C3H   SFRSYM    DATA     WORD      ADC0GT
      000000BDH   SFRSYM    DATA     BYTE      I2C0SLAD
      000000D8H.3 SFRSYM    DATA     BIT       UART1FCN1_RFRQ
      000000F0H.2 SFRSYM    DATA     BIT       B_B2
      000000CFH   SFRSYM    DATA     BYTE      SFRPGCN
      000000FBH   SFRSYM    DATA     BYTE      PCA0CPL0
      000000F0H.3 SFRSYM    DATA     BIT       B_B3
      000000D9H   SFRSYM    DATA     BYTE      PCA0MD
      000000DAH   SFRSYM    DATA     BYTE      PCA0CPM0
      000000E9H   SFRSYM    DATA     BYTE      PCA0CPL1
      000000D8H.7 SFRSYM    DATA     BIT       UART1FCN1_TFRQ
      000000F0H.4 SFRSYM    DATA     BIT       B_B4
      000000DBH   SFRSYM    DATA     BYTE      PCA0CPM1
      000000EBH   SFRSYM    DATA     BYTE      PCA0CPL2
      000000F0H.5 SFRSYM    DATA     BIT       B_B5
      000000DCH   SFRSYM    DATA     BYTE      PCA0CPM2
      000000B8H   SFRSYM    DATA     BYTE      IP
      000000B9H   SFRSYM    DATA     BYTE      ADC0TK
      000000F0H.6 SFRSYM    DATA     BIT       B_B6
      000000C5H   SFRSYM    DATA     WORD      ADC0LT
      000000D8H.6 SFRSYM    DATA     BIT       UART1FCN1_TXNF
      00000098H.5 SFRSYM    DATA     BIT       SCON0_MCE
      000000F0H.7 SFRSYM    DATA     BIT       B_B7
      000000C3H   SFRSYM    DATA     BYTE      SMB0FCN0
      000000E1H   SFRSYM    DATA     BYTE      XBR0
      000000C4H   SFRSYM    DATA     BYTE      SMB0FCN1
      000000C1H   SFRSYM    DATA     BYTE      SMB0CF
      000000E2H   SFRSYM    DATA     BYTE      XBR1
      000000C1H   SFRSYM    DATA     BYTE      PFE0CN
      000000E7H   SFRSYM    DATA     BYTE      EMI0CN
      000000C0H.5 SFRSYM    DATA     BIT       SMB0CN0_STA
      000000E3H   SFRSYM    DATA     BYTE      XBR2
LX51 LINKER/LOCATER V4.66.97.0                                                        09/02/2020  13:20:23  PAGE 86


      000000BBH   SFRSYM    DATA     BYTE      ADC0MX
      000000E0H.0 SFRSYM    DATA     BIT       ACC_ACC0
      000000D1H   SFRSYM    DATA     BYTE      REF0CN
      0000008EH   SFRSYM    DATA     BYTE      CKCON0
      000000E0H.1 SFRSYM    DATA     BIT       ACC_ACC1
      000000C9H   SFRSYM    DATA     BYTE      REG0CN
      000000DDH   SFRSYM    DATA     BYTE      CRC0IN
      000000A6H   SFRSYM    DATA     BYTE      CKCON1
      000000C8H.2 SFRSYM    DATA     BIT       TMR2CN0_TR2
      000000E0H.2 SFRSYM    DATA     BIT       ACC_ACC2
      000000C6H   SFRSYM    DATA     BYTE      REG1CN
      000000E0H.3 SFRSYM    DATA     BIT       ACC_ACC3
      00000081H   SFRSYM    DATA     BYTE      SP
      0000009DH   SFRSYM    DATA     BYTE      CMP0MD
      000000E0H.4 SFRSYM    DATA     BIT       ACC_ACC4
      000000B1H   SFRSYM    DATA     BYTE      LFO0CN
      000000ABH   SFRSYM    DATA     BYTE      CMP1MD
      000000D8H.0 SFRSYM    DATA     BIT       PCA0CN0_CCF0
      000000E0H.5 SFRSYM    DATA     BIT       ACC_ACC5
      00000098H.2 SFRSYM    DATA     BIT       TMR4CN0_TR4
      000000D8H.1 SFRSYM    DATA     BIT       PCA0CN0_CCF1
      000000E0H.6 SFRSYM    DATA     BIT       ACC_ACC6
      000000CCH   SFRSYM    DATA     WORD      TMR2
      0000009AH   SFRSYM    DATA     BYTE      SPI0FCN0
      000000D8H.2 SFRSYM    DATA     BIT       PCA0CN0_CCF2
      000000E0H.7 SFRSYM    DATA     BIT       ACC_ACC7
      00000094H   SFRSYM    DATA     WORD      TMR3
      0000009BH   SFRSYM    DATA     BYTE      SPI0FCN1
      000000A4H   SFRSYM    DATA     WORD      TMR4
      00000094H   SFRSYM    DATA     BYTE      SBCON1
      000000C0H.3 SFRSYM    DATA     BIT       SMB0CN0_ACKRQ
      000000FFH   SFRSYM    DATA     BYTE      VDM0CN
      000000F1H   SFRSYM    DATA     BYTE      P0MDIN
      00000098H.4 SFRSYM    DATA     BIT       SCON0_REN
      000000ACH   SFRSYM    DATA     BYTE      SMB0TC
      000000F2H   SFRSYM    DATA     BYTE      P1MDIN
      000000C8H.4 SFRSYM    DATA     BIT       SCON1_REN
      000000F3H   SFRSYM    DATA     BYTE      P2MDIN
      000000C0H.4 SFRSYM    DATA     BIT       SMB0CN0_STO
      000000F4H   SFRSYM    DATA     BYTE      P3MDIN
      000000B9H   SFRSYM    DATA     BYTE      I2C0STAT
      000000BBH   SFRSYM    DATA     BYTE      I2C0DOUT
      00000096H   SFRSYM    DATA     BYTE      SBRLH1
      000000FEH   SFRSYM    DATA     BYTE      P0MASK
      000000D8H.5 SFRSYM    DATA     BIT       UART1FCN1_TXHOLD
      000000EEH   SFRSYM    DATA     BYTE      P1MASK
      000000FCH   SFRSYM    DATA     BYTE      P2MASK
      000000D0H.3 SFRSYM    DATA     BIT       PSW_RS0
      000000D8H.7 SFRSYM    DATA     BIT       PCA0CN0_CF
      0000009EH   SFRSYM    DATA     BYTE      PCA0CENT
      000000BAH   SFRSYM    DATA     BYTE      I2C0CN0
      000000D2H   SFRSYM    DATA     BYTE      CRC0ST
      000000F8H.4 SFRSYM    DATA     BIT       SPI0CN0_RXOVRN
      000000D0H.4 SFRSYM    DATA     BIT       PSW_RS1
      00000095H   SFRSYM    DATA     BYTE      SBRLL1
      000000C8H.2 SFRSYM    DATA     BIT       SCON1_RBX
      000000C8H.0 SFRSYM    DATA     BIT       TMR2CN0_T2XCLK0
      000000C8H.1 SFRSYM    DATA     BIT       TMR2CN0_T2XCLK1
      000000C8H.3 SFRSYM    DATA     BIT       SCON1_TBX
      000000E8H.7 SFRSYM    DATA     BIT       ADC0CN0_ADEN
      00000089H   SFRSYM    DATA     BYTE      TMOD
      00000088H   SFRSYM    DATA     BYTE      TCON
LX51 LINKER/LOCATER V4.66.97.0                                                        09/02/2020  13:20:23  PAGE 87


      000000CFH   SFRSYM    DATA     BYTE      CRC0FLIP
      000000D0H.0 SFRSYM    DATA     BIT       PSW_PARITY
      000000A8H.4 SFRSYM    DATA     BIT       IE_ES0
      0000009FH   SFRSYM    DATA     BYTE      CMP0MX
      00000098H.0 SFRSYM    DATA     BIT       TMR4CN0_T4XCLK0
      000000A8H.1 SFRSYM    DATA     BIT       IE_ET0
      000000AAH   SFRSYM    DATA     BYTE      CMP1MX
      00000098H.1 SFRSYM    DATA     BIT       TMR4CN0_T4XCLK1
      000000A8H.3 SFRSYM    DATA     BIT       IE_ET1
      000000D4H   SFRSYM    DATA     BYTE      P0SKIP
      000000D8H.0 SFRSYM    DATA     BIT       UART1FCN1_RIE
      000000A8H.5 SFRSYM    DATA     BIT       IE_ET2
      000000D5H   SFRSYM    DATA     BYTE      P1SKIP
      000000CCH   SFRSYM    DATA     BYTE      P2SKIP
      000000E8H   SFRSYM    DATA     BYTE      ADC0CN0
      000000D8H.4 SFRSYM    DATA     BIT       UART1FCN1_TIE
      000000A8H.0 SFRSYM    DATA     BIT       IE_EX0
      000000B2H   SFRSYM    DATA     BYTE      ADC0CN1
      000000D8H.6 SFRSYM    DATA     BIT       PCA0CN0_CR
      000000A8H.2 SFRSYM    DATA     BIT       IE_EX1
      000000C8H.7 SFRSYM    DATA     BIT       SCON1_OVR
      00000098H.7 SFRSYM    DATA     BIT       SCON0_SMODE
      000000B5H   SFRSYM    DATA     BYTE      DEVICEID
      000000A9H   SFRSYM    DATA     BYTE      CLKSEL
      000000F8H.0 SFRSYM    DATA     BIT       SPI0CN0_SPIEN
      000000F0H   SFRSYM    DATA     BYTE      B
      000000BEH   SFRSYM    DATA     BYTE      ADC0H
      000000E8H.6 SFRSYM    DATA     BIT       ADC0CN0_ADBMEN
      000000CAH   SFRSYM    DATA     WORD      TMR2RL
      000000BDH   SFRSYM    DATA     BYTE      ADC0L
      00000092H   SFRSYM    DATA     WORD      TMR3RL
      000000A2H   SFRSYM    DATA     WORD      TMR4RL
      000000D8H   SFRSYM    DATA     BYTE      PCA0CN0
      000000E0H   SFRSYM    DATA     BYTE      ACC
      000000FBH   SFRSYM    DATA     WORD      PCA0CP0
      000000E9H   SFRSYM    DATA     WORD      PCA0CP1
      000000EBH   SFRSYM    DATA     WORD      PCA0CP2
      000000BCH   SFRSYM    DATA     BYTE      I2C0DIN
      000000CEH   SFRSYM    DATA     BYTE      CRC0CN0
      0000008CH   SFRSYM    DATA     BYTE      TH0
      00000086H   SFRSYM    DATA     BYTE      CRC0CN1
      000000B8H.4 SFRSYM    DATA     BIT       IP_PS0
      000000FAH   SFRSYM    DATA     BYTE      UART1FCT
      0000008DH   SFRSYM    DATA     BYTE      TH1
      000000FAH   SFRSYM    DATA     BYTE      PCA0H
      000000F5H   SFRSYM    DATA     BYTE      I2C0FCT
      000000B8H.1 SFRSYM    DATA     BIT       IP_PT0
      000000B8H.3 SFRSYM    DATA     BIT       IP_PT1
      000000C0H.2 SFRSYM    DATA     BIT       SMB0CN0_ARBLOST
      000000B8H.5 SFRSYM    DATA     BIT       IP_PT2
      0000008AH   SFRSYM    DATA     BYTE      TL0
      000000D0H.5 SFRSYM    DATA     BIT       PSW_F0
      000000A8H.6 SFRSYM    DATA     BIT       IE_ESPI0
      0000008BH   SFRSYM    DATA     BYTE      TL1
      000000F9H   SFRSYM    DATA     BYTE      PCA0L
      000000C0H.0 SFRSYM    DATA     BIT       SMB0CN0_SI
      000000D0H.1 SFRSYM    DATA     BIT       PSW_F1
      00000080H.0 SFRSYM    DATA     BIT       P0_B0
      000000B8H.0 SFRSYM    DATA     BIT       IP_PX0
      00000090H.0 SFRSYM    DATA     BIT       P1_B0
      00000080H.1 SFRSYM    DATA     BIT       P0_B1
      000000B8H.2 SFRSYM    DATA     BIT       IP_PX1
LX51 LINKER/LOCATER V4.66.97.0                                                        09/02/2020  13:20:23  PAGE 88


      0000009EH   SFRSYM    DATA     BYTE      UART1LIN
      0000009BH   SFRSYM    DATA     BYTE      CMP0CN0
      00000088H.1 SFRSYM    DATA     BIT       TCON_IE0
      000000A0H.0 SFRSYM    DATA     BIT       P2_B0
      00000090H.1 SFRSYM    DATA     BIT       P1_B1
      00000080H.2 SFRSYM    DATA     BIT       P0_B2
      000000BFH   SFRSYM    DATA     BYTE      CMP1CN0
      00000099H   SFRSYM    DATA     BYTE      CMP0CN1
      00000088H.3 SFRSYM    DATA     BIT       TCON_IE1
      000000B0H.0 SFRSYM    DATA     BIT       P3_B0
      000000A0H.1 SFRSYM    DATA     BIT       P2_B1
      00000090H.2 SFRSYM    DATA     BIT       P1_B2
      00000080H.3 SFRSYM    DATA     BIT       P0_B3
      000000C0H   SFRSYM    DATA     BYTE      SMB0CN0
      000000ACH   SFRSYM    DATA     BYTE      CMP1CN1
      000000B0H.1 SFRSYM    DATA     BIT       P3_B1
      000000A0H.2 SFRSYM    DATA     BIT       P2_B2
      00000090H.3 SFRSYM    DATA     BIT       P1_B3
      00000080H.4 SFRSYM    DATA     BIT       P0_B4
      000000A0H.3 SFRSYM    DATA     BIT       P2_B3
      00000090H.4 SFRSYM    DATA     BIT       P1_B4
      00000080H.5 SFRSYM    DATA     BIT       P0_B5
      000000D8H.1 SFRSYM    DATA     BIT       UART1FCN1_RXTO0
      00000090H.5 SFRSYM    DATA     BIT       P1_B5
      00000080H.6 SFRSYM    DATA     BIT       P0_B6
      000000F5H   SFRSYM    DATA     BYTE      EIP1H
      000000D8H.2 SFRSYM    DATA     BIT       UART1FCN1_RXTO1
      00000090H.6 SFRSYM    DATA     BIT       P1_B6
      00000080H.7 SFRSYM    DATA     BIT       P0_B7
      000000C5H   SFRSYM    DATA     BYTE      SMB0RXLN
      000000F6H   SFRSYM    DATA     BYTE      EIP2H
      00000090H.7 SFRSYM    DATA     BIT       P1_B7
      00000083H   SFRSYM    DATA     BYTE      DPH
      000000C4H   SFRSYM    DATA     BYTE      ADC0GTH
      000000C8H.7 SFRSYM    DATA     BIT       TMR2CN0_TF2H
      000000C8H.3 SFRSYM    DATA     BIT       TMR2CN0_T2SPLIT
      000000D0H.6 SFRSYM    DATA     BIT       PSW_AC
      000000F8H   SFRSYM    DATA     BYTE      SPI0CN0
      000000C7H   SFRSYM    DATA     BYTE      HFO0CAL
      00000088H.5 SFRSYM    DATA     BIT       TCON_TF0
      00000098H.0 SFRSYM    DATA     BIT       SCON0_RI
      000000D6H   SFRSYM    DATA     BYTE      HFO1CAL
      00000082H   SFRSYM    DATA     BYTE      DPL
      00000088H.7 SFRSYM    DATA     BIT       TCON_TF1
      000000C8H.0 SFRSYM    DATA     BIT       SCON1_RI
      00000099H   SFRSYM    DATA     BYTE      SBUF0
      00000087H   SFRSYM    DATA     BYTE      PCON0
      000000F2H   SFRSYM    DATA     BYTE      IPH
      000000C3H   SFRSYM    DATA     BYTE      ADC0GTL
      00000098H.7 SFRSYM    DATA     BIT       TMR4CN0_TF4H
      00000098H.3 SFRSYM    DATA     BIT       TMR4CN0_T4SPLIT
      000000C8H.6 SFRSYM    DATA     BIT       TMR2CN0_TF2L
      00000098H.1 SFRSYM    DATA     BIT       SCON0_TI
      000000E8H.0 SFRSYM    DATA     BIT       ADC0CN0_ADCM0
      00000092H   SFRSYM    DATA     BYTE      SBUF1
      0000009AH   SFRSYM    DATA     BYTE      PCON1
      000000C6H   SFRSYM    DATA     BYTE      ADC0LTH
      00000088H.0 SFRSYM    DATA     BIT       TCON_IT0
      000000C8H.1 SFRSYM    DATA     BIT       SCON1_TI
      000000E8H.1 SFRSYM    DATA     BIT       ADC0CN0_ADCM1
      000000EFH   SFRSYM    DATA     BYTE      RSTSRC
      000000FDH   SFRSYM    DATA     BYTE      P0MAT
LX51 LINKER/LOCATER V4.66.97.0                                                        09/02/2020  13:20:23  PAGE 89


      000000DEH   SFRSYM    DATA     BYTE      CRC0DAT
      00000088H.2 SFRSYM    DATA     BIT       TCON_IT1
      000000E8H.2 SFRSYM    DATA     BIT       ADC0CN0_ADCM2
      000000D7H   SFRSYM    DATA     BYTE      SFRSTACK
      00000098H   SFRSYM    DATA     BYTE      SCON0
      000000F6H   SFRSYM    DATA     BYTE      PRTDRV
      000000EDH   SFRSYM    DATA     BYTE      P1MAT
      000000E8H.3 SFRSYM    DATA     BIT       ADC0CN0_ADWINT
      00000095H   SFRSYM    DATA     WORD      SBRL1
      00000093H   SFRSYM    DATA     BYTE      SMOD1
      000000C8H   SFRSYM    DATA     BYTE      SCON1
      000000FBH   SFRSYM    DATA     BYTE      P2MAT
      00000098H.6 SFRSYM    DATA     BIT       TMR4CN0_TF4L
      000000E8H.4 SFRSYM    DATA     BIT       ADC0CN0_ADBUSY
      000000D6H   SFRSYM    DATA     BYTE      SMB0ADM
      000000C5H   SFRSYM    DATA     BYTE      ADC0LTL
      000000F8H.5 SFRSYM    DATA     BIT       SPI0CN0_MODF
      000000B8H.6 SFRSYM    DATA     BIT       IP_PSPI0
      0000009CH   SFRSYM    DATA     BYTE      PCA0CLR
      000000C8H   SFRSYM    DATA     BYTE      TMR2CN0
      00000091H   SFRSYM    DATA     BYTE      TMR3CN0
      000000FDH   SFRSYM    DATA     BYTE      TMR2CN1
      00000098H   SFRSYM    DATA     BYTE      TMR4CN0
      000000FEH   SFRSYM    DATA     BYTE      TMR3CN1
      000000FFH   SFRSYM    DATA     BYTE      TMR4CN1
      000000D7H   SFRSYM    DATA     BYTE      SMB0ADR
      00000088H.4 SFRSYM    DATA     BIT       TCON_TR0
      000000C8H.4 SFRSYM    DATA     BIT       TMR2CN0_TF2CEN
      00000088H.6 SFRSYM    DATA     BIT       TCON_TR1
      000000C2H   SFRSYM    DATA     BYTE      SMB0DAT
      000000CDH   SFRSYM    DATA     BYTE      TMR2H
      000000A1H   SFRSYM    DATA     BYTE      SPI0CFG
      00000095H   SFRSYM    DATA     BYTE      TMR3H
      000000EFH   SFRSYM    DATA     BYTE      HFOCN
      000000D3H   SFRSYM    DATA     BYTE      CRC0CNT
      000000A5H   SFRSYM    DATA     BYTE      TMR4H
      00000098H.4 SFRSYM    DATA     BIT       TMR4CN0_TF4CEN
      000000EFH   SFRSYM    DATA     BYTE      SMB0FCT
      00000096H   SFRSYM    DATA     BYTE      PCA0POL
      000000CCH   SFRSYM    DATA     BYTE      TMR2L
      000000F8H.7 SFRSYM    DATA     BIT       SPI0CN0_SPIF
      00000094H   SFRSYM    DATA     BYTE      TMR3L
      000000DFH   SFRSYM    DATA     BYTE      ADC0PWR
      000000A8H.7 SFRSYM    DATA     BIT       IE_EA
      000000A4H   SFRSYM    DATA     BYTE      TMR4L
      000000C8H.5 SFRSYM    DATA     BIT       TMR2CN0_TF2LEN
      000000F8H.6 SFRSYM    DATA     BIT       SPI0CN0_WCOL
      000000F8H.2 SFRSYM    DATA     BIT       SPI0CN0_NSSMD0
      000000D0H.7 SFRSYM    DATA     BIT       PSW_CY
      0000009DH   SFRSYM    DATA     BYTE      UART1FCN0
      000000A3H   SFRSYM    DATA     BYTE      SPI0DAT
      000000ADH   SFRSYM    DATA     BYTE      I2C0FCN0
      000000F8H.3 SFRSYM    DATA     BIT       SPI0CN0_NSSMD1
      000000BDH   SFRSYM    DATA     WORD      ADC0
      000000D8H   SFRSYM    DATA     BYTE      UART1FCN1
      000000ABH   SFRSYM    DATA     BYTE      I2C0FCN1
      00000098H.5 SFRSYM    DATA     BIT       TMR4CN0_TF4LEN
      000000D0H   SFRSYM    DATA     BYTE      PSW
      000000F7H   SFRSYM    DATA     BYTE      PCA0PWM
      000000F7H   SFRSYM    DATA     BYTE      SPI0FCT
      000000B6H   SFRSYM    DATA     BYTE      REVID
      000000B7H   SFRSYM    DATA     BYTE      FLKEY
LX51 LINKER/LOCATER V4.66.97.0                                                        09/02/2020  13:20:23  PAGE 90


      000000B3H   SFRSYM    DATA     BYTE      ADC0AC

      01000021H   BLOCK     CODE     ---       LVL=0
      01000021H   LINE      CODE     ---       #38
      01000021H   LINE      CODE     ---       #39
      01000021H   LINE      CODE     ---       #40
      ---         BLOCKEND  ---      ---       LVL=0

      01002B61H   BLOCK     CODE     ---       LVL=0
      01002B61H   BLOCK     CODE     NEAR LAB  LVL=1
      00000003H   SYMBOL    DATA     BYTE      i
      ---         BLOCKEND  ---      ---       LVL=1
      01002B61H   LINE      CODE     ---       #42
      01002B61H   LINE      CODE     ---       #43
      01002B61H   LINE      CODE     ---       #45
      01002B64H   LINE      CODE     ---       #48
      01002B67H   LINE      CODE     ---       #49
      01002B73H   LINE      CODE     ---       #50
      01002B73H   LINE      CODE     ---       #51
      01002B7FH   LINE      CODE     ---       #52
      01002B8BH   LINE      CODE     ---       #53
      01002B97H   LINE      CODE     ---       #54
      01002BA4H   LINE      CODE     ---       #55
      01002BA7H   LINE      CODE     ---       #56
      01002BACH   LINE      CODE     ---       #57
      01002BB0H   LINE      CODE     ---       #58
      01002BB4H   LINE      CODE     ---       #59
      01002BB8H   LINE      CODE     ---       #60
      01002BBCH   LINE      CODE     ---       #61
      01002BC0H   LINE      CODE     ---       #62
      01002BC4H   LINE      CODE     ---       #63
      01002BCAH   LINE      CODE     ---       #64
      01002BCEH   LINE      CODE     ---       #65
      01002BD2H   LINE      CODE     ---       #66
      01002BD4H   LINE      CODE     ---       #67
      01002BD6H   LINE      CODE     ---       #68
      01002BD8H   LINE      CODE     ---       #69
      01002BDAH   LINE      CODE     ---       #70
      01002BE8H   LINE      CODE     ---       #72
      01002BEEH   LINE      CODE     ---       #73
      01002BF7H   LINE      CODE     ---       #76
      01002C03H   LINE      CODE     ---       #77
      01002C03H   LINE      CODE     ---       #78
      01002C18H   LINE      CODE     ---       #79
      01002C2DH   LINE      CODE     ---       #80
      01002C30H   LINE      CODE     ---       #82
      ---         BLOCKEND  ---      ---       LVL=0

      0100314CH   BLOCK     CODE     ---       LVL=0
      0100314CH   LINE      CODE     ---       #85
      0100314CH   LINE      CODE     ---       #86
      0100314CH   LINE      CODE     ---       #87
      0100314FH   LINE      CODE     ---       #88
      01003152H   LINE      CODE     ---       #89
      01003157H   LINE      CODE     ---       #90
      0100315AH   LINE      CODE     ---       #91
      0100315DH   LINE      CODE     ---       #92
      01003160H   LINE      CODE     ---       #93
      01003163H   LINE      CODE     ---       #94
      01003166H   LINE      CODE     ---       #95
      01003169H   LINE      CODE     ---       #96
      0100316CH   LINE      CODE     ---       #97
LX51 LINKER/LOCATER V4.66.97.0                                                        09/02/2020  13:20:23  PAGE 91


      01003173H   LINE      CODE     ---       #99
      01003173H   LINE      CODE     ---       #100
      01003176H   LINE      CODE     ---       #101
      01003176H   LINE      CODE     ---       #109
      0100317EH   LINE      CODE     ---       #110
      0100317EH   LINE      CODE     ---       #111
      01003181H   LINE      CODE     ---       #112
      01003181H   LINE      CODE     ---       #115
      0100318BH   LINE      CODE     ---       #116
      0100318BH   LINE      CODE     ---       #117
      01003191H   LINE      CODE     ---       #118
      01003191H   LINE      CODE     ---       #119
      01003193H   LINE      CODE     ---       #120
      01003196H   LINE      CODE     ---       #121
      010031A4H   LINE      CODE     ---       #122
      010031A7H   LINE      CODE     ---       #123
      010031A7H   LINE      CODE     ---       #124
      010031A9H   LINE      CODE     ---       #125
      010031AEH   LINE      CODE     ---       #128
      010031B6H   LINE      CODE     ---       #129
      010031B6H   LINE      CODE     ---       #130
      010031BBH   LINE      CODE     ---       #131
      010031C4H   LINE      CODE     ---       #132
      010031C9H   LINE      CODE     ---       #133
      010031CDH   LINE      CODE     ---       #139
      010031CFH   LINE      CODE     ---       #141
      010031CFH   LINE      CODE     ---       #142
      010031D5H   LINE      CODE     ---       #143
      010031DAH   LINE      CODE     ---       #144
      010031DAH   LINE      CODE     ---       #145
      010031DDH   LINE      CODE     ---       #146
      010031DDH   LINE      CODE     ---       #147
      010031DDH   LINE      CODE     ---       #148
      010031E3H   LINE      CODE     ---       #149
      010031E3H   LINE      CODE     ---       #150
      010031E5H   LINE      CODE     ---       #151
      010031E8H   LINE      CODE     ---       #152
      010031E8H   LINE      CODE     ---       #153
      010031E8H   LINE      CODE     ---       #157
      010031E8H   LINE      CODE     ---       #158
      010031E8H   LINE      CODE     ---       #159
      010031EBH   LINE      CODE     ---       #160
      ---         BLOCKEND  ---      ---       LVL=0

      ---         MODULE    ---      ---       ?C_STARTUP
      01000000H   PUBLIC    CODE     NEAR LAB  ?C_STARTUP
      000000E0H   SFRSYM    DATA     BYTE      ACC
      000000F0H   SFRSYM    DATA     BYTE      B
      00000083H   SFRSYM    DATA     BYTE      DPH
      00000082H   SFRSYM    DATA     BYTE      DPL
      000000A0H   SFRSYM    DATA     BYTE      PPAGE_SFR
      00000081H   SFRSYM    DATA     BYTE      SP
      00000000H   SYMBOL    NUMBER   ---       IBPSTACK
      00000100H   SYMBOL    NUMBER   ---       IBPSTACKTOP
      00000080H   SYMBOL    NUMBER   ---       IDATALEN
      010031F3H   SYMBOL    CODE     NEAR LAB  IDATALOOP
      00000000H   SYMBOL    NUMBER   ---       PBPSTACK
      00000100H   SYMBOL    NUMBER   ---       PBPSTACKTOP
      00000000H   SYMBOL    NUMBER   ---       PDATALEN
      00000000H   SYMBOL    NUMBER   ---       PDATASTART
      00000000H   SYMBOL    NUMBER   ---       PPAGE
      00000000H   SYMBOL    NUMBER   ---       PPAGEENABLE
LX51 LINKER/LOCATER V4.66.97.0                                                        09/02/2020  13:20:23  PAGE 92


      010031EDH   SYMBOL    CODE     NEAR LAB  STARTUP1
      00000000H   SYMBOL    NUMBER   ---       XBPSTACK
      00010000H   SYMBOL    NUMBER   ---       XBPSTACKTOP
      00000000H   SYMBOL    NUMBER   ---       XDATALEN
      00000000H   SYMBOL    NUMBER   ---       XDATASTART

      01000000H   BLOCK     CODE     NEAR LAB  LVL=0
      01000000H   LINE      CODE     ---       #126
      ---         BLOCKEND  ---      ---       LVL=0

      010031EDH   BLOCK     CODE     NEAR LAB  LVL=0
      010031EDH   LINE      CODE     ---       #134
      010031F0H   LINE      CODE     ---       #138
      010031F2H   LINE      CODE     ---       #139
      010031F3H   LINE      CODE     ---       #140
      010031F4H   LINE      CODE     ---       #141
      010031F6H   LINE      CODE     ---       #190
      010031F9H   LINE      CODE     ---       #201
      ---         BLOCKEND  ---      ---       LVL=0

      ---         MODULE    ---      ---       SERIAL
      020002E9H   PUBLIC    XDATA    ---       Serial
      020002E2H   PUBLIC    XDATA    ---       Serial_ISP
      01003772H   PUBLIC    CODE     ---       RxDataParity
      01002981H   PUBLIC    CODE     ---       _Srl_GetData
      010030A5H   PUBLIC    CODE     ---       _Srl_GetHeader
      01002247H   PUBLIC    CODE     ---       PCA0_ISR
      0200038AH   PUBLIC    XDATA    BYTE      ?_Srl_SendData?BYTE
      010020C1H   PUBLIC    CODE     ---       _Srl_SendData
      01003EDEH   PUBLIC    CODE     ---       DisableInternalCommunicaiton
      01003D9BH   PUBLIC    CODE     ---       EnableInternalCommunicaiton
      01003BA9H   PUBLIC    CODE     ---       _CommunicationMode
      000000A2H   SFRSYM    DATA     BYTE      SPI0CKR
      00000080H   SFRSYM    DATA     BYTE      P0
      000000C8H.6 SFRSYM    DATA     BIT       SCON1_PERR
      000000D0H.2 SFRSYM    DATA     BIT       PSW_OV
      00000090H   SFRSYM    DATA     BYTE      P1
      000000F8H.1 SFRSYM    DATA     BIT       SPI0CN0_TXNF
      00000097H   SFRSYM    DATA     BYTE      WDTCN
      000000A0H   SFRSYM    DATA     BYTE      P2
      000000B0H   SFRSYM    DATA     BYTE      P3
      000000BCH   SFRSYM    DATA     BYTE      ADC0CF
      000000C0H.7 SFRSYM    DATA     BIT       SMB0CN0_MASTER
      000000F9H   SFRSYM    DATA     WORD      PCA0
      000000E6H   SFRSYM    DATA     BYTE      EIE1
      000000C0H.1 SFRSYM    DATA     BIT       SMB0CN0_ACK
      000000CEH   SFRSYM    DATA     BYTE      EIE2
      0000008FH   SFRSYM    DATA     BYTE      PSCTL
      000000E4H   SFRSYM    DATA     BYTE      IT01CF
      000000C0H.6 SFRSYM    DATA     BIT       SMB0CN0_TXMODE
      000000ADH   SFRSYM    DATA     BYTE      DERIVID
      000000A7H   SFRSYM    DATA     BYTE      SFRPAGE
      000000A4H   SFRSYM    DATA     BYTE      P0MDOUT
      000000A5H   SFRSYM    DATA     BYTE      P1MDOUT
      000000E8H.5 SFRSYM    DATA     BIT       ADC0CN0_ADINT
      000000CBH   SFRSYM    DATA     BYTE      TMR2RLH
      000000A6H   SFRSYM    DATA     BYTE      P2MDOUT
      000000A8H   SFRSYM    DATA     BYTE      IE
      00000093H   SFRSYM    DATA     BYTE      TMR3RLH
      0000009CH   SFRSYM    DATA     BYTE      P3MDOUT
      000000A3H   SFRSYM    DATA     BYTE      TMR4RLH
      000000F3H   SFRSYM    DATA     BYTE      EIP1
LX51 LINKER/LOCATER V4.66.97.0                                                        09/02/2020  13:20:23  PAGE 93


      000000F4H   SFRSYM    DATA     BYTE      EIP2
      00000098H.2 SFRSYM    DATA     BIT       SCON0_RB8
      000000CAH   SFRSYM    DATA     BYTE      TMR2RLL
      000000FCH   SFRSYM    DATA     BYTE      PCA0CPH0
      00000092H   SFRSYM    DATA     BYTE      TMR3RLL
      000000EAH   SFRSYM    DATA     BYTE      PCA0CPH1
      00000098H.3 SFRSYM    DATA     BIT       SCON0_TB8
      000000F0H.0 SFRSYM    DATA     BIT       B_B0
      00000082H   SFRSYM    DATA     WORD      DP
      000000A2H   SFRSYM    DATA     BYTE      TMR4RLL
      000000ECH   SFRSYM    DATA     BYTE      PCA0CPH2
      000000F0H.1 SFRSYM    DATA     BIT       B_B1
      000000C3H   SFRSYM    DATA     WORD      ADC0GT
      000000BDH   SFRSYM    DATA     BYTE      I2C0SLAD
      000000D8H.3 SFRSYM    DATA     BIT       UART1FCN1_RFRQ
      000000F0H.2 SFRSYM    DATA     BIT       B_B2
      000000CFH   SFRSYM    DATA     BYTE      SFRPGCN
      000000FBH   SFRSYM    DATA     BYTE      PCA0CPL0
      000000F0H.3 SFRSYM    DATA     BIT       B_B3
      000000D9H   SFRSYM    DATA     BYTE      PCA0MD
      000000DAH   SFRSYM    DATA     BYTE      PCA0CPM0
      000000E9H   SFRSYM    DATA     BYTE      PCA0CPL1
      000000D8H.7 SFRSYM    DATA     BIT       UART1FCN1_TFRQ
      000000F0H.4 SFRSYM    DATA     BIT       B_B4
      000000DBH   SFRSYM    DATA     BYTE      PCA0CPM1
      000000EBH   SFRSYM    DATA     BYTE      PCA0CPL2
      000000F0H.5 SFRSYM    DATA     BIT       B_B5
      000000DCH   SFRSYM    DATA     BYTE      PCA0CPM2
      000000B8H   SFRSYM    DATA     BYTE      IP
      000000B9H   SFRSYM    DATA     BYTE      ADC0TK
      000000F0H.6 SFRSYM    DATA     BIT       B_B6
      000000C5H   SFRSYM    DATA     WORD      ADC0LT
      000000D8H.6 SFRSYM    DATA     BIT       UART1FCN1_TXNF
      00000098H.5 SFRSYM    DATA     BIT       SCON0_MCE
      000000F0H.7 SFRSYM    DATA     BIT       B_B7
      000000C3H   SFRSYM    DATA     BYTE      SMB0FCN0
      000000E1H   SFRSYM    DATA     BYTE      XBR0
      000000C4H   SFRSYM    DATA     BYTE      SMB0FCN1
      000000C1H   SFRSYM    DATA     BYTE      SMB0CF
      000000E2H   SFRSYM    DATA     BYTE      XBR1
      000000C1H   SFRSYM    DATA     BYTE      PFE0CN
      000000E7H   SFRSYM    DATA     BYTE      EMI0CN
      000000C0H.5 SFRSYM    DATA     BIT       SMB0CN0_STA
      000000E3H   SFRSYM    DATA     BYTE      XBR2
      000000BBH   SFRSYM    DATA     BYTE      ADC0MX
      000000E0H.0 SFRSYM    DATA     BIT       ACC_ACC0
      000000D1H   SFRSYM    DATA     BYTE      REF0CN
      0000008EH   SFRSYM    DATA     BYTE      CKCON0
      000000E0H.1 SFRSYM    DATA     BIT       ACC_ACC1
      000000C9H   SFRSYM    DATA     BYTE      REG0CN
      000000DDH   SFRSYM    DATA     BYTE      CRC0IN
      000000A6H   SFRSYM    DATA     BYTE      CKCON1
      000000C8H.2 SFRSYM    DATA     BIT       TMR2CN0_TR2
      000000E0H.2 SFRSYM    DATA     BIT       ACC_ACC2
      000000C6H   SFRSYM    DATA     BYTE      REG1CN
      000000E0H.3 SFRSYM    DATA     BIT       ACC_ACC3
      00000081H   SFRSYM    DATA     BYTE      SP
      0000009DH   SFRSYM    DATA     BYTE      CMP0MD
      000000E0H.4 SFRSYM    DATA     BIT       ACC_ACC4
      000000B1H   SFRSYM    DATA     BYTE      LFO0CN
      000000ABH   SFRSYM    DATA     BYTE      CMP1MD
      000000D8H.0 SFRSYM    DATA     BIT       PCA0CN0_CCF0
LX51 LINKER/LOCATER V4.66.97.0                                                        09/02/2020  13:20:23  PAGE 94


      000000E0H.5 SFRSYM    DATA     BIT       ACC_ACC5
      00000098H.2 SFRSYM    DATA     BIT       TMR4CN0_TR4
      000000D8H.1 SFRSYM    DATA     BIT       PCA0CN0_CCF1
      000000E0H.6 SFRSYM    DATA     BIT       ACC_ACC6
      000000CCH   SFRSYM    DATA     WORD      TMR2
      0000009AH   SFRSYM    DATA     BYTE      SPI0FCN0
      000000D8H.2 SFRSYM    DATA     BIT       PCA0CN0_CCF2
      000000E0H.7 SFRSYM    DATA     BIT       ACC_ACC7
      00000094H   SFRSYM    DATA     WORD      TMR3
      0000009BH   SFRSYM    DATA     BYTE      SPI0FCN1
      000000A4H   SFRSYM    DATA     WORD      TMR4
      00000094H   SFRSYM    DATA     BYTE      SBCON1
      000000C0H.3 SFRSYM    DATA     BIT       SMB0CN0_ACKRQ
      000000FFH   SFRSYM    DATA     BYTE      VDM0CN
      000000F1H   SFRSYM    DATA     BYTE      P0MDIN
      00000098H.4 SFRSYM    DATA     BIT       SCON0_REN
      000000ACH   SFRSYM    DATA     BYTE      SMB0TC
      000000F2H   SFRSYM    DATA     BYTE      P1MDIN
      000000C8H.4 SFRSYM    DATA     BIT       SCON1_REN
      000000F3H   SFRSYM    DATA     BYTE      P2MDIN
      000000C0H.4 SFRSYM    DATA     BIT       SMB0CN0_STO
      000000F4H   SFRSYM    DATA     BYTE      P3MDIN
      000000B9H   SFRSYM    DATA     BYTE      I2C0STAT
      000000BBH   SFRSYM    DATA     BYTE      I2C0DOUT
      00000096H   SFRSYM    DATA     BYTE      SBRLH1
      000000FEH   SFRSYM    DATA     BYTE      P0MASK
      000000D8H.5 SFRSYM    DATA     BIT       UART1FCN1_TXHOLD
      000000EEH   SFRSYM    DATA     BYTE      P1MASK
      000000FCH   SFRSYM    DATA     BYTE      P2MASK
      000000D0H.3 SFRSYM    DATA     BIT       PSW_RS0
      000000D8H.7 SFRSYM    DATA     BIT       PCA0CN0_CF
      0000009EH   SFRSYM    DATA     BYTE      PCA0CENT
      000000BAH   SFRSYM    DATA     BYTE      I2C0CN0
      000000D2H   SFRSYM    DATA     BYTE      CRC0ST
      000000F8H.4 SFRSYM    DATA     BIT       SPI0CN0_RXOVRN
      000000D0H.4 SFRSYM    DATA     BIT       PSW_RS1
      00000095H   SFRSYM    DATA     BYTE      SBRLL1
      000000C8H.2 SFRSYM    DATA     BIT       SCON1_RBX
      000000C8H.0 SFRSYM    DATA     BIT       TMR2CN0_T2XCLK0
      000000C8H.1 SFRSYM    DATA     BIT       TMR2CN0_T2XCLK1
      000000C8H.3 SFRSYM    DATA     BIT       SCON1_TBX
      000000E8H.7 SFRSYM    DATA     BIT       ADC0CN0_ADEN
      00000089H   SFRSYM    DATA     BYTE      TMOD
      00000088H   SFRSYM    DATA     BYTE      TCON
      000000CFH   SFRSYM    DATA     BYTE      CRC0FLIP
      000000D0H.0 SFRSYM    DATA     BIT       PSW_PARITY
      000000A8H.4 SFRSYM    DATA     BIT       IE_ES0
      0000009FH   SFRSYM    DATA     BYTE      CMP0MX
      00000098H.0 SFRSYM    DATA     BIT       TMR4CN0_T4XCLK0
      000000A8H.1 SFRSYM    DATA     BIT       IE_ET0
      000000AAH   SFRSYM    DATA     BYTE      CMP1MX
      00000098H.1 SFRSYM    DATA     BIT       TMR4CN0_T4XCLK1
      000000A8H.3 SFRSYM    DATA     BIT       IE_ET1
      000000D4H   SFRSYM    DATA     BYTE      P0SKIP
      000000D8H.0 SFRSYM    DATA     BIT       UART1FCN1_RIE
      000000A8H.5 SFRSYM    DATA     BIT       IE_ET2
      000000D5H   SFRSYM    DATA     BYTE      P1SKIP
      000000CCH   SFRSYM    DATA     BYTE      P2SKIP
      000000E8H   SFRSYM    DATA     BYTE      ADC0CN0
      000000D8H.4 SFRSYM    DATA     BIT       UART1FCN1_TIE
      000000A8H.0 SFRSYM    DATA     BIT       IE_EX0
      000000B2H   SFRSYM    DATA     BYTE      ADC0CN1
LX51 LINKER/LOCATER V4.66.97.0                                                        09/02/2020  13:20:23  PAGE 95


      000000D8H.6 SFRSYM    DATA     BIT       PCA0CN0_CR
      000000A8H.2 SFRSYM    DATA     BIT       IE_EX1
      000000C8H.7 SFRSYM    DATA     BIT       SCON1_OVR
      00000098H.7 SFRSYM    DATA     BIT       SCON0_SMODE
      000000B5H   SFRSYM    DATA     BYTE      DEVICEID
      000000A9H   SFRSYM    DATA     BYTE      CLKSEL
      000000F8H.0 SFRSYM    DATA     BIT       SPI0CN0_SPIEN
      000000F0H   SFRSYM    DATA     BYTE      B
      000000BEH   SFRSYM    DATA     BYTE      ADC0H
      000000E8H.6 SFRSYM    DATA     BIT       ADC0CN0_ADBMEN
      000000CAH   SFRSYM    DATA     WORD      TMR2RL
      000000BDH   SFRSYM    DATA     BYTE      ADC0L
      00000092H   SFRSYM    DATA     WORD      TMR3RL
      000000A2H   SFRSYM    DATA     WORD      TMR4RL
      000000D8H   SFRSYM    DATA     BYTE      PCA0CN0
      000000E0H   SFRSYM    DATA     BYTE      ACC
      000000FBH   SFRSYM    DATA     WORD      PCA0CP0
      000000E9H   SFRSYM    DATA     WORD      PCA0CP1
      000000EBH   SFRSYM    DATA     WORD      PCA0CP2
      000000BCH   SFRSYM    DATA     BYTE      I2C0DIN
      000000CEH   SFRSYM    DATA     BYTE      CRC0CN0
      0000008CH   SFRSYM    DATA     BYTE      TH0
      00000086H   SFRSYM    DATA     BYTE      CRC0CN1
      000000B8H.4 SFRSYM    DATA     BIT       IP_PS0
      000000FAH   SFRSYM    DATA     BYTE      UART1FCT
      0000008DH   SFRSYM    DATA     BYTE      TH1
      000000FAH   SFRSYM    DATA     BYTE      PCA0H
      000000F5H   SFRSYM    DATA     BYTE      I2C0FCT
      000000B8H.1 SFRSYM    DATA     BIT       IP_PT0
      000000B8H.3 SFRSYM    DATA     BIT       IP_PT1
      000000C0H.2 SFRSYM    DATA     BIT       SMB0CN0_ARBLOST
      000000B8H.5 SFRSYM    DATA     BIT       IP_PT2
      0000008AH   SFRSYM    DATA     BYTE      TL0
      000000D0H.5 SFRSYM    DATA     BIT       PSW_F0
      000000A8H.6 SFRSYM    DATA     BIT       IE_ESPI0
      0000008BH   SFRSYM    DATA     BYTE      TL1
      000000F9H   SFRSYM    DATA     BYTE      PCA0L
      000000C0H.0 SFRSYM    DATA     BIT       SMB0CN0_SI
      000000D0H.1 SFRSYM    DATA     BIT       PSW_F1
      00000080H.0 SFRSYM    DATA     BIT       P0_B0
      000000B8H.0 SFRSYM    DATA     BIT       IP_PX0
      00000090H.0 SFRSYM    DATA     BIT       P1_B0
      00000080H.1 SFRSYM    DATA     BIT       P0_B1
      000000B8H.2 SFRSYM    DATA     BIT       IP_PX1
      0000009EH   SFRSYM    DATA     BYTE      UART1LIN
      0000009BH   SFRSYM    DATA     BYTE      CMP0CN0
      00000088H.1 SFRSYM    DATA     BIT       TCON_IE0
      000000A0H.0 SFRSYM    DATA     BIT       P2_B0
      00000090H.1 SFRSYM    DATA     BIT       P1_B1
      00000080H.2 SFRSYM    DATA     BIT       P0_B2
      000000BFH   SFRSYM    DATA     BYTE      CMP1CN0
      00000099H   SFRSYM    DATA     BYTE      CMP0CN1
      00000088H.3 SFRSYM    DATA     BIT       TCON_IE1
      000000B0H.0 SFRSYM    DATA     BIT       P3_B0
      000000A0H.1 SFRSYM    DATA     BIT       P2_B1
      00000090H.2 SFRSYM    DATA     BIT       P1_B2
      00000080H.3 SFRSYM    DATA     BIT       P0_B3
      000000C0H   SFRSYM    DATA     BYTE      SMB0CN0
      000000ACH   SFRSYM    DATA     BYTE      CMP1CN1
      000000B0H.1 SFRSYM    DATA     BIT       P3_B1
      000000A0H.2 SFRSYM    DATA     BIT       P2_B2
      00000090H.3 SFRSYM    DATA     BIT       P1_B3
LX51 LINKER/LOCATER V4.66.97.0                                                        09/02/2020  13:20:23  PAGE 96


      00000080H.4 SFRSYM    DATA     BIT       P0_B4
      000000A0H.3 SFRSYM    DATA     BIT       P2_B3
      00000090H.4 SFRSYM    DATA     BIT       P1_B4
      00000080H.5 SFRSYM    DATA     BIT       P0_B5
      000000D8H.1 SFRSYM    DATA     BIT       UART1FCN1_RXTO0
      00000090H.5 SFRSYM    DATA     BIT       P1_B5
      00000080H.6 SFRSYM    DATA     BIT       P0_B6
      000000F5H   SFRSYM    DATA     BYTE      EIP1H
      000000D8H.2 SFRSYM    DATA     BIT       UART1FCN1_RXTO1
      00000090H.6 SFRSYM    DATA     BIT       P1_B6
      00000080H.7 SFRSYM    DATA     BIT       P0_B7
      000000C5H   SFRSYM    DATA     BYTE      SMB0RXLN
      000000F6H   SFRSYM    DATA     BYTE      EIP2H
      00000090H.7 SFRSYM    DATA     BIT       P1_B7
      00000083H   SFRSYM    DATA     BYTE      DPH
      000000C4H   SFRSYM    DATA     BYTE      ADC0GTH
      000000C8H.7 SFRSYM    DATA     BIT       TMR2CN0_TF2H
      000000C8H.3 SFRSYM    DATA     BIT       TMR2CN0_T2SPLIT
      000000D0H.6 SFRSYM    DATA     BIT       PSW_AC
      000000F8H   SFRSYM    DATA     BYTE      SPI0CN0
      000000C7H   SFRSYM    DATA     BYTE      HFO0CAL
      00000088H.5 SFRSYM    DATA     BIT       TCON_TF0
      00000098H.0 SFRSYM    DATA     BIT       SCON0_RI
      000000D6H   SFRSYM    DATA     BYTE      HFO1CAL
      00000082H   SFRSYM    DATA     BYTE      DPL
      00000088H.7 SFRSYM    DATA     BIT       TCON_TF1
      000000C8H.0 SFRSYM    DATA     BIT       SCON1_RI
      00000099H   SFRSYM    DATA     BYTE      SBUF0
      00000087H   SFRSYM    DATA     BYTE      PCON0
      000000F2H   SFRSYM    DATA     BYTE      IPH
      000000C3H   SFRSYM    DATA     BYTE      ADC0GTL
      00000098H.7 SFRSYM    DATA     BIT       TMR4CN0_TF4H
      00000098H.3 SFRSYM    DATA     BIT       TMR4CN0_T4SPLIT
      000000C8H.6 SFRSYM    DATA     BIT       TMR2CN0_TF2L
      00000098H.1 SFRSYM    DATA     BIT       SCON0_TI
      000000E8H.0 SFRSYM    DATA     BIT       ADC0CN0_ADCM0
      00000092H   SFRSYM    DATA     BYTE      SBUF1
      0000009AH   SFRSYM    DATA     BYTE      PCON1
      000000C6H   SFRSYM    DATA     BYTE      ADC0LTH
      00000088H.0 SFRSYM    DATA     BIT       TCON_IT0
      000000C8H.1 SFRSYM    DATA     BIT       SCON1_TI
      000000E8H.1 SFRSYM    DATA     BIT       ADC0CN0_ADCM1
      000000EFH   SFRSYM    DATA     BYTE      RSTSRC
      000000FDH   SFRSYM    DATA     BYTE      P0MAT
      000000DEH   SFRSYM    DATA     BYTE      CRC0DAT
      00000088H.2 SFRSYM    DATA     BIT       TCON_IT1
      000000E8H.2 SFRSYM    DATA     BIT       ADC0CN0_ADCM2
      000000D7H   SFRSYM    DATA     BYTE      SFRSTACK
      00000098H   SFRSYM    DATA     BYTE      SCON0
      000000F6H   SFRSYM    DATA     BYTE      PRTDRV
      000000EDH   SFRSYM    DATA     BYTE      P1MAT
      000000E8H.3 SFRSYM    DATA     BIT       ADC0CN0_ADWINT
      00000095H   SFRSYM    DATA     WORD      SBRL1
      00000093H   SFRSYM    DATA     BYTE      SMOD1
      000000C8H   SFRSYM    DATA     BYTE      SCON1
      000000FBH   SFRSYM    DATA     BYTE      P2MAT
      00000098H.6 SFRSYM    DATA     BIT       TMR4CN0_TF4L
      000000E8H.4 SFRSYM    DATA     BIT       ADC0CN0_ADBUSY
      000000D6H   SFRSYM    DATA     BYTE      SMB0ADM
      000000C5H   SFRSYM    DATA     BYTE      ADC0LTL
      000000F8H.5 SFRSYM    DATA     BIT       SPI0CN0_MODF
      000000B8H.6 SFRSYM    DATA     BIT       IP_PSPI0
LX51 LINKER/LOCATER V4.66.97.0                                                        09/02/2020  13:20:23  PAGE 97


      0000009CH   SFRSYM    DATA     BYTE      PCA0CLR
      000000C8H   SFRSYM    DATA     BYTE      TMR2CN0
      00000091H   SFRSYM    DATA     BYTE      TMR3CN0
      000000FDH   SFRSYM    DATA     BYTE      TMR2CN1
      00000098H   SFRSYM    DATA     BYTE      TMR4CN0
      000000FEH   SFRSYM    DATA     BYTE      TMR3CN1
      000000FFH   SFRSYM    DATA     BYTE      TMR4CN1
      000000D7H   SFRSYM    DATA     BYTE      SMB0ADR
      00000088H.4 SFRSYM    DATA     BIT       TCON_TR0
      000000C8H.4 SFRSYM    DATA     BIT       TMR2CN0_TF2CEN
      00000088H.6 SFRSYM    DATA     BIT       TCON_TR1
      000000C2H   SFRSYM    DATA     BYTE      SMB0DAT
      000000CDH   SFRSYM    DATA     BYTE      TMR2H
      000000A1H   SFRSYM    DATA     BYTE      SPI0CFG
      00000095H   SFRSYM    DATA     BYTE      TMR3H
      000000EFH   SFRSYM    DATA     BYTE      HFOCN
      000000D3H   SFRSYM    DATA     BYTE      CRC0CNT
      000000A5H   SFRSYM    DATA     BYTE      TMR4H
      00000098H.4 SFRSYM    DATA     BIT       TMR4CN0_TF4CEN
      000000EFH   SFRSYM    DATA     BYTE      SMB0FCT
      00000096H   SFRSYM    DATA     BYTE      PCA0POL
      000000CCH   SFRSYM    DATA     BYTE      TMR2L
      000000F8H.7 SFRSYM    DATA     BIT       SPI0CN0_SPIF
      00000094H   SFRSYM    DATA     BYTE      TMR3L
      000000DFH   SFRSYM    DATA     BYTE      ADC0PWR
      000000A8H.7 SFRSYM    DATA     BIT       IE_EA
      000000A4H   SFRSYM    DATA     BYTE      TMR4L
      000000C8H.5 SFRSYM    DATA     BIT       TMR2CN0_TF2LEN
      000000F8H.6 SFRSYM    DATA     BIT       SPI0CN0_WCOL
      000000F8H.2 SFRSYM    DATA     BIT       SPI0CN0_NSSMD0
      000000D0H.7 SFRSYM    DATA     BIT       PSW_CY
      0000009DH   SFRSYM    DATA     BYTE      UART1FCN0
      000000A3H   SFRSYM    DATA     BYTE      SPI0DAT
      000000ADH   SFRSYM    DATA     BYTE      I2C0FCN0
      000000F8H.3 SFRSYM    DATA     BIT       SPI0CN0_NSSMD1
      000000BDH   SFRSYM    DATA     WORD      ADC0
      000000D8H   SFRSYM    DATA     BYTE      UART1FCN1
      000000ABH   SFRSYM    DATA     BYTE      I2C0FCN1
      00000098H.5 SFRSYM    DATA     BIT       TMR4CN0_TF4LEN
      000000D0H   SFRSYM    DATA     BYTE      PSW
      000000F7H   SFRSYM    DATA     BYTE      PCA0PWM
      000000F7H   SFRSYM    DATA     BYTE      SPI0FCT
      000000B6H   SFRSYM    DATA     BYTE      REVID
      000000B7H   SFRSYM    DATA     BYTE      FLKEY
      000000B3H   SFRSYM    DATA     BYTE      ADC0AC
      020002E5H   SYMBOL    XDATA    WORD      CapTime0
      020002E7H   SYMBOL    XDATA    WORD      CapTime1

      01003BA9H   BLOCK     CODE     ---       LVL=0
      0200038AH   SYMBOL    XDATA    BYTE      commode
      01003BA9H   LINE      CODE     ---       #23
      01003BAEH   LINE      CODE     ---       #24
      01003BAEH   LINE      CODE     ---       #25
      01003BB2H   LINE      CODE     ---       #26
      01003BB2H   LINE      CODE     ---       #27
      01003BB5H   LINE      CODE     ---       #28
      01003BB8H   LINE      CODE     ---       #29
      01003BB8H   LINE      CODE     ---       #30
      01003BC0H   LINE      CODE     ---       #31
      01003BC0H   LINE      CODE     ---       #32
      01003BC4H   LINE      CODE     ---       #33
      01003BC7H   LINE      CODE     ---       #34
LX51 LINKER/LOCATER V4.66.97.0                                                        09/02/2020  13:20:23  PAGE 98


      01003BCCH   LINE      CODE     ---       #35
      01003BCDH   LINE      CODE     ---       #37
      01003BCDH   LINE      CODE     ---       #38
      01003BD0H   LINE      CODE     ---       #39
      01003BD3H   LINE      CODE     ---       #40
      01003BD6H   LINE      CODE     ---       #41
      01003BD6H   LINE      CODE     ---       #42
      ---         BLOCKEND  ---      ---       LVL=0

      01003D9BH   BLOCK     CODE     ---       LVL=0
      01003D9BH   LINE      CODE     ---       #47
      01003D9BH   LINE      CODE     ---       #48
      01003D9BH   LINE      CODE     ---       #49
      01003DA1H   LINE      CODE     ---       #50
      01003DA4H   LINE      CODE     ---       #51
      01003DA7H   LINE      CODE     ---       #52
      01003DAAH   LINE      CODE     ---       #53
      01003DADH   LINE      CODE     ---       #59
      01003DB0H   LINE      CODE     ---       #60
      01003DB3H   LINE      CODE     ---       #61
      01003DB6H   LINE      CODE     ---       #62
      01003DB9H   LINE      CODE     ---       #63
      01003DBCH   LINE      CODE     ---       #65
      ---         BLOCKEND  ---      ---       LVL=0

      01003EDEH   BLOCK     CODE     ---       LVL=0
      01003EDEH   LINE      CODE     ---       #67
      01003EDEH   LINE      CODE     ---       #68
      01003EDEH   LINE      CODE     ---       #69
      01003EE3H   LINE      CODE     ---       #70
      ---         BLOCKEND  ---      ---       LVL=0

      010020C1H   BLOCK     CODE     ---       LVL=0
      0200038AH   SYMBOL    XDATA    WORD      Head
      00000005H   SYMBOL    DATA     BYTE      byId
      00000003H   SYMBOL    DATA     BYTE      byIdLen
      0200038EH   SYMBOL    XDATA    WORD      byData
      02000390H   SYMBOL    XDATA    BYTE      byDataLen
      010020C9H   BLOCK     CODE     NEAR LAB  LVL=1
      00000005H   SYMBOL    DATA     BYTE      i
      02000391H   SYMBOL    XDATA    WORD      Data
      00000001H   SYMBOL    DATA     BYTE      CheckSum
      ---         BLOCKEND  ---      ---       LVL=1
      010020C1H   LINE      CODE     ---       #93
      010020C9H   LINE      CODE     ---       #94
      010020C9H   LINE      CODE     ---       #97
      010020CBH   LINE      CODE     ---       #99
      010020EAH   LINE      CODE     ---       #101
      010020F8H   LINE      CODE     ---       #102
      010020F8H   LINE      CODE     ---       #103
      010020FEH   LINE      CODE     ---       #104
      01002100H   LINE      CODE     ---       #106
      01002100H   LINE      CODE     ---       #107
      01002105H   LINE      CODE     ---       #108
      01002105H   LINE      CODE     ---       #109
      01002113H   LINE      CODE     ---       #110
      0100212CH   LINE      CODE     ---       #111
      0100212CH   LINE      CODE     ---       #112
      01002149H   LINE      CODE     ---       #113
      01002149H   LINE      CODE     ---       #114
      0100215EH   LINE      CODE     ---       #115
      01002173H   LINE      CODE     ---       #116
LX51 LINKER/LOCATER V4.66.97.0                                                        09/02/2020  13:20:23  PAGE 99


      01002174H   LINE      CODE     ---       #117
      01002176H   LINE      CODE     ---       #119
      01002176H   LINE      CODE     ---       #120
      0100218BH   LINE      CODE     ---       #121
      010021A0H   LINE      CODE     ---       #122
      010021A0H   LINE      CODE     ---       #123
      010021A4H   LINE      CODE     ---       #124
      010021A8H   LINE      CODE     ---       #125
      010021ADH   LINE      CODE     ---       #126
      010021ADH   LINE      CODE     ---       #127
      010021C4H   LINE      CODE     ---       #128
      010021D9H   LINE      CODE     ---       #129
      010021DBH   LINE      CODE     ---       #131
      010021DBH   LINE      CODE     ---       #132
      010021F2H   LINE      CODE     ---       #133
      01002207H   LINE      CODE     ---       #134
      01002207H   LINE      CODE     ---       #135
      01002221H   LINE      CODE     ---       #136
      01002236H   LINE      CODE     ---       #138
      0100223BH   LINE      CODE     ---       #139
      01002244H   LINE      CODE     ---       #140
      ---         BLOCKEND  ---      ---       LVL=0

      01002247H   BLOCK     CODE     ---       LVL=0
      01002247H   LINE      CODE     ---       #148
      01002264H   LINE      CODE     ---       #150
      01002267H   LINE      CODE     ---       #151
      01002267H   LINE      CODE     ---       #152
      0100226FH   LINE      CODE     ---       #153
      0100227EH   LINE      CODE     ---       #154
      01002286H   LINE      CODE     ---       #155
      0100229AH   LINE      CODE     ---       #156
      0100229AH   LINE      CODE     ---       #157
      0100229FH   LINE      CODE     ---       #158
      010022A1H   LINE      CODE     ---       #160
      010022A1H   LINE      CODE     ---       #161
      010022BCH   LINE      CODE     ---       #162
      010022BCH   LINE      CODE     ---       #165
      010022D8H   LINE      CODE     ---       #166
      010022DAH   LINE      CODE     ---       #167
      010022DAH   LINE      CODE     ---       #168
      010022DDH   LINE      CODE     ---       #169
      010022DDH   LINE      CODE     ---       #171
      010022ECH   LINE      CODE     ---       #172
      010022F4H   LINE      CODE     ---       #173
      01002308H   LINE      CODE     ---       #174
      01002308H   LINE      CODE     ---       #175
      0100230DH   LINE      CODE     ---       #176
      0100230FH   LINE      CODE     ---       #178
      0100230FH   LINE      CODE     ---       #179
      0100232AH   LINE      CODE     ---       #180
      0100232AH   LINE      CODE     ---       #183
      01002346H   LINE      CODE     ---       #184
      01002348H   LINE      CODE     ---       #185
      01002348H   LINE      CODE     ---       #186
      0100234BH   LINE      CODE     ---       #187
      0100234BH   LINE      CODE     ---       #189
      0100234DH   LINE      CODE     ---       #190
      0100234DH   LINE      CODE     ---       #191
      01002350H   LINE      CODE     ---       #192
      01002350H   LINE      CODE     ---       #193
      01002358H   LINE      CODE     ---       #194
LX51 LINKER/LOCATER V4.66.97.0                                                        09/02/2020  13:20:23  PAGE 100


      01002358H   LINE      CODE     ---       #203
      0100235AH   LINE      CODE     ---       #204
      01002371H   LINE      CODE     ---       #205
      01002377H   LINE      CODE     ---       #206
      01002381H   LINE      CODE     ---       #207
      01002381H   LINE      CODE     ---       #208
      01002384H   LINE      CODE     ---       #209
      01002384H   LINE      CODE     ---       #210
      01002384H   LINE      CODE     ---       #211
      01002386H   LINE      CODE     ---       #212
      01002386H   LINE      CODE     ---       #213
      ---         BLOCKEND  ---      ---       LVL=0

      010030A5H   BLOCK     CODE     ---       LVL=0
      00000007H   SYMBOL    DATA     BYTE      bLevel
      00000004H   SYMBOL    DATA     WORD      wTime
      010030A5H   LINE      CODE     ---       #215
      010030A5H   LINE      CODE     ---       #216
      010030A5H   LINE      CODE     ---       #217
      010030ABH   LINE      CODE     ---       #218
      010030ABH   LINE      CODE     ---       #219
      010030BAH   LINE      CODE     ---       #220
      010030CBH   LINE      CODE     ---       #221
      010030CBH   LINE      CODE     ---       #222
      010030CEH   LINE      CODE     ---       #223
      010030DCH   LINE      CODE     ---       #224
      010030DCH   LINE      CODE     ---       #225
      010030EDH   LINE      CODE     ---       #226
      010030EDH   LINE      CODE     ---       #227
      010030F3H   LINE      CODE     ---       #228
      01003101H   LINE      CODE     ---       #229
      01003101H   LINE      CODE     ---       #230
      01003112H   LINE      CODE     ---       #231
      01003112H   LINE      CODE     ---       #232
      01003118H   LINE      CODE     ---       #233
      01003126H   LINE      CODE     ---       #234
      01003126H   LINE      CODE     ---       #235
      01003137H   LINE      CODE     ---       #236
      01003137H   LINE      CODE     ---       #237
      0100313DH   LINE      CODE     ---       #238
      0100314BH   LINE      CODE     ---       #239
      0100314BH   LINE      CODE     ---       #240
      0100314BH   LINE      CODE     ---       #241
      ---         BLOCKEND  ---      ---       LVL=0

      01002981H   BLOCK     CODE     ---       LVL=0
      02000388H   SYMBOL    XDATA    BYTE      bLevel
      02000389H   SYMBOL    XDATA    WORD      wTime
      01002981H   LINE      CODE     ---       #244
      0100298CH   LINE      CODE     ---       #245
      0100298CH   LINE      CODE     ---       #246
      010029ADH   LINE      CODE     ---       #248
      010029B6H   LINE      CODE     ---       #249
      010029B6H   LINE      CODE     ---       #250
      010029CCH   LINE      CODE     ---       #251
      010029CCH   LINE      CODE     ---       #252
      010029D2H   LINE      CODE     ---       #253
      010029D2H   LINE      CODE     ---       #254
      010029F4H   LINE      CODE     ---       #255
      010029FAH   LINE      CODE     ---       #256
      010029FFH   LINE      CODE     ---       #257
      01002A01H   LINE      CODE     ---       #259
LX51 LINKER/LOCATER V4.66.97.0                                                        09/02/2020  13:20:23  PAGE 101


      01002A01H   LINE      CODE     ---       #261
      01002A0EH   LINE      CODE     ---       #262
      01002A0EH   LINE      CODE     ---       #263
      01002A16H   LINE      CODE     ---       #264
      01002A1BH   LINE      CODE     ---       #265
      01002A1BH   LINE      CODE     ---       #266
      01002A1DH   LINE      CODE     ---       #269
      01002A1DH   LINE      CODE     ---       #270
      01002A1DH   LINE      CODE     ---       #271
      01002A35H   LINE      CODE     ---       #272
      01002A35H   LINE      CODE     ---       #273
      01002A3BH   LINE      CODE     ---       #274
      01002A3BH   LINE      CODE     ---       #275
      01002A49H   LINE      CODE     ---       #276
      01002A4AH   LINE      CODE     ---       #278
      01002A4AH   LINE      CODE     ---       #279
      01002A50H   LINE      CODE     ---       #280
      01002A55H   LINE      CODE     ---       #281
      01002A55H   LINE      CODE     ---       #282
      01002A55H   LINE      CODE     ---       #283
      01002A56H   LINE      CODE     ---       #285
      01002A56H   LINE      CODE     ---       #286
      01002A6EH   LINE      CODE     ---       #287
      01002A6EH   LINE      CODE     ---       #288
      01002A73H   LINE      CODE     ---       #289
      01002A73H   LINE      CODE     ---       #290
      01002A84H   LINE      CODE     ---       #291
      01002A84H   LINE      CODE     ---       #292
      01002A8AH   LINE      CODE     ---       #293
      01002A8AH   LINE      CODE     ---       #294
      01002A8AH   LINE      CODE     ---       #295
      ---         BLOCKEND  ---      ---       LVL=0

      01003772H   BLOCK     CODE     ---       LVL=0
      01003772H   BLOCK     CODE     NEAR LAB  LVL=1
      00000004H   SYMBOL    DATA     BYTE      i
      00000001H   SYMBOL    DATA     BYTE      RET
      00000005H   SYMBOL    DATA     BYTE      CheckSum
      ---         BLOCKEND  ---      ---       LVL=1
      01003772H   LINE      CODE     ---       #297
      01003772H   LINE      CODE     ---       #298
      01003772H   LINE      CODE     ---       #299
      01003774H   LINE      CODE     ---       #300
      01003775H   LINE      CODE     ---       #302
      01003781H   LINE      CODE     ---       #303
      01003781H   LINE      CODE     ---       #304
      0100379EH   LINE      CODE     ---       #305
      0100379EH   LINE      CODE     ---       #306
      0100379FH   LINE      CODE     ---       #307
      0100379FH   LINE      CODE     ---       #308
      010037A2H   LINE      CODE     ---       #309
      010037A6H   LINE      CODE     ---       #310
      010037C8H   LINE      CODE     ---       #311
      010037C8H   LINE      CODE     ---       #312
      010037CAH   LINE      CODE     ---       #313
      010037CAH   LINE      CODE     ---       #314
      010037CCH   LINE      CODE     ---       #315
      ---         BLOCKEND  ---      ---       LVL=0

      ---         MODULE    ---      ---       SPEAKER
      020003BBH   PUBLIC    XDATA    ---       Speaker
      000000A2H   SFRSYM    DATA     BYTE      SPI0CKR
LX51 LINKER/LOCATER V4.66.97.0                                                        09/02/2020  13:20:23  PAGE 102


      00000080H   SFRSYM    DATA     BYTE      P0
      000000C8H.6 SFRSYM    DATA     BIT       SCON1_PERR
      000000D0H.2 SFRSYM    DATA     BIT       PSW_OV
      00000090H   SFRSYM    DATA     BYTE      P1
      000000F8H.1 SFRSYM    DATA     BIT       SPI0CN0_TXNF
      00000097H   SFRSYM    DATA     BYTE      WDTCN
      000000A0H   SFRSYM    DATA     BYTE      P2
      000000B0H   SFRSYM    DATA     BYTE      P3
      000000BCH   SFRSYM    DATA     BYTE      ADC0CF
      000000C0H.7 SFRSYM    DATA     BIT       SMB0CN0_MASTER
      000000F9H   SFRSYM    DATA     WORD      PCA0
      000000E6H   SFRSYM    DATA     BYTE      EIE1
      000000C0H.1 SFRSYM    DATA     BIT       SMB0CN0_ACK
      000000CEH   SFRSYM    DATA     BYTE      EIE2
      0000008FH   SFRSYM    DATA     BYTE      PSCTL
      000000E4H   SFRSYM    DATA     BYTE      IT01CF
      000000C0H.6 SFRSYM    DATA     BIT       SMB0CN0_TXMODE
      000000ADH   SFRSYM    DATA     BYTE      DERIVID
      000000A7H   SFRSYM    DATA     BYTE      SFRPAGE
      000000A4H   SFRSYM    DATA     BYTE      P0MDOUT
      000000A5H   SFRSYM    DATA     BYTE      P1MDOUT
      000000E8H.5 SFRSYM    DATA     BIT       ADC0CN0_ADINT
      000000CBH   SFRSYM    DATA     BYTE      TMR2RLH
      000000A6H   SFRSYM    DATA     BYTE      P2MDOUT
      000000A8H   SFRSYM    DATA     BYTE      IE
      00000093H   SFRSYM    DATA     BYTE      TMR3RLH
      0000009CH   SFRSYM    DATA     BYTE      P3MDOUT
      000000A3H   SFRSYM    DATA     BYTE      TMR4RLH
      000000F3H   SFRSYM    DATA     BYTE      EIP1
      000000F4H   SFRSYM    DATA     BYTE      EIP2
      00000098H.2 SFRSYM    DATA     BIT       SCON0_RB8
      000000CAH   SFRSYM    DATA     BYTE      TMR2RLL
      000000FCH   SFRSYM    DATA     BYTE      PCA0CPH0
      00000092H   SFRSYM    DATA     BYTE      TMR3RLL
      000000EAH   SFRSYM    DATA     BYTE      PCA0CPH1
      00000098H.3 SFRSYM    DATA     BIT       SCON0_TB8
      000000F0H.0 SFRSYM    DATA     BIT       B_B0
      00000082H   SFRSYM    DATA     WORD      DP
      000000A2H   SFRSYM    DATA     BYTE      TMR4RLL
      000000ECH   SFRSYM    DATA     BYTE      PCA0CPH2
      000000F0H.1 SFRSYM    DATA     BIT       B_B1
      000000C3H   SFRSYM    DATA     WORD      ADC0GT
      000000BDH   SFRSYM    DATA     BYTE      I2C0SLAD
      000000D8H.3 SFRSYM    DATA     BIT       UART1FCN1_RFRQ
      000000F0H.2 SFRSYM    DATA     BIT       B_B2
      000000CFH   SFRSYM    DATA     BYTE      SFRPGCN
      000000FBH   SFRSYM    DATA     BYTE      PCA0CPL0
      000000F0H.3 SFRSYM    DATA     BIT       B_B3
      000000D9H   SFRSYM    DATA     BYTE      PCA0MD
      000000DAH   SFRSYM    DATA     BYTE      PCA0CPM0
      000000E9H   SFRSYM    DATA     BYTE      PCA0CPL1
      000000D8H.7 SFRSYM    DATA     BIT       UART1FCN1_TFRQ
      000000F0H.4 SFRSYM    DATA     BIT       B_B4
      000000DBH   SFRSYM    DATA     BYTE      PCA0CPM1
      000000EBH   SFRSYM    DATA     BYTE      PCA0CPL2
      000000F0H.5 SFRSYM    DATA     BIT       B_B5
      000000DCH   SFRSYM    DATA     BYTE      PCA0CPM2
      000000B8H   SFRSYM    DATA     BYTE      IP
      000000B9H   SFRSYM    DATA     BYTE      ADC0TK
      000000F0H.6 SFRSYM    DATA     BIT       B_B6
      000000C5H   SFRSYM    DATA     WORD      ADC0LT
      000000D8H.6 SFRSYM    DATA     BIT       UART1FCN1_TXNF
LX51 LINKER/LOCATER V4.66.97.0                                                        09/02/2020  13:20:23  PAGE 103


      00000098H.5 SFRSYM    DATA     BIT       SCON0_MCE
      000000F0H.7 SFRSYM    DATA     BIT       B_B7
      000000C3H   SFRSYM    DATA     BYTE      SMB0FCN0
      000000E1H   SFRSYM    DATA     BYTE      XBR0
      000000C4H   SFRSYM    DATA     BYTE      SMB0FCN1
      000000C1H   SFRSYM    DATA     BYTE      SMB0CF
      000000E2H   SFRSYM    DATA     BYTE      XBR1
      000000C1H   SFRSYM    DATA     BYTE      PFE0CN
      000000E7H   SFRSYM    DATA     BYTE      EMI0CN
      000000C0H.5 SFRSYM    DATA     BIT       SMB0CN0_STA
      000000E3H   SFRSYM    DATA     BYTE      XBR2
      000000BBH   SFRSYM    DATA     BYTE      ADC0MX
      000000E0H.0 SFRSYM    DATA     BIT       ACC_ACC0
      000000D1H   SFRSYM    DATA     BYTE      REF0CN
      0000008EH   SFRSYM    DATA     BYTE      CKCON0
      000000E0H.1 SFRSYM    DATA     BIT       ACC_ACC1
      000000C9H   SFRSYM    DATA     BYTE      REG0CN
      000000DDH   SFRSYM    DATA     BYTE      CRC0IN
      000000A6H   SFRSYM    DATA     BYTE      CKCON1
      000000C8H.2 SFRSYM    DATA     BIT       TMR2CN0_TR2
      000000E0H.2 SFRSYM    DATA     BIT       ACC_ACC2
      000000C6H   SFRSYM    DATA     BYTE      REG1CN
      000000E0H.3 SFRSYM    DATA     BIT       ACC_ACC3
      00000081H   SFRSYM    DATA     BYTE      SP
      0000009DH   SFRSYM    DATA     BYTE      CMP0MD
      000000E0H.4 SFRSYM    DATA     BIT       ACC_ACC4
      000000B1H   SFRSYM    DATA     BYTE      LFO0CN
      000000ABH   SFRSYM    DATA     BYTE      CMP1MD
      000000D8H.0 SFRSYM    DATA     BIT       PCA0CN0_CCF0
      000000E0H.5 SFRSYM    DATA     BIT       ACC_ACC5
      00000098H.2 SFRSYM    DATA     BIT       TMR4CN0_TR4
      000000D8H.1 SFRSYM    DATA     BIT       PCA0CN0_CCF1
      000000E0H.6 SFRSYM    DATA     BIT       ACC_ACC6
      000000CCH   SFRSYM    DATA     WORD      TMR2
      0000009AH   SFRSYM    DATA     BYTE      SPI0FCN0
      000000D8H.2 SFRSYM    DATA     BIT       PCA0CN0_CCF2
      000000E0H.7 SFRSYM    DATA     BIT       ACC_ACC7
      00000094H   SFRSYM    DATA     WORD      TMR3
      0000009BH   SFRSYM    DATA     BYTE      SPI0FCN1
      000000A4H   SFRSYM    DATA     WORD      TMR4
      00000094H   SFRSYM    DATA     BYTE      SBCON1
      000000C0H.3 SFRSYM    DATA     BIT       SMB0CN0_ACKRQ
      000000FFH   SFRSYM    DATA     BYTE      VDM0CN
      000000F1H   SFRSYM    DATA     BYTE      P0MDIN
      00000098H.4 SFRSYM    DATA     BIT       SCON0_REN
      000000ACH   SFRSYM    DATA     BYTE      SMB0TC
      000000F2H   SFRSYM    DATA     BYTE      P1MDIN
      000000C8H.4 SFRSYM    DATA     BIT       SCON1_REN
      000000F3H   SFRSYM    DATA     BYTE      P2MDIN
      000000C0H.4 SFRSYM    DATA     BIT       SMB0CN0_STO
      000000F4H   SFRSYM    DATA     BYTE      P3MDIN
      000000B9H   SFRSYM    DATA     BYTE      I2C0STAT
      000000BBH   SFRSYM    DATA     BYTE      I2C0DOUT
      00000096H   SFRSYM    DATA     BYTE      SBRLH1
      000000FEH   SFRSYM    DATA     BYTE      P0MASK
      000000D8H.5 SFRSYM    DATA     BIT       UART1FCN1_TXHOLD
      000000EEH   SFRSYM    DATA     BYTE      P1MASK
      000000FCH   SFRSYM    DATA     BYTE      P2MASK
      000000D0H.3 SFRSYM    DATA     BIT       PSW_RS0
      000000D8H.7 SFRSYM    DATA     BIT       PCA0CN0_CF
      0000009EH   SFRSYM    DATA     BYTE      PCA0CENT
      000000BAH   SFRSYM    DATA     BYTE      I2C0CN0
LX51 LINKER/LOCATER V4.66.97.0                                                        09/02/2020  13:20:23  PAGE 104


      000000D2H   SFRSYM    DATA     BYTE      CRC0ST
      000000F8H.4 SFRSYM    DATA     BIT       SPI0CN0_RXOVRN
      000000D0H.4 SFRSYM    DATA     BIT       PSW_RS1
      00000095H   SFRSYM    DATA     BYTE      SBRLL1
      000000C8H.2 SFRSYM    DATA     BIT       SCON1_RBX
      000000C8H.0 SFRSYM    DATA     BIT       TMR2CN0_T2XCLK0
      000000C8H.1 SFRSYM    DATA     BIT       TMR2CN0_T2XCLK1
      000000C8H.3 SFRSYM    DATA     BIT       SCON1_TBX
      000000E8H.7 SFRSYM    DATA     BIT       ADC0CN0_ADEN
      00000089H   SFRSYM    DATA     BYTE      TMOD
      00000088H   SFRSYM    DATA     BYTE      TCON
      000000CFH   SFRSYM    DATA     BYTE      CRC0FLIP
      000000D0H.0 SFRSYM    DATA     BIT       PSW_PARITY
      000000A8H.4 SFRSYM    DATA     BIT       IE_ES0
      0000009FH   SFRSYM    DATA     BYTE      CMP0MX
      00000098H.0 SFRSYM    DATA     BIT       TMR4CN0_T4XCLK0
      000000A8H.1 SFRSYM    DATA     BIT       IE_ET0
      000000AAH   SFRSYM    DATA     BYTE      CMP1MX
      00000098H.1 SFRSYM    DATA     BIT       TMR4CN0_T4XCLK1
      000000A8H.3 SFRSYM    DATA     BIT       IE_ET1
      000000D4H   SFRSYM    DATA     BYTE      P0SKIP
      000000D8H.0 SFRSYM    DATA     BIT       UART1FCN1_RIE
      000000A8H.5 SFRSYM    DATA     BIT       IE_ET2
      000000D5H   SFRSYM    DATA     BYTE      P1SKIP
      000000CCH   SFRSYM    DATA     BYTE      P2SKIP
      000000E8H   SFRSYM    DATA     BYTE      ADC0CN0
      000000D8H.4 SFRSYM    DATA     BIT       UART1FCN1_TIE
      000000A8H.0 SFRSYM    DATA     BIT       IE_EX0
      000000B2H   SFRSYM    DATA     BYTE      ADC0CN1
      000000D8H.6 SFRSYM    DATA     BIT       PCA0CN0_CR
      000000A8H.2 SFRSYM    DATA     BIT       IE_EX1
      000000C8H.7 SFRSYM    DATA     BIT       SCON1_OVR
      00000098H.7 SFRSYM    DATA     BIT       SCON0_SMODE
      000000B5H   SFRSYM    DATA     BYTE      DEVICEID
      000000A9H   SFRSYM    DATA     BYTE      CLKSEL
      000000F8H.0 SFRSYM    DATA     BIT       SPI0CN0_SPIEN
      000000F0H   SFRSYM    DATA     BYTE      B
      000000BEH   SFRSYM    DATA     BYTE      ADC0H
      000000E8H.6 SFRSYM    DATA     BIT       ADC0CN0_ADBMEN
      000000CAH   SFRSYM    DATA     WORD      TMR2RL
      000000BDH   SFRSYM    DATA     BYTE      ADC0L
      00000092H   SFRSYM    DATA     WORD      TMR3RL
      000000A2H   SFRSYM    DATA     WORD      TMR4RL
      000000D8H   SFRSYM    DATA     BYTE      PCA0CN0
      000000E0H   SFRSYM    DATA     BYTE      ACC
      000000FBH   SFRSYM    DATA     WORD      PCA0CP0
      000000E9H   SFRSYM    DATA     WORD      PCA0CP1
      000000EBH   SFRSYM    DATA     WORD      PCA0CP2
      000000BCH   SFRSYM    DATA     BYTE      I2C0DIN
      000000CEH   SFRSYM    DATA     BYTE      CRC0CN0
      0000008CH   SFRSYM    DATA     BYTE      TH0
      00000086H   SFRSYM    DATA     BYTE      CRC0CN1
      000000B8H.4 SFRSYM    DATA     BIT       IP_PS0
      000000FAH   SFRSYM    DATA     BYTE      UART1FCT
      0000008DH   SFRSYM    DATA     BYTE      TH1
      000000FAH   SFRSYM    DATA     BYTE      PCA0H
      000000F5H   SFRSYM    DATA     BYTE      I2C0FCT
      000000B8H.1 SFRSYM    DATA     BIT       IP_PT0
      000000B8H.3 SFRSYM    DATA     BIT       IP_PT1
      000000C0H.2 SFRSYM    DATA     BIT       SMB0CN0_ARBLOST
      000000B8H.5 SFRSYM    DATA     BIT       IP_PT2
      0000008AH   SFRSYM    DATA     BYTE      TL0
LX51 LINKER/LOCATER V4.66.97.0                                                        09/02/2020  13:20:23  PAGE 105


      000000D0H.5 SFRSYM    DATA     BIT       PSW_F0
      000000A8H.6 SFRSYM    DATA     BIT       IE_ESPI0
      0000008BH   SFRSYM    DATA     BYTE      TL1
      000000F9H   SFRSYM    DATA     BYTE      PCA0L
      000000C0H.0 SFRSYM    DATA     BIT       SMB0CN0_SI
      000000D0H.1 SFRSYM    DATA     BIT       PSW_F1
      00000080H.0 SFRSYM    DATA     BIT       P0_B0
      000000B8H.0 SFRSYM    DATA     BIT       IP_PX0
      00000090H.0 SFRSYM    DATA     BIT       P1_B0
      00000080H.1 SFRSYM    DATA     BIT       P0_B1
      000000B8H.2 SFRSYM    DATA     BIT       IP_PX1
      0000009EH   SFRSYM    DATA     BYTE      UART1LIN
      0000009BH   SFRSYM    DATA     BYTE      CMP0CN0
      00000088H.1 SFRSYM    DATA     BIT       TCON_IE0
      000000A0H.0 SFRSYM    DATA     BIT       P2_B0
      00000090H.1 SFRSYM    DATA     BIT       P1_B1
      00000080H.2 SFRSYM    DATA     BIT       P0_B2
      000000BFH   SFRSYM    DATA     BYTE      CMP1CN0
      00000099H   SFRSYM    DATA     BYTE      CMP0CN1
      00000088H.3 SFRSYM    DATA     BIT       TCON_IE1
      000000B0H.0 SFRSYM    DATA     BIT       P3_B0
      000000A0H.1 SFRSYM    DATA     BIT       P2_B1
      00000090H.2 SFRSYM    DATA     BIT       P1_B2
      00000080H.3 SFRSYM    DATA     BIT       P0_B3
      000000C0H   SFRSYM    DATA     BYTE      SMB0CN0
      000000ACH   SFRSYM    DATA     BYTE      CMP1CN1
      000000B0H.1 SFRSYM    DATA     BIT       P3_B1
      000000A0H.2 SFRSYM    DATA     BIT       P2_B2
      00000090H.3 SFRSYM    DATA     BIT       P1_B3
      00000080H.4 SFRSYM    DATA     BIT       P0_B4
      000000A0H.3 SFRSYM    DATA     BIT       P2_B3
      00000090H.4 SFRSYM    DATA     BIT       P1_B4
      00000080H.5 SFRSYM    DATA     BIT       P0_B5
      000000D8H.1 SFRSYM    DATA     BIT       UART1FCN1_RXTO0
      00000090H.5 SFRSYM    DATA     BIT       P1_B5
      00000080H.6 SFRSYM    DATA     BIT       P0_B6
      000000F5H   SFRSYM    DATA     BYTE      EIP1H
      000000D8H.2 SFRSYM    DATA     BIT       UART1FCN1_RXTO1
      00000090H.6 SFRSYM    DATA     BIT       P1_B6
      00000080H.7 SFRSYM    DATA     BIT       P0_B7
      000000C5H   SFRSYM    DATA     BYTE      SMB0RXLN
      000000F6H   SFRSYM    DATA     BYTE      EIP2H
      00000090H.7 SFRSYM    DATA     BIT       P1_B7
      00000083H   SFRSYM    DATA     BYTE      DPH
      000000C4H   SFRSYM    DATA     BYTE      ADC0GTH
      000000C8H.7 SFRSYM    DATA     BIT       TMR2CN0_TF2H
      000000C8H.3 SFRSYM    DATA     BIT       TMR2CN0_T2SPLIT
      000000D0H.6 SFRSYM    DATA     BIT       PSW_AC
      000000F8H   SFRSYM    DATA     BYTE      SPI0CN0
      000000C7H   SFRSYM    DATA     BYTE      HFO0CAL
      00000088H.5 SFRSYM    DATA     BIT       TCON_TF0
      00000098H.0 SFRSYM    DATA     BIT       SCON0_RI
      000000D6H   SFRSYM    DATA     BYTE      HFO1CAL
      00000082H   SFRSYM    DATA     BYTE      DPL
      00000088H.7 SFRSYM    DATA     BIT       TCON_TF1
      000000C8H.0 SFRSYM    DATA     BIT       SCON1_RI
      00000099H   SFRSYM    DATA     BYTE      SBUF0
      00000087H   SFRSYM    DATA     BYTE      PCON0
      000000F2H   SFRSYM    DATA     BYTE      IPH
      000000C3H   SFRSYM    DATA     BYTE      ADC0GTL
      00000098H.7 SFRSYM    DATA     BIT       TMR4CN0_TF4H
      00000098H.3 SFRSYM    DATA     BIT       TMR4CN0_T4SPLIT
LX51 LINKER/LOCATER V4.66.97.0                                                        09/02/2020  13:20:23  PAGE 106


      000000C8H.6 SFRSYM    DATA     BIT       TMR2CN0_TF2L
      00000098H.1 SFRSYM    DATA     BIT       SCON0_TI
      000000E8H.0 SFRSYM    DATA     BIT       ADC0CN0_ADCM0
      00000092H   SFRSYM    DATA     BYTE      SBUF1
      0000009AH   SFRSYM    DATA     BYTE      PCON1
      000000C6H   SFRSYM    DATA     BYTE      ADC0LTH
      00000088H.0 SFRSYM    DATA     BIT       TCON_IT0
      000000C8H.1 SFRSYM    DATA     BIT       SCON1_TI
      000000E8H.1 SFRSYM    DATA     BIT       ADC0CN0_ADCM1
      000000EFH   SFRSYM    DATA     BYTE      RSTSRC
      000000FDH   SFRSYM    DATA     BYTE      P0MAT
      000000DEH   SFRSYM    DATA     BYTE      CRC0DAT
      00000088H.2 SFRSYM    DATA     BIT       TCON_IT1
      000000E8H.2 SFRSYM    DATA     BIT       ADC0CN0_ADCM2
      000000D7H   SFRSYM    DATA     BYTE      SFRSTACK
      00000098H   SFRSYM    DATA     BYTE      SCON0
      000000F6H   SFRSYM    DATA     BYTE      PRTDRV
      000000EDH   SFRSYM    DATA     BYTE      P1MAT
      000000E8H.3 SFRSYM    DATA     BIT       ADC0CN0_ADWINT
      00000095H   SFRSYM    DATA     WORD      SBRL1
      00000093H   SFRSYM    DATA     BYTE      SMOD1
      000000C8H   SFRSYM    DATA     BYTE      SCON1
      000000FBH   SFRSYM    DATA     BYTE      P2MAT
      00000098H.6 SFRSYM    DATA     BIT       TMR4CN0_TF4L
      000000E8H.4 SFRSYM    DATA     BIT       ADC0CN0_ADBUSY
      000000D6H   SFRSYM    DATA     BYTE      SMB0ADM
      000000C5H   SFRSYM    DATA     BYTE      ADC0LTL
      000000F8H.5 SFRSYM    DATA     BIT       SPI0CN0_MODF
      000000B8H.6 SFRSYM    DATA     BIT       IP_PSPI0
      0000009CH   SFRSYM    DATA     BYTE      PCA0CLR
      000000C8H   SFRSYM    DATA     BYTE      TMR2CN0
      00000091H   SFRSYM    DATA     BYTE      TMR3CN0
      000000FDH   SFRSYM    DATA     BYTE      TMR2CN1
      00000098H   SFRSYM    DATA     BYTE      TMR4CN0
      000000FEH   SFRSYM    DATA     BYTE      TMR3CN1
      000000FFH   SFRSYM    DATA     BYTE      TMR4CN1
      000000D7H   SFRSYM    DATA     BYTE      SMB0ADR
      00000088H.4 SFRSYM    DATA     BIT       TCON_TR0
      000000C8H.4 SFRSYM    DATA     BIT       TMR2CN0_TF2CEN
      00000088H.6 SFRSYM    DATA     BIT       TCON_TR1
      000000C2H   SFRSYM    DATA     BYTE      SMB0DAT
      000000CDH   SFRSYM    DATA     BYTE      TMR2H
      000000A1H   SFRSYM    DATA     BYTE      SPI0CFG
      00000095H   SFRSYM    DATA     BYTE      TMR3H
      000000EFH   SFRSYM    DATA     BYTE      HFOCN
      000000D3H   SFRSYM    DATA     BYTE      CRC0CNT
      000000A5H   SFRSYM    DATA     BYTE      TMR4H
      00000098H.4 SFRSYM    DATA     BIT       TMR4CN0_TF4CEN
      000000EFH   SFRSYM    DATA     BYTE      SMB0FCT
      00000096H   SFRSYM    DATA     BYTE      PCA0POL
      000000CCH   SFRSYM    DATA     BYTE      TMR2L
      000000F8H.7 SFRSYM    DATA     BIT       SPI0CN0_SPIF
      00000094H   SFRSYM    DATA     BYTE      TMR3L
      000000DFH   SFRSYM    DATA     BYTE      ADC0PWR
      000000A8H.7 SFRSYM    DATA     BIT       IE_EA
      000000A4H   SFRSYM    DATA     BYTE      TMR4L
      000000C8H.5 SFRSYM    DATA     BIT       TMR2CN0_TF2LEN
      000000F8H.6 SFRSYM    DATA     BIT       SPI0CN0_WCOL
      000000F8H.2 SFRSYM    DATA     BIT       SPI0CN0_NSSMD0
      000000D0H.7 SFRSYM    DATA     BIT       PSW_CY
      0000009DH   SFRSYM    DATA     BYTE      UART1FCN0
      000000A3H   SFRSYM    DATA     BYTE      SPI0DAT
LX51 LINKER/LOCATER V4.66.97.0                                                        09/02/2020  13:20:23  PAGE 107


      000000ADH   SFRSYM    DATA     BYTE      I2C0FCN0
      000000F8H.3 SFRSYM    DATA     BIT       SPI0CN0_NSSMD1
      000000BDH   SFRSYM    DATA     WORD      ADC0
      000000D8H   SFRSYM    DATA     BYTE      UART1FCN1
      000000ABH   SFRSYM    DATA     BYTE      I2C0FCN1
      00000098H.5 SFRSYM    DATA     BIT       TMR4CN0_TF4LEN
      000000D0H   SFRSYM    DATA     BYTE      PSW
      000000F7H   SFRSYM    DATA     BYTE      PCA0PWM
      000000F7H   SFRSYM    DATA     BYTE      SPI0FCT
      000000B6H   SFRSYM    DATA     BYTE      REVID
      000000B7H   SFRSYM    DATA     BYTE      FLKEY
      000000B3H   SFRSYM    DATA     BYTE      ADC0AC
      00000007H   SYMBOL    DATA     BYTE      WarningClass

      ---         MODULE    ---      ---       TIMER
      020003BAH   PUBLIC    XDATA    BYTE      bTimeFlag
      020003B8H   PUBLIC    XDATA    WORD      wSensorCheckTime
      020003B6H   PUBLIC    XDATA    WORD      w50msCnt
      020003B5H   PUBLIC    XDATA    BYTE      bLevel
      020003B4H   PUBLIC    XDATA    BYTE      bSensorCheckFlag
      020003B3H   PUBLIC    XDATA    BYTE      b50msFlag
      020003B1H   PUBLIC    XDATA    WORD      wTime
      01003B7AH   PUBLIC    CODE     ---       TIMER3_ISR
      01003E59H   PUBLIC    CODE     ---       TIMER4_ISR
      01000022H   PUBLIC    CODE     ---       TIMER0_ISR
      01003656H   PUBLIC    CODE     ---       TIMER2_ISR
      0100002EH   PUBLIC    CODE     ---       _Delay1ms
      01003A1CH   PUBLIC    CODE     ---       _Delay1us
      0100000EH   PUBLIC    CODE     ---       Time_StopAdcTrigger
      01003E3DH   PUBLIC    CODE     ---       Time_StartAdcTrigger
      01003D26H   PUBLIC    CODE     ---       Time_InitAdcTriggerTimer
      01003C02H   PUBLIC    CODE     ---       Time_InitTheDelayTimer
      01000026H   PUBLIC    CODE     ---       StartTheUart0Timer
      01003CFDH   PUBLIC    CODE     ---       Time_InitUart0Timer
      01003E21H   PUBLIC    CODE     ---       Time_Init32msTimer
      01003BD7H   PUBLIC    CODE     ---       Time_Init1msTimer
      01003B4BH   PUBLIC    CODE     ---       _Stop_PCA0_Capture
      01003B1CH   PUBLIC    CODE     ---       _Start_PCA0_Capture
      01000003H   PUBLIC    CODE     ---       Stop_PCA0_Comparator
      01003EAFH   PUBLIC    CODE     ---       Start_PCA0_Comparator
      01003A54H   PUBLIC    CODE     ---       Time_InitPCA0
      000000A2H   SFRSYM    DATA     BYTE      SPI0CKR
      00000080H   SFRSYM    DATA     BYTE      P0
      000000C8H.6 SFRSYM    DATA     BIT       SCON1_PERR
      000000D0H.2 SFRSYM    DATA     BIT       PSW_OV
      00000090H   SFRSYM    DATA     BYTE      P1
      000000F8H.1 SFRSYM    DATA     BIT       SPI0CN0_TXNF
      00000097H   SFRSYM    DATA     BYTE      WDTCN
      000000A0H   SFRSYM    DATA     BYTE      P2
      000000B0H   SFRSYM    DATA     BYTE      P3
      000000BCH   SFRSYM    DATA     BYTE      ADC0CF
      000000C0H.7 SFRSYM    DATA     BIT       SMB0CN0_MASTER
      000000F9H   SFRSYM    DATA     WORD      PCA0
      000000E6H   SFRSYM    DATA     BYTE      EIE1
      000000C0H.1 SFRSYM    DATA     BIT       SMB0CN0_ACK
      000000CEH   SFRSYM    DATA     BYTE      EIE2
      0000008FH   SFRSYM    DATA     BYTE      PSCTL
      000000E4H   SFRSYM    DATA     BYTE      IT01CF
      000000C0H.6 SFRSYM    DATA     BIT       SMB0CN0_TXMODE
      000000ADH   SFRSYM    DATA     BYTE      DERIVID
      000000A7H   SFRSYM    DATA     BYTE      SFRPAGE
      000000A4H   SFRSYM    DATA     BYTE      P0MDOUT
LX51 LINKER/LOCATER V4.66.97.0                                                        09/02/2020  13:20:23  PAGE 108


      000000A5H   SFRSYM    DATA     BYTE      P1MDOUT
      000000E8H.5 SFRSYM    DATA     BIT       ADC0CN0_ADINT
      000000CBH   SFRSYM    DATA     BYTE      TMR2RLH
      000000A6H   SFRSYM    DATA     BYTE      P2MDOUT
      000000A8H   SFRSYM    DATA     BYTE      IE
      00000093H   SFRSYM    DATA     BYTE      TMR3RLH
      0000009CH   SFRSYM    DATA     BYTE      P3MDOUT
      000000A3H   SFRSYM    DATA     BYTE      TMR4RLH
      000000F3H   SFRSYM    DATA     BYTE      EIP1
      000000F4H   SFRSYM    DATA     BYTE      EIP2
      00000098H.2 SFRSYM    DATA     BIT       SCON0_RB8
      000000CAH   SFRSYM    DATA     BYTE      TMR2RLL
      000000FCH   SFRSYM    DATA     BYTE      PCA0CPH0
      00000092H   SFRSYM    DATA     BYTE      TMR3RLL
      000000EAH   SFRSYM    DATA     BYTE      PCA0CPH1
      00000098H.3 SFRSYM    DATA     BIT       SCON0_TB8
      000000F0H.0 SFRSYM    DATA     BIT       B_B0
      00000082H   SFRSYM    DATA     WORD      DP
      000000A2H   SFRSYM    DATA     BYTE      TMR4RLL
      000000ECH   SFRSYM    DATA     BYTE      PCA0CPH2
      000000F0H.1 SFRSYM    DATA     BIT       B_B1
      000000C3H   SFRSYM    DATA     WORD      ADC0GT
      000000BDH   SFRSYM    DATA     BYTE      I2C0SLAD
      000000D8H.3 SFRSYM    DATA     BIT       UART1FCN1_RFRQ
      000000F0H.2 SFRSYM    DATA     BIT       B_B2
      000000CFH   SFRSYM    DATA     BYTE      SFRPGCN
      000000FBH   SFRSYM    DATA     BYTE      PCA0CPL0
      000000F0H.3 SFRSYM    DATA     BIT       B_B3
      000000D9H   SFRSYM    DATA     BYTE      PCA0MD
      000000DAH   SFRSYM    DATA     BYTE      PCA0CPM0
      000000E9H   SFRSYM    DATA     BYTE      PCA0CPL1
      000000D8H.7 SFRSYM    DATA     BIT       UART1FCN1_TFRQ
      000000F0H.4 SFRSYM    DATA     BIT       B_B4
      000000DBH   SFRSYM    DATA     BYTE      PCA0CPM1
      000000EBH   SFRSYM    DATA     BYTE      PCA0CPL2
      000000F0H.5 SFRSYM    DATA     BIT       B_B5
      000000DCH   SFRSYM    DATA     BYTE      PCA0CPM2
      000000B8H   SFRSYM    DATA     BYTE      IP
      000000B9H   SFRSYM    DATA     BYTE      ADC0TK
      000000F0H.6 SFRSYM    DATA     BIT       B_B6
      000000C5H   SFRSYM    DATA     WORD      ADC0LT
      000000D8H.6 SFRSYM    DATA     BIT       UART1FCN1_TXNF
      00000098H.5 SFRSYM    DATA     BIT       SCON0_MCE
      000000F0H.7 SFRSYM    DATA     BIT       B_B7
      000000C3H   SFRSYM    DATA     BYTE      SMB0FCN0
      000000E1H   SFRSYM    DATA     BYTE      XBR0
      000000C4H   SFRSYM    DATA     BYTE      SMB0FCN1
      000000C1H   SFRSYM    DATA     BYTE      SMB0CF
      000000E2H   SFRSYM    DATA     BYTE      XBR1
      000000C1H   SFRSYM    DATA     BYTE      PFE0CN
      000000E7H   SFRSYM    DATA     BYTE      EMI0CN
      000000C0H.5 SFRSYM    DATA     BIT       SMB0CN0_STA
      000000E3H   SFRSYM    DATA     BYTE      XBR2
      000000BBH   SFRSYM    DATA     BYTE      ADC0MX
      000000E0H.0 SFRSYM    DATA     BIT       ACC_ACC0
      000000D1H   SFRSYM    DATA     BYTE      REF0CN
      0000008EH   SFRSYM    DATA     BYTE      CKCON0
      000000E0H.1 SFRSYM    DATA     BIT       ACC_ACC1
      000000C9H   SFRSYM    DATA     BYTE      REG0CN
      000000DDH   SFRSYM    DATA     BYTE      CRC0IN
      000000A6H   SFRSYM    DATA     BYTE      CKCON1
      000000C8H.2 SFRSYM    DATA     BIT       TMR2CN0_TR2
LX51 LINKER/LOCATER V4.66.97.0                                                        09/02/2020  13:20:23  PAGE 109


      000000E0H.2 SFRSYM    DATA     BIT       ACC_ACC2
      000000C6H   SFRSYM    DATA     BYTE      REG1CN
      000000E0H.3 SFRSYM    DATA     BIT       ACC_ACC3
      00000081H   SFRSYM    DATA     BYTE      SP
      0000009DH   SFRSYM    DATA     BYTE      CMP0MD
      000000E0H.4 SFRSYM    DATA     BIT       ACC_ACC4
      000000B1H   SFRSYM    DATA     BYTE      LFO0CN
      000000ABH   SFRSYM    DATA     BYTE      CMP1MD
      000000D8H.0 SFRSYM    DATA     BIT       PCA0CN0_CCF0
      000000E0H.5 SFRSYM    DATA     BIT       ACC_ACC5
      00000098H.2 SFRSYM    DATA     BIT       TMR4CN0_TR4
      000000D8H.1 SFRSYM    DATA     BIT       PCA0CN0_CCF1
      000000E0H.6 SFRSYM    DATA     BIT       ACC_ACC6
      000000CCH   SFRSYM    DATA     WORD      TMR2
      0000009AH   SFRSYM    DATA     BYTE      SPI0FCN0
      000000D8H.2 SFRSYM    DATA     BIT       PCA0CN0_CCF2
      000000E0H.7 SFRSYM    DATA     BIT       ACC_ACC7
      00000094H   SFRSYM    DATA     WORD      TMR3
      0000009BH   SFRSYM    DATA     BYTE      SPI0FCN1
      000000A4H   SFRSYM    DATA     WORD      TMR4
      00000094H   SFRSYM    DATA     BYTE      SBCON1
      000000C0H.3 SFRSYM    DATA     BIT       SMB0CN0_ACKRQ
      000000FFH   SFRSYM    DATA     BYTE      VDM0CN
      000000F1H   SFRSYM    DATA     BYTE      P0MDIN
      00000098H.4 SFRSYM    DATA     BIT       SCON0_REN
      000000ACH   SFRSYM    DATA     BYTE      SMB0TC
      000000F2H   SFRSYM    DATA     BYTE      P1MDIN
      000000C8H.4 SFRSYM    DATA     BIT       SCON1_REN
      000000F3H   SFRSYM    DATA     BYTE      P2MDIN
      000000C0H.4 SFRSYM    DATA     BIT       SMB0CN0_STO
      000000F4H   SFRSYM    DATA     BYTE      P3MDIN
      000000B9H   SFRSYM    DATA     BYTE      I2C0STAT
      000000BBH   SFRSYM    DATA     BYTE      I2C0DOUT
      00000096H   SFRSYM    DATA     BYTE      SBRLH1
      000000FEH   SFRSYM    DATA     BYTE      P0MASK
      000000D8H.5 SFRSYM    DATA     BIT       UART1FCN1_TXHOLD
      000000EEH   SFRSYM    DATA     BYTE      P1MASK
      000000FCH   SFRSYM    DATA     BYTE      P2MASK
      000000D0H.3 SFRSYM    DATA     BIT       PSW_RS0
      000000D8H.7 SFRSYM    DATA     BIT       PCA0CN0_CF
      0000009EH   SFRSYM    DATA     BYTE      PCA0CENT
      000000BAH   SFRSYM    DATA     BYTE      I2C0CN0
      000000D2H   SFRSYM    DATA     BYTE      CRC0ST
      000000F8H.4 SFRSYM    DATA     BIT       SPI0CN0_RXOVRN
      000000D0H.4 SFRSYM    DATA     BIT       PSW_RS1
      00000095H   SFRSYM    DATA     BYTE      SBRLL1
      000000C8H.2 SFRSYM    DATA     BIT       SCON1_RBX
      000000C8H.0 SFRSYM    DATA     BIT       TMR2CN0_T2XCLK0
      000000C8H.1 SFRSYM    DATA     BIT       TMR2CN0_T2XCLK1
      000000C8H.3 SFRSYM    DATA     BIT       SCON1_TBX
      000000E8H.7 SFRSYM    DATA     BIT       ADC0CN0_ADEN
      00000089H   SFRSYM    DATA     BYTE      TMOD
      00000088H   SFRSYM    DATA     BYTE      TCON
      000000CFH   SFRSYM    DATA     BYTE      CRC0FLIP
      000000D0H.0 SFRSYM    DATA     BIT       PSW_PARITY
      000000A8H.4 SFRSYM    DATA     BIT       IE_ES0
      0000009FH   SFRSYM    DATA     BYTE      CMP0MX
      00000098H.0 SFRSYM    DATA     BIT       TMR4CN0_T4XCLK0
      000000A8H.1 SFRSYM    DATA     BIT       IE_ET0
      000000AAH   SFRSYM    DATA     BYTE      CMP1MX
      00000098H.1 SFRSYM    DATA     BIT       TMR4CN0_T4XCLK1
      000000A8H.3 SFRSYM    DATA     BIT       IE_ET1
LX51 LINKER/LOCATER V4.66.97.0                                                        09/02/2020  13:20:23  PAGE 110


      000000D4H   SFRSYM    DATA     BYTE      P0SKIP
      000000D8H.0 SFRSYM    DATA     BIT       UART1FCN1_RIE
      000000A8H.5 SFRSYM    DATA     BIT       IE_ET2
      000000D5H   SFRSYM    DATA     BYTE      P1SKIP
      000000CCH   SFRSYM    DATA     BYTE      P2SKIP
      000000E8H   SFRSYM    DATA     BYTE      ADC0CN0
      000000D8H.4 SFRSYM    DATA     BIT       UART1FCN1_TIE
      000000A8H.0 SFRSYM    DATA     BIT       IE_EX0
      000000B2H   SFRSYM    DATA     BYTE      ADC0CN1
      000000D8H.6 SFRSYM    DATA     BIT       PCA0CN0_CR
      000000A8H.2 SFRSYM    DATA     BIT       IE_EX1
      000000C8H.7 SFRSYM    DATA     BIT       SCON1_OVR
      00000098H.7 SFRSYM    DATA     BIT       SCON0_SMODE
      000000B5H   SFRSYM    DATA     BYTE      DEVICEID
      000000A9H   SFRSYM    DATA     BYTE      CLKSEL
      000000F8H.0 SFRSYM    DATA     BIT       SPI0CN0_SPIEN
      000000F0H   SFRSYM    DATA     BYTE      B
      000000BEH   SFRSYM    DATA     BYTE      ADC0H
      000000E8H.6 SFRSYM    DATA     BIT       ADC0CN0_ADBMEN
      000000CAH   SFRSYM    DATA     WORD      TMR2RL
      000000BDH   SFRSYM    DATA     BYTE      ADC0L
      00000092H   SFRSYM    DATA     WORD      TMR3RL
      000000A2H   SFRSYM    DATA     WORD      TMR4RL
      000000D8H   SFRSYM    DATA     BYTE      PCA0CN0
      000000E0H   SFRSYM    DATA     BYTE      ACC
      000000FBH   SFRSYM    DATA     WORD      PCA0CP0
      000000E9H   SFRSYM    DATA     WORD      PCA0CP1
      000000EBH   SFRSYM    DATA     WORD      PCA0CP2
      000000BCH   SFRSYM    DATA     BYTE      I2C0DIN
      000000CEH   SFRSYM    DATA     BYTE      CRC0CN0
      0000008CH   SFRSYM    DATA     BYTE      TH0
      00000086H   SFRSYM    DATA     BYTE      CRC0CN1
      000000B8H.4 SFRSYM    DATA     BIT       IP_PS0
      000000FAH   SFRSYM    DATA     BYTE      UART1FCT
      0000008DH   SFRSYM    DATA     BYTE      TH1
      000000FAH   SFRSYM    DATA     BYTE      PCA0H
      000000F5H   SFRSYM    DATA     BYTE      I2C0FCT
      000000B8H.1 SFRSYM    DATA     BIT       IP_PT0
      000000B8H.3 SFRSYM    DATA     BIT       IP_PT1
      000000C0H.2 SFRSYM    DATA     BIT       SMB0CN0_ARBLOST
      000000B8H.5 SFRSYM    DATA     BIT       IP_PT2
      0000008AH   SFRSYM    DATA     BYTE      TL0
      000000D0H.5 SFRSYM    DATA     BIT       PSW_F0
      000000A8H.6 SFRSYM    DATA     BIT       IE_ESPI0
      0000008BH   SFRSYM    DATA     BYTE      TL1
      000000F9H   SFRSYM    DATA     BYTE      PCA0L
      000000C0H.0 SFRSYM    DATA     BIT       SMB0CN0_SI
      000000D0H.1 SFRSYM    DATA     BIT       PSW_F1
      00000080H.0 SFRSYM    DATA     BIT       P0_B0
      000000B8H.0 SFRSYM    DATA     BIT       IP_PX0
      00000090H.0 SFRSYM    DATA     BIT       P1_B0
      00000080H.1 SFRSYM    DATA     BIT       P0_B1
      000000B8H.2 SFRSYM    DATA     BIT       IP_PX1
      0000009EH   SFRSYM    DATA     BYTE      UART1LIN
      0000009BH   SFRSYM    DATA     BYTE      CMP0CN0
      00000088H.1 SFRSYM    DATA     BIT       TCON_IE0
      000000A0H.0 SFRSYM    DATA     BIT       P2_B0
      00000090H.1 SFRSYM    DATA     BIT       P1_B1
      00000080H.2 SFRSYM    DATA     BIT       P0_B2
      000000BFH   SFRSYM    DATA     BYTE      CMP1CN0
      00000099H   SFRSYM    DATA     BYTE      CMP0CN1
      00000088H.3 SFRSYM    DATA     BIT       TCON_IE1
LX51 LINKER/LOCATER V4.66.97.0                                                        09/02/2020  13:20:23  PAGE 111


      000000B0H.0 SFRSYM    DATA     BIT       P3_B0
      000000A0H.1 SFRSYM    DATA     BIT       P2_B1
      00000090H.2 SFRSYM    DATA     BIT       P1_B2
      00000080H.3 SFRSYM    DATA     BIT       P0_B3
      000000C0H   SFRSYM    DATA     BYTE      SMB0CN0
      000000ACH   SFRSYM    DATA     BYTE      CMP1CN1
      000000B0H.1 SFRSYM    DATA     BIT       P3_B1
      000000A0H.2 SFRSYM    DATA     BIT       P2_B2
      00000090H.3 SFRSYM    DATA     BIT       P1_B3
      00000080H.4 SFRSYM    DATA     BIT       P0_B4
      000000A0H.3 SFRSYM    DATA     BIT       P2_B3
      00000090H.4 SFRSYM    DATA     BIT       P1_B4
      00000080H.5 SFRSYM    DATA     BIT       P0_B5
      000000D8H.1 SFRSYM    DATA     BIT       UART1FCN1_RXTO0
      00000090H.5 SFRSYM    DATA     BIT       P1_B5
      00000080H.6 SFRSYM    DATA     BIT       P0_B6
      000000F5H   SFRSYM    DATA     BYTE      EIP1H
      000000D8H.2 SFRSYM    DATA     BIT       UART1FCN1_RXTO1
      00000090H.6 SFRSYM    DATA     BIT       P1_B6
      00000080H.7 SFRSYM    DATA     BIT       P0_B7
      000000C5H   SFRSYM    DATA     BYTE      SMB0RXLN
      000000F6H   SFRSYM    DATA     BYTE      EIP2H
      00000090H.7 SFRSYM    DATA     BIT       P1_B7
      00000083H   SFRSYM    DATA     BYTE      DPH
      000000C4H   SFRSYM    DATA     BYTE      ADC0GTH
      000000C8H.7 SFRSYM    DATA     BIT       TMR2CN0_TF2H
      000000C8H.3 SFRSYM    DATA     BIT       TMR2CN0_T2SPLIT
      000000D0H.6 SFRSYM    DATA     BIT       PSW_AC
      000000F8H   SFRSYM    DATA     BYTE      SPI0CN0
      000000C7H   SFRSYM    DATA     BYTE      HFO0CAL
      00000088H.5 SFRSYM    DATA     BIT       TCON_TF0
      00000098H.0 SFRSYM    DATA     BIT       SCON0_RI
      000000D6H   SFRSYM    DATA     BYTE      HFO1CAL
      00000082H   SFRSYM    DATA     BYTE      DPL
      00000088H.7 SFRSYM    DATA     BIT       TCON_TF1
      000000C8H.0 SFRSYM    DATA     BIT       SCON1_RI
      00000099H   SFRSYM    DATA     BYTE      SBUF0
      00000087H   SFRSYM    DATA     BYTE      PCON0
      000000F2H   SFRSYM    DATA     BYTE      IPH
      000000C3H   SFRSYM    DATA     BYTE      ADC0GTL
      00000098H.7 SFRSYM    DATA     BIT       TMR4CN0_TF4H
      00000098H.3 SFRSYM    DATA     BIT       TMR4CN0_T4SPLIT
      000000C8H.6 SFRSYM    DATA     BIT       TMR2CN0_TF2L
      00000098H.1 SFRSYM    DATA     BIT       SCON0_TI
      000000E8H.0 SFRSYM    DATA     BIT       ADC0CN0_ADCM0
      00000092H   SFRSYM    DATA     BYTE      SBUF1
      0000009AH   SFRSYM    DATA     BYTE      PCON1
      000000C6H   SFRSYM    DATA     BYTE      ADC0LTH
      00000088H.0 SFRSYM    DATA     BIT       TCON_IT0
      000000C8H.1 SFRSYM    DATA     BIT       SCON1_TI
      000000E8H.1 SFRSYM    DATA     BIT       ADC0CN0_ADCM1
      000000EFH   SFRSYM    DATA     BYTE      RSTSRC
      000000FDH   SFRSYM    DATA     BYTE      P0MAT
      000000DEH   SFRSYM    DATA     BYTE      CRC0DAT
      00000088H.2 SFRSYM    DATA     BIT       TCON_IT1
      000000E8H.2 SFRSYM    DATA     BIT       ADC0CN0_ADCM2
      000000D7H   SFRSYM    DATA     BYTE      SFRSTACK
      00000098H   SFRSYM    DATA     BYTE      SCON0
      000000F6H   SFRSYM    DATA     BYTE      PRTDRV
      000000EDH   SFRSYM    DATA     BYTE      P1MAT
      000000E8H.3 SFRSYM    DATA     BIT       ADC0CN0_ADWINT
      00000095H   SFRSYM    DATA     WORD      SBRL1
LX51 LINKER/LOCATER V4.66.97.0                                                        09/02/2020  13:20:23  PAGE 112


      00000093H   SFRSYM    DATA     BYTE      SMOD1
      000000C8H   SFRSYM    DATA     BYTE      SCON1
      000000FBH   SFRSYM    DATA     BYTE      P2MAT
      00000098H.6 SFRSYM    DATA     BIT       TMR4CN0_TF4L
      000000E8H.4 SFRSYM    DATA     BIT       ADC0CN0_ADBUSY
      000000D6H   SFRSYM    DATA     BYTE      SMB0ADM
      000000C5H   SFRSYM    DATA     BYTE      ADC0LTL
      000000F8H.5 SFRSYM    DATA     BIT       SPI0CN0_MODF
      000000B8H.6 SFRSYM    DATA     BIT       IP_PSPI0
      0000009CH   SFRSYM    DATA     BYTE      PCA0CLR
      000000C8H   SFRSYM    DATA     BYTE      TMR2CN0
      00000091H   SFRSYM    DATA     BYTE      TMR3CN0
      000000FDH   SFRSYM    DATA     BYTE      TMR2CN1
      00000098H   SFRSYM    DATA     BYTE      TMR4CN0
      000000FEH   SFRSYM    DATA     BYTE      TMR3CN1
      000000FFH   SFRSYM    DATA     BYTE      TMR4CN1
      000000D7H   SFRSYM    DATA     BYTE      SMB0ADR
      00000088H.4 SFRSYM    DATA     BIT       TCON_TR0
      000000C8H.4 SFRSYM    DATA     BIT       TMR2CN0_TF2CEN
      00000088H.6 SFRSYM    DATA     BIT       TCON_TR1
      000000C2H   SFRSYM    DATA     BYTE      SMB0DAT
      000000CDH   SFRSYM    DATA     BYTE      TMR2H
      000000A1H   SFRSYM    DATA     BYTE      SPI0CFG
      00000095H   SFRSYM    DATA     BYTE      TMR3H
      000000EFH   SFRSYM    DATA     BYTE      HFOCN
      000000D3H   SFRSYM    DATA     BYTE      CRC0CNT
      000000A5H   SFRSYM    DATA     BYTE      TMR4H
      00000098H.4 SFRSYM    DATA     BIT       TMR4CN0_TF4CEN
      000000EFH   SFRSYM    DATA     BYTE      SMB0FCT
      00000096H   SFRSYM    DATA     BYTE      PCA0POL
      000000CCH   SFRSYM    DATA     BYTE      TMR2L
      000000F8H.7 SFRSYM    DATA     BIT       SPI0CN0_SPIF
      00000094H   SFRSYM    DATA     BYTE      TMR3L
      000000DFH   SFRSYM    DATA     BYTE      ADC0PWR
      000000A8H.7 SFRSYM    DATA     BIT       IE_EA
      000000A4H   SFRSYM    DATA     BYTE      TMR4L
      000000C8H.5 SFRSYM    DATA     BIT       TMR2CN0_TF2LEN
      000000F8H.6 SFRSYM    DATA     BIT       SPI0CN0_WCOL
      000000F8H.2 SFRSYM    DATA     BIT       SPI0CN0_NSSMD0
      000000D0H.7 SFRSYM    DATA     BIT       PSW_CY
      0000009DH   SFRSYM    DATA     BYTE      UART1FCN0
      000000A3H   SFRSYM    DATA     BYTE      SPI0DAT
      000000ADH   SFRSYM    DATA     BYTE      I2C0FCN0
      000000F8H.3 SFRSYM    DATA     BIT       SPI0CN0_NSSMD1
      000000BDH   SFRSYM    DATA     WORD      ADC0
      000000D8H   SFRSYM    DATA     BYTE      UART1FCN1
      000000ABH   SFRSYM    DATA     BYTE      I2C0FCN1
      00000098H.5 SFRSYM    DATA     BIT       TMR4CN0_TF4LEN
      000000D0H   SFRSYM    DATA     BYTE      PSW
      000000F7H   SFRSYM    DATA     BYTE      PCA0PWM
      000000F7H   SFRSYM    DATA     BYTE      SPI0FCT
      000000B6H   SFRSYM    DATA     BYTE      REVID
      000000B7H   SFRSYM    DATA     BYTE      FLKEY
      000000B3H   SFRSYM    DATA     BYTE      ADC0AC

      01003A54H   BLOCK     CODE     ---       LVL=0
      01003A54H   LINE      CODE     ---       #43
      01003A54H   LINE      CODE     ---       #44
      01003A54H   LINE      CODE     ---       #45
      01003A5AH   LINE      CODE     ---       #46
      01003A5DH   LINE      CODE     ---       #48
      01003A5FH   LINE      CODE     ---       #49
LX51 LINKER/LOCATER V4.66.97.0                                                        09/02/2020  13:20:23  PAGE 113


      01003A61H   LINE      CODE     ---       #50
      01003A63H   LINE      CODE     ---       #51
      01003A65H   LINE      CODE     ---       #53
      01003A68H   LINE      CODE     ---       #57
      01003A6AH   LINE      CODE     ---       #58
      01003A6CH   LINE      CODE     ---       #59
      01003A6EH   LINE      CODE     ---       #60
      01003A70H   LINE      CODE     ---       #61
      01003A72H   LINE      CODE     ---       #62
      01003A74H   LINE      CODE     ---       #64
      01003A77H   LINE      CODE     ---       #73
      01003A7AH   LINE      CODE     ---       #75
      01003A7CH   LINE      CODE     ---       #77
      01003A7FH   LINE      CODE     ---       #78
      01003A82H   LINE      CODE     ---       #79
      01003A85H   LINE      CODE     ---       #80
      01003A87H   LINE      CODE     ---       #82
      01003A8AH   LINE      CODE     ---       #83
      ---         BLOCKEND  ---      ---       LVL=0

      01003EAFH   BLOCK     CODE     ---       LVL=0
      01003EAFH   LINE      CODE     ---       #85
      01003EAFH   LINE      CODE     ---       #86
      01003EAFH   LINE      CODE     ---       #87
      01003EB5H   LINE      CODE     ---       #88
      01003EBBH   LINE      CODE     ---       #89
      ---         BLOCKEND  ---      ---       LVL=0

      01000003H   BLOCK     CODE     ---       LVL=0
      01000003H   LINE      CODE     ---       #90
      01000003H   LINE      CODE     ---       #91
      01000003H   LINE      CODE     ---       #92
      01000005H   LINE      CODE     ---       #93
      0100000AH   LINE      CODE     ---       #94
      ---         BLOCKEND  ---      ---       LVL=0

      01003B1CH   BLOCK     CODE     ---       LVL=0
      00000007H   SYMBOL    DATA     BYTE      CH
      01003B1CH   LINE      CODE     ---       #96
      01003B1CH   LINE      CODE     ---       #97
      01003B1CH   LINE      CODE     ---       #98
      01003B22H   LINE      CODE     ---       #99
      01003B25H   LINE      CODE     ---       #100
      01003B27H   LINE      CODE     ---       #101
      01003B2DH   LINE      CODE     ---       #102
      01003B2DH   LINE      CODE     ---       #103
      01003B30H   LINE      CODE     ---       #104
      01003B30H   LINE      CODE     ---       #105
      01003B36H   LINE      CODE     ---       #106
      01003B36H   LINE      CODE     ---       #107
      01003B39H   LINE      CODE     ---       #108
      01003B39H   LINE      CODE     ---       #109
      01003B3FH   LINE      CODE     ---       #110
      01003B3FH   LINE      CODE     ---       #111
      01003B42H   LINE      CODE     ---       #112
      01003B42H   LINE      CODE     ---       #113
      01003B44H   LINE      CODE     ---       #114
      01003B4AH   LINE      CODE     ---       #115
      ---         BLOCKEND  ---      ---       LVL=0

      01003B4BH   BLOCK     CODE     ---       LVL=0
      00000007H   SYMBOL    DATA     BYTE      CH
LX51 LINKER/LOCATER V4.66.97.0                                                        09/02/2020  13:20:23  PAGE 114


      01003B4BH   LINE      CODE     ---       #117
      01003B4BH   LINE      CODE     ---       #118
      01003B4BH   LINE      CODE     ---       #119
      01003B51H   LINE      CODE     ---       #120
      01003B54H   LINE      CODE     ---       #121
      01003B56H   LINE      CODE     ---       #122
      01003B5CH   LINE      CODE     ---       #123
      01003B5CH   LINE      CODE     ---       #124
      01003B5FH   LINE      CODE     ---       #125
      01003B5FH   LINE      CODE     ---       #126
      01003B65H   LINE      CODE     ---       #127
      01003B65H   LINE      CODE     ---       #128
      01003B68H   LINE      CODE     ---       #129
      01003B68H   LINE      CODE     ---       #130
      01003B6EH   LINE      CODE     ---       #131
      01003B6EH   LINE      CODE     ---       #132
      01003B71H   LINE      CODE     ---       #133
      01003B71H   LINE      CODE     ---       #134
      01003B73H   LINE      CODE     ---       #135
      01003B79H   LINE      CODE     ---       #143
      ---         BLOCKEND  ---      ---       LVL=0

      01003BD7H   BLOCK     CODE     ---       LVL=0
      01003BD7H   LINE      CODE     ---       #147
      01003BD7H   LINE      CODE     ---       #148
      01003BD7H   LINE      CODE     ---       #149
      01003BDDH   LINE      CODE     ---       #150
      01003BE0H   LINE      CODE     ---       #152
      01003BE2H   LINE      CODE     ---       #153
      01003BE4H   LINE      CODE     ---       #154
      01003BE6H   LINE      CODE     ---       #155
      01003BE8H   LINE      CODE     ---       #156
      01003BEBH   LINE      CODE     ---       #157
      01003BEEH   LINE      CODE     ---       #158
      01003BF1H   LINE      CODE     ---       #159
      01003BF4H   LINE      CODE     ---       #160
      01003BF6H   LINE      CODE     ---       #161
      01003BF9H   LINE      CODE     ---       #162
      01003BFCH   LINE      CODE     ---       #163
      01003BFEH   LINE      CODE     ---       #165
      01003C01H   LINE      CODE     ---       #166
      ---         BLOCKEND  ---      ---       LVL=0

      01003E21H   BLOCK     CODE     ---       LVL=0
      01003E21H   LINE      CODE     ---       #172
      01003E21H   LINE      CODE     ---       #173
      01003E21H   LINE      CODE     ---       #174
      01003E24H   LINE      CODE     ---       #175
      01003E27H   LINE      CODE     ---       #176
      01003E2AH   LINE      CODE     ---       #177
      01003E2DH   LINE      CODE     ---       #178
      01003E30H   LINE      CODE     ---       #179
      01003E32H   LINE      CODE     ---       #180
      01003E34H   LINE      CODE     ---       #181
      01003E37H   LINE      CODE     ---       #182
      01003E3AH   LINE      CODE     ---       #184
      01003E3CH   LINE      CODE     ---       #185
      ---         BLOCKEND  ---      ---       LVL=0

      01003CFDH   BLOCK     CODE     ---       LVL=0
      01003CFDH   LINE      CODE     ---       #209
      01003CFDH   LINE      CODE     ---       #210
LX51 LINKER/LOCATER V4.66.97.0                                                        09/02/2020  13:20:23  PAGE 115


      01003CFDH   LINE      CODE     ---       #211
      01003D03H   LINE      CODE     ---       #215
      01003D06H   LINE      CODE     ---       #216
      01003D09H   LINE      CODE     ---       #217
      01003D0CH   LINE      CODE     ---       #218
      01003D0FH   LINE      CODE     ---       #220
      01003D12H   LINE      CODE     ---       #221
      01003D15H   LINE      CODE     ---       #223
      01003D18H   LINE      CODE     ---       #224
      01003D1AH   LINE      CODE     ---       #225
      01003D1DH   LINE      CODE     ---       #226
      01003D20H   LINE      CODE     ---       #227
      01003D23H   LINE      CODE     ---       #229
      01003D25H   LINE      CODE     ---       #230
      ---         BLOCKEND  ---      ---       LVL=0

      01000026H   BLOCK     CODE     ---       LVL=0
      01000026H   LINE      CODE     ---       #232
      01000026H   LINE      CODE     ---       #233
      01000026H   LINE      CODE     ---       #234
      01000028H   LINE      CODE     ---       #235
      0100002AH   LINE      CODE     ---       #236
      ---         BLOCKEND  ---      ---       LVL=0

      01003C02H   BLOCK     CODE     ---       LVL=0
      01003C02H   LINE      CODE     ---       #246
      01003C02H   LINE      CODE     ---       #247
      01003C02H   LINE      CODE     ---       #248
      01003C08H   LINE      CODE     ---       #249
      01003C0BH   LINE      CODE     ---       #250
      01003C0DH   LINE      CODE     ---       #251
      01003C0FH   LINE      CODE     ---       #252
      01003C11H   LINE      CODE     ---       #253
      01003C13H   LINE      CODE     ---       #254
      01003C16H   LINE      CODE     ---       #255
      01003C19H   LINE      CODE     ---       #256
      01003C1CH   LINE      CODE     ---       #257
      01003C1EH   LINE      CODE     ---       #258
      01003C21H   LINE      CODE     ---       #259
      01003C24H   LINE      CODE     ---       #260
      01003C27H   LINE      CODE     ---       #262
      01003C29H   LINE      CODE     ---       #264
      01003C2CH   LINE      CODE     ---       #265
      ---         BLOCKEND  ---      ---       LVL=0

      01003D26H   BLOCK     CODE     ---       LVL=0
      01003D26H   LINE      CODE     ---       #267
      01003D26H   LINE      CODE     ---       #268
      01003D26H   LINE      CODE     ---       #269
      01003D2CH   LINE      CODE     ---       #270
      01003D2FH   LINE      CODE     ---       #272
      01003D31H   LINE      CODE     ---       #276
      01003D34H   LINE      CODE     ---       #277
      01003D37H   LINE      CODE     ---       #278
      01003D3AH   LINE      CODE     ---       #279
      01003D3DH   LINE      CODE     ---       #280
      01003D40H   LINE      CODE     ---       #281
      01003D43H   LINE      CODE     ---       #282
      01003D46H   LINE      CODE     ---       #283
      01003D49H   LINE      CODE     ---       #285
      01003D4CH   LINE      CODE     ---       #286
      ---         BLOCKEND  ---      ---       LVL=0
LX51 LINKER/LOCATER V4.66.97.0                                                        09/02/2020  13:20:23  PAGE 116



      01003E3DH   BLOCK     CODE     ---       LVL=0
      01003E3DH   LINE      CODE     ---       #288
      01003E3DH   LINE      CODE     ---       #289
      01003E3DH   LINE      CODE     ---       #290
      01003E43H   LINE      CODE     ---       #291
      01003E46H   LINE      CODE     ---       #293
      01003E49H   LINE      CODE     ---       #294
      01003E4CH   LINE      CODE     ---       #295
      01003E4FH   LINE      CODE     ---       #296
      01003E52H   LINE      CODE     ---       #297
      01003E55H   LINE      CODE     ---       #299
      01003E58H   LINE      CODE     ---       #300
      ---         BLOCKEND  ---      ---       LVL=0

      0100000EH   BLOCK     CODE     ---       LVL=0
      0100000EH   LINE      CODE     ---       #302
      0100000EH   LINE      CODE     ---       #303
      0100000EH   LINE      CODE     ---       #304
      01000014H   LINE      CODE     ---       #305
      01000017H   LINE      CODE     ---       #307
      0100001AH   LINE      CODE     ---       #308
      0100001DH   LINE      CODE     ---       #310
      01000020H   LINE      CODE     ---       #311
      ---         BLOCKEND  ---      ---       LVL=0

      01003A1CH   BLOCK     CODE     ---       LVL=0
      00000006H   SYMBOL    DATA     WORD      byTime
      01003A1CH   BLOCK     CODE     NEAR LAB  LVL=1
      00000006H   SYMBOL    DATA     WORD      Temp
      ---         BLOCKEND  ---      ---       LVL=1
      01003A1CH   LINE      CODE     ---       #361
      01003A1CH   LINE      CODE     ---       #362
      01003A1CH   LINE      CODE     ---       #365
      01003A22H   LINE      CODE     ---       #366
      01003A25H   LINE      CODE     ---       #368
      01003A30H   LINE      CODE     ---       #369
      01003A39H   LINE      CODE     ---       #370
      01003A3CH   LINE      CODE     ---       #371
      01003A3FH   LINE      CODE     ---       #372
      01003A41H   LINE      CODE     ---       #373
      01003A44H   LINE      CODE     ---       #374
      01003A44H   LINE      CODE     ---       #375
      01003A47H   LINE      CODE     ---       #376
      01003A49H   LINE      CODE     ---       #377
      01003A4BH   LINE      CODE     ---       #378
      01003A4DH   LINE      CODE     ---       #380
      01003A53H   LINE      CODE     ---       #381
      ---         BLOCKEND  ---      ---       LVL=0

      0100002EH   BLOCK     CODE     ---       LVL=0
      00000004H   SYMBOL    DATA     WORD      byTime
      01000032H   BLOCK     CODE     NEAR LAB  LVL=1
      00000002H   SYMBOL    DATA     WORD      i
      ---         BLOCKEND  ---      ---       LVL=1
      0100002EH   LINE      CODE     ---       #386
      01000032H   LINE      CODE     ---       #387
      01000032H   LINE      CODE     ---       #389
      0100003CH   LINE      CODE     ---       #390
      0100003CH   LINE      CODE     ---       #391
      01000043H   LINE      CODE     ---       #392
      0100004AH   LINE      CODE     ---       #393
LX51 LINKER/LOCATER V4.66.97.0                                                        09/02/2020  13:20:23  PAGE 117


      ---         BLOCKEND  ---      ---       LVL=0

      01003656H   BLOCK     CODE     ---       LVL=0
      01003656H   LINE      CODE     ---       #399
      01003673H   LINE      CODE     ---       #401
      01003679H   LINE      CODE     ---       #402
      0100368EH   LINE      CODE     ---       #403
      0100368EH   LINE      CODE     ---       #404
      01003695H   LINE      CODE     ---       #405
      0100369AH   LINE      CODE     ---       #406
      0100369AH   LINE      CODE     ---       #407
      0100369DH   LINE      CODE     ---       #408
      0100369FH   LINE      CODE     ---       #409
      ---         BLOCKEND  ---      ---       LVL=0

      01000022H   BLOCK     CODE     ---       LVL=0
      01000022H   LINE      CODE     ---       #414
      01000022H   LINE      CODE     ---       #417
      ---         BLOCKEND  ---      ---       LVL=0

      01003E59H   BLOCK     CODE     ---       LVL=0
      01003E59H   LINE      CODE     ---       #423
      01003E5FH   LINE      CODE     ---       #425
      01003E65H   LINE      CODE     ---       #426
      01003E68H   LINE      CODE     ---       #427
      01003E6AH   LINE      CODE     ---       #428
      01003E6DH   LINE      CODE     ---       #429
      ---         BLOCKEND  ---      ---       LVL=0

      01003B7AH   BLOCK     CODE     ---       LVL=0
      01003B7AH   LINE      CODE     ---       #435
      01003B82H   LINE      CODE     ---       #437
      01003B91H   LINE      CODE     ---       #438
      01003B9DH   LINE      CODE     ---       #439
      01003BA0H   LINE      CODE     ---       #440
      ---         BLOCKEND  ---      ---       LVL=0

      ---         MODULE    ---      ---       UART
      02000384H   PUBLIC    XDATA    BYTE      Uart0RX_OK_Flag
      02000383H   PUBLIC    XDATA    BYTE      Uart0TX_NOTOK_Flag
      0200036BH   PUBLIC    XDATA    ---       gUart0ReceivePduInfo
      0200036AH   PUBLIC    XDATA    BYTE      Uart0TX_ALL_Flag
      02000362H   PUBLIC    XDATA    ---       gslinContext
      0100337CH   PUBLIC    CODE     ---       UART0_ISR
      01001315H   PUBLIC    CODE     ---       _UART0_RXData
      01003D74H   PUBLIC    CODE     ---       _UART0_WriteByte
      01003E84H   PUBLIC    CODE     ---       UART0_ModeDataH
      01003E74H   PUBLIC    CODE     ---       UART0_ModeDataL
      01000076H   PUBLIC    CODE     ---       UART0_Moudle_Dis
      01003EC8H   PUBLIC    CODE     ---       UART0_INTRX_En
      01003EBCH   PUBLIC    CODE     ---       UART0_INTRX_Dis
      01003D4DH   PUBLIC    CODE     ---       Uart0_Init
      000000A2H   SFRSYM    DATA     BYTE      SPI0CKR
      00000080H   SFRSYM    DATA     BYTE      P0
      000000C8H.6 SFRSYM    DATA     BIT       SCON1_PERR
      000000D0H.2 SFRSYM    DATA     BIT       PSW_OV
      00000090H   SFRSYM    DATA     BYTE      P1
      000000F8H.1 SFRSYM    DATA     BIT       SPI0CN0_TXNF
      00000097H   SFRSYM    DATA     BYTE      WDTCN
      000000A0H   SFRSYM    DATA     BYTE      P2
      000000B0H   SFRSYM    DATA     BYTE      P3
      000000BCH   SFRSYM    DATA     BYTE      ADC0CF
LX51 LINKER/LOCATER V4.66.97.0                                                        09/02/2020  13:20:23  PAGE 118


      000000C0H.7 SFRSYM    DATA     BIT       SMB0CN0_MASTER
      000000F9H   SFRSYM    DATA     WORD      PCA0
      000000E6H   SFRSYM    DATA     BYTE      EIE1
      000000C0H.1 SFRSYM    DATA     BIT       SMB0CN0_ACK
      000000CEH   SFRSYM    DATA     BYTE      EIE2
      0000008FH   SFRSYM    DATA     BYTE      PSCTL
      000000E4H   SFRSYM    DATA     BYTE      IT01CF
      000000C0H.6 SFRSYM    DATA     BIT       SMB0CN0_TXMODE
      000000ADH   SFRSYM    DATA     BYTE      DERIVID
      000000A7H   SFRSYM    DATA     BYTE      SFRPAGE
      000000A4H   SFRSYM    DATA     BYTE      P0MDOUT
      000000A5H   SFRSYM    DATA     BYTE      P1MDOUT
      000000E8H.5 SFRSYM    DATA     BIT       ADC0CN0_ADINT
      000000CBH   SFRSYM    DATA     BYTE      TMR2RLH
      000000A6H   SFRSYM    DATA     BYTE      P2MDOUT
      000000A8H   SFRSYM    DATA     BYTE      IE
      00000093H   SFRSYM    DATA     BYTE      TMR3RLH
      0000009CH   SFRSYM    DATA     BYTE      P3MDOUT
      000000A3H   SFRSYM    DATA     BYTE      TMR4RLH
      000000F3H   SFRSYM    DATA     BYTE      EIP1
      000000F4H   SFRSYM    DATA     BYTE      EIP2
      00000098H.2 SFRSYM    DATA     BIT       SCON0_RB8
      000000CAH   SFRSYM    DATA     BYTE      TMR2RLL
      000000FCH   SFRSYM    DATA     BYTE      PCA0CPH0
      00000092H   SFRSYM    DATA     BYTE      TMR3RLL
      000000EAH   SFRSYM    DATA     BYTE      PCA0CPH1
      00000098H.3 SFRSYM    DATA     BIT       SCON0_TB8
      000000F0H.0 SFRSYM    DATA     BIT       B_B0
      00000082H   SFRSYM    DATA     WORD      DP
      000000A2H   SFRSYM    DATA     BYTE      TMR4RLL
      000000ECH   SFRSYM    DATA     BYTE      PCA0CPH2
      000000F0H.1 SFRSYM    DATA     BIT       B_B1
      000000C3H   SFRSYM    DATA     WORD      ADC0GT
      000000BDH   SFRSYM    DATA     BYTE      I2C0SLAD
      000000D8H.3 SFRSYM    DATA     BIT       UART1FCN1_RFRQ
      000000F0H.2 SFRSYM    DATA     BIT       B_B2
      000000CFH   SFRSYM    DATA     BYTE      SFRPGCN
      000000FBH   SFRSYM    DATA     BYTE      PCA0CPL0
      000000F0H.3 SFRSYM    DATA     BIT       B_B3
      000000D9H   SFRSYM    DATA     BYTE      PCA0MD
      000000DAH   SFRSYM    DATA     BYTE      PCA0CPM0
      000000E9H   SFRSYM    DATA     BYTE      PCA0CPL1
      000000D8H.7 SFRSYM    DATA     BIT       UART1FCN1_TFRQ
      000000F0H.4 SFRSYM    DATA     BIT       B_B4
      000000DBH   SFRSYM    DATA     BYTE      PCA0CPM1
      000000EBH   SFRSYM    DATA     BYTE      PCA0CPL2
      000000F0H.5 SFRSYM    DATA     BIT       B_B5
      000000DCH   SFRSYM    DATA     BYTE      PCA0CPM2
      000000B8H   SFRSYM    DATA     BYTE      IP
      000000B9H   SFRSYM    DATA     BYTE      ADC0TK
      000000F0H.6 SFRSYM    DATA     BIT       B_B6
      000000C5H   SFRSYM    DATA     WORD      ADC0LT
      000000D8H.6 SFRSYM    DATA     BIT       UART1FCN1_TXNF
      00000098H.5 SFRSYM    DATA     BIT       SCON0_MCE
      000000F0H.7 SFRSYM    DATA     BIT       B_B7
      000000C3H   SFRSYM    DATA     BYTE      SMB0FCN0
      000000E1H   SFRSYM    DATA     BYTE      XBR0
      000000C4H   SFRSYM    DATA     BYTE      SMB0FCN1
      000000C1H   SFRSYM    DATA     BYTE      SMB0CF
      000000E2H   SFRSYM    DATA     BYTE      XBR1
      000000C1H   SFRSYM    DATA     BYTE      PFE0CN
      000000E7H   SFRSYM    DATA     BYTE      EMI0CN
LX51 LINKER/LOCATER V4.66.97.0                                                        09/02/2020  13:20:23  PAGE 119


      000000C0H.5 SFRSYM    DATA     BIT       SMB0CN0_STA
      000000E3H   SFRSYM    DATA     BYTE      XBR2
      000000BBH   SFRSYM    DATA     BYTE      ADC0MX
      000000E0H.0 SFRSYM    DATA     BIT       ACC_ACC0
      000000D1H   SFRSYM    DATA     BYTE      REF0CN
      0000008EH   SFRSYM    DATA     BYTE      CKCON0
      000000E0H.1 SFRSYM    DATA     BIT       ACC_ACC1
      000000C9H   SFRSYM    DATA     BYTE      REG0CN
      000000DDH   SFRSYM    DATA     BYTE      CRC0IN
      000000A6H   SFRSYM    DATA     BYTE      CKCON1
      000000C8H.2 SFRSYM    DATA     BIT       TMR2CN0_TR2
      000000E0H.2 SFRSYM    DATA     BIT       ACC_ACC2
      000000C6H   SFRSYM    DATA     BYTE      REG1CN
      000000E0H.3 SFRSYM    DATA     BIT       ACC_ACC3
      00000081H   SFRSYM    DATA     BYTE      SP
      0000009DH   SFRSYM    DATA     BYTE      CMP0MD
      000000E0H.4 SFRSYM    DATA     BIT       ACC_ACC4
      000000B1H   SFRSYM    DATA     BYTE      LFO0CN
      000000ABH   SFRSYM    DATA     BYTE      CMP1MD
      000000D8H.0 SFRSYM    DATA     BIT       PCA0CN0_CCF0
      000000E0H.5 SFRSYM    DATA     BIT       ACC_ACC5
      00000098H.2 SFRSYM    DATA     BIT       TMR4CN0_TR4
      000000D8H.1 SFRSYM    DATA     BIT       PCA0CN0_CCF1
      000000E0H.6 SFRSYM    DATA     BIT       ACC_ACC6
      000000CCH   SFRSYM    DATA     WORD      TMR2
      0000009AH   SFRSYM    DATA     BYTE      SPI0FCN0
      000000D8H.2 SFRSYM    DATA     BIT       PCA0CN0_CCF2
      000000E0H.7 SFRSYM    DATA     BIT       ACC_ACC7
      00000094H   SFRSYM    DATA     WORD      TMR3
      0000009BH   SFRSYM    DATA     BYTE      SPI0FCN1
      000000A4H   SFRSYM    DATA     WORD      TMR4
      00000094H   SFRSYM    DATA     BYTE      SBCON1
      000000C0H.3 SFRSYM    DATA     BIT       SMB0CN0_ACKRQ
      000000FFH   SFRSYM    DATA     BYTE      VDM0CN
      000000F1H   SFRSYM    DATA     BYTE      P0MDIN
      00000098H.4 SFRSYM    DATA     BIT       SCON0_REN
      000000ACH   SFRSYM    DATA     BYTE      SMB0TC
      000000F2H   SFRSYM    DATA     BYTE      P1MDIN
      000000C8H.4 SFRSYM    DATA     BIT       SCON1_REN
      000000F3H   SFRSYM    DATA     BYTE      P2MDIN
      000000C0H.4 SFRSYM    DATA     BIT       SMB0CN0_STO
      000000F4H   SFRSYM    DATA     BYTE      P3MDIN
      000000B9H   SFRSYM    DATA     BYTE      I2C0STAT
      000000BBH   SFRSYM    DATA     BYTE      I2C0DOUT
      00000096H   SFRSYM    DATA     BYTE      SBRLH1
      000000FEH   SFRSYM    DATA     BYTE      P0MASK
      000000D8H.5 SFRSYM    DATA     BIT       UART1FCN1_TXHOLD
      000000EEH   SFRSYM    DATA     BYTE      P1MASK
      000000FCH   SFRSYM    DATA     BYTE      P2MASK
      000000D0H.3 SFRSYM    DATA     BIT       PSW_RS0
      000000D8H.7 SFRSYM    DATA     BIT       PCA0CN0_CF
      0000009EH   SFRSYM    DATA     BYTE      PCA0CENT
      000000BAH   SFRSYM    DATA     BYTE      I2C0CN0
      000000D2H   SFRSYM    DATA     BYTE      CRC0ST
      000000F8H.4 SFRSYM    DATA     BIT       SPI0CN0_RXOVRN
      000000D0H.4 SFRSYM    DATA     BIT       PSW_RS1
      00000095H   SFRSYM    DATA     BYTE      SBRLL1
      000000C8H.2 SFRSYM    DATA     BIT       SCON1_RBX
      000000C8H.0 SFRSYM    DATA     BIT       TMR2CN0_T2XCLK0
      000000C8H.1 SFRSYM    DATA     BIT       TMR2CN0_T2XCLK1
      000000C8H.3 SFRSYM    DATA     BIT       SCON1_TBX
      000000E8H.7 SFRSYM    DATA     BIT       ADC0CN0_ADEN
LX51 LINKER/LOCATER V4.66.97.0                                                        09/02/2020  13:20:23  PAGE 120


      00000089H   SFRSYM    DATA     BYTE      TMOD
      00000088H   SFRSYM    DATA     BYTE      TCON
      000000CFH   SFRSYM    DATA     BYTE      CRC0FLIP
      000000D0H.0 SFRSYM    DATA     BIT       PSW_PARITY
      000000A8H.4 SFRSYM    DATA     BIT       IE_ES0
      0000009FH   SFRSYM    DATA     BYTE      CMP0MX
      00000098H.0 SFRSYM    DATA     BIT       TMR4CN0_T4XCLK0
      000000A8H.1 SFRSYM    DATA     BIT       IE_ET0
      000000AAH   SFRSYM    DATA     BYTE      CMP1MX
      00000098H.1 SFRSYM    DATA     BIT       TMR4CN0_T4XCLK1
      000000A8H.3 SFRSYM    DATA     BIT       IE_ET1
      000000D4H   SFRSYM    DATA     BYTE      P0SKIP
      000000D8H.0 SFRSYM    DATA     BIT       UART1FCN1_RIE
      000000A8H.5 SFRSYM    DATA     BIT       IE_ET2
      000000D5H   SFRSYM    DATA     BYTE      P1SKIP
      000000CCH   SFRSYM    DATA     BYTE      P2SKIP
      000000E8H   SFRSYM    DATA     BYTE      ADC0CN0
      000000D8H.4 SFRSYM    DATA     BIT       UART1FCN1_TIE
      000000A8H.0 SFRSYM    DATA     BIT       IE_EX0
      000000B2H   SFRSYM    DATA     BYTE      ADC0CN1
      000000D8H.6 SFRSYM    DATA     BIT       PCA0CN0_CR
      000000A8H.2 SFRSYM    DATA     BIT       IE_EX1
      000000C8H.7 SFRSYM    DATA     BIT       SCON1_OVR
      00000098H.7 SFRSYM    DATA     BIT       SCON0_SMODE
      000000B5H   SFRSYM    DATA     BYTE      DEVICEID
      000000A9H   SFRSYM    DATA     BYTE      CLKSEL
      000000F8H.0 SFRSYM    DATA     BIT       SPI0CN0_SPIEN
      000000F0H   SFRSYM    DATA     BYTE      B
      000000BEH   SFRSYM    DATA     BYTE      ADC0H
      000000E8H.6 SFRSYM    DATA     BIT       ADC0CN0_ADBMEN
      000000CAH   SFRSYM    DATA     WORD      TMR2RL
      000000BDH   SFRSYM    DATA     BYTE      ADC0L
      00000092H   SFRSYM    DATA     WORD      TMR3RL
      000000A2H   SFRSYM    DATA     WORD      TMR4RL
      000000D8H   SFRSYM    DATA     BYTE      PCA0CN0
      000000E0H   SFRSYM    DATA     BYTE      ACC
      000000FBH   SFRSYM    DATA     WORD      PCA0CP0
      000000E9H   SFRSYM    DATA     WORD      PCA0CP1
      000000EBH   SFRSYM    DATA     WORD      PCA0CP2
      000000BCH   SFRSYM    DATA     BYTE      I2C0DIN
      000000CEH   SFRSYM    DATA     BYTE      CRC0CN0
      0000008CH   SFRSYM    DATA     BYTE      TH0
      00000086H   SFRSYM    DATA     BYTE      CRC0CN1
      000000B8H.4 SFRSYM    DATA     BIT       IP_PS0
      000000FAH   SFRSYM    DATA     BYTE      UART1FCT
      0000008DH   SFRSYM    DATA     BYTE      TH1
      000000FAH   SFRSYM    DATA     BYTE      PCA0H
      000000F5H   SFRSYM    DATA     BYTE      I2C0FCT
      000000B8H.1 SFRSYM    DATA     BIT       IP_PT0
      000000B8H.3 SFRSYM    DATA     BIT       IP_PT1
      000000C0H.2 SFRSYM    DATA     BIT       SMB0CN0_ARBLOST
      000000B8H.5 SFRSYM    DATA     BIT       IP_PT2
      0000008AH   SFRSYM    DATA     BYTE      TL0
      000000D0H.5 SFRSYM    DATA     BIT       PSW_F0
      000000A8H.6 SFRSYM    DATA     BIT       IE_ESPI0
      0000008BH   SFRSYM    DATA     BYTE      TL1
      000000F9H   SFRSYM    DATA     BYTE      PCA0L
      000000C0H.0 SFRSYM    DATA     BIT       SMB0CN0_SI
      000000D0H.1 SFRSYM    DATA     BIT       PSW_F1
      00000080H.0 SFRSYM    DATA     BIT       P0_B0
      000000B8H.0 SFRSYM    DATA     BIT       IP_PX0
      00000090H.0 SFRSYM    DATA     BIT       P1_B0
LX51 LINKER/LOCATER V4.66.97.0                                                        09/02/2020  13:20:23  PAGE 121


      00000080H.1 SFRSYM    DATA     BIT       P0_B1
      000000B8H.2 SFRSYM    DATA     BIT       IP_PX1
      0000009EH   SFRSYM    DATA     BYTE      UART1LIN
      0000009BH   SFRSYM    DATA     BYTE      CMP0CN0
      00000088H.1 SFRSYM    DATA     BIT       TCON_IE0
      000000A0H.0 SFRSYM    DATA     BIT       P2_B0
      00000090H.1 SFRSYM    DATA     BIT       P1_B1
      00000080H.2 SFRSYM    DATA     BIT       P0_B2
      000000BFH   SFRSYM    DATA     BYTE      CMP1CN0
      00000099H   SFRSYM    DATA     BYTE      CMP0CN1
      00000088H.3 SFRSYM    DATA     BIT       TCON_IE1
      000000B0H.0 SFRSYM    DATA     BIT       P3_B0
      000000A0H.1 SFRSYM    DATA     BIT       P2_B1
      00000090H.2 SFRSYM    DATA     BIT       P1_B2
      00000080H.3 SFRSYM    DATA     BIT       P0_B3
      000000C0H   SFRSYM    DATA     BYTE      SMB0CN0
      000000ACH   SFRSYM    DATA     BYTE      CMP1CN1
      000000B0H.1 SFRSYM    DATA     BIT       P3_B1
      000000A0H.2 SFRSYM    DATA     BIT       P2_B2
      00000090H.3 SFRSYM    DATA     BIT       P1_B3
      00000080H.4 SFRSYM    DATA     BIT       P0_B4
      000000A0H.3 SFRSYM    DATA     BIT       P2_B3
      00000090H.4 SFRSYM    DATA     BIT       P1_B4
      00000080H.5 SFRSYM    DATA     BIT       P0_B5
      000000D8H.1 SFRSYM    DATA     BIT       UART1FCN1_RXTO0
      00000090H.5 SFRSYM    DATA     BIT       P1_B5
      00000080H.6 SFRSYM    DATA     BIT       P0_B6
      000000F5H   SFRSYM    DATA     BYTE      EIP1H
      000000D8H.2 SFRSYM    DATA     BIT       UART1FCN1_RXTO1
      00000090H.6 SFRSYM    DATA     BIT       P1_B6
      00000080H.7 SFRSYM    DATA     BIT       P0_B7
      000000C5H   SFRSYM    DATA     BYTE      SMB0RXLN
      000000F6H   SFRSYM    DATA     BYTE      EIP2H
      00000090H.7 SFRSYM    DATA     BIT       P1_B7
      00000083H   SFRSYM    DATA     BYTE      DPH
      000000C4H   SFRSYM    DATA     BYTE      ADC0GTH
      000000C8H.7 SFRSYM    DATA     BIT       TMR2CN0_TF2H
      000000C8H.3 SFRSYM    DATA     BIT       TMR2CN0_T2SPLIT
      000000D0H.6 SFRSYM    DATA     BIT       PSW_AC
      000000F8H   SFRSYM    DATA     BYTE      SPI0CN0
      000000C7H   SFRSYM    DATA     BYTE      HFO0CAL
      00000088H.5 SFRSYM    DATA     BIT       TCON_TF0
      00000098H.0 SFRSYM    DATA     BIT       SCON0_RI
      000000D6H   SFRSYM    DATA     BYTE      HFO1CAL
      00000082H   SFRSYM    DATA     BYTE      DPL
      00000088H.7 SFRSYM    DATA     BIT       TCON_TF1
      000000C8H.0 SFRSYM    DATA     BIT       SCON1_RI
      00000099H   SFRSYM    DATA     BYTE      SBUF0
      00000087H   SFRSYM    DATA     BYTE      PCON0
      000000F2H   SFRSYM    DATA     BYTE      IPH
      000000C3H   SFRSYM    DATA     BYTE      ADC0GTL
      00000098H.7 SFRSYM    DATA     BIT       TMR4CN0_TF4H
      00000098H.3 SFRSYM    DATA     BIT       TMR4CN0_T4SPLIT
      000000C8H.6 SFRSYM    DATA     BIT       TMR2CN0_TF2L
      00000098H.1 SFRSYM    DATA     BIT       SCON0_TI
      000000E8H.0 SFRSYM    DATA     BIT       ADC0CN0_ADCM0
      00000092H   SFRSYM    DATA     BYTE      SBUF1
      0000009AH   SFRSYM    DATA     BYTE      PCON1
      000000C6H   SFRSYM    DATA     BYTE      ADC0LTH
      00000088H.0 SFRSYM    DATA     BIT       TCON_IT0
      000000C8H.1 SFRSYM    DATA     BIT       SCON1_TI
      000000E8H.1 SFRSYM    DATA     BIT       ADC0CN0_ADCM1
LX51 LINKER/LOCATER V4.66.97.0                                                        09/02/2020  13:20:23  PAGE 122


      000000EFH   SFRSYM    DATA     BYTE      RSTSRC
      000000FDH   SFRSYM    DATA     BYTE      P0MAT
      000000DEH   SFRSYM    DATA     BYTE      CRC0DAT
      00000088H.2 SFRSYM    DATA     BIT       TCON_IT1
      000000E8H.2 SFRSYM    DATA     BIT       ADC0CN0_ADCM2
      000000D7H   SFRSYM    DATA     BYTE      SFRSTACK
      00000098H   SFRSYM    DATA     BYTE      SCON0
      000000F6H   SFRSYM    DATA     BYTE      PRTDRV
      000000EDH   SFRSYM    DATA     BYTE      P1MAT
      000000E8H.3 SFRSYM    DATA     BIT       ADC0CN0_ADWINT
      00000095H   SFRSYM    DATA     WORD      SBRL1
      00000093H   SFRSYM    DATA     BYTE      SMOD1
      000000C8H   SFRSYM    DATA     BYTE      SCON1
      000000FBH   SFRSYM    DATA     BYTE      P2MAT
      00000098H.6 SFRSYM    DATA     BIT       TMR4CN0_TF4L
      000000E8H.4 SFRSYM    DATA     BIT       ADC0CN0_ADBUSY
      000000D6H   SFRSYM    DATA     BYTE      SMB0ADM
      000000C5H   SFRSYM    DATA     BYTE      ADC0LTL
      000000F8H.5 SFRSYM    DATA     BIT       SPI0CN0_MODF
      000000B8H.6 SFRSYM    DATA     BIT       IP_PSPI0
      0000009CH   SFRSYM    DATA     BYTE      PCA0CLR
      000000C8H   SFRSYM    DATA     BYTE      TMR2CN0
      00000091H   SFRSYM    DATA     BYTE      TMR3CN0
      000000FDH   SFRSYM    DATA     BYTE      TMR2CN1
      00000098H   SFRSYM    DATA     BYTE      TMR4CN0
      000000FEH   SFRSYM    DATA     BYTE      TMR3CN1
      000000FFH   SFRSYM    DATA     BYTE      TMR4CN1
      000000D7H   SFRSYM    DATA     BYTE      SMB0ADR
      00000088H.4 SFRSYM    DATA     BIT       TCON_TR0
      000000C8H.4 SFRSYM    DATA     BIT       TMR2CN0_TF2CEN
      00000088H.6 SFRSYM    DATA     BIT       TCON_TR1
      000000C2H   SFRSYM    DATA     BYTE      SMB0DAT
      000000CDH   SFRSYM    DATA     BYTE      TMR2H
      000000A1H   SFRSYM    DATA     BYTE      SPI0CFG
      00000095H   SFRSYM    DATA     BYTE      TMR3H
      000000EFH   SFRSYM    DATA     BYTE      HFOCN
      000000D3H   SFRSYM    DATA     BYTE      CRC0CNT
      000000A5H   SFRSYM    DATA     BYTE      TMR4H
      00000098H.4 SFRSYM    DATA     BIT       TMR4CN0_TF4CEN
      000000EFH   SFRSYM    DATA     BYTE      SMB0FCT
      00000096H   SFRSYM    DATA     BYTE      PCA0POL
      000000CCH   SFRSYM    DATA     BYTE      TMR2L
      000000F8H.7 SFRSYM    DATA     BIT       SPI0CN0_SPIF
      00000094H   SFRSYM    DATA     BYTE      TMR3L
      000000DFH   SFRSYM    DATA     BYTE      ADC0PWR
      000000A8H.7 SFRSYM    DATA     BIT       IE_EA
      000000A4H   SFRSYM    DATA     BYTE      TMR4L
      000000C8H.5 SFRSYM    DATA     BIT       TMR2CN0_TF2LEN
      000000F8H.6 SFRSYM    DATA     BIT       SPI0CN0_WCOL
      000000F8H.2 SFRSYM    DATA     BIT       SPI0CN0_NSSMD0
      000000D0H.7 SFRSYM    DATA     BIT       PSW_CY
      0000009DH   SFRSYM    DATA     BYTE      UART1FCN0
      000000A3H   SFRSYM    DATA     BYTE      SPI0DAT
      000000ADH   SFRSYM    DATA     BYTE      I2C0FCN0
      000000F8H.3 SFRSYM    DATA     BIT       SPI0CN0_NSSMD1
      000000BDH   SFRSYM    DATA     WORD      ADC0
      000000D8H   SFRSYM    DATA     BYTE      UART1FCN1
      000000ABH   SFRSYM    DATA     BYTE      I2C0FCN1
      00000098H.5 SFRSYM    DATA     BIT       TMR4CN0_TF4LEN
      000000D0H   SFRSYM    DATA     BYTE      PSW
      000000F7H   SFRSYM    DATA     BYTE      PCA0PWM
      000000F7H   SFRSYM    DATA     BYTE      SPI0FCT
LX51 LINKER/LOCATER V4.66.97.0                                                        09/02/2020  13:20:23  PAGE 123


      000000B6H   SFRSYM    DATA     BYTE      REVID
      000000B7H   SFRSYM    DATA     BYTE      FLKEY
      000000B3H   SFRSYM    DATA     BYTE      ADC0AC

      01003D4DH   BLOCK     CODE     ---       LVL=0
      01003D4DH   LINE      CODE     ---       #24
      01003D4DH   LINE      CODE     ---       #25
      01003D4DH   LINE      CODE     ---       #26
      01003D53H   LINE      CODE     ---       #27
      01003D56H   LINE      CODE     ---       #28
      01003D59H   LINE      CODE     ---       #29
      01003D5CH   LINE      CODE     ---       #30
      01003D5FH   LINE      CODE     ---       #32
      01003D62H   LINE      CODE     ---       #34
      01003D65H   LINE      CODE     ---       #35
      01003D68H   LINE      CODE     ---       #36
      01003D6BH   LINE      CODE     ---       #37
      01003D6EH   LINE      CODE     ---       #38
      01003D71H   LINE      CODE     ---       #40
      ---         BLOCKEND  ---      ---       LVL=0

      01003EBCH   BLOCK     CODE     ---       LVL=0
      01003EBCH   BLOCK     CODE     NEAR LAB  LVL=1
      00000007H   SYMBOL    DATA     BYTE      savedPage
      ---         BLOCKEND  ---      ---       LVL=1
      01003EBCH   LINE      CODE     ---       #43
      01003EBCH   LINE      CODE     ---       #44
      01003EBCH   LINE      CODE     ---       #46
      01003EC1H   LINE      CODE     ---       #48
      01003EC3H   LINE      CODE     ---       #49
      01003EC5H   LINE      CODE     ---       #51
      01003EC7H   LINE      CODE     ---       #53
      ---         BLOCKEND  ---      ---       LVL=0

      01003EC8H   BLOCK     CODE     ---       LVL=0
      01003EC8H   BLOCK     CODE     NEAR LAB  LVL=1
      00000007H   SYMBOL    DATA     BYTE      savedPage
      ---         BLOCKEND  ---      ---       LVL=1
      01003EC8H   LINE      CODE     ---       #55
      01003EC8H   LINE      CODE     ---       #56
      01003EC8H   LINE      CODE     ---       #58
      01003ECDH   LINE      CODE     ---       #60
      01003ECFH   LINE      CODE     ---       #61
      01003ED1H   LINE      CODE     ---       #63
      01003ED3H   LINE      CODE     ---       #65
      ---         BLOCKEND  ---      ---       LVL=0

      01000076H   BLOCK     CODE     ---       LVL=0
      01000076H   LINE      CODE     ---       #67
      01000076H   LINE      CODE     ---       #68
      01000076H   LINE      CODE     ---       #69
      0100007CH   LINE      CODE     ---       #70
      0100007FH   LINE      CODE     ---       #71
      01000082H   LINE      CODE     ---       #72
      01000085H   LINE      CODE     ---       #73
      01000088H   LINE      CODE     ---       #75
      0100008BH   LINE      CODE     ---       #77
      0100008EH   LINE      CODE     ---       #78
      01000091H   LINE      CODE     ---       #79
      01000094H   LINE      CODE     ---       #80
      01000097H   LINE      CODE     ---       #81
      0100009AH   LINE      CODE     ---       #82
LX51 LINKER/LOCATER V4.66.97.0                                                        09/02/2020  13:20:23  PAGE 124


      ---         BLOCKEND  ---      ---       LVL=0

      01003E74H   BLOCK     CODE     ---       LVL=0
      01003E74H   LINE      CODE     ---       #84
      01003E74H   LINE      CODE     ---       #85
      01003E74H   LINE      CODE     ---       #86
      01003E7AH   LINE      CODE     ---       #87
      01003E7DH   LINE      CODE     ---       #88
      01003E80H   LINE      CODE     ---       #89
      01003E83H   LINE      CODE     ---       #90
      ---         BLOCKEND  ---      ---       LVL=0

      01003E84H   BLOCK     CODE     ---       LVL=0
      01003E84H   LINE      CODE     ---       #93
      01003E84H   LINE      CODE     ---       #94
      01003E84H   LINE      CODE     ---       #95
      01003E8AH   LINE      CODE     ---       #96
      01003E8DH   LINE      CODE     ---       #97
      01003E90H   LINE      CODE     ---       #98
      01003E93H   LINE      CODE     ---       #99
      ---         BLOCKEND  ---      ---       LVL=0

      01003D74H   BLOCK     CODE     ---       LVL=0
      00000002H   SYMBOL    DATA     WORD      dataTx
      01003D78H   BLOCK     CODE     NEAR LAB  LVL=1
      00000005H   SYMBOL    DATA     BYTE      savedPage
      ---         BLOCKEND  ---      ---       LVL=1
      01003D74H   LINE      CODE     ---       #103
      01003D78H   LINE      CODE     ---       #104
      01003D78H   LINE      CODE     ---       #106
      01003D7DH   LINE      CODE     ---       #113
      01003D82H   LINE      CODE     ---       #114
      01003D85H   LINE      CODE     ---       #115
      01003D8BH   LINE      CODE     ---       #116
      01003D8BH   LINE      CODE     ---       #117
      01003D8EH   LINE      CODE     ---       #118
      01003D90H   LINE      CODE     ---       #119
      01003D96H   LINE      CODE     ---       #120
      01003D9AH   LINE      CODE     ---       #121
      ---         BLOCKEND  ---      ---       LVL=0

      01001315H   BLOCK     CODE     ---       LVL=0
      00000006H   SYMBOL    DATA     WORD      rxdata
      01001315H   BLOCK     CODE     NEAR LAB  LVL=1
      020003A0H   SYMBOL    XDATA    BYTE      i
      020003A1H   SYMBOL    XDATA    ---       pCtt
      ---         BLOCKEND  ---      ---       LVL=1
      01001315H   LINE      CODE     ---       #123
      01001315H   LINE      CODE     ---       #124
      01001315H   LINE      CODE     ---       #127
      01001323H   LINE      CODE     ---       #198
      0100132FH   LINE      CODE     ---       #200
      0100132FH   LINE      CODE     ---       #201
      0100134CH   LINE      CODE     ---       #202
      01001360H   LINE      CODE     ---       #203
      01001368H   LINE      CODE     ---       #204
      0100136FH   LINE      CODE     ---       #205
      0100137BH   LINE      CODE     ---       #206
      0100137BH   LINE      CODE     ---       #207
      0100139AH   LINE      CODE     ---       #209
      0100139AH   LINE      CODE     ---       #210
      010013BFH   LINE      CODE     ---       #211
LX51 LINKER/LOCATER V4.66.97.0                                                        09/02/2020  13:20:23  PAGE 125


      010013D2H   LINE      CODE     ---       #213
      010013E5H   LINE      CODE     ---       #214
      010013E5H   LINE      CODE     ---       #215
      01001402H   LINE      CODE     ---       #216
      01001423H   LINE      CODE     ---       #217
      01001423H   LINE      CODE     ---       #218
      01001442H   LINE      CODE     ---       #219
      01001442H   LINE      CODE     ---       #220
      01001477H   LINE      CODE     ---       #221
      01001477H   LINE      CODE     ---       #222
      0100147FH   LINE      CODE     ---       #223
      01001481H   LINE      CODE     ---       #225
      01001481H   LINE      CODE     ---       #226
      01001491H   LINE      CODE     ---       #227
      01001493H   LINE      CODE     ---       #228
      01001493H   LINE      CODE     ---       #229
      0100149BH   LINE      CODE     ---       #230
      0100149BH   LINE      CODE     ---       #232
      0100149BH   LINE      CODE     ---       #233
      010014AEH   LINE      CODE     ---       #234
      010014AEH   LINE      CODE     ---       #236
      010014C3H   LINE      CODE     ---       #237
      010014C3H   LINE      CODE     ---       #238
      010014CAH   LINE      CODE     ---       #239
      010014D3H   LINE      CODE     ---       #240
      010014E9H   LINE      CODE     ---       #241
      010014E9H   LINE      CODE     ---       #242
      010014EFH   LINE      CODE     ---       #243
      010014EFH   LINE      CODE     ---       #244
      010014F5H   LINE      CODE     ---       #245
      010014F5H   LINE      CODE     ---       #246
      010014FBH   LINE      CODE     ---       #247
      010014FDH   LINE      CODE     ---       #254
      010014FDH   LINE      CODE     ---       #255
      01001502H   LINE      CODE     ---       #256
      01001505H   LINE      CODE     ---       #257
      01001505H   LINE      CODE     ---       #258
      01001505H   LINE      CODE     ---       #260
      0100151FH   LINE      CODE     ---       #261
      0100151FH   LINE      CODE     ---       #262
      01001522H   LINE      CODE     ---       #263
      01001522H   LINE      CODE     ---       #264
      01001522H   LINE      CODE     ---       #266
      0100154BH   LINE      CODE     ---       #268
      0100154BH   LINE      CODE     ---       #269
      0100154EH   LINE      CODE     ---       #270
      0100154EH   LINE      CODE     ---       #273
      ---         BLOCKEND  ---      ---       LVL=0

      0100337CH   BLOCK     CODE     ---       LVL=0
      01003399H   BLOCK     CODE     NEAR LAB  LVL=1
      0200039FH   SYMBOL    XDATA    BYTE      scon0_buff
      00000004H   SYMBOL    DATA     BYTE      sbuf0_buff
      00000006H   SYMBOL    DATA     WORD      data_9bit
      ---         BLOCKEND  ---      ---       LVL=1
      0100337CH   LINE      CODE     ---       #276
      01003399H   LINE      CODE     ---       #280
      01003399H   LINE      CODE     ---       #281
      0100339FH   LINE      CODE     ---       #283
      010033A7H   LINE      CODE     ---       #284
      010033A7H   LINE      CODE     ---       #285
      010033A9H   LINE      CODE     ---       #286
LX51 LINKER/LOCATER V4.66.97.0                                                        09/02/2020  13:20:23  PAGE 126


      010033ABH   LINE      CODE     ---       #287
      010033BAH   LINE      CODE     ---       #288
      010033BDH   LINE      CODE     ---       #289
      010033BDH   LINE      CODE     ---       #291
      010033C7H   LINE      CODE     ---       #292
      010033C7H   LINE      CODE     ---       #293
      010033C9H   LINE      CODE     ---       #294
      010033CDH   LINE      CODE     ---       #295
      010033CDH   LINE      CODE     ---       #296
      ---         BLOCKEND  ---      ---       LVL=0

      ---         MODULE    ---      ---       UARTCFG
      02000280H   PUBLIC    XDATA    ---       MsgRadar_Self_Init
      02000278H   PUBLIC    XDATA    ---       MsgBCM_Info
      02000270H   PUBLIC    XDATA    ---       MsgBCM_Mode
      02000268H   PUBLIC    XDATA    ---       MsgBCM_Info_Init
      02000260H   PUBLIC    XDATA    ---       MsgBCM_Mode_Init
      02000258H   PUBLIC    XDATA    ---       MsgRadar_ReqMode
      02000248H   PUBLIC    XDATA    ---       MsgRadar_Distance
      02000240H   PUBLIC    XDATA    ---       MsgRadar_ReqMode_Init
      02000230H   PUBLIC    XDATA    ---       MsgRadar_Distance_Init
      02000228H   PUBLIC    XDATA    ---       MsgRadar_Self
      010039E2H   PUBLIC    CODE     ---       InitUart0AllVar
      01003826H   PUBLIC    CODE     ---       InitUart0ReceiveVar
      010010AAH   PUBLIC    CODE     ---       _ReceiveFramereCorresponding
      01002A8BH   PUBLIC    CODE     ---       _CalcFrameChecksum
      01003957H   PUBLIC    CODE     ---       _CalcByteEVEN
      01002C31H   PUBLIC    CODE     ---       UART0_DataInit
      000000A2H   SFRSYM    DATA     BYTE      SPI0CKR
      00000080H   SFRSYM    DATA     BYTE      P0
      000000C8H.6 SFRSYM    DATA     BIT       SCON1_PERR
      000000D0H.2 SFRSYM    DATA     BIT       PSW_OV
      00000090H   SFRSYM    DATA     BYTE      P1
      000000F8H.1 SFRSYM    DATA     BIT       SPI0CN0_TXNF
      00000097H   SFRSYM    DATA     BYTE      WDTCN
      000000A0H   SFRSYM    DATA     BYTE      P2
      000000B0H   SFRSYM    DATA     BYTE      P3
      000000BCH   SFRSYM    DATA     BYTE      ADC0CF
      000000C0H.7 SFRSYM    DATA     BIT       SMB0CN0_MASTER
      000000F9H   SFRSYM    DATA     WORD      PCA0
      000000E6H   SFRSYM    DATA     BYTE      EIE1
      000000C0H.1 SFRSYM    DATA     BIT       SMB0CN0_ACK
      000000CEH   SFRSYM    DATA     BYTE      EIE2
      0000008FH   SFRSYM    DATA     BYTE      PSCTL
      000000E4H   SFRSYM    DATA     BYTE      IT01CF
      000000C0H.6 SFRSYM    DATA     BIT       SMB0CN0_TXMODE
      000000ADH   SFRSYM    DATA     BYTE      DERIVID
      000000A7H   SFRSYM    DATA     BYTE      SFRPAGE
      000000A4H   SFRSYM    DATA     BYTE      P0MDOUT
      000000A5H   SFRSYM    DATA     BYTE      P1MDOUT
      000000E8H.5 SFRSYM    DATA     BIT       ADC0CN0_ADINT
      000000CBH   SFRSYM    DATA     BYTE      TMR2RLH
      000000A6H   SFRSYM    DATA     BYTE      P2MDOUT
      000000A8H   SFRSYM    DATA     BYTE      IE
      00000093H   SFRSYM    DATA     BYTE      TMR3RLH
      0000009CH   SFRSYM    DATA     BYTE      P3MDOUT
      000000A3H   SFRSYM    DATA     BYTE      TMR4RLH
      000000F3H   SFRSYM    DATA     BYTE      EIP1
      000000F4H   SFRSYM    DATA     BYTE      EIP2
      00000098H.2 SFRSYM    DATA     BIT       SCON0_RB8
      000000CAH   SFRSYM    DATA     BYTE      TMR2RLL
      000000FCH   SFRSYM    DATA     BYTE      PCA0CPH0
LX51 LINKER/LOCATER V4.66.97.0                                                        09/02/2020  13:20:23  PAGE 127


      00000092H   SFRSYM    DATA     BYTE      TMR3RLL
      000000EAH   SFRSYM    DATA     BYTE      PCA0CPH1
      00000098H.3 SFRSYM    DATA     BIT       SCON0_TB8
      000000F0H.0 SFRSYM    DATA     BIT       B_B0
      00000082H   SFRSYM    DATA     WORD      DP
      000000A2H   SFRSYM    DATA     BYTE      TMR4RLL
      000000ECH   SFRSYM    DATA     BYTE      PCA0CPH2
      000000F0H.1 SFRSYM    DATA     BIT       B_B1
      000000C3H   SFRSYM    DATA     WORD      ADC0GT
      000000BDH   SFRSYM    DATA     BYTE      I2C0SLAD
      000000D8H.3 SFRSYM    DATA     BIT       UART1FCN1_RFRQ
      000000F0H.2 SFRSYM    DATA     BIT       B_B2
      000000CFH   SFRSYM    DATA     BYTE      SFRPGCN
      000000FBH   SFRSYM    DATA     BYTE      PCA0CPL0
      000000F0H.3 SFRSYM    DATA     BIT       B_B3
      000000D9H   SFRSYM    DATA     BYTE      PCA0MD
      000000DAH   SFRSYM    DATA     BYTE      PCA0CPM0
      000000E9H   SFRSYM    DATA     BYTE      PCA0CPL1
      000000D8H.7 SFRSYM    DATA     BIT       UART1FCN1_TFRQ
      000000F0H.4 SFRSYM    DATA     BIT       B_B4
      000000DBH   SFRSYM    DATA     BYTE      PCA0CPM1
      000000EBH   SFRSYM    DATA     BYTE      PCA0CPL2
      000000F0H.5 SFRSYM    DATA     BIT       B_B5
      000000DCH   SFRSYM    DATA     BYTE      PCA0CPM2
      000000B8H   SFRSYM    DATA     BYTE      IP
      000000B9H   SFRSYM    DATA     BYTE      ADC0TK
      000000F0H.6 SFRSYM    DATA     BIT       B_B6
      000000C5H   SFRSYM    DATA     WORD      ADC0LT
      000000D8H.6 SFRSYM    DATA     BIT       UART1FCN1_TXNF
      00000098H.5 SFRSYM    DATA     BIT       SCON0_MCE
      000000F0H.7 SFRSYM    DATA     BIT       B_B7
      000000C3H   SFRSYM    DATA     BYTE      SMB0FCN0
      000000E1H   SFRSYM    DATA     BYTE      XBR0
      000000C4H   SFRSYM    DATA     BYTE      SMB0FCN1
      000000C1H   SFRSYM    DATA     BYTE      SMB0CF
      000000E2H   SFRSYM    DATA     BYTE      XBR1
      000000C1H   SFRSYM    DATA     BYTE      PFE0CN
      000000E7H   SFRSYM    DATA     BYTE      EMI0CN
      000000C0H.5 SFRSYM    DATA     BIT       SMB0CN0_STA
      000000E3H   SFRSYM    DATA     BYTE      XBR2
      000000BBH   SFRSYM    DATA     BYTE      ADC0MX
      000000E0H.0 SFRSYM    DATA     BIT       ACC_ACC0
      000000D1H   SFRSYM    DATA     BYTE      REF0CN
      0000008EH   SFRSYM    DATA     BYTE      CKCON0
      000000E0H.1 SFRSYM    DATA     BIT       ACC_ACC1
      000000C9H   SFRSYM    DATA     BYTE      REG0CN
      000000DDH   SFRSYM    DATA     BYTE      CRC0IN
      000000A6H   SFRSYM    DATA     BYTE      CKCON1
      000000C8H.2 SFRSYM    DATA     BIT       TMR2CN0_TR2
      000000E0H.2 SFRSYM    DATA     BIT       ACC_ACC2
      000000C6H   SFRSYM    DATA     BYTE      REG1CN
      000000E0H.3 SFRSYM    DATA     BIT       ACC_ACC3
      00000081H   SFRSYM    DATA     BYTE      SP
      0000009DH   SFRSYM    DATA     BYTE      CMP0MD
      000000E0H.4 SFRSYM    DATA     BIT       ACC_ACC4
      000000B1H   SFRSYM    DATA     BYTE      LFO0CN
      000000ABH   SFRSYM    DATA     BYTE      CMP1MD
      000000D8H.0 SFRSYM    DATA     BIT       PCA0CN0_CCF0
      000000E0H.5 SFRSYM    DATA     BIT       ACC_ACC5
      00000098H.2 SFRSYM    DATA     BIT       TMR4CN0_TR4
      000000D8H.1 SFRSYM    DATA     BIT       PCA0CN0_CCF1
      000000E0H.6 SFRSYM    DATA     BIT       ACC_ACC6
LX51 LINKER/LOCATER V4.66.97.0                                                        09/02/2020  13:20:23  PAGE 128


      000000CCH   SFRSYM    DATA     WORD      TMR2
      0000009AH   SFRSYM    DATA     BYTE      SPI0FCN0
      000000D8H.2 SFRSYM    DATA     BIT       PCA0CN0_CCF2
      000000E0H.7 SFRSYM    DATA     BIT       ACC_ACC7
      00000094H   SFRSYM    DATA     WORD      TMR3
      0000009BH   SFRSYM    DATA     BYTE      SPI0FCN1
      000000A4H   SFRSYM    DATA     WORD      TMR4
      00000094H   SFRSYM    DATA     BYTE      SBCON1
      000000C0H.3 SFRSYM    DATA     BIT       SMB0CN0_ACKRQ
      000000FFH   SFRSYM    DATA     BYTE      VDM0CN
      000000F1H   SFRSYM    DATA     BYTE      P0MDIN
      00000098H.4 SFRSYM    DATA     BIT       SCON0_REN
      000000ACH   SFRSYM    DATA     BYTE      SMB0TC
      000000F2H   SFRSYM    DATA     BYTE      P1MDIN
      000000C8H.4 SFRSYM    DATA     BIT       SCON1_REN
      000000F3H   SFRSYM    DATA     BYTE      P2MDIN
      000000C0H.4 SFRSYM    DATA     BIT       SMB0CN0_STO
      000000F4H   SFRSYM    DATA     BYTE      P3MDIN
      000000B9H   SFRSYM    DATA     BYTE      I2C0STAT
      000000BBH   SFRSYM    DATA     BYTE      I2C0DOUT
      00000096H   SFRSYM    DATA     BYTE      SBRLH1
      000000FEH   SFRSYM    DATA     BYTE      P0MASK
      000000D8H.5 SFRSYM    DATA     BIT       UART1FCN1_TXHOLD
      000000EEH   SFRSYM    DATA     BYTE      P1MASK
      000000FCH   SFRSYM    DATA     BYTE      P2MASK
      000000D0H.3 SFRSYM    DATA     BIT       PSW_RS0
      000000D8H.7 SFRSYM    DATA     BIT       PCA0CN0_CF
      0000009EH   SFRSYM    DATA     BYTE      PCA0CENT
      000000BAH   SFRSYM    DATA     BYTE      I2C0CN0
      000000D2H   SFRSYM    DATA     BYTE      CRC0ST
      000000F8H.4 SFRSYM    DATA     BIT       SPI0CN0_RXOVRN
      000000D0H.4 SFRSYM    DATA     BIT       PSW_RS1
      00000095H   SFRSYM    DATA     BYTE      SBRLL1
      000000C8H.2 SFRSYM    DATA     BIT       SCON1_RBX
      000000C8H.0 SFRSYM    DATA     BIT       TMR2CN0_T2XCLK0
      000000C8H.1 SFRSYM    DATA     BIT       TMR2CN0_T2XCLK1
      000000C8H.3 SFRSYM    DATA     BIT       SCON1_TBX
      000000E8H.7 SFRSYM    DATA     BIT       ADC0CN0_ADEN
      00000089H   SFRSYM    DATA     BYTE      TMOD
      00000088H   SFRSYM    DATA     BYTE      TCON
      000000CFH   SFRSYM    DATA     BYTE      CRC0FLIP
      000000D0H.0 SFRSYM    DATA     BIT       PSW_PARITY
      000000A8H.4 SFRSYM    DATA     BIT       IE_ES0
      0000009FH   SFRSYM    DATA     BYTE      CMP0MX
      00000098H.0 SFRSYM    DATA     BIT       TMR4CN0_T4XCLK0
      000000A8H.1 SFRSYM    DATA     BIT       IE_ET0
      000000AAH   SFRSYM    DATA     BYTE      CMP1MX
      00000098H.1 SFRSYM    DATA     BIT       TMR4CN0_T4XCLK1
      000000A8H.3 SFRSYM    DATA     BIT       IE_ET1
      000000D4H   SFRSYM    DATA     BYTE      P0SKIP
      000000D8H.0 SFRSYM    DATA     BIT       UART1FCN1_RIE
      000000A8H.5 SFRSYM    DATA     BIT       IE_ET2
      000000D5H   SFRSYM    DATA     BYTE      P1SKIP
      000000CCH   SFRSYM    DATA     BYTE      P2SKIP
      000000E8H   SFRSYM    DATA     BYTE      ADC0CN0
      000000D8H.4 SFRSYM    DATA     BIT       UART1FCN1_TIE
      000000A8H.0 SFRSYM    DATA     BIT       IE_EX0
      000000B2H   SFRSYM    DATA     BYTE      ADC0CN1
      000000D8H.6 SFRSYM    DATA     BIT       PCA0CN0_CR
      000000A8H.2 SFRSYM    DATA     BIT       IE_EX1
      000000C8H.7 SFRSYM    DATA     BIT       SCON1_OVR
      00000098H.7 SFRSYM    DATA     BIT       SCON0_SMODE
LX51 LINKER/LOCATER V4.66.97.0                                                        09/02/2020  13:20:23  PAGE 129


      000000B5H   SFRSYM    DATA     BYTE      DEVICEID
      000000A9H   SFRSYM    DATA     BYTE      CLKSEL
      000000F8H.0 SFRSYM    DATA     BIT       SPI0CN0_SPIEN
      000000F0H   SFRSYM    DATA     BYTE      B
      000000BEH   SFRSYM    DATA     BYTE      ADC0H
      000000E8H.6 SFRSYM    DATA     BIT       ADC0CN0_ADBMEN
      000000CAH   SFRSYM    DATA     WORD      TMR2RL
      000000BDH   SFRSYM    DATA     BYTE      ADC0L
      00000092H   SFRSYM    DATA     WORD      TMR3RL
      000000A2H   SFRSYM    DATA     WORD      TMR4RL
      000000D8H   SFRSYM    DATA     BYTE      PCA0CN0
      000000E0H   SFRSYM    DATA     BYTE      ACC
      000000FBH   SFRSYM    DATA     WORD      PCA0CP0
      000000E9H   SFRSYM    DATA     WORD      PCA0CP1
      000000EBH   SFRSYM    DATA     WORD      PCA0CP2
      000000BCH   SFRSYM    DATA     BYTE      I2C0DIN
      000000CEH   SFRSYM    DATA     BYTE      CRC0CN0
      0000008CH   SFRSYM    DATA     BYTE      TH0
      00000086H   SFRSYM    DATA     BYTE      CRC0CN1
      000000B8H.4 SFRSYM    DATA     BIT       IP_PS0
      000000FAH   SFRSYM    DATA     BYTE      UART1FCT
      0000008DH   SFRSYM    DATA     BYTE      TH1
      000000FAH   SFRSYM    DATA     BYTE      PCA0H
      000000F5H   SFRSYM    DATA     BYTE      I2C0FCT
      000000B8H.1 SFRSYM    DATA     BIT       IP_PT0
      000000B8H.3 SFRSYM    DATA     BIT       IP_PT1
      000000C0H.2 SFRSYM    DATA     BIT       SMB0CN0_ARBLOST
      000000B8H.5 SFRSYM    DATA     BIT       IP_PT2
      0000008AH   SFRSYM    DATA     BYTE      TL0
      000000D0H.5 SFRSYM    DATA     BIT       PSW_F0
      000000A8H.6 SFRSYM    DATA     BIT       IE_ESPI0
      0000008BH   SFRSYM    DATA     BYTE      TL1
      000000F9H   SFRSYM    DATA     BYTE      PCA0L
      000000C0H.0 SFRSYM    DATA     BIT       SMB0CN0_SI
      000000D0H.1 SFRSYM    DATA     BIT       PSW_F1
      00000080H.0 SFRSYM    DATA     BIT       P0_B0
      000000B8H.0 SFRSYM    DATA     BIT       IP_PX0
      00000090H.0 SFRSYM    DATA     BIT       P1_B0
      00000080H.1 SFRSYM    DATA     BIT       P0_B1
      000000B8H.2 SFRSYM    DATA     BIT       IP_PX1
      0000009EH   SFRSYM    DATA     BYTE      UART1LIN
      0000009BH   SFRSYM    DATA     BYTE      CMP0CN0
      00000088H.1 SFRSYM    DATA     BIT       TCON_IE0
      000000A0H.0 SFRSYM    DATA     BIT       P2_B0
      00000090H.1 SFRSYM    DATA     BIT       P1_B1
      00000080H.2 SFRSYM    DATA     BIT       P0_B2
      000000BFH   SFRSYM    DATA     BYTE      CMP1CN0
      00000099H   SFRSYM    DATA     BYTE      CMP0CN1
      00000088H.3 SFRSYM    DATA     BIT       TCON_IE1
      000000B0H.0 SFRSYM    DATA     BIT       P3_B0
      000000A0H.1 SFRSYM    DATA     BIT       P2_B1
      00000090H.2 SFRSYM    DATA     BIT       P1_B2
      00000080H.3 SFRSYM    DATA     BIT       P0_B3
      000000C0H   SFRSYM    DATA     BYTE      SMB0CN0
      000000ACH   SFRSYM    DATA     BYTE      CMP1CN1
      000000B0H.1 SFRSYM    DATA     BIT       P3_B1
      000000A0H.2 SFRSYM    DATA     BIT       P2_B2
      00000090H.3 SFRSYM    DATA     BIT       P1_B3
      00000080H.4 SFRSYM    DATA     BIT       P0_B4
      000000A0H.3 SFRSYM    DATA     BIT       P2_B3
      00000090H.4 SFRSYM    DATA     BIT       P1_B4
      00000080H.5 SFRSYM    DATA     BIT       P0_B5
LX51 LINKER/LOCATER V4.66.97.0                                                        09/02/2020  13:20:23  PAGE 130


      000000D8H.1 SFRSYM    DATA     BIT       UART1FCN1_RXTO0
      00000090H.5 SFRSYM    DATA     BIT       P1_B5
      00000080H.6 SFRSYM    DATA     BIT       P0_B6
      000000F5H   SFRSYM    DATA     BYTE      EIP1H
      000000D8H.2 SFRSYM    DATA     BIT       UART1FCN1_RXTO1
      00000090H.6 SFRSYM    DATA     BIT       P1_B6
      00000080H.7 SFRSYM    DATA     BIT       P0_B7
      000000C5H   SFRSYM    DATA     BYTE      SMB0RXLN
      000000F6H   SFRSYM    DATA     BYTE      EIP2H
      00000090H.7 SFRSYM    DATA     BIT       P1_B7
      00000083H   SFRSYM    DATA     BYTE      DPH
      000000C4H   SFRSYM    DATA     BYTE      ADC0GTH
      000000C8H.7 SFRSYM    DATA     BIT       TMR2CN0_TF2H
      000000C8H.3 SFRSYM    DATA     BIT       TMR2CN0_T2SPLIT
      000000D0H.6 SFRSYM    DATA     BIT       PSW_AC
      000000F8H   SFRSYM    DATA     BYTE      SPI0CN0
      000000C7H   SFRSYM    DATA     BYTE      HFO0CAL
      00000088H.5 SFRSYM    DATA     BIT       TCON_TF0
      00000098H.0 SFRSYM    DATA     BIT       SCON0_RI
      000000D6H   SFRSYM    DATA     BYTE      HFO1CAL
      00000082H   SFRSYM    DATA     BYTE      DPL
      00000088H.7 SFRSYM    DATA     BIT       TCON_TF1
      000000C8H.0 SFRSYM    DATA     BIT       SCON1_RI
      00000099H   SFRSYM    DATA     BYTE      SBUF0
      00000087H   SFRSYM    DATA     BYTE      PCON0
      000000F2H   SFRSYM    DATA     BYTE      IPH
      000000C3H   SFRSYM    DATA     BYTE      ADC0GTL
      00000098H.7 SFRSYM    DATA     BIT       TMR4CN0_TF4H
      00000098H.3 SFRSYM    DATA     BIT       TMR4CN0_T4SPLIT
      000000C8H.6 SFRSYM    DATA     BIT       TMR2CN0_TF2L
      00000098H.1 SFRSYM    DATA     BIT       SCON0_TI
      000000E8H.0 SFRSYM    DATA     BIT       ADC0CN0_ADCM0
      00000092H   SFRSYM    DATA     BYTE      SBUF1
      0000009AH   SFRSYM    DATA     BYTE      PCON1
      000000C6H   SFRSYM    DATA     BYTE      ADC0LTH
      00000088H.0 SFRSYM    DATA     BIT       TCON_IT0
      000000C8H.1 SFRSYM    DATA     BIT       SCON1_TI
      000000E8H.1 SFRSYM    DATA     BIT       ADC0CN0_ADCM1
      000000EFH   SFRSYM    DATA     BYTE      RSTSRC
      000000FDH   SFRSYM    DATA     BYTE      P0MAT
      000000DEH   SFRSYM    DATA     BYTE      CRC0DAT
      00000088H.2 SFRSYM    DATA     BIT       TCON_IT1
      000000E8H.2 SFRSYM    DATA     BIT       ADC0CN0_ADCM2
      000000D7H   SFRSYM    DATA     BYTE      SFRSTACK
      00000098H   SFRSYM    DATA     BYTE      SCON0
      000000F6H   SFRSYM    DATA     BYTE      PRTDRV
      000000EDH   SFRSYM    DATA     BYTE      P1MAT
      000000E8H.3 SFRSYM    DATA     BIT       ADC0CN0_ADWINT
      00000095H   SFRSYM    DATA     WORD      SBRL1
      00000093H   SFRSYM    DATA     BYTE      SMOD1
      000000C8H   SFRSYM    DATA     BYTE      SCON1
      000000FBH   SFRSYM    DATA     BYTE      P2MAT
      00000098H.6 SFRSYM    DATA     BIT       TMR4CN0_TF4L
      000000E8H.4 SFRSYM    DATA     BIT       ADC0CN0_ADBUSY
      000000D6H   SFRSYM    DATA     BYTE      SMB0ADM
      000000C5H   SFRSYM    DATA     BYTE      ADC0LTL
      000000F8H.5 SFRSYM    DATA     BIT       SPI0CN0_MODF
      000000B8H.6 SFRSYM    DATA     BIT       IP_PSPI0
      0000009CH   SFRSYM    DATA     BYTE      PCA0CLR
      000000C8H   SFRSYM    DATA     BYTE      TMR2CN0
      00000091H   SFRSYM    DATA     BYTE      TMR3CN0
      000000FDH   SFRSYM    DATA     BYTE      TMR2CN1
LX51 LINKER/LOCATER V4.66.97.0                                                        09/02/2020  13:20:23  PAGE 131


      00000098H   SFRSYM    DATA     BYTE      TMR4CN0
      000000FEH   SFRSYM    DATA     BYTE      TMR3CN1
      000000FFH   SFRSYM    DATA     BYTE      TMR4CN1
      000000D7H   SFRSYM    DATA     BYTE      SMB0ADR
      00000088H.4 SFRSYM    DATA     BIT       TCON_TR0
      000000C8H.4 SFRSYM    DATA     BIT       TMR2CN0_TF2CEN
      00000088H.6 SFRSYM    DATA     BIT       TCON_TR1
      000000C2H   SFRSYM    DATA     BYTE      SMB0DAT
      000000CDH   SFRSYM    DATA     BYTE      TMR2H
      000000A1H   SFRSYM    DATA     BYTE      SPI0CFG
      00000095H   SFRSYM    DATA     BYTE      TMR3H
      000000EFH   SFRSYM    DATA     BYTE      HFOCN
      000000D3H   SFRSYM    DATA     BYTE      CRC0CNT
      000000A5H   SFRSYM    DATA     BYTE      TMR4H
      00000098H.4 SFRSYM    DATA     BIT       TMR4CN0_TF4CEN
      000000EFH   SFRSYM    DATA     BYTE      SMB0FCT
      00000096H   SFRSYM    DATA     BYTE      PCA0POL
      000000CCH   SFRSYM    DATA     BYTE      TMR2L
      000000F8H.7 SFRSYM    DATA     BIT       SPI0CN0_SPIF
      00000094H   SFRSYM    DATA     BYTE      TMR3L
      000000DFH   SFRSYM    DATA     BYTE      ADC0PWR
      000000A8H.7 SFRSYM    DATA     BIT       IE_EA
      000000A4H   SFRSYM    DATA     BYTE      TMR4L
      000000C8H.5 SFRSYM    DATA     BIT       TMR2CN0_TF2LEN
      000000F8H.6 SFRSYM    DATA     BIT       SPI0CN0_WCOL
      000000F8H.2 SFRSYM    DATA     BIT       SPI0CN0_NSSMD0
      000000D0H.7 SFRSYM    DATA     BIT       PSW_CY
      0000009DH   SFRSYM    DATA     BYTE      UART1FCN0
      000000A3H   SFRSYM    DATA     BYTE      SPI0DAT
      000000ADH   SFRSYM    DATA     BYTE      I2C0FCN0
      000000F8H.3 SFRSYM    DATA     BIT       SPI0CN0_NSSMD1
      000000BDH   SFRSYM    DATA     WORD      ADC0
      000000D8H   SFRSYM    DATA     BYTE      UART1FCN1
      000000ABH   SFRSYM    DATA     BYTE      I2C0FCN1
      00000098H.5 SFRSYM    DATA     BIT       TMR4CN0_TF4LEN
      000000D0H   SFRSYM    DATA     BYTE      PSW
      000000F7H   SFRSYM    DATA     BYTE      PCA0PWM
      000000F7H   SFRSYM    DATA     BYTE      SPI0FCT
      000000B6H   SFRSYM    DATA     BYTE      REVID
      000000B7H   SFRSYM    DATA     BYTE      FLKEY
      000000B3H   SFRSYM    DATA     BYTE      ADC0AC

      01002C31H   BLOCK     CODE     ---       LVL=0
      01002C31H   BLOCK     CODE     NEAR LAB  LVL=1
      00000007H   SYMBOL    DATA     BYTE      i
      ---         BLOCKEND  ---      ---       LVL=1
      01002C31H   LINE      CODE     ---       #38
      01002C31H   LINE      CODE     ---       #39
      01002C31H   LINE      CODE     ---       #41
      01002C40H   LINE      CODE     ---       #42
      01002C40H   LINE      CODE     ---       #43
      01002C62H   LINE      CODE     ---       #44
      01002C84H   LINE      CODE     ---       #45
      01002CA6H   LINE      CODE     ---       #46
      01002CC8H   LINE      CODE     ---       #47
      01002CCCH   LINE      CODE     ---       #49
      01002CD8H   LINE      CODE     ---       #50
      01002CD8H   LINE      CODE     ---       #51
      01002CFAH   LINE      CODE     ---       #52
      01002CFDH   LINE      CODE     ---       #53
      ---         BLOCKEND  ---      ---       LVL=0

LX51 LINKER/LOCATER V4.66.97.0                                                        09/02/2020  13:20:23  PAGE 132


      01003957H   BLOCK     CODE     ---       LVL=0
      020003A4H   SYMBOL    XDATA    BYTE      value
      0100395CH   BLOCK     CODE     NEAR LAB  LVL=1
      00000004H   SYMBOL    DATA     BYTE      i
      00000001H   SYMBOL    DATA     BYTE      evensum
      00000005H   SYMBOL    DATA     BYTE      ret
      ---         BLOCKEND  ---      ---       LVL=1
      01003957H   LINE      CODE     ---       #56
      0100395CH   LINE      CODE     ---       #57
      0100395CH   LINE      CODE     ---       #59
      0100395EH   LINE      CODE     ---       #60
      0100395FH   LINE      CODE     ---       #61
      0100396AH   LINE      CODE     ---       #62
      0100396AH   LINE      CODE     ---       #63
      01003996H   LINE      CODE     ---       #64
      01003996H   LINE      CODE     ---       #65
      01003997H   LINE      CODE     ---       #66
      01003997H   LINE      CODE     ---       #67
      0100399AH   LINE      CODE     ---       #68
      0100399DH   LINE      CODE     ---       #69
      0100399EH   LINE      CODE     ---       #70
      ---         BLOCKEND  ---      ---       LVL=0

      01002A8BH   BLOCK     CODE     ---       LVL=0
      00000007H   SYMBOL    DATA     BYTE      mode
      01002A8BH   BLOCK     CODE     NEAR LAB  LVL=1
      00000006H   SYMBOL    DATA     BYTE      i
      00000001H   SYMBOL    DATA     BYTE      ret
      00000004H   SYMBOL    DATA     WORD      checksum
      ---         BLOCKEND  ---      ---       LVL=1
      01002A8BH   LINE      CODE     ---       #72
      01002A8BH   LINE      CODE     ---       #73
      01002A8BH   LINE      CODE     ---       #76
      01002A8EH   LINE      CODE     ---       #77
      01002A8FH   LINE      CODE     ---       #78
      01002AA6H   LINE      CODE     ---       #79
      01002AA6H   LINE      CODE     ---       #80
      01002AA6H   LINE      CODE     ---       #81
      01002AA6H   LINE      CODE     ---       #82
      01002AB2H   LINE      CODE     ---       #83
      01002AB2H   LINE      CODE     ---       #84
      01002AC6H   LINE      CODE     ---       #85
      01002AC9H   LINE      CODE     ---       #86
      01002AC9H   LINE      CODE     ---       #87
      01002ACCH   LINE      CODE     ---       #88
      01002ACCH   LINE      CODE     ---       #89
      01002ACCH   LINE      CODE     ---       #90
      01002ACCH   LINE      CODE     ---       #91
      01002AD8H   LINE      CODE     ---       #92
      01002AD8H   LINE      CODE     ---       #93
      01002AECH   LINE      CODE     ---       #94
      01002AEFH   LINE      CODE     ---       #95
      01002AEFH   LINE      CODE     ---       #96
      01002AF1H   LINE      CODE     ---       #97
      01002AF1H   LINE      CODE     ---       #98
      01002AF1H   LINE      CODE     ---       #99
      01002AF1H   LINE      CODE     ---       #100
      01002AFDH   LINE      CODE     ---       #101
      01002AFDH   LINE      CODE     ---       #102
      01002B11H   LINE      CODE     ---       #103
      01002B14H   LINE      CODE     ---       #106
      01002B14H   LINE      CODE     ---       #108
LX51 LINKER/LOCATER V4.66.97.0                                                        09/02/2020  13:20:23  PAGE 133


      01002B14H   LINE      CODE     ---       #109
      01002B14H   LINE      CODE     ---       #110
      01002B20H   LINE      CODE     ---       #111
      01002B20H   LINE      CODE     ---       #112
      01002B34H   LINE      CODE     ---       #113
      01002B37H   LINE      CODE     ---       #114
      01002B37H   LINE      CODE     ---       #115
      01002B39H   LINE      CODE     ---       #116
      01002B39H   LINE      CODE     ---       #118
      01002B39H   LINE      CODE     ---       #119
      01002B39H   LINE      CODE     ---       #120
      01002B45H   LINE      CODE     ---       #121
      01002B45H   LINE      CODE     ---       #122
      01002B59H   LINE      CODE     ---       #123
      01002B5CH   LINE      CODE     ---       #124
      01002B5CH   LINE      CODE     ---       #125
      01002B5CH   LINE      CODE     ---       #126
      01002B5CH   LINE      CODE     ---       #127
      01002B5CH   LINE      CODE     ---       #128
      01002B5EH   LINE      CODE     ---       #129
      01002B60H   LINE      CODE     ---       #130
      ---         BLOCKEND  ---      ---       LVL=0

      010010AAH   BLOCK     CODE     ---       LVL=0
      020003A4H   SYMBOL    XDATA    WORD      start
      010010B2H   BLOCK     CODE     NEAR LAB  LVL=1
      00000001H   SYMBOL    DATA     ---       pCtt
      ---         BLOCKEND  ---      ---       LVL=1
      010010AAH   LINE      CODE     ---       #132
      010010B2H   LINE      CODE     ---       #133
      010010B2H   LINE      CODE     ---       #135
      010010B8H   LINE      CODE     ---       #137
      010010C0H   LINE      CODE     ---       #138
      010010C0H   LINE      CODE     ---       #139
      010010D1H   LINE      CODE     ---       #140
      010010EFH   LINE      CODE     ---       #141
      01001103H   LINE      CODE     ---       #142
      01001124H   LINE      CODE     ---       #143
      01001138H   LINE      CODE     ---       #144
      01001159H   LINE      CODE     ---       #145
      0100116DH   LINE      CODE     ---       #146
      01001189H   LINE      CODE     ---       #147
      0100118CH   LINE      CODE     ---       #148
      0100119BH   LINE      CODE     ---       #149
      0100119BH   LINE      CODE     ---       #150
      010011ACH   LINE      CODE     ---       #151
      010011CAH   LINE      CODE     ---       #152
      010011EAH   LINE      CODE     ---       #153
      01001217H   LINE      CODE     ---       #154
      0100124EH   LINE      CODE     ---       #155
      01001285H   LINE      CODE     ---       #156
      010012A6H   LINE      CODE     ---       #157
      010012BAH   LINE      CODE     ---       #158
      010012DBH   LINE      CODE     ---       #159
      010012EFH   LINE      CODE     ---       #160
      01001310H   LINE      CODE     ---       #161
      01001311H   LINE      CODE     ---       #163
      01001311H   LINE      CODE     ---       #164
      01001314H   LINE      CODE     ---       #165
      01001314H   LINE      CODE     ---       #167
      ---         BLOCKEND  ---      ---       LVL=0

LX51 LINKER/LOCATER V4.66.97.0                                                        09/02/2020  13:20:23  PAGE 134


      01003826H   BLOCK     CODE     ---       LVL=0
      01003826H   BLOCK     CODE     NEAR LAB  LVL=1
      00000007H   SYMBOL    DATA     BYTE      i
      ---         BLOCKEND  ---      ---       LVL=1
      01003826H   LINE      CODE     ---       #169
      01003826H   LINE      CODE     ---       #170
      01003826H   LINE      CODE     ---       #173
      01003832H   LINE      CODE     ---       #174
      01003832H   LINE      CODE     ---       #175
      01003842H   LINE      CODE     ---       #176
      01003852H   LINE      CODE     ---       #177
      01003855H   LINE      CODE     ---       #178
      01003863H   LINE      CODE     ---       #179
      01003868H   LINE      CODE     ---       #180
      0100386CH   LINE      CODE     ---       #181
      01003872H   LINE      CODE     ---       #182
      01003877H   LINE      CODE     ---       #185
      ---         BLOCKEND  ---      ---       LVL=0

      010039E2H   BLOCK     CODE     ---       LVL=0
      010039E2H   LINE      CODE     ---       #187
      010039E2H   LINE      CODE     ---       #188
      010039E2H   LINE      CODE     ---       #189
      010039E5H   LINE      CODE     ---       #190
      010039EAH   LINE      CODE     ---       #191
      010039F5H   LINE      CODE     ---       #192
      010039FCH   LINE      CODE     ---       #193
      01003A19H   LINE      CODE     ---       #194
      ---         BLOCKEND  ---      ---       LVL=0

      ---         MODULE    ---      ---       ?C_INIT
      01003237H   PUBLIC    CODE     ---       ?C_START

      ---         MODULE    ---      ---       ?C?CLDOPTR
      010006E1H   PUBLIC    CODE     ---       ?C?CLDOPTR

      ---         MODULE    ---      ---       ?C?CILDOPTR
      0100070EH   PUBLIC    CODE     ---       ?C?CILDOPTR

      ---         MODULE    ---      ---       ?C?CSTOPTR
      01000741H   PUBLIC    CODE     ---       ?C?CSTOPTR

      ---         MODULE    ---      ---       ?C?IMUL
      01000763H   PUBLIC    CODE     ---       ?C?IMUL

      ---         MODULE    ---      ---       ?C?UIDIV
      01000775H   PUBLIC    CODE     ---       ?C?UIDIV

      ---         MODULE    ---      ---       ?C?IILDX
      010007CAH   PUBLIC    CODE     ---       ?C?IILDX

      ---         MODULE    ---      ---       ?C?ILDPTR
      010007E0H   PUBLIC    CODE     ---       ?C?ILDPTR

      ---         MODULE    ---      ---       ?C?ILDOPTR
      0100080BH   PUBLIC    CODE     ---       ?C?ILDOPTR

      ---         MODULE    ---      ---       ?C?ISTPTR
      01000843H   PUBLIC    CODE     ---       ?C?ISTPTR

      ---         MODULE    ---      ---       ?C?ISTOPTR
      01000862H   PUBLIC    CODE     ---       ?C?ISTOPTR
LX51 LINKER/LOCATER V4.66.97.0                                                        09/02/2020  13:20:23  PAGE 135



      ---         MODULE    ---      ---       ?C?ULDIV
      010008CBH   PUBLIC    CODE     ---       ?C?ULDIV

      ---         MODULE    ---      ---       ?C?ULCMP
      0100095DH   PUBLIC    CODE     ---       ?C?ULCMP

      ---         MODULE    ---      ---       ?C?LSTXDATA
      0100096EH   PUBLIC    CODE     ---       ?C?LSTXDATA

      ---         MODULE    ---      ---       ?C?LSTKXDATA
      0100097AH   PUBLIC    CODE     ---       ?C?LSTKXDATA

      ---         MODULE    ---      ---       ?C?OFFXADD
      010009ABH   PUBLIC    CODE     ---       ?C?OFFXADD

      ---         MODULE    ---      ---       ?C?PLDOPTR
      010009B7H   PUBLIC    CODE     ---       ?C?PLDOPTR

      ---         MODULE    ---      ---       ?C?PSTOPTR
      010009E7H   PUBLIC    CODE     ---       ?C?PSTOPTR

      ---         MODULE    ---      ---       ?C?ICALL
      01000A40H   PUBLIC    CODE     ---       ?C?ICALL
      01000A44H   PUBLIC    CODE     ---       ?C?ICALL2

      ---         MODULE    ---      ---       ?C?LIMUL
      01000A46H   PUBLIC    CODE     ---       ?C?LIMUL

      ---         MODULE    ---      ---       ?C?PLDIDATA
      01000A73H   PUBLIC    CODE     ---       ?C?PLDIDATA

      ---         MODULE    ---      ---       ?C?PSTIDATA
      01000A7CH   PUBLIC    CODE     ---       ?C?PSTIDATA

      ---         MODULE    ---      ---       ?C?PLDXDATA
      01000A85H   PUBLIC    CODE     ---       ?C?PLDXDATA

      ---         MODULE    ---      ---       ?C?PSTXDATA
      01000A8EH   PUBLIC    CODE     ---       ?C?PSTXDATA

      ---         MODULE    ---      ---       ?C?PLDPDATA
      01000A97H   PUBLIC    CODE     ---       ?C?PLDPDATA

      ---         MODULE    ---      ---       ?C?PSTPDATA
      01000AA0H   PUBLIC    CODE     ---       ?C?PSTPDATA

      ---         MODULE    ---      ---       ?C?PLDCODE
      01000AA9H   PUBLIC    CODE     ---       ?C?PLDCODE



*** WARNING L13: RECURSIVE CALL TO FUNCTION
    CALLED:  _SRL_GETHEADER/SERIAL
    CALLER:  _SRL_GETDATA/SERIAL

*** WARNING L15: MULTIPLE CALL TO FUNCTION
    NAME:    _CALCBYTEEVEN/UARTCFG
    CALLER1: ?C_C51STARTUP
    CALLER2: UART0_ISR/UART

Program Size: data=9.1 xdata=962 const=0 code=16128
LX51 LINKER/LOCATER V4.66.97.0                                                        09/02/2020  13:20:23  PAGE 136


LX51 RUN COMPLETE.  2 WARNING(S),  0 ERROR(S)
