LX51 LINKER/LOCATER V4.66.97.0                                                          08/08/2020  16:35:51  PAGE 1


LX51 LINKER/LOCATER V4.66.97.0, INVOKED BY:
C:\SILICONLABS\SIMPLICITYSTUDIO\V4\DEVELOPER\TOOLCHAINS\KEIL_8051\9.60\BIN\LX51.EXE ./src/Adc.OBJ, ./src/Command.OBJ, ./
>> src/Cpu.OBJ, ./src/DetectObj.OBJ, ./src/EFM8BB2_FlashPrimitives.OBJ, ./src/InitDevice.OBJ, ./src/Main.OBJ, ./src/SILA
>> BS_STARTUP.OBJ, ./src/Serial.OBJ, ./src/Speaker.OBJ, ./src/Timer.OBJ, ./src/Uart.OBJ, ./src/UartCfg.OBJ TO DFSK-F516-
>> EFM8BB21F16G-C-QFN20_20200107.OMF.CRBUILD REMOVEUNUSED PRINT (.\DFSK-F516-EFM8BB21F16G-C-QFN20_20200107.m51) PAGEWIDT
>> H (120) PAGELENGTH (65) CLASSES (ECODE (C:0X0-C:0X3FFE), HCONST (C:0X0-C:0X3FFE), XDATA (X:0X0-X:0X7FF), HDATA (X:0X0
>> -X:0X7FF))




PROGRAM RECURSIONS REMOVED FROM CALL TREE
=========================================
+--> _SRL_GETHEADER/SERIAL
<--+ _SRL_GETDATA/SERIAL



CPU MODE:     8051 MODE
MEMORY MODEL: SMALL


INPUT MODULES INCLUDED:
  ./src/Adc.OBJ (ADC)
         COMMENT TYPE 0: C51 V9.60.0.0
  ./src/Command.OBJ (COMMAND)
         COMMENT TYPE 0: C51 V9.60.0.0
  ./src/Cpu.OBJ (CPU)
         COMMENT TYPE 0: C51 V9.60.0.0
  ./src/DetectObj.OBJ (DETECTOBJ)
         COMMENT TYPE 0: C51 V9.60.0.0
  ./src/EFM8BB2_FlashPrimitives.OBJ (EFM8BB2_FLASHPRIMITIVES)
         COMMENT TYPE 0: C51 V9.60.0.0
  ./src/InitDevice.OBJ (INITDEVICE)
         COMMENT TYPE 0: C51 V9.60.0.0
  ./src/Main.OBJ (MAIN)
         COMMENT TYPE 0: C51 V9.60.0.0
  ./src/SILABS_STARTUP.OBJ (?C_STARTUP)
         COMMENT TYPE 0: AX51 V3.15.3.0
  ./src/Serial.OBJ (SERIAL)
         COMMENT TYPE 0: C51 V9.60.0.0
  ./src/Speaker.OBJ (SPEAKER)
         COMMENT TYPE 0: C51 V9.60.0.0
  ./src/Timer.OBJ (TIMER)
         COMMENT TYPE 0: C51 V9.60.0.0
  ./src/Uart.OBJ (UART)
         COMMENT TYPE 0: C51 V9.60.0.0
  ./src/UartCfg.OBJ (UARTCFG)
         COMMENT TYPE 0: C51 V9.60.0.0
  C:\SILICONLABS\SIMPLICITYSTUDIO\V4\DEVELOPER\TOOLCHAINS\KEIL_8051\9.60\LIB\C51S.LIB (?C_INIT)
         COMMENT TYPE 1: A51 / ASM51 Assembler
  C:\SILICONLABS\SIMPLICITYSTUDIO\V4\DEVELOPER\TOOLCHAINS\KEIL_8051\9.60\LIB\C51S.LIB (?C?COPY)
         COMMENT TYPE 1: A51 / ASM51 Assembler
  C:\SILICONLABS\SIMPLICITYSTUDIO\V4\DEVELOPER\TOOLCHAINS\KEIL_8051\9.60\LIB\C51S.LIB (?C?CLDOPTR)
         COMMENT TYPE 1: A51 / ASM51 Assembler
  C:\SILICONLABS\SIMPLICITYSTUDIO\V4\DEVELOPER\TOOLCHAINS\KEIL_8051\9.60\LIB\C51S.LIB (?C?CILDOPTR)
         COMMENT TYPE 1: A51 / ASM51 Assembler
  C:\SILICONLABS\SIMPLICITYSTUDIO\V4\DEVELOPER\TOOLCHAINS\KEIL_8051\9.60\LIB\C51S.LIB (?C?CSTOPTR)
         COMMENT TYPE 1: A51 / ASM51 Assembler
  C:\SILICONLABS\SIMPLICITYSTUDIO\V4\DEVELOPER\TOOLCHAINS\KEIL_8051\9.60\LIB\C51S.LIB (?C?IMUL)
         COMMENT TYPE 1: A51 / ASM51 Assembler
  C:\SILICONLABS\SIMPLICITYSTUDIO\V4\DEVELOPER\TOOLCHAINS\KEIL_8051\9.60\LIB\C51S.LIB (?C?UIDIV)
         COMMENT TYPE 1: A51 / ASM51 Assembler
LX51 LINKER/LOCATER V4.66.97.0                                                        08/08/2020  16:35:51  PAGE 2


  C:\SILICONLABS\SIMPLICITYSTUDIO\V4\DEVELOPER\TOOLCHAINS\KEIL_8051\9.60\LIB\C51S.LIB (?C?IILDX)
         COMMENT TYPE 1: A51 / ASM51 Assembler
  C:\SILICONLABS\SIMPLICITYSTUDIO\V4\DEVELOPER\TOOLCHAINS\KEIL_8051\9.60\LIB\C51S.LIB (?C?ILDPTR)
         COMMENT TYPE 1: A51 / ASM51 Assembler
  C:\SILICONLABS\SIMPLICITYSTUDIO\V4\DEVELOPER\TOOLCHAINS\KEIL_8051\9.60\LIB\C51S.LIB (?C?ILDOPTR)
         COMMENT TYPE 1: A51 / ASM51 Assembler
  C:\SILICONLABS\SIMPLICITYSTUDIO\V4\DEVELOPER\TOOLCHAINS\KEIL_8051\9.60\LIB\C51S.LIB (?C?ISTPTR)
         COMMENT TYPE 1: A51 / ASM51 Assembler
  C:\SILICONLABS\SIMPLICITYSTUDIO\V4\DEVELOPER\TOOLCHAINS\KEIL_8051\9.60\LIB\C51S.LIB (?C?ISTOPTR)
         COMMENT TYPE 1: A51 / ASM51 Assembler
  C:\SILICONLABS\SIMPLICITYSTUDIO\V4\DEVELOPER\TOOLCHAINS\KEIL_8051\9.60\LIB\C51S.LIB (?C?LMUL)
         COMMENT TYPE 1: A51 / ASM51 Assembler
  C:\SILICONLABS\SIMPLICITYSTUDIO\V4\DEVELOPER\TOOLCHAINS\KEIL_8051\9.60\LIB\C51S.LIB (?C?ULDIV)
         COMMENT TYPE 1: A51 / ASM51 Assembler
  C:\SILICONLABS\SIMPLICITYSTUDIO\V4\DEVELOPER\TOOLCHAINS\KEIL_8051\9.60\LIB\C51S.LIB (?C?ULCMP)
         COMMENT TYPE 1: A51 / ASM51 Assembler
  C:\SILICONLABS\SIMPLICITYSTUDIO\V4\DEVELOPER\TOOLCHAINS\KEIL_8051\9.60\LIB\C51S.LIB (?C?LSTXDATA)
         COMMENT TYPE 1: A51 / ASM51 Assembler
  C:\SILICONLABS\SIMPLICITYSTUDIO\V4\DEVELOPER\TOOLCHAINS\KEIL_8051\9.60\LIB\C51S.LIB (?C?LSTKXDATA)
         COMMENT TYPE 1: A51 / ASM51 Assembler
  C:\SILICONLABS\SIMPLICITYSTUDIO\V4\DEVELOPER\TOOLCHAINS\KEIL_8051\9.60\LIB\C51S.LIB (?C?OFFXADD)
         COMMENT TYPE 1: A51 / ASM51 Assembler
  C:\SILICONLABS\SIMPLICITYSTUDIO\V4\DEVELOPER\TOOLCHAINS\KEIL_8051\9.60\LIB\C51S.LIB (?C?PLDOPTR)
         COMMENT TYPE 1: A51 / ASM51 Assembler
  C:\SILICONLABS\SIMPLICITYSTUDIO\V4\DEVELOPER\TOOLCHAINS\KEIL_8051\9.60\LIB\C51S.LIB (?C?PSTOPTR)
         COMMENT TYPE 1: A51 / ASM51 Assembler
  C:\SILICONLABS\SIMPLICITYSTUDIO\V4\DEVELOPER\TOOLCHAINS\KEIL_8051\9.60\LIB\C51S.LIB (?C?ICALL)
         COMMENT TYPE 1: A51 / ASM51 Assembler
  C:\SILICONLABS\SIMPLICITYSTUDIO\V4\DEVELOPER\TOOLCHAINS\KEIL_8051\9.60\LIB\C51S.LIB (?C?LIMUL)
         COMMENT TYPE 1: A51 / ASM51 Assembler
  C:\SILICONLABS\SIMPLICITYSTUDIO\V4\DEVELOPER\TOOLCHAINS\KEIL_8051\9.60\LIB\C51S.LIB (?C?PLDIDATA)
         COMMENT TYPE 1: A51 / ASM51 Assembler
  C:\SILICONLABS\SIMPLICITYSTUDIO\V4\DEVELOPER\TOOLCHAINS\KEIL_8051\9.60\LIB\C51S.LIB (?C?PSTIDATA)
         COMMENT TYPE 1: A51 / ASM51 Assembler
  C:\SILICONLABS\SIMPLICITYSTUDIO\V4\DEVELOPER\TOOLCHAINS\KEIL_8051\9.60\LIB\C51S.LIB (?C?PLDXDATA)
         COMMENT TYPE 1: A51 / ASM51 Assembler
  C:\SILICONLABS\SIMPLICITYSTUDIO\V4\DEVELOPER\TOOLCHAINS\KEIL_8051\9.60\LIB\C51S.LIB (?C?PSTXDATA)
         COMMENT TYPE 1: A51 / ASM51 Assembler
  C:\SILICONLABS\SIMPLICITYSTUDIO\V4\DEVELOPER\TOOLCHAINS\KEIL_8051\9.60\LIB\C51S.LIB (?C?PLDPDATA)
         COMMENT TYPE 1: A51 / ASM51 Assembler
  C:\SILICONLABS\SIMPLICITYSTUDIO\V4\DEVELOPER\TOOLCHAINS\KEIL_8051\9.60\LIB\C51S.LIB (?C?PSTPDATA)
         COMMENT TYPE 1: A51 / ASM51 Assembler
  C:\SILICONLABS\SIMPLICITYSTUDIO\V4\DEVELOPER\TOOLCHAINS\KEIL_8051\9.60\LIB\C51S.LIB (?C?PLDCODE)
         COMMENT TYPE 1: A51 / ASM51 Assembler


ACTIVE MEMORY CLASSES OF MODULE:  DFSK-F516-EFM8BB21F16G-C-QFN20_20200107.OMF.CRBUILD (ADC)

BASE        START       END         USED      MEMORY CLASS
==========================================================
C:000000H   C:000000H   C:003FFEH             ECODE
C:000000H   C:000000H   C:003FFEH             HCONST
X:000000H   X:000000H   X:0007FFH   00030BH   XDATA
X:000000H   X:000000H   X:0007FFH             HDATA
C:000000H   C:000000H   C:00FFFFH   00326FH   CODE
I:000000H   I:000000H   I:00007FH   0000BFH   DATA
I:000020H.0 I:000020H.0 I:00002FH.7           BIT
I:000000H   I:000000H   I:0000FFH   000001H   IDATA
C:000000H   C:000000H   C:00FFFFH             CONST


MEMORY MAP OF MODULE:  DFSK-F516-EFM8BB21F16G-C-QFN20_20200107.OMF.CRBUILD (ADC)
LX51 LINKER/LOCATER V4.66.97.0                                                        08/08/2020  16:35:51  PAGE 3




START     STOP      LENGTH    ALIGN  RELOC    MEMORY CLASS   SEGMENT NAME
=========================================================================

* * * * * * * * * * *   D A T A   M E M O R Y   * * * * * * * * * * * * *
000000H   000007H   000008H   ---    AT..     DATA           "REG BANK 0"
000008H   000061H   00005AH   BYTE   UNIT     DATA           ?DT?DETECTOBJ
000062H   000078H   000017H   BYTE   UNIT     DATA           _DATA_GROUP_
000079H   00007AH   000002H   BYTE   UNIT     DATA           ?DT?MAIN
00007BH   00007BH   000001H   BYTE   UNIT     DATA           ?DT?CPU
00007CH   00007CH   000001H   BYTE   UNIT     IDATA          ?STACK

* * * * * * * * * * *   C O D E   M E M O R Y   * * * * * * * * * * * * *
000000H   000002H   000003H   ---    OFFS..   CODE           ?CO?SILABS_STARTUP?3
000003H   00000AH   000008H   BYTE   UNIT     CODE           ?PR?STOP_PCA0_COMPARATOR?TIMER
00000BH   00000DH   000003H   BYTE   OFFS..   CODE           ?TIMER?0000B
00000EH   00001BH   00000EH   BYTE   UNIT     CODE           ?PR?TIMER
00001CH   000021H   000006H   BYTE   UNIT     CODE           ?PR?DETOBJ_STOP?DETECTOBJ
000022H   000022H   000001H   BYTE   UNIT     CODE           ?PR?SILABS_STARTUP?MAIN
000023H   000025H   000003H   BYTE   OFFS..   CODE           ?UART?00023
000026H   00002AH   000005H   BYTE   UNIT     CODE           ?PR?STARTTHEUART0TIMER?TIMER
00002BH   00002DH   000003H   BYTE   OFFS..   CODE           ?TIMER?0002B
00002EH   00004AH   00001DH   BYTE   UNIT     CODE           ?PR?_DELAY1MS?TIMER
00004BH   00004DH   000003H   BYTE   OFFS..   CODE           ?ADC?0004B
00004EH   000050H   000003H   BYTE   UNIT     CODE           ?PR?ADC_WINDOW_ISR?ADC
000051H   000051H   000001H   BYTE   UNIT     CODE           ?PR?TIMER0_ISR?TIMER
000052H   000052H   000001H   ---    ---      **GAP**
000053H   000055H   000003H   BYTE   OFFS..   CODE           ?ADC?00053
000056H   000058H   000003H   BYTE   UNIT     CODE           ?PR?CPU_ENABLEINTERRUPT?CPU
000059H   00005AH   000002H   ---    ---      **GAP**
00005BH   00005DH   000003H   BYTE   OFFS..   CODE           ?SERIAL?0005B
00005EH   00006AH   00000DH   BYTE   UNIT     CODE           ?PR?ADC_START?ADC
00006BH   000070H   000006H   BYTE   UNIT     CODE           ?PR?DETOBJ_INITTHEANALYSISDATA?DETECTOBJ
000071H   000072H   000002H   ---    ---      **GAP**
000073H   000075H   000003H   BYTE   OFFS..   CODE           ?TIMER?00073
000076H   00009AH   000025H   BYTE   UNIT     CODE           ?PR?TIME_INIT1MSTIMER?TIMER
00009BH   00009DH   000003H   BYTE   OFFS..   CODE           ?TIMER?0009B
00009EH   0005B6H   000519H   BYTE   UNIT     CODE           ?C?LIB_CODE
0005B7H   0009E7H   000431H   BYTE   UNIT     CODE           ?PR?CMD_PROCESS?COMMAND
0009E8H   000CC0H   0002D9H   BYTE   UNIT     CODE           ?PR?DETECTOBJ
000CC1H   000EF8H   000238H   BYTE   UNIT     CODE           ?PR?DETOBJ_RAWECHODATAANS?DETECTOBJ
000EF9H   0010E3H   0001EBH   BYTE   UNIT     CODE           ?PR?DETOBJ_COMPARETHEDATA?DETECTOBJ
0010E4H   00128BH   0001A8H   BYTE   UNIT     CODE           ?PR?DETOBJ_DETTHEOBJ?DETECTOBJ
00128CH   001422H   000197H   BYTE   UNIT     CODE           ?PR?DETOBJ_RAWFILTER?DETECTOBJ
001423H   0015B2H   000190H   BYTE   UNIT     CODE           ?PR?DETOBJ_CALSAMPNOISE?DETECTOBJ
0015B3H   001741H   00018FH   BYTE   UNIT     CODE           ?PR?CMD_DISTANCETOCOMINFO?COMMAND
001742H   0018BAH   000179H   BYTE   UNIT     CODE           ?PR?_UART0_RXDATA?UART
0018BBH   001A2CH   000172H   BYTE   UNIT     CODE           ?PR?DETOBJ_GENERATETHENEARESTOBSTACLE?DETECTOBJ
001A2DH   001B82H   000156H   BYTE   UNIT     CODE           ?PR?COMMAND
001B83H   001CD5H   000153H   BYTE   UNIT     CODE           ?PR?_RECEIVEFRAMERECORRESPONDING?UARTCFG
001CD6H   001DDAH   000105H   BYTE   UNIT     CODE           ?PR?_SRL_SENDDATA?SERIAL
001DDBH   001EBAH   0000E0H   BYTE   UNIT     CODE           ?PR?CMD_UPDATADISTANCE?COMMAND
001EBBH   001F90H   0000D6H   BYTE   UNIT     CODE           ?C_INITSEG
001F91H   002066H   0000D6H   BYTE   UNIT     CODE           ?PR?PCA0_ISR?SERIAL
002067H   00213BH   0000D5H   BYTE   UNIT     CODE           ?PR?INITGLOBALVARIABLE?MAIN
00213CH   002202H   0000C7H   BYTE   UNIT     CODE           ?PR?_SRL_GETHEADER?SERIAL
002203H   0022C5H   0000C3H   BYTE   UNIT     CODE           ?PR?DETOBJ_RAWNOISEDATAANS?DETECTOBJ
0022C6H   002383H   0000BEH   BYTE   UNIT     CODE           ?PR?DETOBJ_DIAGNOSTICTHERINGTIME?DETECTOBJ
002384H   00243DH   0000BAH   BYTE   UNIT     CODE           ?PR?SERIAL
00243EH   0024F4H   0000B7H   BYTE   UNIT     CODE           ?PR?_SRL_GETDATA?SERIAL
0024F5H   00259AH   0000A6H   BYTE   UNIT     CODE           ?PR?ADC_READID?ADC
LX51 LINKER/LOCATER V4.66.97.0                                                        08/08/2020  16:35:51  PAGE 4


00259BH   002633H   000099H   BYTE   UNIT     CODE           ?PR?MAIN?MAIN
002634H   0026CAH   000097H   BYTE   UNIT     CODE           ?PR?_CMD_NEXTSENSORDET?COMMAND
0026CBH   00275BH   000091H   BYTE   UNIT     CODE           ?PR?ADC
00275CH   0027EBH   000090H   BYTE   UNIT     CODE           ?PR?ADC_ISR?ADC
0027ECH   00287AH   00008FH   BYTE   UNIT     CODE           ?C_C51STARTUP
00287BH   002906H   00008CH   BYTE   UNIT     CODE           ?PR?DETOBJ_SENDTHE58KHZULTRASONIC?DETECTOBJ
002907H   00298FH   000089H   BYTE   UNIT     CODE           ?PR?UARTCFG
002990H   002A02H   000073H   BYTE   UNIT     CODE           ?PR?DETOBJ_PROCESSTHERINGTIME?DETECTOBJ
002A03H   002A67H   000065H   BYTE   UNIT     CODE           ?PR?CMD_SENDDISTANCETOBCM?COMMAND
002A68H   002ACBH   000064H   BYTE   UNIT     CODE           ?PR?TIMER2_ISR?TIMER
002ACCH   002B2FH   000064H   BYTE   UNIT     CODE           ?PR?UART0_ISR?UART
002B30H   002B89H   00005AH   BYTE   UNIT     CODE           ?PR?RXDATAPARITY?SERIAL
002B8AH   002BDFH   000056H   BYTE   UNIT     CODE           ?PR?CMD_SAVEDATA?COMMAND
002BE0H   002C33H   000054H   BYTE   UNIT     CODE           ?PR?DETOBJ_INITALLCHANNELDISTANCE?DETECTOBJ
002C34H   002C80H   00004DH   BYTE   UNIT     CODE           ?PR?ADC_CALUE?ADC
002C81H   002CCDH   00004DH   BYTE   UNIT     CODE           ?PR?DETOBJ_INITTHEEPD?DETECTOBJ
002CCEH   002D1AH   00004DH   BYTE   UNIT     CODE           ?PR?_GETDISTANCE?DETECTOBJ
002D1BH   002D64H   00004AH   BYTE   UNIT     CODE           ?PR?DETOBJ_INITTHECCD?DETECTOBJ
002D65H   002DACH   000048H   BYTE   UNIT     CODE           ?PR?DETOBJ_HOLDTHEOBSTACLESTATE?DETECTOBJ
002DADH   002DEDH   000041H   BYTE   UNIT     CODE           ?PR?_CALCBYTEEVEN?UARTCFG
002DEEH   002E2AH   00003DH   BYTE   UNIT     CODE           ?PR?DETOBJ_CLEARTHENOISEBUFF?DETECTOBJ
002E2BH   002E63H   000039H   BYTE   UNIT     CODE           ?PR?INITUART0RECEIVEVAR?UARTCFG
002E64H   002E94H   000031H   BYTE   UNIT     CODE           ?PR?TIME_INITPCA0?TIMER
002E95H   002EC3H   00002FH   BYTE   UNIT     CODE           ?PR?_DELAY1US?TIMER
002EC4H   002EF2H   00002FH   BYTE   UNIT     CODE           ?PR?TIMER3_ISR?TIMER
002EF3H   002F21H   00002FH   BYTE   UNIT     CODE           ?PR?UART
002F22H   002F4FH   00002EH   BYTE   UNIT     CODE           ?PR?_DETOBJ_COPYSAMPLINGBUFFER?DETECTOBJ
002F50H   002F79H   00002AH   BYTE   UNIT     CODE           ?PR?DETOBJ_REALTIMECLOCK?DETECTOBJ
002F7AH   002FA3H   00002AH   BYTE   UNIT     CODE           ?PR?DETOBJ_CLEARTHERAWDATABUFF?DETECTOBJ
002FA4H   002FCBH   000028H   BYTE   UNIT     CODE           ?PR?_COMMUNICAITONMODE?SERIAL
002FCCH   002FF2H   000027H   BYTE   UNIT     CODE           ?PR?CMD_SENDSELFCHECKTOBCM?COMMAND
002FF3H   003018H   000026H   BYTE   UNIT     CODE           ?PR?ADC_INITDETECT?ADC
003019H   00303EH   000026H   BYTE   UNIT     CODE           ?PR?_START_PCA0_CAPTURE?TIMER
00303FH   003064H   000026H   BYTE   UNIT     CODE           ?PR?_STOP_PCA0_CAPTURE?TIMER
003065H   00308AH   000026H   BYTE   UNIT     CODE           ?PR?TIME_INITUART0TIMER?TIMER
00308BH   0030AFH   000025H   BYTE   UNIT     CODE           ?PR?TIME_INITTHEDELAYTIMER?TIMER
0030B0H   0030D2H   000023H   BYTE   UNIT     CODE           ?PR?CPU_INITHARDWAREPORT?CPU
0030D3H   0030F5H   000023H   BYTE   UNIT     CODE           ?PR?ENABLEINTERNALCOMMUNICAITON?SERIAL
0030F6H   003116H   000021H   BYTE   UNIT     CODE           ?PR?TIME_INITADCTRIGGERTIMER?TIMER
003117H   003136H   000020H   BYTE   UNIT     CODE           ?PR?CPU_CLK_INIT?CPU
003137H   003154H   00001EH   BYTE   UNIT     CODE           ?PR?CMD_INITVARIABLE?COMMAND
003155H   003172H   00001EH   BYTE   UNIT     CODE           ?PR?DETOBJ_DIAGNOSTICTHESENSOR?DETECTOBJ
003173H   00318EH   00001CH   BYTE   UNIT     CODE           ?PR?_CPU_WDG_INIT?CPU
00318FH   0031AAH   00001CH   BYTE   UNIT     CODE           ?PR?TIME_INIT32MSTIMER?TIMER
0031ABH   0031C5H   00001BH   BYTE   UNIT     CODE           ?PR?UART0_INIT?UART
0031C6H   0031DEH   000019H   BYTE   UNIT     CODE           ?PR?CMD_CLEARBUFFER?COMMAND
0031DFH   0031F7H   000019H   BYTE   UNIT     CODE           ?PR?UART0_MOUDLE_DIS?UART
0031F8H   00320EH   000017H   BYTE   UNIT     CODE           ?PR?CMD_NEXTSENSORSELF?COMMAND
00320FH   003224H   000016H   BYTE   UNIT     CODE           ?PR?TIME_STARTADCTRIGGER?TIMER
003225H   003231H   00000DH   BYTE   UNIT     CODE           ?PR?START_PCA0_COMPARATOR?TIMER
003232H   00323EH   00000DH   BYTE   UNIT     CODE           ?PR?TIME_STOPADCTRIGGER?TIMER
00323FH   00324AH   00000CH   BYTE   UNIT     CODE           ?PR?ADC_POWERSAMPLINGINIT?ADC
00324BH   003254H   00000AH   BYTE   UNIT     CODE           ?PR?ADC_STOP?ADC
003255H   00325EH   00000AH   BYTE   UNIT     CODE           ?PR?DISABLEINTERNALCOMMUNICAITON?SERIAL
00325FH   003267H   000009H   BYTE   UNIT     CODE           ?PR?DETOBJ_START?DETECTOBJ
003268H   003270H   000009H   BYTE   UNIT     CODE           ?PR?TIMER4_ISR?TIMER
003271H   003273H   000003H   BYTE   UNIT     CODE           ?PR?CPU_DISABLEINTERRUPT?CPU

* * * * * * * * * * *  X D A T A   M E M O R Y  * * * * * * * * * * * * *
000000H   0001DCH   0001DDH   BYTE   UNIT     XDATA          ?XD?DETECTOBJ
0001DDH   00023CH   000060H   BYTE   UNIT     XDATA          ?XD?UARTCFG
00023DH   000293H   000057H   BYTE   UNIT     XDATA          ?XD?SERIAL
LX51 LINKER/LOCATER V4.66.97.0                                                        08/08/2020  16:35:51  PAGE 5


000294H   0002C0H   00002DH   BYTE   UNIT     XDATA          ?XD?COMMAND
0002C1H   0002DAH   00001AH   BYTE   UNIT     XDATA          _XDATA_GROUP_
0002DBH   0002EFH   000015H   BYTE   UNIT     XDATA          ?XD?ADC
0002F0H   0002FBH   00000CH   BYTE   UNIT     XDATA          ?XD?TIMER
0002FCH   000304H   000009H   BYTE   UNIT     XDATA          ?XD?MAIN
000305H   00030AH   000006H   BYTE   UNIT     XDATA          ?XD?SPEAKER

* * * * * * * * *   R E M O V E D     S E G M E N T S   * * * * * * * *
   *DEL*:           00001CH   BYTE   UNIT     CODE           ?PR?ADC_INITVARIABLE?ADC
   *DEL*:           00000CH   BYTE   UNIT     CODE           ?PR?ADC_IDSAMPLINGINIT?ADC
   *DEL*:           000054H   BYTE   UNIT     CODE           ?PR?ADC_POWERSAMPLE?ADC
   *DEL*:           000001H   BYTE   UNIT     CODE           ?PR?CMD_READID?COMMAND
   *DEL*:           00009EH   BYTE   UNIT     CODE           ?PR?CMD_GETVECHILEMODE?COMMAND
   *DEL*:           000001H   BYTE   UNIT     DATA           ?DT?CMD_GETVECHILEMODE?COMMAND
   *DEL*:           00003EH   BYTE   UNIT     CODE           ?PR?CMD_SENDREQVECHIMODETOBCM?COMMAND
   *DEL*:           000001H   BYTE   UNIT     DATA           ?DT?CMD_SENDREQVECHIMODETOBCM?COMMAND
   *DEL*:           000003H   BYTE   UNIT     CODE           ?PR?CMD_VECHILECFGCHECK?COMMAND
   *DEL*:           000001H   BYTE   UNIT     CODE           ?PR?CPU_INIT_VECT?CPU
   *DEL*:           000001H   BYTE   UNIT     CODE           ?PR?NULL?DETECTOBJ
   *DEL*:           000048H   BYTE   UNIT     CODE           ?PR?DETOBJ_INITSELFCHECKVAR?DETECTOBJ
   *DEL*:           000160H   BYTE   UNIT     CODE           ?PR?DETOBJ_INITVARIABLE?DETECTOBJ
   *DEL*:           000002H   BYTE   UNIT     DATA           ?DT?DETOBJ_INITVARIABLE?DETECTOBJ
   *DEL*:           000001H   BYTE   UNIT     CODE           ?PR?DETOBJ_PREECHOPROCESS?DETECTOBJ
   *DEL*:           00001AH   BYTE   UNIT     CODE           ?PR?_FLASH_BYTEWRITE?EFM8BB2_FLASHPRIMITIVES
   *DEL*:           000000H.1 BIT    UNIT     BIT            ?BI?_FLASH_BYTEWRITE?EFM8BB2_FLASHPRIMITIVES
   *DEL*:           000012H   BYTE   UNIT     CODE           ?PR?_FLASH_BYTEREAD?EFM8BB2_FLASHPRIMITIVES
   *DEL*:           000000H.1 BIT    UNIT     BIT            ?BI?_FLASH_BYTEREAD?EFM8BB2_FLASHPRIMITIVES
   *DEL*:           00001AH   BYTE   UNIT     CODE           ?PR?_FLASH_PAGEERASE?EFM8BB2_FLASHPRIMITIVES
   *DEL*:           000000H.1 BIT    UNIT     BIT            ?BI?_FLASH_PAGEERASE?EFM8BB2_FLASHPRIMITIVES
   *DEL*:           00000EH   BYTE   UNIT     CODE           ?PR?_FLASH_WRITEVECHILEMODE?EFM8BB2_FLASHPRIMITIVES
   *DEL*:           000007H   BYTE   UNIT     CODE           ?PR?FLASH_READVECHILEMODE?EFM8BB2_FLASHPRIMITIVES
   *DEL*:           000013H   BYTE   UNIT     CODE           ?PR?EFM8BB2_FLASHPRIMITIVES
   *DEL*:           000005H   BYTE   UNIT     CODE           ?PR?ENTER_DEFAULTMODE_FROM_RESET?INITDEVICE
   *DEL*:           000013H   BYTE   UNIT     CODE           ?PR?SRL_INITVARIABLE?SERIAL
   *DEL*:           0000EDH   BYTE   UNIT     CODE           ?PR?_SENDDATA?SERIAL
   *DEL*:           00000DH   BYTE   UNIT     DATA           ?DT?_SENDDATA?SERIAL
   *DEL*:           000008H   BYTE   UNIT     CONST          ?CO?SERIAL
   *DEL*:           000006H   BYTE   UNIT     CODE           ?PR?SPK_INITHARDWARE?SPEAKER
   *DEL*:           000012H   BYTE   UNIT     CODE           ?PR?SPK_INITVARIABLE?SPEAKER
   *DEL*:           0000BFH   BYTE   UNIT     CODE           ?PR?SPK_DRIVETHESPEAKER?SPEAKER
   *DEL*:           00000CH   BYTE   UNIT     CODE           ?PR?SPEAKER
   *DEL*:           00001AH   BYTE   UNIT     CODE           ?PR?TIME_INITVARIABLE?TIMER
   *DEL*:           000005H   BYTE   UNIT     CODE           ?PR?ENABLETHE32MSTIMERINTERRUPT?TIMER
   *DEL*:           000003H   BYTE   UNIT     CODE           ?PR?DISABLETHE32MSTIMERINTERRUPT?TIMER
   *DEL*:           000005H   BYTE   UNIT     CODE           ?PR?STOPTHEUART0TIMER?TIMER
   *DEL*:           00000DH   BYTE   UNIT     CODE           ?PR?STARTTHE32MSTIMER?TIMER
   *DEL*:           000009H   BYTE   UNIT     CODE           ?PR?STOPTHE32MSTIMER?TIMER
   *DEL*:           000011H   BYTE   UNIT     CODE           ?PR?START1MSTIMER?TIMER
   *DEL*:           00000BH   BYTE   UNIT     CODE           ?PR?STOP1MSTIMER?TIMER
   *DEL*:           00000CH   BYTE   UNIT     CODE           ?PR?UART0_INTRX_DIS?UART
   *DEL*:           00000CH   BYTE   UNIT     CODE           ?PR?UART0_INTRX_EN?UART
   *DEL*:           00000AH   BYTE   UNIT     CODE           ?PR?UART0_MODEDATAL?UART
   *DEL*:           00000AH   BYTE   UNIT     CODE           ?PR?UART0_MODEDATAH?UART
   *DEL*:           000020H   BYTE   UNIT     CODE           ?PR?_UART0_WRITEBYTE?UART
   *DEL*:           000092H   BYTE   UNIT     CODE           ?PR?UART0_DATAINIT?UARTCFG
   *DEL*:           000093H   BYTE   UNIT     CODE           ?PR?_CALCFRAMECHECKSUM?UARTCFG
   *DEL*:           00002DH   BYTE   UNIT     CODE           ?PR?INITUART0ALLVAR?UARTCFG



OVERLAY MAP OF MODULE:   DFSK-F516-EFM8BB21F16G-C-QFN20_20200107.OMF.CRBUILD (ADC)

LX51 LINKER/LOCATER V4.66.97.0                                                        08/08/2020  16:35:51  PAGE 6



FUNCTION/MODULE                               DATA_GROUP   XDATA_GROUP
--> CALLED FUNCTION/MODULE                    START  STOP  START  STOP
======================================================================
ADC_ISR/ADC                                   0062H 0064H  ----- -----
  +--> ADC

ADC                                           ----- -----  ----- -----

*** NEW ROOT ********************************

ADC_WINDOW_ISR/ADC                            ----- -----  ----- -----

*** NEW ROOT ********************************

?C_C51STARTUP                                 ----- -----  ----- -----
  +--> SILABS_STARTUP/MAIN
  +--> MAIN/MAIN
  +--> ?C_INITSEG

SILABS_STARTUP/MAIN                           ----- -----  ----- -----

MAIN/MAIN                                     ----- -----  ----- -----
  +--> CPU_CLK_INIT/CPU
  +--> CPU_INITHARDWAREPORT/CPU
  +--> _CPU_WDG_INIT/CPU
  +--> TIME_INITTHEDELAYTIMER/TIMER
  +--> TIME_INIT1MSTIMER/TIMER
  +--> TIME_INIT32MSTIMER/TIMER
  +--> INITGLOBALVARIABLE/MAIN
  +--> CMD_INITVARIABLE/COMMAND
  +--> TIME_INITUART0TIMER/TIMER
  +--> TIME_INITPCA0/TIMER
  +--> CPU_ENABLEINTERRUPT/CPU
  +--> _DELAY1MS/TIMER
  +--> ADC_READID/ADC
  +--> DETOBJ_DETTHEOBJ/DETECTOBJ
  +--> _COMMUNICAITONMODE/SERIAL
  +--> DETOBJ_INITALLCHANNELDISTANCE/DETECTOBJ

CPU_CLK_INIT/CPU                              ----- -----  ----- -----

CPU_INITHARDWAREPORT/CPU                      ----- -----  ----- -----

_CPU_WDG_INIT/CPU                             ----- -----  ----- -----

TIME_INITTHEDELAYTIMER/TIMER                  ----- -----  ----- -----
  +--> TIMER

TIMER                                         ----- -----  ----- -----

TIME_INIT1MSTIMER/TIMER                       ----- -----  ----- -----
  +--> TIMER

TIME_INIT32MSTIMER/TIMER                      ----- -----  ----- -----

INITGLOBALVARIABLE/MAIN                       ----- -----  ----- -----
  +--> DETOBJ_INITALLCHANNELDISTANCE/DETECTOBJ
  +--> _SRL_GETHEADER/SERIAL

DETOBJ_INITALLCHANNELDISTANCE/DETECTOBJ       ----- -----  02C1H 02C1H
  +--> DETECTOBJ
LX51 LINKER/LOCATER V4.66.97.0                                                        08/08/2020  16:35:51  PAGE 7


  +--> DETOBJ_STOP/DETECTOBJ

DETECTOBJ                                     ----- -----  ----- -----

DETOBJ_STOP/DETECTOBJ                         ----- -----  ----- -----
  +--> TIME_STOPADCTRIGGER/TIMER
  +--> ADC_STOP/ADC

TIME_STOPADCTRIGGER/TIMER                     ----- -----  ----- -----
  +--> TIMER

ADC_STOP/ADC                                  ----- -----  ----- -----

_SRL_GETHEADER/SERIAL                         ----- -----  ----- -----
  +--> SERIAL
  +--> _SRL_GETDATA/SERIAL

SERIAL                                        ----- -----  ----- -----

_SRL_GETDATA/SERIAL                           0065H 0066H  ----- -----
  +--> SERIAL
  +--> RXDATAPARITY/SERIAL

RXDATAPARITY/SERIAL                           ----- -----  ----- -----

CMD_INITVARIABLE/COMMAND                      ----- -----  ----- -----

TIME_INITUART0TIMER/TIMER                     ----- -----  ----- -----

TIME_INITPCA0/TIMER                           ----- -----  ----- -----
  +--> TIMER

CPU_ENABLEINTERRUPT/CPU                       ----- -----  ----- -----

_DELAY1MS/TIMER                               ----- -----  ----- -----
  +--> _DELAY1US/TIMER

_DELAY1US/TIMER                               ----- -----  ----- -----
  +--> TIMER

ADC_READID/ADC                                ----- -----  ----- -----
  +--> ADC_POWERSAMPLINGINIT/ADC
  +--> ADC_CALUE/ADC
  +--> ADC
  +--> _DELAY1MS/TIMER

ADC_POWERSAMPLINGINIT/ADC                     ----- -----  ----- -----
  +--> ADC
  +--> ADC_START/ADC

ADC_START/ADC                                 ----- -----  ----- -----

ADC_CALUE/ADC                                 ----- -----  ----- -----
  +--> _DELAY1US/TIMER
  +--> ADC_STOP/ADC

DETOBJ_DETTHEOBJ/DETECTOBJ                    ----- -----  ----- -----
  +--> CMD_PROCESS/COMMAND
  +--> DETOBJ_INITTHECCD/DETECTOBJ
  +--> DETECTOBJ
  +--> DETOBJ_CLEARTHERAWDATABUFF/DETECTOBJ
  +--> DETOBJ_CLEARTHENOISEBUFF/DETECTOBJ
LX51 LINKER/LOCATER V4.66.97.0                                                        08/08/2020  16:35:51  PAGE 8


  +--> ADC_INITDETECT/ADC
  +--> DETOBJ_START/DETECTOBJ
  +--> DETOBJ_STOP/DETECTOBJ
  +--> DETOBJ_CALSAMPNOISE/DETECTOBJ
  +--> DETOBJ_INITTHEEPD/DETECTOBJ
  +--> DETOBJ_SENDTHE58KHZULTRASONIC/DETECTOBJ
  +--> DETOBJ_RAWECHODATAANS/DETECTOBJ
  +--> DETOBJ_DIAGNOSTICTHERINGTIME/DETECTOBJ
  +--> DETOBJ_HOLDTHEOBSTACLESTATE/DETECTOBJ
  +--> DETOBJ_COMPARETHEDATA/DETECTOBJ
  +--> DETOBJ_PROCESSTHERINGTIME/DETECTOBJ
  +--> DETOBJ_GENERATETHENEARESTOBSTACLE/DETECTOBJ
  +--> _CMD_NEXTSENSORDET/COMMAND

CMD_PROCESS/COMMAND                           0065H 0066H  ----- -----
  +--> COMMAND
  +--> _SRL_SENDDATA/SERIAL
  +--> CMD_SAVEDATA/COMMAND
  +--> CMD_NEXTSENSORSELF/COMMAND
  +--> _COMMUNICAITONMODE/SERIAL
  +--> CMD_SENDSELFCHECKTOBCM/COMMAND
  +--> _DELAY1MS/TIMER
  +--> _CMD_NEXTSENSORDET/COMMAND
  +--> CMD_UPDATADISTANCE/COMMAND
  +--> INITUART0RECEIVEVAR/UARTCFG
  +--> CMD_SENDDISTANCETOBCM/COMMAND
  +--> _STOP_PCA0_CAPTURE/TIMER
  +--> _START_PCA0_CAPTURE/TIMER
  +--> DETOBJ_INITALLCHANNELDISTANCE/DETECTOBJ

COMMAND                                       ----- -----  ----- -----

_SRL_SENDDATA/SERIAL                          0069H 0071H  ----- -----
  +--> SERIAL
  +--> START_PCA0_COMPARATOR/TIMER

START_PCA0_COMPARATOR/TIMER                   ----- -----  ----- -----

CMD_SAVEDATA/COMMAND                          ----- -----  ----- -----
  +--> COMMAND

CMD_NEXTSENSORSELF/COMMAND                    ----- -----  ----- -----
  +--> COMMAND

_COMMUNICAITONMODE/SERIAL                     0069H 0069H  ----- -----
  +--> UART0_MOUDLE_DIS/UART
  +--> ENABLEINTERNALCOMMUNICAITON/SERIAL
  +--> _STOP_PCA0_CAPTURE/TIMER
  +--> UART0_INIT/UART
  +--> DISABLEINTERNALCOMMUNICAITON/SERIAL

UART0_MOUDLE_DIS/UART                         ----- -----  ----- -----
  +--> UART

UART                                          ----- -----  ----- -----

ENABLEINTERNALCOMMUNICAITON/SERIAL            ----- -----  ----- -----
  +--> _START_PCA0_CAPTURE/TIMER

_START_PCA0_CAPTURE/TIMER                     ----- -----  ----- -----
  +--> TIMER

LX51 LINKER/LOCATER V4.66.97.0                                                        08/08/2020  16:35:51  PAGE 9


_STOP_PCA0_CAPTURE/TIMER                      ----- -----  ----- -----
  +--> TIMER

UART0_INIT/UART                               ----- -----  ----- -----
  +--> UART
  +--> STARTTHEUART0TIMER/TIMER

STARTTHEUART0TIMER/TIMER                      ----- -----  ----- -----

DISABLEINTERNALCOMMUNICAITON/SERIAL           ----- -----  ----- -----
  +--> _STOP_PCA0_CAPTURE/TIMER

CMD_SENDSELFCHECKTOBCM/COMMAND                ----- -----  ----- -----
  +--> _SRL_SENDDATA/SERIAL

_CMD_NEXTSENSORDET/COMMAND                    0067H 0068H  ----- -----
  +--> COMMAND
  +--> CMD_CLEARBUFFER/COMMAND
  +--> _COMMUNICAITONMODE/SERIAL

CMD_CLEARBUFFER/COMMAND                       ----- -----  ----- -----
  +--> COMMAND

CMD_UPDATADISTANCE/COMMAND                    ----- -----  ----- -----
  +--> CMD_DISTANCETOCOMINFO/COMMAND
  +--> COMMAND

CMD_DISTANCETOCOMINFO/COMMAND                 ----- -----  ----- -----
  +--> COMMAND

INITUART0RECEIVEVAR/UARTCFG                   ----- -----  ----- -----

CMD_SENDDISTANCETOBCM/COMMAND                 0067H 0068H  ----- -----
  +--> COMMAND
  +--> _SRL_SENDDATA/SERIAL

DETOBJ_INITTHECCD/DETECTOBJ                   ----- -----  ----- -----
  +--> DETECTOBJ

DETOBJ_CLEARTHERAWDATABUFF/DETECTOBJ          ----- -----  ----- -----
  +--> DETOBJ_INITTHEANALYSISDATA/DETECTOBJ

DETOBJ_INITTHEANALYSISDATA/DETECTOBJ          ----- -----  ----- -----

DETOBJ_CLEARTHENOISEBUFF/DETECTOBJ            ----- -----  ----- -----
  +--> DETECTOBJ

ADC_INITDETECT/ADC                            ----- -----  ----- -----
  +--> ADC
  +--> ADC_START/ADC

DETOBJ_START/DETECTOBJ                        ----- -----  ----- -----
  +--> TIME_INITADCTRIGGERTIMER/TIMER
  +--> TIME_STARTADCTRIGGER/TIMER
  +--> ADC_START/ADC

TIME_INITADCTRIGGERTIMER/TIMER                ----- -----  ----- -----
  +--> TIMER

TIME_STARTADCTRIGGER/TIMER                    ----- -----  ----- -----
  +--> TIMER

LX51 LINKER/LOCATER V4.66.97.0                                                        08/08/2020  16:35:51  PAGE 10


DETOBJ_CALSAMPNOISE/DETECTOBJ                 ----- -----  02C1H 02CAH
  +--> DETECTOBJ
  +--> _DETOBJ_COPYSAMPLINGBUFFER/DETECTOBJ
  +--> DETOBJ_RAWNOISEDATAANS/DETECTOBJ

_DETOBJ_COPYSAMPLINGBUFFER/DETECTOBJ          0065H 006BH  ----- -----

DETOBJ_RAWNOISEDATAANS/DETECTOBJ              ----- -----  02CBH 02CCH
  +--> DETECTOBJ

DETOBJ_INITTHEEPD/DETECTOBJ                   ----- -----  ----- -----
  +--> DETECTOBJ

DETOBJ_SENDTHE58KHZULTRASONIC/DETECTOBJ       0065H 0065H  ----- -----
  +--> CPU_DISABLEINTERRUPT/CPU
  +--> DETECTOBJ
  +--> _DELAY1US/TIMER
  +--> CPU_ENABLEINTERRUPT/CPU

CPU_DISABLEINTERRUPT/CPU                      ----- -----  ----- -----

DETOBJ_RAWECHODATAANS/DETECTOBJ               ----- -----  02C1H 02C9H
  +--> DETECTOBJ
  +--> DETOBJ_RAWFILTER/DETECTOBJ
  +--> _GETDISTANCE/DETECTOBJ

DETOBJ_RAWFILTER/DETECTOBJ                    ----- -----  02CAH 02D0H
  +--> DETECTOBJ

_GETDISTANCE/DETECTOBJ                        0065H 0068H  ----- -----

DETOBJ_DIAGNOSTICTHERINGTIME/DETECTOBJ        ----- -----  ----- -----
  +--> DETECTOBJ
  +--> DETOBJ_DIAGNOSTICTHESENSOR/DETECTOBJ

DETOBJ_DIAGNOSTICTHESENSOR/DETECTOBJ          ----- -----  ----- -----
  +--> DETECTOBJ

DETOBJ_HOLDTHEOBSTACLESTATE/DETECTOBJ         ----- -----  02C1H 02C1H
  +--> DETECTOBJ

DETOBJ_COMPARETHEDATA/DETECTOBJ               ----- -----  02C1H 02DAH
  +--> DETECTOBJ

DETOBJ_PROCESSTHERINGTIME/DETECTOBJ           ----- -----  02C1H 02C2H
  +--> DETECTOBJ

DETOBJ_GENERATETHENEARESTOBSTACLE/DETECT+     ----- -----  02C1H 02C3H
... OBJ
  +--> DETECTOBJ

?C_INITSEG                                    ----- -----  ----- -----
  +--> _SRL_GETHEADER/SERIAL

*** NEW ROOT ********************************

PCA0_ISR/SERIAL                               ----- -----  ----- -----
  +--> SERIAL
  +--> STOP_PCA0_COMPARATOR/TIMER

STOP_PCA0_COMPARATOR/TIMER                    ----- -----  ----- -----

LX51 LINKER/LOCATER V4.66.97.0                                                        08/08/2020  16:35:51  PAGE 11


*** NEW ROOT ********************************

TIMER2_ISR/TIMER                              ----- -----  ----- -----
  +--> DETOBJ_REALTIMECLOCK/DETECTOBJ

DETOBJ_REALTIMECLOCK/DETECTOBJ                ----- -----  ----- -----

*** NEW ROOT ********************************

TIMER0_ISR/TIMER                              ----- -----  ----- -----

*** NEW ROOT ********************************

TIMER4_ISR/TIMER                              ----- -----  ----- -----
  +--> TIMER

*** NEW ROOT ********************************

TIMER3_ISR/TIMER                              ----- -----  ----- -----

*** NEW ROOT ********************************

UART0_ISR/UART                                0072H 0072H  ----- -----
  +--> _UART0_RXDATA/UART

_UART0_RXDATA/UART                            0073H 0076H  ----- -----
  +--> UART
  +--> _CALCBYTEEVEN/UARTCFG
  +--> _RECEIVEFRAMERECORRESPONDING/UARTCFG
  +--> INITUART0RECEIVEVAR/UARTCFG

_CALCBYTEEVEN/UARTCFG                         0077H 0077H  ----- -----

_RECEIVEFRAMERECORRESPONDING/UARTCFG          0077H 0078H  ----- -----
  +--> UARTCFG
  +--> INITUART0RECEIVEVAR/UARTCFG

UARTCFG                                       ----- -----  ----- -----



PUBLIC SYMBOLS OF MODULE:  DFSK-F516-EFM8BB21F16G-C-QFN20_20200107.OMF.CRBUILD (ADC)


      VALUE       CLASS    TYPE      PUBLIC SYMBOL NAME
      =================================================
      00000065H   DATA     BYTE      ?_DetObj_CopySamplingBuffer?BYTE
      00000069H   DATA     BYTE      ?_Srl_SendData?BYTE
      010001C1H   CODE     ---       ?C?CILDOPTR
      01000194H   CODE     ---       ?C?CLDOPTR
      00000000H   NUMBER   ---       ?C?CODESEG
      0100016EH   CODE     ---       ?C?COPY
      010001F4H   CODE     ---       ?C?CSTOPTR
      01000542H   CODE     ---       ?C?ICALL
      01000546H   CODE     ---       ?C?ICALL2
      0100027DH   CODE     ---       ?C?IILDX
      010002BEH   CODE     ---       ?C?ILDOPTR
      01000293H   CODE     ---       ?C?ILDPTR
      01000216H   CODE     ---       ?C?IMUL
      01000315H   CODE     ---       ?C?ISTOPTR
      010002F6H   CODE     ---       ?C?ISTPTR
      01000548H   CODE     ---       ?C?LIMUL
LX51 LINKER/LOCATER V4.66.97.0                                                        08/08/2020  16:35:51  PAGE 12


      01000342H   CODE     ---       ?C?LMUL
      0100047CH   CODE     ---       ?C?LSTKXDATA
      01000470H   CODE     ---       ?C?LSTXDATA
      010004ADH   CODE     ---       ?C?OFFXADD
      010005ABH   CODE     ---       ?C?PLDCODE
      01000575H   CODE     ---       ?C?PLDIDATA
      010004B9H   CODE     ---       ?C?PLDOPTR
      01000599H   CODE     ---       ?C?PLDPDATA
      01000587H   CODE     ---       ?C?PLDXDATA
      0100057EH   CODE     ---       ?C?PSTIDATA
      010004E9H   CODE     ---       ?C?PSTOPTR
      010005A2H   CODE     ---       ?C?PSTPDATA
      01000590H   CODE     ---       ?C?PSTXDATA
      01000228H   CODE     ---       ?C?UIDIV
      0100045FH   CODE     ---       ?C?ULCMP
      010003CDH   CODE     ---       ?C?ULDIV
      00000000H   NUMBER   ---       ?C?XDATASEG
      01002836H   CODE     ---       ?C_START
      01000000H   CODE     NEAR LAB  ?C_STARTUP
      01002DADH   CODE     ---       _CalcByteEVEN
*DEL*:00000000H   CODE     ---       _CalcFrameChecksum
      01002634H   CODE     ---       _Cmd_NextSensorDet
      01002FA4H   CODE     ---       _CommunicaitonMode
      01003173H   CODE     ---       _Cpu_WDG_Init
      0100002EH   CODE     ---       _Delay1ms
      01002E95H   CODE     ---       _Delay1us
      01002F22H   CODE     ---       _DetObj_CopySamplingBuffer
*DEL*:00000000H   CODE     ---       _FLASH_ByteRead
*DEL*:00000000H   CODE     ---       _FLASH_ByteWrite
*DEL*:00000000H   CODE     ---       _FLASH_PageErase
*DEL*:00000000H   CODE     ---       _Flash_WriteVechileMode
      01002CCEH   CODE     ---       _GetDistance
      01001B83H   CODE     ---       _ReceiveFramereCorresponding
*DEL*:00000000H   CODE     ---       _SendData
      0100243EH   CODE     ---       _Srl_GetData
      0100213CH   CODE     ---       _Srl_GetHeader
      01001CD6H   CODE     ---       _Srl_SendData
      01003019H   CODE     ---       _Start_PCA0_Capture
      0100303FH   CODE     ---       _Stop_PCA0_Capture
      01001742H   CODE     ---       _UART0_RXData
*DEL*:00000000H   CODE     ---       _UART0_WriteByte
*SFR* 000000E0H   DATA     BYTE      ACC
*SFR* 000000E0H.0 DATA     BIT       ACC_ACC0
*SFR* 000000E0H.1 DATA     BIT       ACC_ACC1
*SFR* 000000E0H.2 DATA     BIT       ACC_ACC2
*SFR* 000000E0H.3 DATA     BIT       ACC_ACC3
*SFR* 000000E0H.4 DATA     BIT       ACC_ACC4
*SFR* 000000E0H.5 DATA     BIT       ACC_ACC5
*SFR* 000000E0H.6 DATA     BIT       ACC_ACC6
*SFR* 000000E0H.7 DATA     BIT       ACC_ACC7
      020002E0H   XDATA    ---       ADC
*SFR* 000000BDH   DATA     WORD      ADC0
*SFR* 000000B3H   DATA     BYTE      ADC0AC
*SFR* 000000BCH   DATA     BYTE      ADC0CF
*SFR* 000000E8H   DATA     BYTE      ADC0CN0
*SFR* 000000E8H.6 DATA     BIT       ADC0CN0_ADBMEN
*SFR* 000000E8H.4 DATA     BIT       ADC0CN0_ADBUSY
*SFR* 000000E8H.0 DATA     BIT       ADC0CN0_ADCM0
*SFR* 000000E8H.1 DATA     BIT       ADC0CN0_ADCM1
*SFR* 000000E8H.2 DATA     BIT       ADC0CN0_ADCM2
*SFR* 000000E8H.7 DATA     BIT       ADC0CN0_ADEN
*SFR* 000000E8H.5 DATA     BIT       ADC0CN0_ADINT
LX51 LINKER/LOCATER V4.66.97.0                                                        08/08/2020  16:35:51  PAGE 13


*SFR* 000000E8H.3 DATA     BIT       ADC0CN0_ADWINT
*SFR* 000000B2H   DATA     BYTE      ADC0CN1
*SFR* 000000C3H   DATA     WORD      ADC0GT
*SFR* 000000C4H   DATA     BYTE      ADC0GTH
*SFR* 000000C3H   DATA     BYTE      ADC0GTL
*SFR* 000000BEH   DATA     BYTE      ADC0H
*SFR* 000000BDH   DATA     BYTE      ADC0L
*SFR* 000000C5H   DATA     WORD      ADC0LT
*SFR* 000000C6H   DATA     BYTE      ADC0LTH
*SFR* 000000C5H   DATA     BYTE      ADC0LTL
*SFR* 000000BBH   DATA     BYTE      ADC0MX
*SFR* 000000DFH   DATA     BYTE      ADC0PWR
*SFR* 000000B9H   DATA     BYTE      ADC0TK
      01002C34H   CODE     ---       ADC_CALUE
      *EXTERN*    CODE     ---       ADC_IDSample
*DEL*:00000000H   CODE     ---       ADC_IDSamplingInit
      01002FF3H   CODE     ---       ADC_InitDetect
*DEL*:00000000H   CODE     ---       ADC_InitVariable
      0100275CH   CODE     ---       ADC_ISR
*DEL*:00000000H   CODE     ---       ADC_PowerSample
      0100323FH   CODE     ---       ADC_PowerSamplingInit
      010024F5H   CODE     ---       ADC_ReadID
      0100005EH   CODE     ---       ADC_Start
      0100324BH   CODE     ---       ADC_Stop
      0100004EH   CODE     ---       ADC_WINDOW_ISR
      0200006AH   XDATA    ---       AnsData
*SFR* 000000F0H   DATA     BYTE      B
      020002F2H   XDATA    BYTE      b50msFlag
*SFR* 000000F0H.0 DATA     BIT       B_B0
*SFR* 000000F0H.1 DATA     BIT       B_B1
*SFR* 000000F0H.2 DATA     BIT       B_B2
*SFR* 000000F0H.3 DATA     BIT       B_B3
*SFR* 000000F0H.4 DATA     BIT       B_B4
*SFR* 000000F0H.5 DATA     BIT       B_B5
*SFR* 000000F0H.6 DATA     BIT       B_B6
*SFR* 000000F0H.7 DATA     BIT       B_B7
      020002DEH   XDATA    BYTE      bDetectFlag
      020002F6H   XDATA    BYTE      bLevel
      020002EDH   XDATA    BYTE      bRadar_PoweFlag
      020002F3H   XDATA    BYTE      bSensorCheckFlag
      020002FBH   XDATA    BYTE      bTimeFlag
      02000300H   XDATA    ---       buffer
      020002DBH   XDATA    BYTE      bWorkFlag
      020002DFH   XDATA    BYTE      bySampleTimes
*SFR* 0000008EH   DATA     BYTE      CKCON0
*SFR* 000000A6H   DATA     BYTE      CKCON1
*SFR* 000000A9H   DATA     BYTE      CLKSEL
      02000017H   XDATA    ---       ClrtData
      02000294H   XDATA    ---       Cmd
      010031C6H   CODE     ---       Cmd_ClearBuffer
      010015B3H   CODE     ---       Cmd_DistancetoComInfo
*DEL*:00000000H   CODE     ---       Cmd_GetVechileMode
      01003137H   CODE     ---       Cmd_InitVariable
      010031F8H   CODE     ---       Cmd_NextSensorSelf
      010005B7H   CODE     ---       Cmd_Process
*DEL*:00000000H   CODE     ---       Cmd_ReadID
      01002B8AH   CODE     ---       Cmd_SaveData
      01002A03H   CODE     ---       Cmd_SendDistancetoBCM
*DEL*:00000000H   CODE     ---       Cmd_SendReqVechiModetoBCM
      01002FCCH   CODE     ---       Cmd_SendSelfChecktoBCM
      01001DDBH   CODE     ---       Cmd_UpdataDistance
*DEL*:00000000H   CODE     ---       Cmd_VechileCfgCheck
LX51 LINKER/LOCATER V4.66.97.0                                                        08/08/2020  16:35:51  PAGE 14


*SFR* 0000009BH   DATA     BYTE      CMP0CN0
*SFR* 00000099H   DATA     BYTE      CMP0CN1
*SFR* 0000009DH   DATA     BYTE      CMP0MD
*SFR* 0000009FH   DATA     BYTE      CMP0MX
*SFR* 000000BFH   DATA     BYTE      CMP1CN0
*SFR* 000000ACH   DATA     BYTE      CMP1CN1
*SFR* 000000ABH   DATA     BYTE      CMP1MD
*SFR* 000000AAH   DATA     BYTE      CMP1MX
      0200001DH   XDATA    ---       CmpData
      01003117H   CODE     ---       Cpu_Clk_Init
      01003271H   CODE     ---       Cpu_DisableInterrupt
      01000056H   CODE     ---       Cpu_EnableInterrupt
*DEL*:00000000H   CODE     ---       Cpu_Init_Vect
      010030B0H   CODE     ---       Cpu_InitHardwarePort
*SFR* 000000CEH   DATA     BYTE      CRC0CN0
*SFR* 00000086H   DATA     BYTE      CRC0CN1
*SFR* 000000D3H   DATA     BYTE      CRC0CNT
*SFR* 000000DEH   DATA     BYTE      CRC0DAT
*SFR* 000000CFH   DATA     BYTE      CRC0FLIP
*SFR* 000000DDH   DATA     BYTE      CRC0IN
*SFR* 000000D2H   DATA     BYTE      CRC0ST
      00000079H   DATA     BYTE      Debug_RD1
      0000007AH   DATA     BYTE      Debug_RD2
*SFR* 000000ADH   DATA     BYTE      DERIVID
      00000008H   DATA     ---       DetectInterval
      020001C4H   XDATA    ---       DetInfo
      01001423H   CODE     ---       DetObj_CalSampNoise
      01002DEEH   CODE     ---       DetObj_ClearTheNoiseBuff
      01002F7AH   CODE     ---       DetObj_ClearTheRawDataBuff
      01000EF9H   CODE     ---       DetObj_CompareTheData
      020001CDH   XDATA    ---       DetObj_DataPrcs
      010010E4H   CODE     ---       DetObj_DetTheObj
      010022C6H   CODE     ---       DetObj_DiagnosticTheRingTime
      01003155H   CODE     ---       DetObj_DiagnosticTheSensor
      010018BBH   CODE     ---       DetObj_GenerateTheNearestObstacle
      01002D65H   CODE     ---       DetObj_HoldTheObstaclestate
      01002BE0H   CODE     ---       DetObj_InitAllChannelDistance
*DEL*:00000000H   CODE     ---       DetObj_InitSelfCheckVar
      0100006BH   CODE     ---       DetObj_InitTheAnalysisData
      01002D1BH   CODE     ---       DetObj_InitTheCCD
      01002C81H   CODE     ---       DetObj_InitTheEPD
*DEL*:00000000H   CODE     ---       DetObj_InitVariable
*DEL*:00000000H   CODE     ---       DetObj_PreEchoProcess
      01002990H   CODE     ---       DetObj_ProcessTheRingTime
      01000CC1H   CODE     ---       DetObj_RawEchoDataAns
      0100128CH   CODE     ---       DetObj_RawFilter
      01002203H   CODE     ---       DetObj_RawNoiseDataAns
      01002F50H   CODE     ---       DetObj_RealTimeClock
      0100287BH   CODE     ---       DetObj_SendThe58KhzUltraSonic
      0100325FH   CODE     ---       DetObj_Start
      0100001CH   CODE     ---       DetObj_Stop
*SFR* 000000B5H   DATA     BYTE      DEVICEID
      0200000CH   XDATA    ---       DiagInfo
      01003255H   CODE     ---       DisableInternalCommunicaiton
*DEL*:00000000H   CODE     ---       DisableThe32msTimerInterrupt
*SFR* 00000082H   DATA     WORD      DP
*SFR* 00000083H   DATA     BYTE      DPH
*SFR* 00000082H   DATA     BYTE      DPL
      0000005CH   DATA     ---       EachSNMaxDistance
      0000000EH   DATA     ---       EachSNMaxDistance_2Snr
      00000014H   DATA     ---       EachSNMaxDistance_3Snr
      0000001AH   DATA     ---       EachSNMaxDistance_5Snr
LX51 LINKER/LOCATER V4.66.97.0                                                        08/08/2020  16:35:51  PAGE 15


*SFR* 000000E6H   DATA     BYTE      EIE1
*SFR* 000000CEH   DATA     BYTE      EIE2
*SFR* 000000F3H   DATA     BYTE      EIP1
*SFR* 000000F5H   DATA     BYTE      EIP1H
*SFR* 000000F4H   DATA     BYTE      EIP2
*SFR* 000000F6H   DATA     BYTE      EIP2H
*SFR* 000000E7H   DATA     BYTE      EMI0CN
      010030D3H   CODE     ---       EnableInternalCommunicaiton
*DEL*:00000000H   CODE     ---       EnableThe32msTimerInterrupt
*DEL*:00000000H   CODE     ---       enter_DefaultMode_from_RESET
      020002FCH   XDATA    DWORD     errorCount
  S11:00000006H   DATA     WORD      FL_MAX_VALUE
  S11:00000004H   DATA     WORD      FL_MIN_VALUE
*DEL*:00000000H   CODE     ---       Flash_ReadVechileMode
*SFR* 000000B7H   DATA     BYTE      FLKEY
  S11:0000000AH   DATA     WORD      FR_MAX_VALUE
  S11:00000008H   DATA     WORD      FR_MIN_VALUE
 S130:00000000H   DATA     ---       gslinContext
 S130:00000009H   DATA     ---       gUart0ReceivePduInfo
*SFR* 000000C7H   DATA     BYTE      HFO0CAL
*SFR* 000000D6H   DATA     BYTE      HFO1CAL
*SFR* 000000EFH   DATA     BYTE      HFOCN
*SFR* 000000BAH   DATA     BYTE      I2C0CN0
*SFR* 000000BCH   DATA     BYTE      I2C0DIN
*SFR* 000000BBH   DATA     BYTE      I2C0DOUT
*SFR* 000000ADH   DATA     BYTE      I2C0FCN0
*SFR* 000000ABH   DATA     BYTE      I2C0FCN1
*SFR* 000000F5H   DATA     BYTE      I2C0FCT
*SFR* 000000BDH   DATA     BYTE      I2C0SLAD
*SFR* 000000B9H   DATA     BYTE      I2C0STAT
*SFR* 000000A8H   DATA     BYTE      IE
*SFR* 000000A8H.7 DATA     BIT       IE_EA
*SFR* 000000A8H.4 DATA     BIT       IE_ES0
*SFR* 000000A8H.6 DATA     BIT       IE_ESPI0
*SFR* 000000A8H.1 DATA     BIT       IE_ET0
*SFR* 000000A8H.3 DATA     BIT       IE_ET1
*SFR* 000000A8H.5 DATA     BIT       IE_ET2
*SFR* 000000A8H.0 DATA     BIT       IE_EX0
*SFR* 000000A8H.2 DATA     BIT       IE_EX1
      01002067H   CODE     ---       InitGlobalVariable
*DEL*:00000000H   CODE     ---       InitUart0AllVar
      01002E2BH   CODE     ---       InitUart0ReceiveVar
*SFR* 000000B8H   DATA     BYTE      IP
*SFR* 000000B8H.4 DATA     BIT       IP_PS0
*SFR* 000000B8H.6 DATA     BIT       IP_PSPI0
*SFR* 000000B8H.1 DATA     BIT       IP_PT0
*SFR* 000000B8H.3 DATA     BIT       IP_PT1
*SFR* 000000B8H.5 DATA     BIT       IP_PT2
*SFR* 000000B8H.0 DATA     BIT       IP_PX0
*SFR* 000000B8H.2 DATA     BIT       IP_PX1
*SFR* 000000F2H   DATA     BYTE      IPH
*SFR* 000000E4H   DATA     BYTE      IT01CF
*SFR* 000000B1H   DATA     BYTE      LFO0CN
      0100259BH   CODE     ---       main
      0200022DH   XDATA    ---       MsgBCM_Info
      0200021DH   XDATA    ---       MsgBCM_Info_Init
      02000225H   XDATA    ---       MsgBCM_Mode
      02000215H   XDATA    ---       MsgBCM_Mode_Init
      020001FDH   XDATA    ---       MsgRadar_Distance
      020001E5H   XDATA    ---       MsgRadar_Distance_Init
      0200020DH   XDATA    ---       MsgRadar_ReqMode
      020001F5H   XDATA    ---       MsgRadar_ReqMode_Init
LX51 LINKER/LOCATER V4.66.97.0                                                        08/08/2020  16:35:51  PAGE 16


      020001DDH   XDATA    ---       MsgRadar_Self
      02000235H   XDATA    ---       MsgRadar_Self_Init
      020001D0H   XDATA    ---       NearestData
      02000000H   XDATA    ---       Noise
*DEL*:00000000H   CODE     ---       Null
*SFR* 00000080H   DATA     BYTE      P0
*SFR* 00000080H.0 DATA     BIT       P0_B0
*SFR* 00000080H.1 DATA     BIT       P0_B1
*SFR* 00000080H.2 DATA     BIT       P0_B2
*SFR* 00000080H.3 DATA     BIT       P0_B3
*SFR* 00000080H.4 DATA     BIT       P0_B4
*SFR* 00000080H.5 DATA     BIT       P0_B5
*SFR* 00000080H.6 DATA     BIT       P0_B6
*SFR* 00000080H.7 DATA     BIT       P0_B7
*SFR* 000000FEH   DATA     BYTE      P0MASK
*SFR* 000000FDH   DATA     BYTE      P0MAT
*SFR* 000000F1H   DATA     BYTE      P0MDIN
*SFR* 000000A4H   DATA     BYTE      P0MDOUT
*SFR* 000000D4H   DATA     BYTE      P0SKIP
*SFR* 00000090H   DATA     BYTE      P1
*SFR* 00000090H.0 DATA     BIT       P1_B0
*SFR* 00000090H.1 DATA     BIT       P1_B1
*SFR* 00000090H.2 DATA     BIT       P1_B2
*SFR* 00000090H.3 DATA     BIT       P1_B3
*SFR* 00000090H.4 DATA     BIT       P1_B4
*SFR* 00000090H.5 DATA     BIT       P1_B5
*SFR* 00000090H.6 DATA     BIT       P1_B6
*SFR* 00000090H.7 DATA     BIT       P1_B7
*SFR* 000000EEH   DATA     BYTE      P1MASK
*SFR* 000000EDH   DATA     BYTE      P1MAT
*SFR* 000000F2H   DATA     BYTE      P1MDIN
*SFR* 000000A5H   DATA     BYTE      P1MDOUT
*SFR* 000000D5H   DATA     BYTE      P1SKIP
*SFR* 000000A0H   DATA     BYTE      P2
*SFR* 000000A0H.0 DATA     BIT       P2_B0
*SFR* 000000A0H.1 DATA     BIT       P2_B1
*SFR* 000000A0H.2 DATA     BIT       P2_B2
*SFR* 000000A0H.3 DATA     BIT       P2_B3
*SFR* 000000FCH   DATA     BYTE      P2MASK
*SFR* 000000FBH   DATA     BYTE      P2MAT
*SFR* 000000F3H   DATA     BYTE      P2MDIN
*SFR* 000000A6H   DATA     BYTE      P2MDOUT
*SFR* 000000CCH   DATA     BYTE      P2SKIP
*SFR* 000000B0H   DATA     BYTE      P3
*SFR* 000000B0H.0 DATA     BIT       P3_B0
*SFR* 000000B0H.1 DATA     BIT       P3_B1
*SFR* 000000F4H   DATA     BYTE      P3MDIN
*SFR* 0000009CH   DATA     BYTE      P3MDOUT
*SFR* 000000F9H   DATA     WORD      PCA0
      01001F91H   CODE     ---       PCA0_ISR
*SFR* 0000009EH   DATA     BYTE      PCA0CENT
*SFR* 0000009CH   DATA     BYTE      PCA0CLR
*SFR* 000000D8H   DATA     BYTE      PCA0CN0
*SFR* 000000D8H.0 DATA     BIT       PCA0CN0_CCF0
*SFR* 000000D8H.1 DATA     BIT       PCA0CN0_CCF1
*SFR* 000000D8H.2 DATA     BIT       PCA0CN0_CCF2
*SFR* 000000D8H.7 DATA     BIT       PCA0CN0_CF
*SFR* 000000D8H.6 DATA     BIT       PCA0CN0_CR
*SFR* 000000FBH   DATA     WORD      PCA0CP0
*SFR* 000000E9H   DATA     WORD      PCA0CP1
*SFR* 000000EBH   DATA     WORD      PCA0CP2
*SFR* 000000FCH   DATA     BYTE      PCA0CPH0
LX51 LINKER/LOCATER V4.66.97.0                                                        08/08/2020  16:35:51  PAGE 17


*SFR* 000000EAH   DATA     BYTE      PCA0CPH1
*SFR* 000000ECH   DATA     BYTE      PCA0CPH2
*SFR* 000000FBH   DATA     BYTE      PCA0CPL0
*SFR* 000000E9H   DATA     BYTE      PCA0CPL1
*SFR* 000000EBH   DATA     BYTE      PCA0CPL2
*SFR* 000000DAH   DATA     BYTE      PCA0CPM0
*SFR* 000000DBH   DATA     BYTE      PCA0CPM1
*SFR* 000000DCH   DATA     BYTE      PCA0CPM2
*SFR* 000000FAH   DATA     BYTE      PCA0H
*SFR* 000000F9H   DATA     BYTE      PCA0L
*SFR* 000000D9H   DATA     BYTE      PCA0MD
*SFR* 00000096H   DATA     BYTE      PCA0POL
*SFR* 000000F7H   DATA     BYTE      PCA0PWM
*SFR* 00000087H   DATA     BYTE      PCON0
*SFR* 0000009AH   DATA     BYTE      PCON1
*SFR* 000000C1H   DATA     BYTE      PFE0CN
*SFR* 000000A0H   DATA     BYTE      PPAGE_SFR
*SFR* 000000F6H   DATA     BYTE      PRTDRV
*SFR* 0000008FH   DATA     BYTE      PSCTL
*SFR* 000000D0H   DATA     BYTE      PSW
*SFR* 000000D0H.6 DATA     BIT       PSW_AC
*SFR* 000000D0H.7 DATA     BIT       PSW_CY
*SFR* 000000D0H.5 DATA     BIT       PSW_F0
*SFR* 000000D0H.1 DATA     BIT       PSW_F1
*SFR* 000000D0H.2 DATA     BIT       PSW_OV
*SFR* 000000D0H.0 DATA     BIT       PSW_PARITY
*SFR* 000000D0H.3 DATA     BIT       PSW_RS0
*SFR* 000000D0H.4 DATA     BIT       PSW_RS1
      02000075H   XDATA    ---       RawData
*SFR* 000000D1H   DATA     BYTE      REF0CN
*SFR* 000000C9H   DATA     BYTE      REG0CN
*SFR* 000000C6H   DATA     BYTE      REG1CN
*SFR* 000000B6H   DATA     BYTE      REVID
  S11:0000000EH   DATA     WORD      RL_MAX_VALUE
  S11:0000000CH   DATA     WORD      RL_MIN_VALUE
  S11:00000002H   DATA     WORD      RML_MAX_VALUE
  S11:00000000H   DATA     WORD      RML_MIN_VALUE
  S11:00000012H   DATA     WORD      RR_MAX_VALUE
  S11:00000010H   DATA     WORD      RR_MIN_VALUE
*SFR* 000000EFH   DATA     BYTE      RSTSRC
      01002B30H   CODE     ---       RxDataParity
*SFR* 00000094H   DATA     BYTE      SBCON1
*SFR* 00000095H   DATA     WORD      SBRL1
*SFR* 00000096H   DATA     BYTE      SBRLH1
*SFR* 00000095H   DATA     BYTE      SBRLL1
*SFR* 00000099H   DATA     BYTE      SBUF0
*SFR* 00000092H   DATA     BYTE      SBUF1
*SFR* 00000098H   DATA     BYTE      SCON0
*SFR* 00000098H.5 DATA     BIT       SCON0_MCE
*SFR* 00000098H.2 DATA     BIT       SCON0_RB8
*SFR* 00000098H.4 DATA     BIT       SCON0_REN
*SFR* 00000098H.0 DATA     BIT       SCON0_RI
*SFR* 00000098H.7 DATA     BIT       SCON0_SMODE
*SFR* 00000098H.3 DATA     BIT       SCON0_TB8
*SFR* 00000098H.1 DATA     BIT       SCON0_TI
*SFR* 000000C8H   DATA     BYTE      SCON1
*SFR* 000000C8H.7 DATA     BIT       SCON1_OVR
*SFR* 000000C8H.6 DATA     BIT       SCON1_PERR
*SFR* 000000C8H.2 DATA     BIT       SCON1_RBX
*SFR* 000000C8H.4 DATA     BIT       SCON1_REN
*SFR* 000000C8H.0 DATA     BIT       SCON1_RI
*SFR* 000000C8H.3 DATA     BIT       SCON1_TBX
LX51 LINKER/LOCATER V4.66.97.0                                                        08/08/2020  16:35:51  PAGE 18


*SFR* 000000C8H.1 DATA     BIT       SCON1_TI
  S29:00000000H   DATA     ---       Self_Straighten
      02000244H   XDATA    ---       Serial
      0200023DH   XDATA    ---       Serial_ISP
*SFR* 000000A7H   DATA     BYTE      SFRPAGE
      0000007BH   DATA     BYTE      SFRPAGE_TEMP
*SFR* 000000CFH   DATA     BYTE      SFRPGCN
*SFR* 000000D7H   DATA     BYTE      SFRSTACK
      01000022H   CODE     ---       SiLabs_Startup
*SFR* 000000D6H   DATA     BYTE      SMB0ADM
*SFR* 000000D7H   DATA     BYTE      SMB0ADR
*SFR* 000000C1H   DATA     BYTE      SMB0CF
*SFR* 000000C0H   DATA     BYTE      SMB0CN0
*SFR* 000000C0H.1 DATA     BIT       SMB0CN0_ACK
*SFR* 000000C0H.3 DATA     BIT       SMB0CN0_ACKRQ
*SFR* 000000C0H.2 DATA     BIT       SMB0CN0_ARBLOST
*SFR* 000000C0H.7 DATA     BIT       SMB0CN0_MASTER
*SFR* 000000C0H.0 DATA     BIT       SMB0CN0_SI
*SFR* 000000C0H.5 DATA     BIT       SMB0CN0_STA
*SFR* 000000C0H.4 DATA     BIT       SMB0CN0_STO
*SFR* 000000C0H.6 DATA     BIT       SMB0CN0_TXMODE
*SFR* 000000C2H   DATA     BYTE      SMB0DAT
*SFR* 000000C3H   DATA     BYTE      SMB0FCN0
*SFR* 000000C4H   DATA     BYTE      SMB0FCN1
*SFR* 000000EFH   DATA     BYTE      SMB0FCT
*SFR* 000000C5H   DATA     BYTE      SMB0RXLN
*SFR* 000000ACH   DATA     BYTE      SMB0TC
*SFR* 00000093H   DATA     BYTE      SMOD1
*SFR* 00000081H   DATA     BYTE      SP
      02000305H   XDATA    ---       Speaker
*SFR* 000000A1H   DATA     BYTE      SPI0CFG
*SFR* 000000A2H   DATA     BYTE      SPI0CKR
*SFR* 000000F8H   DATA     BYTE      SPI0CN0
*SFR* 000000F8H.5 DATA     BIT       SPI0CN0_MODF
*SFR* 000000F8H.2 DATA     BIT       SPI0CN0_NSSMD0
*SFR* 000000F8H.3 DATA     BIT       SPI0CN0_NSSMD1
*SFR* 000000F8H.4 DATA     BIT       SPI0CN0_RXOVRN
*SFR* 000000F8H.0 DATA     BIT       SPI0CN0_SPIEN
*SFR* 000000F8H.7 DATA     BIT       SPI0CN0_SPIF
*SFR* 000000F8H.1 DATA     BIT       SPI0CN0_TXNF
*SFR* 000000F8H.6 DATA     BIT       SPI0CN0_WCOL
*SFR* 000000A3H   DATA     BYTE      SPI0DAT
*SFR* 0000009AH   DATA     BYTE      SPI0FCN0
*SFR* 0000009BH   DATA     BYTE      SPI0FCN1
*SFR* 000000F7H   DATA     BYTE      SPI0FCT
*DEL*:00000000H   CODE     ---       Spk_DriveTheSpeaker
*DEL*:00000000H   CODE     ---       Spk_InitHardware
*DEL*:00000000H   CODE     ---       Spk_InitVariable
*DEL*:00000000H   CODE     ---       Srl_InitVariable
*DEL*:00000000H   CODE     ---       Start1msTimer
      01003225H   CODE     ---       Start_PCA0_Comparator
*DEL*:00000000H   CODE     ---       StartThe32msTimer
      01000026H   CODE     ---       StartTheUart0Timer
*DEL*:00000000H   CODE     ---       Stop1msTimer
      01000003H   CODE     ---       Stop_PCA0_Comparator
*DEL*:00000000H   CODE     ---       StopThe32msTimer
*DEL*:00000000H   CODE     ---       StopTheUart0Timer
      00000020H   DATA     ---       TableHeight
      00000034H   DATA     ---       TableWidth
*SFR* 00000088H   DATA     BYTE      TCON
*SFR* 00000088H.1 DATA     BIT       TCON_IE0
*SFR* 00000088H.3 DATA     BIT       TCON_IE1
LX51 LINKER/LOCATER V4.66.97.0                                                        08/08/2020  16:35:51  PAGE 19


*SFR* 00000088H.0 DATA     BIT       TCON_IT0
*SFR* 00000088H.2 DATA     BIT       TCON_IT1
*SFR* 00000088H.5 DATA     BIT       TCON_TF0
*SFR* 00000088H.7 DATA     BIT       TCON_TF1
*SFR* 00000088H.4 DATA     BIT       TCON_TR0
*SFR* 00000088H.6 DATA     BIT       TCON_TR1
*SFR* 0000008CH   DATA     BYTE      TH0
*SFR* 0000008DH   DATA     BYTE      TH1
      01000076H   CODE     ---       Time_Init1msTimer
      0100318FH   CODE     ---       Time_Init32msTimer
      010030F6H   CODE     ---       Time_InitAdcTriggerTimer
      01002E64H   CODE     ---       Time_InitPCA0
      0100308BH   CODE     ---       Time_InitTheDelayTimer
      01003065H   CODE     ---       Time_InitUart0Timer
*DEL*:00000000H   CODE     ---       Time_InitVariable
      0100320FH   CODE     ---       Time_StartAdcTrigger
      01003232H   CODE     ---       Time_StopAdcTrigger
      01000051H   CODE     ---       TIMER0_ISR
      01002A68H   CODE     ---       TIMER2_ISR
      01002EC4H   CODE     ---       TIMER3_ISR
      01003268H   CODE     ---       TIMER4_ISR
*SFR* 0000008AH   DATA     BYTE      TL0
*SFR* 0000008BH   DATA     BYTE      TL1
*SFR* 00000089H   DATA     BYTE      TMOD
*SFR* 000000CCH   DATA     WORD      TMR2
*SFR* 000000C8H   DATA     BYTE      TMR2CN0
*SFR* 000000C8H.3 DATA     BIT       TMR2CN0_T2SPLIT
*SFR* 000000C8H.0 DATA     BIT       TMR2CN0_T2XCLK0
*SFR* 000000C8H.1 DATA     BIT       TMR2CN0_T2XCLK1
*SFR* 000000C8H.4 DATA     BIT       TMR2CN0_TF2CEN
*SFR* 000000C8H.7 DATA     BIT       TMR2CN0_TF2H
*SFR* 000000C8H.6 DATA     BIT       TMR2CN0_TF2L
*SFR* 000000C8H.5 DATA     BIT       TMR2CN0_TF2LEN
*SFR* 000000C8H.2 DATA     BIT       TMR2CN0_TR2
*SFR* 000000FDH   DATA     BYTE      TMR2CN1
*SFR* 000000CDH   DATA     BYTE      TMR2H
*SFR* 000000CCH   DATA     BYTE      TMR2L
*SFR* 000000CAH   DATA     WORD      TMR2RL
*SFR* 000000CBH   DATA     BYTE      TMR2RLH
*SFR* 000000CAH   DATA     BYTE      TMR2RLL
*SFR* 00000094H   DATA     WORD      TMR3
*SFR* 00000091H   DATA     BYTE      TMR3CN0
*SFR* 000000FEH   DATA     BYTE      TMR3CN1
*SFR* 00000095H   DATA     BYTE      TMR3H
*SFR* 00000094H   DATA     BYTE      TMR3L
*SFR* 00000092H   DATA     WORD      TMR3RL
*SFR* 00000093H   DATA     BYTE      TMR3RLH
*SFR* 00000092H   DATA     BYTE      TMR3RLL
*SFR* 000000A4H   DATA     WORD      TMR4
*SFR* 00000098H   DATA     BYTE      TMR4CN0
*SFR* 00000098H.3 DATA     BIT       TMR4CN0_T4SPLIT
*SFR* 00000098H.0 DATA     BIT       TMR4CN0_T4XCLK0
*SFR* 00000098H.1 DATA     BIT       TMR4CN0_T4XCLK1
*SFR* 00000098H.4 DATA     BIT       TMR4CN0_TF4CEN
*SFR* 00000098H.7 DATA     BIT       TMR4CN0_TF4H
*SFR* 00000098H.6 DATA     BIT       TMR4CN0_TF4L
*SFR* 00000098H.5 DATA     BIT       TMR4CN0_TF4LEN
*SFR* 00000098H.2 DATA     BIT       TMR4CN0_TR4
*SFR* 000000FFH   DATA     BYTE      TMR4CN1
*SFR* 000000A5H   DATA     BYTE      TMR4H
*SFR* 000000A4H   DATA     BYTE      TMR4L
*SFR* 000000A2H   DATA     WORD      TMR4RL
LX51 LINKER/LOCATER V4.66.97.0                                                        08/08/2020  16:35:51  PAGE 20


*SFR* 000000A3H   DATA     BYTE      TMR4RLH
*SFR* 000000A2H   DATA     BYTE      TMR4RLL
*DEL*:00000000H   CODE     ---       UART0_DataInit
      010031ABH   CODE     ---       Uart0_Init
*DEL*:00000000H   CODE     ---       UART0_INTRX_Dis
*DEL*:00000000H   CODE     ---       UART0_INTRX_En
      01002ACCH   CODE     ---       UART0_ISR
*DEL*:00000000H   CODE     ---       UART0_ModeDataH
*DEL*:00000000H   CODE     ---       UART0_ModeDataL
      010031DFH   CODE     ---       UART0_Moudle_Dis
 S130:00000022H   DATA     BYTE      Uart0RX_OK_Flag
 S130:00000008H   DATA     BYTE      Uart0TX_ALL_Flag
 S130:00000021H   DATA     BYTE      Uart0TX_NOTOK_Flag
*SFR* 0000009DH   DATA     BYTE      UART1FCN0
*SFR* 000000D8H   DATA     BYTE      UART1FCN1
*SFR* 000000D8H.3 DATA     BIT       UART1FCN1_RFRQ
*SFR* 000000D8H.0 DATA     BIT       UART1FCN1_RIE
*SFR* 000000D8H.1 DATA     BIT       UART1FCN1_RXTO0
*SFR* 000000D8H.2 DATA     BIT       UART1FCN1_RXTO1
*SFR* 000000D8H.7 DATA     BIT       UART1FCN1_TFRQ
*SFR* 000000D8H.4 DATA     BIT       UART1FCN1_TIE
*SFR* 000000D8H.5 DATA     BIT       UART1FCN1_TXHOLD
*SFR* 000000D8H.6 DATA     BIT       UART1FCN1_TXNF
*SFR* 000000FAH   DATA     BYTE      UART1FCT
*SFR* 0000009EH   DATA     BYTE      UART1LIN
*SFR* 000000FFH   DATA     BYTE      VDM0CN
      020002F7H   XDATA    WORD      w50msCnt
*SFR* 00000097H   DATA     BYTE      WDTCN
      020002DCH   XDATA    WORD      wPowerValue
      020002EEH   XDATA    WORD      wSampleValue
      020002F9H   XDATA    WORD      wSensorCheckTime
      020002F0H   XDATA    WORD      wTime
      020002F4H   XDATA    WORD      wTimeMs
*SFR* 000000E1H   DATA     BYTE      XBR0
*SFR* 000000E2H   DATA     BYTE      XBR1
*SFR* 000000E3H   DATA     BYTE      XBR2



UNRESOLVED EXTERNAL SYMBOLS:
   ADC_IDSample



IGNORED SEGMENTS:
   ?DT?ADC
   ?DT?COMMAND
   ?DT?UART



SYMBOL TABLE OF MODULE:  DFSK-F516-EFM8BB21F16G-C-QFN20_20200107.OMF.CRBUILD (ADC)

      VALUE       REP       CLASS    TYPE      SYMBOL NAME
      ====================================================
      ---         MODULE    ---      ---       ADC
      020002EEH   PUBLIC    XDATA    WORD      wSampleValue
  S11:00000012H   PUBLIC    DATA     WORD      RR_MAX_VALUE
      020002EDH   PUBLIC    XDATA    BYTE      bRadar_PoweFlag
  S11:00000010H   PUBLIC    DATA     WORD      RR_MIN_VALUE
      020002E0H   PUBLIC    XDATA    ---       ADC
      020002DFH   PUBLIC    XDATA    BYTE      bySampleTimes
LX51 LINKER/LOCATER V4.66.97.0                                                        08/08/2020  16:35:51  PAGE 21


  S11:0000000EH   PUBLIC    DATA     WORD      RL_MAX_VALUE
  S11:0000000CH   PUBLIC    DATA     WORD      RL_MIN_VALUE
  S11:0000000AH   PUBLIC    DATA     WORD      FR_MAX_VALUE
  S11:00000008H   PUBLIC    DATA     WORD      FR_MIN_VALUE
      020002DEH   PUBLIC    XDATA    BYTE      bDetectFlag
  S11:00000006H   PUBLIC    DATA     WORD      FL_MAX_VALUE
  S11:00000004H   PUBLIC    DATA     WORD      FL_MIN_VALUE
  S11:00000002H   PUBLIC    DATA     WORD      RML_MAX_VALUE
  S11:00000000H   PUBLIC    DATA     WORD      RML_MIN_VALUE
      020002DCH   PUBLIC    XDATA    WORD      wPowerValue
      020002DBH   PUBLIC    XDATA    BYTE      bWorkFlag
      0100004EH   PUBLIC    CODE     ---       ADC_WINDOW_ISR
      0100275CH   PUBLIC    CODE     ---       ADC_ISR
      01002FF3H   PUBLIC    CODE     ---       ADC_InitDetect
      0100324BH   PUBLIC    CODE     ---       ADC_Stop
      0100005EH   PUBLIC    CODE     ---       ADC_Start
      010024F5H   PUBLIC    CODE     ---       ADC_ReadID
      01002C34H   PUBLIC    CODE     ---       ADC_CALUE
      0100323FH   PUBLIC    CODE     ---       ADC_PowerSamplingInit
      000000A2H   SFRSYM    DATA     BYTE      SPI0CKR
      00000080H   SFRSYM    DATA     BYTE      P0
      000000C8H.6 SFRSYM    DATA     BIT       SCON1_PERR
      000000D0H.2 SFRSYM    DATA     BIT       PSW_OV
      00000090H   SFRSYM    DATA     BYTE      P1
      000000F8H.1 SFRSYM    DATA     BIT       SPI0CN0_TXNF
      00000097H   SFRSYM    DATA     BYTE      WDTCN
      000000A0H   SFRSYM    DATA     BYTE      P2
      000000B0H   SFRSYM    DATA     BYTE      P3
      000000BCH   SFRSYM    DATA     BYTE      ADC0CF
      000000C0H.7 SFRSYM    DATA     BIT       SMB0CN0_MASTER
      000000F9H   SFRSYM    DATA     WORD      PCA0
      000000E6H   SFRSYM    DATA     BYTE      EIE1
      000000C0H.1 SFRSYM    DATA     BIT       SMB0CN0_ACK
      000000CEH   SFRSYM    DATA     BYTE      EIE2
      0000008FH   SFRSYM    DATA     BYTE      PSCTL
      000000E4H   SFRSYM    DATA     BYTE      IT01CF
      000000C0H.6 SFRSYM    DATA     BIT       SMB0CN0_TXMODE
      000000ADH   SFRSYM    DATA     BYTE      DERIVID
      000000A7H   SFRSYM    DATA     BYTE      SFRPAGE
      000000A4H   SFRSYM    DATA     BYTE      P0MDOUT
      000000A5H   SFRSYM    DATA     BYTE      P1MDOUT
      000000E8H.5 SFRSYM    DATA     BIT       ADC0CN0_ADINT
      000000CBH   SFRSYM    DATA     BYTE      TMR2RLH
      000000A6H   SFRSYM    DATA     BYTE      P2MDOUT
      000000A8H   SFRSYM    DATA     BYTE      IE
      00000093H   SFRSYM    DATA     BYTE      TMR3RLH
      0000009CH   SFRSYM    DATA     BYTE      P3MDOUT
      000000A3H   SFRSYM    DATA     BYTE      TMR4RLH
      000000F3H   SFRSYM    DATA     BYTE      EIP1
      000000F4H   SFRSYM    DATA     BYTE      EIP2
      00000098H.2 SFRSYM    DATA     BIT       SCON0_RB8
      000000CAH   SFRSYM    DATA     BYTE      TMR2RLL
      000000FCH   SFRSYM    DATA     BYTE      PCA0CPH0
      00000092H   SFRSYM    DATA     BYTE      TMR3RLL
      000000EAH   SFRSYM    DATA     BYTE      PCA0CPH1
      00000098H.3 SFRSYM    DATA     BIT       SCON0_TB8
      000000F0H.0 SFRSYM    DATA     BIT       B_B0
      00000082H   SFRSYM    DATA     WORD      DP
      000000A2H   SFRSYM    DATA     BYTE      TMR4RLL
      000000ECH   SFRSYM    DATA     BYTE      PCA0CPH2
      000000F0H.1 SFRSYM    DATA     BIT       B_B1
      000000C3H   SFRSYM    DATA     WORD      ADC0GT
LX51 LINKER/LOCATER V4.66.97.0                                                        08/08/2020  16:35:51  PAGE 22


      000000BDH   SFRSYM    DATA     BYTE      I2C0SLAD
      000000D8H.3 SFRSYM    DATA     BIT       UART1FCN1_RFRQ
      000000F0H.2 SFRSYM    DATA     BIT       B_B2
      000000CFH   SFRSYM    DATA     BYTE      SFRPGCN
      000000FBH   SFRSYM    DATA     BYTE      PCA0CPL0
      000000F0H.3 SFRSYM    DATA     BIT       B_B3
      000000D9H   SFRSYM    DATA     BYTE      PCA0MD
      000000DAH   SFRSYM    DATA     BYTE      PCA0CPM0
      000000E9H   SFRSYM    DATA     BYTE      PCA0CPL1
      000000D8H.7 SFRSYM    DATA     BIT       UART1FCN1_TFRQ
      000000F0H.4 SFRSYM    DATA     BIT       B_B4
      000000DBH   SFRSYM    DATA     BYTE      PCA0CPM1
      000000EBH   SFRSYM    DATA     BYTE      PCA0CPL2
      000000F0H.5 SFRSYM    DATA     BIT       B_B5
      000000DCH   SFRSYM    DATA     BYTE      PCA0CPM2
      000000B8H   SFRSYM    DATA     BYTE      IP
      000000B9H   SFRSYM    DATA     BYTE      ADC0TK
      000000F0H.6 SFRSYM    DATA     BIT       B_B6
      000000C5H   SFRSYM    DATA     WORD      ADC0LT
      000000D8H.6 SFRSYM    DATA     BIT       UART1FCN1_TXNF
      00000098H.5 SFRSYM    DATA     BIT       SCON0_MCE
      000000F0H.7 SFRSYM    DATA     BIT       B_B7
      000000C3H   SFRSYM    DATA     BYTE      SMB0FCN0
      000000E1H   SFRSYM    DATA     BYTE      XBR0
      000000C4H   SFRSYM    DATA     BYTE      SMB0FCN1
      000000C1H   SFRSYM    DATA     BYTE      SMB0CF
      000000E2H   SFRSYM    DATA     BYTE      XBR1
      000000C1H   SFRSYM    DATA     BYTE      PFE0CN
      000000E7H   SFRSYM    DATA     BYTE      EMI0CN
      000000C0H.5 SFRSYM    DATA     BIT       SMB0CN0_STA
      000000E3H   SFRSYM    DATA     BYTE      XBR2
      000000BBH   SFRSYM    DATA     BYTE      ADC0MX
      000000E0H.0 SFRSYM    DATA     BIT       ACC_ACC0
      000000D1H   SFRSYM    DATA     BYTE      REF0CN
      0000008EH   SFRSYM    DATA     BYTE      CKCON0
      000000E0H.1 SFRSYM    DATA     BIT       ACC_ACC1
      000000C9H   SFRSYM    DATA     BYTE      REG0CN
      000000DDH   SFRSYM    DATA     BYTE      CRC0IN
      000000A6H   SFRSYM    DATA     BYTE      CKCON1
      000000C8H.2 SFRSYM    DATA     BIT       TMR2CN0_TR2
      000000E0H.2 SFRSYM    DATA     BIT       ACC_ACC2
      000000C6H   SFRSYM    DATA     BYTE      REG1CN
      000000E0H.3 SFRSYM    DATA     BIT       ACC_ACC3
      00000081H   SFRSYM    DATA     BYTE      SP
      0000009DH   SFRSYM    DATA     BYTE      CMP0MD
      000000E0H.4 SFRSYM    DATA     BIT       ACC_ACC4
      000000B1H   SFRSYM    DATA     BYTE      LFO0CN
      000000ABH   SFRSYM    DATA     BYTE      CMP1MD
      000000D8H.0 SFRSYM    DATA     BIT       PCA0CN0_CCF0
      000000E0H.5 SFRSYM    DATA     BIT       ACC_ACC5
      00000098H.2 SFRSYM    DATA     BIT       TMR4CN0_TR4
      000000D8H.1 SFRSYM    DATA     BIT       PCA0CN0_CCF1
      000000E0H.6 SFRSYM    DATA     BIT       ACC_ACC6
      000000CCH   SFRSYM    DATA     WORD      TMR2
      0000009AH   SFRSYM    DATA     BYTE      SPI0FCN0
      000000D8H.2 SFRSYM    DATA     BIT       PCA0CN0_CCF2
      000000E0H.7 SFRSYM    DATA     BIT       ACC_ACC7
      00000094H   SFRSYM    DATA     WORD      TMR3
      0000009BH   SFRSYM    DATA     BYTE      SPI0FCN1
      000000A4H   SFRSYM    DATA     WORD      TMR4
      00000094H   SFRSYM    DATA     BYTE      SBCON1
      000000C0H.3 SFRSYM    DATA     BIT       SMB0CN0_ACKRQ
LX51 LINKER/LOCATER V4.66.97.0                                                        08/08/2020  16:35:51  PAGE 23


      000000FFH   SFRSYM    DATA     BYTE      VDM0CN
      000000F1H   SFRSYM    DATA     BYTE      P0MDIN
      00000098H.4 SFRSYM    DATA     BIT       SCON0_REN
      000000ACH   SFRSYM    DATA     BYTE      SMB0TC
      000000F2H   SFRSYM    DATA     BYTE      P1MDIN
      000000C8H.4 SFRSYM    DATA     BIT       SCON1_REN
      000000F3H   SFRSYM    DATA     BYTE      P2MDIN
      000000C0H.4 SFRSYM    DATA     BIT       SMB0CN0_STO
      000000F4H   SFRSYM    DATA     BYTE      P3MDIN
      000000B9H   SFRSYM    DATA     BYTE      I2C0STAT
      000000BBH   SFRSYM    DATA     BYTE      I2C0DOUT
      00000096H   SFRSYM    DATA     BYTE      SBRLH1
      000000FEH   SFRSYM    DATA     BYTE      P0MASK
      000000D8H.5 SFRSYM    DATA     BIT       UART1FCN1_TXHOLD
      000000EEH   SFRSYM    DATA     BYTE      P1MASK
      000000FCH   SFRSYM    DATA     BYTE      P2MASK
      000000D0H.3 SFRSYM    DATA     BIT       PSW_RS0
      000000D8H.7 SFRSYM    DATA     BIT       PCA0CN0_CF
      0000009EH   SFRSYM    DATA     BYTE      PCA0CENT
      000000BAH   SFRSYM    DATA     BYTE      I2C0CN0
      000000D2H   SFRSYM    DATA     BYTE      CRC0ST
      000000F8H.4 SFRSYM    DATA     BIT       SPI0CN0_RXOVRN
      000000D0H.4 SFRSYM    DATA     BIT       PSW_RS1
      00000095H   SFRSYM    DATA     BYTE      SBRLL1
      000000C8H.2 SFRSYM    DATA     BIT       SCON1_RBX
      000000C8H.0 SFRSYM    DATA     BIT       TMR2CN0_T2XCLK0
      000000C8H.1 SFRSYM    DATA     BIT       TMR2CN0_T2XCLK1
      000000C8H.3 SFRSYM    DATA     BIT       SCON1_TBX
      000000E8H.7 SFRSYM    DATA     BIT       ADC0CN0_ADEN
      00000089H   SFRSYM    DATA     BYTE      TMOD
      00000088H   SFRSYM    DATA     BYTE      TCON
      000000CFH   SFRSYM    DATA     BYTE      CRC0FLIP
      000000D0H.0 SFRSYM    DATA     BIT       PSW_PARITY
      000000A8H.4 SFRSYM    DATA     BIT       IE_ES0
      0000009FH   SFRSYM    DATA     BYTE      CMP0MX
      00000098H.0 SFRSYM    DATA     BIT       TMR4CN0_T4XCLK0
      000000A8H.1 SFRSYM    DATA     BIT       IE_ET0
      000000AAH   SFRSYM    DATA     BYTE      CMP1MX
      00000098H.1 SFRSYM    DATA     BIT       TMR4CN0_T4XCLK1
      000000A8H.3 SFRSYM    DATA     BIT       IE_ET1
      000000D4H   SFRSYM    DATA     BYTE      P0SKIP
      000000D8H.0 SFRSYM    DATA     BIT       UART1FCN1_RIE
      000000A8H.5 SFRSYM    DATA     BIT       IE_ET2
      000000D5H   SFRSYM    DATA     BYTE      P1SKIP
      000000CCH   SFRSYM    DATA     BYTE      P2SKIP
      000000E8H   SFRSYM    DATA     BYTE      ADC0CN0
      000000D8H.4 SFRSYM    DATA     BIT       UART1FCN1_TIE
      000000A8H.0 SFRSYM    DATA     BIT       IE_EX0
      000000B2H   SFRSYM    DATA     BYTE      ADC0CN1
      000000D8H.6 SFRSYM    DATA     BIT       PCA0CN0_CR
      000000A8H.2 SFRSYM    DATA     BIT       IE_EX1
      000000C8H.7 SFRSYM    DATA     BIT       SCON1_OVR
      00000098H.7 SFRSYM    DATA     BIT       SCON0_SMODE
      000000B5H   SFRSYM    DATA     BYTE      DEVICEID
      000000A9H   SFRSYM    DATA     BYTE      CLKSEL
      000000F8H.0 SFRSYM    DATA     BIT       SPI0CN0_SPIEN
      000000F0H   SFRSYM    DATA     BYTE      B
      000000BEH   SFRSYM    DATA     BYTE      ADC0H
      000000E8H.6 SFRSYM    DATA     BIT       ADC0CN0_ADBMEN
      000000CAH   SFRSYM    DATA     WORD      TMR2RL
      000000BDH   SFRSYM    DATA     BYTE      ADC0L
      00000092H   SFRSYM    DATA     WORD      TMR3RL
LX51 LINKER/LOCATER V4.66.97.0                                                        08/08/2020  16:35:51  PAGE 24


      000000A2H   SFRSYM    DATA     WORD      TMR4RL
      000000D8H   SFRSYM    DATA     BYTE      PCA0CN0
      000000E0H   SFRSYM    DATA     BYTE      ACC
      000000FBH   SFRSYM    DATA     WORD      PCA0CP0
      000000E9H   SFRSYM    DATA     WORD      PCA0CP1
      000000EBH   SFRSYM    DATA     WORD      PCA0CP2
      000000BCH   SFRSYM    DATA     BYTE      I2C0DIN
      000000CEH   SFRSYM    DATA     BYTE      CRC0CN0
      0000008CH   SFRSYM    DATA     BYTE      TH0
      00000086H   SFRSYM    DATA     BYTE      CRC0CN1
      000000B8H.4 SFRSYM    DATA     BIT       IP_PS0
      000000FAH   SFRSYM    DATA     BYTE      UART1FCT
      0000008DH   SFRSYM    DATA     BYTE      TH1
      000000FAH   SFRSYM    DATA     BYTE      PCA0H
      000000F5H   SFRSYM    DATA     BYTE      I2C0FCT
      000000B8H.1 SFRSYM    DATA     BIT       IP_PT0
      000000B8H.3 SFRSYM    DATA     BIT       IP_PT1
      000000C0H.2 SFRSYM    DATA     BIT       SMB0CN0_ARBLOST
      000000B8H.5 SFRSYM    DATA     BIT       IP_PT2
      0000008AH   SFRSYM    DATA     BYTE      TL0
      000000D0H.5 SFRSYM    DATA     BIT       PSW_F0
      000000A8H.6 SFRSYM    DATA     BIT       IE_ESPI0
      0000008BH   SFRSYM    DATA     BYTE      TL1
      000000F9H   SFRSYM    DATA     BYTE      PCA0L
      000000C0H.0 SFRSYM    DATA     BIT       SMB0CN0_SI
      000000D0H.1 SFRSYM    DATA     BIT       PSW_F1
      00000080H.0 SFRSYM    DATA     BIT       P0_B0
      000000B8H.0 SFRSYM    DATA     BIT       IP_PX0
      00000090H.0 SFRSYM    DATA     BIT       P1_B0
      00000080H.1 SFRSYM    DATA     BIT       P0_B1
      000000B8H.2 SFRSYM    DATA     BIT       IP_PX1
      0000009EH   SFRSYM    DATA     BYTE      UART1LIN
      0000009BH   SFRSYM    DATA     BYTE      CMP0CN0
      00000088H.1 SFRSYM    DATA     BIT       TCON_IE0
      000000A0H.0 SFRSYM    DATA     BIT       P2_B0
      00000090H.1 SFRSYM    DATA     BIT       P1_B1
      00000080H.2 SFRSYM    DATA     BIT       P0_B2
      000000BFH   SFRSYM    DATA     BYTE      CMP1CN0
      00000099H   SFRSYM    DATA     BYTE      CMP0CN1
      00000088H.3 SFRSYM    DATA     BIT       TCON_IE1
      000000B0H.0 SFRSYM    DATA     BIT       P3_B0
      000000A0H.1 SFRSYM    DATA     BIT       P2_B1
      00000090H.2 SFRSYM    DATA     BIT       P1_B2
      00000080H.3 SFRSYM    DATA     BIT       P0_B3
      000000C0H   SFRSYM    DATA     BYTE      SMB0CN0
      000000ACH   SFRSYM    DATA     BYTE      CMP1CN1
      000000B0H.1 SFRSYM    DATA     BIT       P3_B1
      000000A0H.2 SFRSYM    DATA     BIT       P2_B2
      00000090H.3 SFRSYM    DATA     BIT       P1_B3
      00000080H.4 SFRSYM    DATA     BIT       P0_B4
      000000A0H.3 SFRSYM    DATA     BIT       P2_B3
      00000090H.4 SFRSYM    DATA     BIT       P1_B4
      00000080H.5 SFRSYM    DATA     BIT       P0_B5
      000000D8H.1 SFRSYM    DATA     BIT       UART1FCN1_RXTO0
      00000090H.5 SFRSYM    DATA     BIT       P1_B5
      00000080H.6 SFRSYM    DATA     BIT       P0_B6
      000000F5H   SFRSYM    DATA     BYTE      EIP1H
      000000D8H.2 SFRSYM    DATA     BIT       UART1FCN1_RXTO1
      00000090H.6 SFRSYM    DATA     BIT       P1_B6
      00000080H.7 SFRSYM    DATA     BIT       P0_B7
      000000C5H   SFRSYM    DATA     BYTE      SMB0RXLN
      000000F6H   SFRSYM    DATA     BYTE      EIP2H
LX51 LINKER/LOCATER V4.66.97.0                                                        08/08/2020  16:35:51  PAGE 25


      00000090H.7 SFRSYM    DATA     BIT       P1_B7
      00000083H   SFRSYM    DATA     BYTE      DPH
      000000C4H   SFRSYM    DATA     BYTE      ADC0GTH
      000000C8H.7 SFRSYM    DATA     BIT       TMR2CN0_TF2H
      000000C8H.3 SFRSYM    DATA     BIT       TMR2CN0_T2SPLIT
      000000D0H.6 SFRSYM    DATA     BIT       PSW_AC
      000000F8H   SFRSYM    DATA     BYTE      SPI0CN0
      000000C7H   SFRSYM    DATA     BYTE      HFO0CAL
      00000088H.5 SFRSYM    DATA     BIT       TCON_TF0
      00000098H.0 SFRSYM    DATA     BIT       SCON0_RI
      000000D6H   SFRSYM    DATA     BYTE      HFO1CAL
      00000082H   SFRSYM    DATA     BYTE      DPL
      00000088H.7 SFRSYM    DATA     BIT       TCON_TF1
      000000C8H.0 SFRSYM    DATA     BIT       SCON1_RI
      00000099H   SFRSYM    DATA     BYTE      SBUF0
      00000087H   SFRSYM    DATA     BYTE      PCON0
      000000F2H   SFRSYM    DATA     BYTE      IPH
      000000C3H   SFRSYM    DATA     BYTE      ADC0GTL
      00000098H.7 SFRSYM    DATA     BIT       TMR4CN0_TF4H
      00000098H.3 SFRSYM    DATA     BIT       TMR4CN0_T4SPLIT
      000000C8H.6 SFRSYM    DATA     BIT       TMR2CN0_TF2L
      00000098H.1 SFRSYM    DATA     BIT       SCON0_TI
      000000E8H.0 SFRSYM    DATA     BIT       ADC0CN0_ADCM0
      00000092H   SFRSYM    DATA     BYTE      SBUF1
      0000009AH   SFRSYM    DATA     BYTE      PCON1
      000000C6H   SFRSYM    DATA     BYTE      ADC0LTH
      00000088H.0 SFRSYM    DATA     BIT       TCON_IT0
      000000C8H.1 SFRSYM    DATA     BIT       SCON1_TI
      000000E8H.1 SFRSYM    DATA     BIT       ADC0CN0_ADCM1
      000000EFH   SFRSYM    DATA     BYTE      RSTSRC
      000000FDH   SFRSYM    DATA     BYTE      P0MAT
      000000DEH   SFRSYM    DATA     BYTE      CRC0DAT
      00000088H.2 SFRSYM    DATA     BIT       TCON_IT1
      000000E8H.2 SFRSYM    DATA     BIT       ADC0CN0_ADCM2
      000000D7H   SFRSYM    DATA     BYTE      SFRSTACK
      00000098H   SFRSYM    DATA     BYTE      SCON0
      000000F6H   SFRSYM    DATA     BYTE      PRTDRV
      000000EDH   SFRSYM    DATA     BYTE      P1MAT
      000000E8H.3 SFRSYM    DATA     BIT       ADC0CN0_ADWINT
      00000095H   SFRSYM    DATA     WORD      SBRL1
      00000093H   SFRSYM    DATA     BYTE      SMOD1
      000000C8H   SFRSYM    DATA     BYTE      SCON1
      000000FBH   SFRSYM    DATA     BYTE      P2MAT
      00000098H.6 SFRSYM    DATA     BIT       TMR4CN0_TF4L
      000000E8H.4 SFRSYM    DATA     BIT       ADC0CN0_ADBUSY
      000000D6H   SFRSYM    DATA     BYTE      SMB0ADM
      000000C5H   SFRSYM    DATA     BYTE      ADC0LTL
      000000F8H.5 SFRSYM    DATA     BIT       SPI0CN0_MODF
      000000B8H.6 SFRSYM    DATA     BIT       IP_PSPI0
      0000009CH   SFRSYM    DATA     BYTE      PCA0CLR
      000000C8H   SFRSYM    DATA     BYTE      TMR2CN0
      00000091H   SFRSYM    DATA     BYTE      TMR3CN0
      000000FDH   SFRSYM    DATA     BYTE      TMR2CN1
      00000098H   SFRSYM    DATA     BYTE      TMR4CN0
      000000FEH   SFRSYM    DATA     BYTE      TMR3CN1
      000000FFH   SFRSYM    DATA     BYTE      TMR4CN1
      000000D7H   SFRSYM    DATA     BYTE      SMB0ADR
      00000088H.4 SFRSYM    DATA     BIT       TCON_TR0
      000000C8H.4 SFRSYM    DATA     BIT       TMR2CN0_TF2CEN
      00000088H.6 SFRSYM    DATA     BIT       TCON_TR1
      000000C2H   SFRSYM    DATA     BYTE      SMB0DAT
      000000CDH   SFRSYM    DATA     BYTE      TMR2H
LX51 LINKER/LOCATER V4.66.97.0                                                        08/08/2020  16:35:51  PAGE 26


      000000A1H   SFRSYM    DATA     BYTE      SPI0CFG
      00000095H   SFRSYM    DATA     BYTE      TMR3H
      000000EFH   SFRSYM    DATA     BYTE      HFOCN
      000000D3H   SFRSYM    DATA     BYTE      CRC0CNT
      000000A5H   SFRSYM    DATA     BYTE      TMR4H
      00000098H.4 SFRSYM    DATA     BIT       TMR4CN0_TF4CEN
      000000EFH   SFRSYM    DATA     BYTE      SMB0FCT
      00000096H   SFRSYM    DATA     BYTE      PCA0POL
      000000CCH   SFRSYM    DATA     BYTE      TMR2L
      000000F8H.7 SFRSYM    DATA     BIT       SPI0CN0_SPIF
      00000094H   SFRSYM    DATA     BYTE      TMR3L
      000000DFH   SFRSYM    DATA     BYTE      ADC0PWR
      000000A8H.7 SFRSYM    DATA     BIT       IE_EA
      000000A4H   SFRSYM    DATA     BYTE      TMR4L
      000000C8H.5 SFRSYM    DATA     BIT       TMR2CN0_TF2LEN
      000000F8H.6 SFRSYM    DATA     BIT       SPI0CN0_WCOL
      000000F8H.2 SFRSYM    DATA     BIT       SPI0CN0_NSSMD0
      000000D0H.7 SFRSYM    DATA     BIT       PSW_CY
      0000009DH   SFRSYM    DATA     BYTE      UART1FCN0
      000000A3H   SFRSYM    DATA     BYTE      SPI0DAT
      000000ADH   SFRSYM    DATA     BYTE      I2C0FCN0
      000000F8H.3 SFRSYM    DATA     BIT       SPI0CN0_NSSMD1
      000000BDH   SFRSYM    DATA     WORD      ADC0
      000000D8H   SFRSYM    DATA     BYTE      UART1FCN1
      000000ABH   SFRSYM    DATA     BYTE      I2C0FCN1
      00000098H.5 SFRSYM    DATA     BIT       TMR4CN0_TF4LEN
      000000D0H   SFRSYM    DATA     BYTE      PSW
      000000F7H   SFRSYM    DATA     BYTE      PCA0PWM
      000000F7H   SFRSYM    DATA     BYTE      SPI0FCT
      000000B6H   SFRSYM    DATA     BYTE      REVID
      000000B7H   SFRSYM    DATA     BYTE      FLKEY
      000000B3H   SFRSYM    DATA     BYTE      ADC0AC

      010026CBH   BLOCK     CODE     ---       LVL=0
      ---         BLOCKEND  ---      ---       LVL=0

      0100323FH   BLOCK     CODE     ---       LVL=0
      0100323FH   LINE      CODE     ---       #54
      0100323FH   LINE      CODE     ---       #55
      0100323FH   LINE      CODE     ---       #56
      0100323FH   LINE      CODE     ---       #57
      0100323FH   LINE      CODE     ---       #58
      0100323FH   LINE      CODE     ---       #59
      0100323FH   LINE      CODE     ---       #60
      0100323FH   LINE      CODE     ---       #65
      0100323FH   LINE      CODE     ---       #70
      0100323FH   LINE      CODE     ---       #75
      0100323FH   LINE      CODE     ---       #76
      0100323FH   LINE      CODE     ---       #77
      0100323FH   LINE      CODE     ---       #78
      0100323FH   LINE      CODE     ---       #79
      01003242H   LINE      CODE     ---       #80
      01003245H   LINE      CODE     ---       #81
      01003245H   LINE      CODE     ---       #88
      01003245H   LINE      CODE     ---       #89
      01003245H   LINE      CODE     ---       #90
      01003248H   LINE      CODE     ---       #92
      ---         BLOCKEND  ---      ---       LVL=0

      01002C34H   BLOCK     CODE     ---       LVL=0
      01002C34H   LINE      CODE     ---       #137
      01002C34H   LINE      CODE     ---       #138
LX51 LINKER/LOCATER V4.66.97.0                                                        08/08/2020  16:35:51  PAGE 27


      01002C34H   LINE      CODE     ---       #139
      01002C39H   LINE      CODE     ---       #140
      01002C4AH   LINE      CODE     ---       #141
      01002C4AH   LINE      CODE     ---       #142
      01002C4CH   LINE      CODE     ---       #143
      01002C4EH   LINE      CODE     ---       #144
      01002C55H   LINE      CODE     ---       #145
      01002C5DH   LINE      CODE     ---       #146
      01002C67H   LINE      CODE     ---       #147
      01002C6AH   LINE      CODE     ---       #148
      01002C80H   LINE      CODE     ---       #149
      ---         BLOCKEND  ---      ---       LVL=0

      010024F5H   BLOCK     CODE     ---       LVL=0
      010024F5H   BLOCK     CODE     NEAR LAB  LVL=1
      00000006H   SYMBOL    DATA     WORD      temp
      ---         BLOCKEND  ---      ---       LVL=1
      010024F5H   LINE      CODE     ---       #176
      010024F5H   LINE      CODE     ---       #177
      010024F5H   LINE      CODE     ---       #186
      010024F8H   LINE      CODE     ---       #187
      010024FBH   LINE      CODE     ---       #188
      010024FEH   LINE      CODE     ---       #189
      01002501H   LINE      CODE     ---       #198
      01002506H   LINE      CODE     ---       #199
      0100250BH   LINE      CODE     ---       #204
      01002513H   LINE      CODE     ---       #205
      0100251CH   LINE      CODE     ---       #206
      0100251CH   LINE      CODE     ---       #207
      01002520H   LINE      CODE     ---       #208
      01002520H   LINE      CODE     ---       #210
      01002524H   LINE      CODE     ---       #211
      0100252AH   LINE      CODE     ---       #216
      01002530H   LINE      CODE     ---       #217
      0100253CH   LINE      CODE     ---       #226
      0100254EH   LINE      CODE     ---       #227
      0100254EH   LINE      CODE     ---       #228
      01002553H   LINE      CODE     ---       #229
      01002553H   LINE      CODE     ---       #236
      01002564H   LINE      CODE     ---       #237
      01002564H   LINE      CODE     ---       #238
      01002564H   LINE      CODE     ---       #239
      01002567H   LINE      CODE     ---       #240
      01002569H   LINE      CODE     ---       #241
      01002569H   LINE      CODE     ---       #242
      0100256CH   LINE      CODE     ---       #243
      0100256FH   LINE      CODE     ---       #250
      01002581H   LINE      CODE     ---       #251
      01002581H   LINE      CODE     ---       #252
      01002587H   LINE      CODE     ---       #253
      01002587H   LINE      CODE     ---       #254
      01002587H   LINE      CODE     ---       #255
      01002589H   LINE      CODE     ---       #256
      ---         BLOCKEND  ---      ---       LVL=0

      0100005EH   BLOCK     CODE     ---       LVL=0
      0100005EH   LINE      CODE     ---       #260
      0100005EH   LINE      CODE     ---       #261
      0100005EH   LINE      CODE     ---       #262
      01000060H   LINE      CODE     ---       #263
      01000062H   LINE      CODE     ---       #264
      01000064H   LINE      CODE     ---       #265
LX51 LINKER/LOCATER V4.66.97.0                                                        08/08/2020  16:35:51  PAGE 28


      0100006AH   LINE      CODE     ---       #266
      ---         BLOCKEND  ---      ---       LVL=0

      0100324BH   BLOCK     CODE     ---       LVL=0
      0100324BH   LINE      CODE     ---       #268
      0100324BH   LINE      CODE     ---       #269
      0100324BH   LINE      CODE     ---       #270
      0100324DH   LINE      CODE     ---       #271
      0100324FH   LINE      CODE     ---       #272
      01003254H   LINE      CODE     ---       #273
      ---         BLOCKEND  ---      ---       LVL=0

      01002FF3H   BLOCK     CODE     ---       LVL=0
      01002FF3H   LINE      CODE     ---       #276
      01002FF3H   LINE      CODE     ---       #277
      01002FF3H   LINE      CODE     ---       #278
      01002FF5H   LINE      CODE     ---       #279
      01002FF7H   LINE      CODE     ---       #280
      01002FF9H   LINE      CODE     ---       #281
      01002FFCH   LINE      CODE     ---       #282
      01002FFFH   LINE      CODE     ---       #287
      01003002H   LINE      CODE     ---       #292
      01003002H   LINE      CODE     ---       #297
      01003002H   LINE      CODE     ---       #298
      01003002H   LINE      CODE     ---       #299
      01003002H   LINE      CODE     ---       #300
      01003002H   LINE      CODE     ---       #301
      01003005H   LINE      CODE     ---       #302
      01003008H   LINE      CODE     ---       #303
      0100300BH   LINE      CODE     ---       #310
      0100300EH   LINE      CODE     ---       #311
      01003011H   LINE      CODE     ---       #312
      01003014H   LINE      CODE     ---       #313
      01003016H   LINE      CODE     ---       #314
      ---         BLOCKEND  ---      ---       LVL=0

      0100275CH   BLOCK     CODE     ---       LVL=0
      01002784H   BLOCK     CODE     NEAR LAB  LVL=1
      00000062H   SYMBOL    DATA     BYTE      i
      00000063H   SYMBOL    DATA     BYTE      Max
      00000064H   SYMBOL    DATA     BYTE      Min
      ---         BLOCKEND  ---      ---       LVL=1
      0100275CH   LINE      CODE     ---       #320
      0100276BH   LINE      CODE     ---       #322
      01002779H   LINE      CODE     ---       #323
      01002779H   LINE      CODE     ---       #324
      0100277CH   LINE      CODE     ---       #325
      01002782H   LINE      CODE     ---       #326
      01002784H   LINE      CODE     ---       #328
      01002784H   LINE      CODE     ---       #330
      01002787H   LINE      CODE     ---       #331
      0100278AH   LINE      CODE     ---       #332
      01002790H   LINE      CODE     ---       #333
      01002795H   LINE      CODE     ---       #334
      010027A2H   LINE      CODE     ---       #335
      010027A2H   LINE      CODE     ---       #336
      010027B5H   LINE      CODE     ---       #337
      010027B7H   LINE      CODE     ---       #338
      010027BDH   LINE      CODE     ---       #339
      010027BFH   LINE      CODE     ---       #340
      010027C3H   LINE      CODE     ---       #341
      010027DBH   LINE      CODE     ---       #342
LX51 LINKER/LOCATER V4.66.97.0                                                        08/08/2020  16:35:51  PAGE 29


      010027DBH   LINE      CODE     ---       #343
      010027DDH   LINE      CODE     ---       #344
      010027DFH   LINE      CODE     ---       #345
      ---         BLOCKEND  ---      ---       LVL=0

      0100004EH   BLOCK     CODE     ---       LVL=0
      0100004EH   LINE      CODE     ---       #351
      0100004EH   LINE      CODE     ---       #353
      01000050H   LINE      CODE     ---       #354
      ---         BLOCKEND  ---      ---       LVL=0

      ---         MODULE    ---      ---       COMMAND
      02000294H   PUBLIC    XDATA    ---       Cmd
  S29:00000000H   PUBLIC    DATA     ---       Self_Straighten
      01002A03H   PUBLIC    CODE     ---       Cmd_SendDistancetoBCM
      01002FCCH   PUBLIC    CODE     ---       Cmd_SendSelfChecktoBCM
      010031C6H   PUBLIC    CODE     ---       Cmd_ClearBuffer
      01002634H   PUBLIC    CODE     ---       _Cmd_NextSensorDet
      010031F8H   PUBLIC    CODE     ---       Cmd_NextSensorSelf
      010015B3H   PUBLIC    CODE     ---       Cmd_DistancetoComInfo
      01001DDBH   PUBLIC    CODE     ---       Cmd_UpdataDistance
      01002B8AH   PUBLIC    CODE     ---       Cmd_SaveData
      010005B7H   PUBLIC    CODE     ---       Cmd_Process
      01003137H   PUBLIC    CODE     ---       Cmd_InitVariable
      000000A2H   SFRSYM    DATA     BYTE      SPI0CKR
      00000080H   SFRSYM    DATA     BYTE      P0
      000000C8H.6 SFRSYM    DATA     BIT       SCON1_PERR
      000000D0H.2 SFRSYM    DATA     BIT       PSW_OV
      00000090H   SFRSYM    DATA     BYTE      P1
      000000F8H.1 SFRSYM    DATA     BIT       SPI0CN0_TXNF
      00000097H   SFRSYM    DATA     BYTE      WDTCN
      000000A0H   SFRSYM    DATA     BYTE      P2
      000000B0H   SFRSYM    DATA     BYTE      P3
      000000BCH   SFRSYM    DATA     BYTE      ADC0CF
      000000C0H.7 SFRSYM    DATA     BIT       SMB0CN0_MASTER
      000000F9H   SFRSYM    DATA     WORD      PCA0
      000000E6H   SFRSYM    DATA     BYTE      EIE1
      000000C0H.1 SFRSYM    DATA     BIT       SMB0CN0_ACK
      000000CEH   SFRSYM    DATA     BYTE      EIE2
      0000008FH   SFRSYM    DATA     BYTE      PSCTL
      000000E4H   SFRSYM    DATA     BYTE      IT01CF
      000000C0H.6 SFRSYM    DATA     BIT       SMB0CN0_TXMODE
      000000ADH   SFRSYM    DATA     BYTE      DERIVID
      000000A7H   SFRSYM    DATA     BYTE      SFRPAGE
      000000A4H   SFRSYM    DATA     BYTE      P0MDOUT
      000000A5H   SFRSYM    DATA     BYTE      P1MDOUT
      000000E8H.5 SFRSYM    DATA     BIT       ADC0CN0_ADINT
      000000CBH   SFRSYM    DATA     BYTE      TMR2RLH
      000000A6H   SFRSYM    DATA     BYTE      P2MDOUT
      000000A8H   SFRSYM    DATA     BYTE      IE
      00000093H   SFRSYM    DATA     BYTE      TMR3RLH
      0000009CH   SFRSYM    DATA     BYTE      P3MDOUT
      000000A3H   SFRSYM    DATA     BYTE      TMR4RLH
      000000F3H   SFRSYM    DATA     BYTE      EIP1
      000000F4H   SFRSYM    DATA     BYTE      EIP2
      00000098H.2 SFRSYM    DATA     BIT       SCON0_RB8
      000000CAH   SFRSYM    DATA     BYTE      TMR2RLL
      000000FCH   SFRSYM    DATA     BYTE      PCA0CPH0
      00000092H   SFRSYM    DATA     BYTE      TMR3RLL
      000000EAH   SFRSYM    DATA     BYTE      PCA0CPH1
      00000098H.3 SFRSYM    DATA     BIT       SCON0_TB8
      000000F0H.0 SFRSYM    DATA     BIT       B_B0
LX51 LINKER/LOCATER V4.66.97.0                                                        08/08/2020  16:35:51  PAGE 30


      00000082H   SFRSYM    DATA     WORD      DP
      000000A2H   SFRSYM    DATA     BYTE      TMR4RLL
      000000ECH   SFRSYM    DATA     BYTE      PCA0CPH2
      000000F0H.1 SFRSYM    DATA     BIT       B_B1
      000000C3H   SFRSYM    DATA     WORD      ADC0GT
      000000BDH   SFRSYM    DATA     BYTE      I2C0SLAD
      000000D8H.3 SFRSYM    DATA     BIT       UART1FCN1_RFRQ
      000000F0H.2 SFRSYM    DATA     BIT       B_B2
      000000CFH   SFRSYM    DATA     BYTE      SFRPGCN
      000000FBH   SFRSYM    DATA     BYTE      PCA0CPL0
      000000F0H.3 SFRSYM    DATA     BIT       B_B3
      000000D9H   SFRSYM    DATA     BYTE      PCA0MD
      000000DAH   SFRSYM    DATA     BYTE      PCA0CPM0
      000000E9H   SFRSYM    DATA     BYTE      PCA0CPL1
      000000D8H.7 SFRSYM    DATA     BIT       UART1FCN1_TFRQ
      000000F0H.4 SFRSYM    DATA     BIT       B_B4
      000000DBH   SFRSYM    DATA     BYTE      PCA0CPM1
      000000EBH   SFRSYM    DATA     BYTE      PCA0CPL2
      000000F0H.5 SFRSYM    DATA     BIT       B_B5
      000000DCH   SFRSYM    DATA     BYTE      PCA0CPM2
      000000B8H   SFRSYM    DATA     BYTE      IP
      000000B9H   SFRSYM    DATA     BYTE      ADC0TK
      000000F0H.6 SFRSYM    DATA     BIT       B_B6
      000000C5H   SFRSYM    DATA     WORD      ADC0LT
      000000D8H.6 SFRSYM    DATA     BIT       UART1FCN1_TXNF
      00000098H.5 SFRSYM    DATA     BIT       SCON0_MCE
      000000F0H.7 SFRSYM    DATA     BIT       B_B7
      000000C3H   SFRSYM    DATA     BYTE      SMB0FCN0
      000000E1H   SFRSYM    DATA     BYTE      XBR0
      000000C4H   SFRSYM    DATA     BYTE      SMB0FCN1
      000000C1H   SFRSYM    DATA     BYTE      SMB0CF
      000000E2H   SFRSYM    DATA     BYTE      XBR1
      000000C1H   SFRSYM    DATA     BYTE      PFE0CN
      000000E7H   SFRSYM    DATA     BYTE      EMI0CN
      000000C0H.5 SFRSYM    DATA     BIT       SMB0CN0_STA
      000000E3H   SFRSYM    DATA     BYTE      XBR2
      000000BBH   SFRSYM    DATA     BYTE      ADC0MX
      000000E0H.0 SFRSYM    DATA     BIT       ACC_ACC0
      000000D1H   SFRSYM    DATA     BYTE      REF0CN
      0000008EH   SFRSYM    DATA     BYTE      CKCON0
      000000E0H.1 SFRSYM    DATA     BIT       ACC_ACC1
      000000C9H   SFRSYM    DATA     BYTE      REG0CN
      000000DDH   SFRSYM    DATA     BYTE      CRC0IN
      000000A6H   SFRSYM    DATA     BYTE      CKCON1
      000000C8H.2 SFRSYM    DATA     BIT       TMR2CN0_TR2
      000000E0H.2 SFRSYM    DATA     BIT       ACC_ACC2
      000000C6H   SFRSYM    DATA     BYTE      REG1CN
      000000E0H.3 SFRSYM    DATA     BIT       ACC_ACC3
      00000081H   SFRSYM    DATA     BYTE      SP
      0000009DH   SFRSYM    DATA     BYTE      CMP0MD
      000000E0H.4 SFRSYM    DATA     BIT       ACC_ACC4
      000000B1H   SFRSYM    DATA     BYTE      LFO0CN
      000000ABH   SFRSYM    DATA     BYTE      CMP1MD
      000000D8H.0 SFRSYM    DATA     BIT       PCA0CN0_CCF0
      000000E0H.5 SFRSYM    DATA     BIT       ACC_ACC5
      00000098H.2 SFRSYM    DATA     BIT       TMR4CN0_TR4
      000000D8H.1 SFRSYM    DATA     BIT       PCA0CN0_CCF1
      000000E0H.6 SFRSYM    DATA     BIT       ACC_ACC6
      000000CCH   SFRSYM    DATA     WORD      TMR2
      0000009AH   SFRSYM    DATA     BYTE      SPI0FCN0
      000000D8H.2 SFRSYM    DATA     BIT       PCA0CN0_CCF2
      000000E0H.7 SFRSYM    DATA     BIT       ACC_ACC7
LX51 LINKER/LOCATER V4.66.97.0                                                        08/08/2020  16:35:51  PAGE 31


      00000094H   SFRSYM    DATA     WORD      TMR3
      0000009BH   SFRSYM    DATA     BYTE      SPI0FCN1
      000000A4H   SFRSYM    DATA     WORD      TMR4
      00000094H   SFRSYM    DATA     BYTE      SBCON1
      000000C0H.3 SFRSYM    DATA     BIT       SMB0CN0_ACKRQ
      000000FFH   SFRSYM    DATA     BYTE      VDM0CN
      000000F1H   SFRSYM    DATA     BYTE      P0MDIN
      00000098H.4 SFRSYM    DATA     BIT       SCON0_REN
      000000ACH   SFRSYM    DATA     BYTE      SMB0TC
      000000F2H   SFRSYM    DATA     BYTE      P1MDIN
      000000C8H.4 SFRSYM    DATA     BIT       SCON1_REN
      000000F3H   SFRSYM    DATA     BYTE      P2MDIN
      000000C0H.4 SFRSYM    DATA     BIT       SMB0CN0_STO
      000000F4H   SFRSYM    DATA     BYTE      P3MDIN
      000000B9H   SFRSYM    DATA     BYTE      I2C0STAT
      000000BBH   SFRSYM    DATA     BYTE      I2C0DOUT
      00000096H   SFRSYM    DATA     BYTE      SBRLH1
      000000FEH   SFRSYM    DATA     BYTE      P0MASK
      000000D8H.5 SFRSYM    DATA     BIT       UART1FCN1_TXHOLD
      000000EEH   SFRSYM    DATA     BYTE      P1MASK
      000000FCH   SFRSYM    DATA     BYTE      P2MASK
      000000D0H.3 SFRSYM    DATA     BIT       PSW_RS0
      000000D8H.7 SFRSYM    DATA     BIT       PCA0CN0_CF
      0000009EH   SFRSYM    DATA     BYTE      PCA0CENT
      000000BAH   SFRSYM    DATA     BYTE      I2C0CN0
      000000D2H   SFRSYM    DATA     BYTE      CRC0ST
      000000F8H.4 SFRSYM    DATA     BIT       SPI0CN0_RXOVRN
      000000D0H.4 SFRSYM    DATA     BIT       PSW_RS1
      00000095H   SFRSYM    DATA     BYTE      SBRLL1
      000000C8H.2 SFRSYM    DATA     BIT       SCON1_RBX
      000000C8H.0 SFRSYM    DATA     BIT       TMR2CN0_T2XCLK0
      000000C8H.1 SFRSYM    DATA     BIT       TMR2CN0_T2XCLK1
      000000C8H.3 SFRSYM    DATA     BIT       SCON1_TBX
      000000E8H.7 SFRSYM    DATA     BIT       ADC0CN0_ADEN
      00000089H   SFRSYM    DATA     BYTE      TMOD
      00000088H   SFRSYM    DATA     BYTE      TCON
      000000CFH   SFRSYM    DATA     BYTE      CRC0FLIP
      000000D0H.0 SFRSYM    DATA     BIT       PSW_PARITY
      000000A8H.4 SFRSYM    DATA     BIT       IE_ES0
      0000009FH   SFRSYM    DATA     BYTE      CMP0MX
      00000098H.0 SFRSYM    DATA     BIT       TMR4CN0_T4XCLK0
      000000A8H.1 SFRSYM    DATA     BIT       IE_ET0
      000000AAH   SFRSYM    DATA     BYTE      CMP1MX
      00000098H.1 SFRSYM    DATA     BIT       TMR4CN0_T4XCLK1
      000000A8H.3 SFRSYM    DATA     BIT       IE_ET1
      000000D4H   SFRSYM    DATA     BYTE      P0SKIP
      000000D8H.0 SFRSYM    DATA     BIT       UART1FCN1_RIE
      000000A8H.5 SFRSYM    DATA     BIT       IE_ET2
      000000D5H   SFRSYM    DATA     BYTE      P1SKIP
      000000CCH   SFRSYM    DATA     BYTE      P2SKIP
      000000E8H   SFRSYM    DATA     BYTE      ADC0CN0
      000000D8H.4 SFRSYM    DATA     BIT       UART1FCN1_TIE
      000000A8H.0 SFRSYM    DATA     BIT       IE_EX0
      000000B2H   SFRSYM    DATA     BYTE      ADC0CN1
      000000D8H.6 SFRSYM    DATA     BIT       PCA0CN0_CR
      000000A8H.2 SFRSYM    DATA     BIT       IE_EX1
      000000C8H.7 SFRSYM    DATA     BIT       SCON1_OVR
      00000098H.7 SFRSYM    DATA     BIT       SCON0_SMODE
      000000B5H   SFRSYM    DATA     BYTE      DEVICEID
      000000A9H   SFRSYM    DATA     BYTE      CLKSEL
      000000F8H.0 SFRSYM    DATA     BIT       SPI0CN0_SPIEN
      000000F0H   SFRSYM    DATA     BYTE      B
LX51 LINKER/LOCATER V4.66.97.0                                                        08/08/2020  16:35:51  PAGE 32


      000000BEH   SFRSYM    DATA     BYTE      ADC0H
      000000E8H.6 SFRSYM    DATA     BIT       ADC0CN0_ADBMEN
      000000CAH   SFRSYM    DATA     WORD      TMR2RL
      000000BDH   SFRSYM    DATA     BYTE      ADC0L
      00000092H   SFRSYM    DATA     WORD      TMR3RL
      000000A2H   SFRSYM    DATA     WORD      TMR4RL
      000000D8H   SFRSYM    DATA     BYTE      PCA0CN0
      000000E0H   SFRSYM    DATA     BYTE      ACC
      000000FBH   SFRSYM    DATA     WORD      PCA0CP0
      000000E9H   SFRSYM    DATA     WORD      PCA0CP1
      000000EBH   SFRSYM    DATA     WORD      PCA0CP2
      000000BCH   SFRSYM    DATA     BYTE      I2C0DIN
      000000CEH   SFRSYM    DATA     BYTE      CRC0CN0
      0000008CH   SFRSYM    DATA     BYTE      TH0
      00000086H   SFRSYM    DATA     BYTE      CRC0CN1
      000000B8H.4 SFRSYM    DATA     BIT       IP_PS0
      000000FAH   SFRSYM    DATA     BYTE      UART1FCT
      0000008DH   SFRSYM    DATA     BYTE      TH1
      000000FAH   SFRSYM    DATA     BYTE      PCA0H
      000000F5H   SFRSYM    DATA     BYTE      I2C0FCT
      000000B8H.1 SFRSYM    DATA     BIT       IP_PT0
      000000B8H.3 SFRSYM    DATA     BIT       IP_PT1
      000000C0H.2 SFRSYM    DATA     BIT       SMB0CN0_ARBLOST
      000000B8H.5 SFRSYM    DATA     BIT       IP_PT2
      0000008AH   SFRSYM    DATA     BYTE      TL0
      000000D0H.5 SFRSYM    DATA     BIT       PSW_F0
      000000A8H.6 SFRSYM    DATA     BIT       IE_ESPI0
      0000008BH   SFRSYM    DATA     BYTE      TL1
      000000F9H   SFRSYM    DATA     BYTE      PCA0L
      000000C0H.0 SFRSYM    DATA     BIT       SMB0CN0_SI
      000000D0H.1 SFRSYM    DATA     BIT       PSW_F1
      00000080H.0 SFRSYM    DATA     BIT       P0_B0
      000000B8H.0 SFRSYM    DATA     BIT       IP_PX0
      00000090H.0 SFRSYM    DATA     BIT       P1_B0
      00000080H.1 SFRSYM    DATA     BIT       P0_B1
      000000B8H.2 SFRSYM    DATA     BIT       IP_PX1
      0000009EH   SFRSYM    DATA     BYTE      UART1LIN
      0000009BH   SFRSYM    DATA     BYTE      CMP0CN0
      00000088H.1 SFRSYM    DATA     BIT       TCON_IE0
      000000A0H.0 SFRSYM    DATA     BIT       P2_B0
      00000090H.1 SFRSYM    DATA     BIT       P1_B1
      00000080H.2 SFRSYM    DATA     BIT       P0_B2
      000000BFH   SFRSYM    DATA     BYTE      CMP1CN0
      00000099H   SFRSYM    DATA     BYTE      CMP0CN1
      00000088H.3 SFRSYM    DATA     BIT       TCON_IE1
      000000B0H.0 SFRSYM    DATA     BIT       P3_B0
      000000A0H.1 SFRSYM    DATA     BIT       P2_B1
      00000090H.2 SFRSYM    DATA     BIT       P1_B2
      00000080H.3 SFRSYM    DATA     BIT       P0_B3
      000000C0H   SFRSYM    DATA     BYTE      SMB0CN0
      000000ACH   SFRSYM    DATA     BYTE      CMP1CN1
      000000B0H.1 SFRSYM    DATA     BIT       P3_B1
      000000A0H.2 SFRSYM    DATA     BIT       P2_B2
      00000090H.3 SFRSYM    DATA     BIT       P1_B3
      00000080H.4 SFRSYM    DATA     BIT       P0_B4
      000000A0H.3 SFRSYM    DATA     BIT       P2_B3
      00000090H.4 SFRSYM    DATA     BIT       P1_B4
      00000080H.5 SFRSYM    DATA     BIT       P0_B5
      000000D8H.1 SFRSYM    DATA     BIT       UART1FCN1_RXTO0
      00000090H.5 SFRSYM    DATA     BIT       P1_B5
      00000080H.6 SFRSYM    DATA     BIT       P0_B6
      000000F5H   SFRSYM    DATA     BYTE      EIP1H
LX51 LINKER/LOCATER V4.66.97.0                                                        08/08/2020  16:35:51  PAGE 33


      000000D8H.2 SFRSYM    DATA     BIT       UART1FCN1_RXTO1
      00000090H.6 SFRSYM    DATA     BIT       P1_B6
      00000080H.7 SFRSYM    DATA     BIT       P0_B7
      000000C5H   SFRSYM    DATA     BYTE      SMB0RXLN
      000000F6H   SFRSYM    DATA     BYTE      EIP2H
      00000090H.7 SFRSYM    DATA     BIT       P1_B7
      00000083H   SFRSYM    DATA     BYTE      DPH
      000000C4H   SFRSYM    DATA     BYTE      ADC0GTH
      000000C8H.7 SFRSYM    DATA     BIT       TMR2CN0_TF2H
      000000C8H.3 SFRSYM    DATA     BIT       TMR2CN0_T2SPLIT
      000000D0H.6 SFRSYM    DATA     BIT       PSW_AC
      000000F8H   SFRSYM    DATA     BYTE      SPI0CN0
      000000C7H   SFRSYM    DATA     BYTE      HFO0CAL
      00000088H.5 SFRSYM    DATA     BIT       TCON_TF0
      00000098H.0 SFRSYM    DATA     BIT       SCON0_RI
      000000D6H   SFRSYM    DATA     BYTE      HFO1CAL
      00000082H   SFRSYM    DATA     BYTE      DPL
      00000088H.7 SFRSYM    DATA     BIT       TCON_TF1
      000000C8H.0 SFRSYM    DATA     BIT       SCON1_RI
      00000099H   SFRSYM    DATA     BYTE      SBUF0
      00000087H   SFRSYM    DATA     BYTE      PCON0
      000000F2H   SFRSYM    DATA     BYTE      IPH
      000000C3H   SFRSYM    DATA     BYTE      ADC0GTL
      00000098H.7 SFRSYM    DATA     BIT       TMR4CN0_TF4H
      00000098H.3 SFRSYM    DATA     BIT       TMR4CN0_T4SPLIT
      000000C8H.6 SFRSYM    DATA     BIT       TMR2CN0_TF2L
      00000098H.1 SFRSYM    DATA     BIT       SCON0_TI
      000000E8H.0 SFRSYM    DATA     BIT       ADC0CN0_ADCM0
      00000092H   SFRSYM    DATA     BYTE      SBUF1
      0000009AH   SFRSYM    DATA     BYTE      PCON1
      000000C6H   SFRSYM    DATA     BYTE      ADC0LTH
      00000088H.0 SFRSYM    DATA     BIT       TCON_IT0
      000000C8H.1 SFRSYM    DATA     BIT       SCON1_TI
      000000E8H.1 SFRSYM    DATA     BIT       ADC0CN0_ADCM1
      000000EFH   SFRSYM    DATA     BYTE      RSTSRC
      000000FDH   SFRSYM    DATA     BYTE      P0MAT
      000000DEH   SFRSYM    DATA     BYTE      CRC0DAT
      00000088H.2 SFRSYM    DATA     BIT       TCON_IT1
      000000E8H.2 SFRSYM    DATA     BIT       ADC0CN0_ADCM2
      000000D7H   SFRSYM    DATA     BYTE      SFRSTACK
      00000098H   SFRSYM    DATA     BYTE      SCON0
      000000F6H   SFRSYM    DATA     BYTE      PRTDRV
      000000EDH   SFRSYM    DATA     BYTE      P1MAT
      000000E8H.3 SFRSYM    DATA     BIT       ADC0CN0_ADWINT
      00000095H   SFRSYM    DATA     WORD      SBRL1
      00000093H   SFRSYM    DATA     BYTE      SMOD1
      000000C8H   SFRSYM    DATA     BYTE      SCON1
      000000FBH   SFRSYM    DATA     BYTE      P2MAT
      00000098H.6 SFRSYM    DATA     BIT       TMR4CN0_TF4L
      000000E8H.4 SFRSYM    DATA     BIT       ADC0CN0_ADBUSY
      000000D6H   SFRSYM    DATA     BYTE      SMB0ADM
      000000C5H   SFRSYM    DATA     BYTE      ADC0LTL
      000000F8H.5 SFRSYM    DATA     BIT       SPI0CN0_MODF
      000000B8H.6 SFRSYM    DATA     BIT       IP_PSPI0
      0000009CH   SFRSYM    DATA     BYTE      PCA0CLR
      000000C8H   SFRSYM    DATA     BYTE      TMR2CN0
      00000091H   SFRSYM    DATA     BYTE      TMR3CN0
      000000FDH   SFRSYM    DATA     BYTE      TMR2CN1
      00000098H   SFRSYM    DATA     BYTE      TMR4CN0
      000000FEH   SFRSYM    DATA     BYTE      TMR3CN1
      000000FFH   SFRSYM    DATA     BYTE      TMR4CN1
      000000D7H   SFRSYM    DATA     BYTE      SMB0ADR
LX51 LINKER/LOCATER V4.66.97.0                                                        08/08/2020  16:35:51  PAGE 34


      00000088H.4 SFRSYM    DATA     BIT       TCON_TR0
      000000C8H.4 SFRSYM    DATA     BIT       TMR2CN0_TF2CEN
      00000088H.6 SFRSYM    DATA     BIT       TCON_TR1
      000000C2H   SFRSYM    DATA     BYTE      SMB0DAT
      000000CDH   SFRSYM    DATA     BYTE      TMR2H
      000000A1H   SFRSYM    DATA     BYTE      SPI0CFG
      00000095H   SFRSYM    DATA     BYTE      TMR3H
      000000EFH   SFRSYM    DATA     BYTE      HFOCN
      000000D3H   SFRSYM    DATA     BYTE      CRC0CNT
      000000A5H   SFRSYM    DATA     BYTE      TMR4H
      00000098H.4 SFRSYM    DATA     BIT       TMR4CN0_TF4CEN
      000000EFH   SFRSYM    DATA     BYTE      SMB0FCT
      00000096H   SFRSYM    DATA     BYTE      PCA0POL
      000000CCH   SFRSYM    DATA     BYTE      TMR2L
      000000F8H.7 SFRSYM    DATA     BIT       SPI0CN0_SPIF
      00000094H   SFRSYM    DATA     BYTE      TMR3L
      000000DFH   SFRSYM    DATA     BYTE      ADC0PWR
      000000A8H.7 SFRSYM    DATA     BIT       IE_EA
      000000A4H   SFRSYM    DATA     BYTE      TMR4L
      000000C8H.5 SFRSYM    DATA     BIT       TMR2CN0_TF2LEN
      000000F8H.6 SFRSYM    DATA     BIT       SPI0CN0_WCOL
      000000F8H.2 SFRSYM    DATA     BIT       SPI0CN0_NSSMD0
      000000D0H.7 SFRSYM    DATA     BIT       PSW_CY
      0000009DH   SFRSYM    DATA     BYTE      UART1FCN0
      000000A3H   SFRSYM    DATA     BYTE      SPI0DAT
      000000ADH   SFRSYM    DATA     BYTE      I2C0FCN0
      000000F8H.3 SFRSYM    DATA     BIT       SPI0CN0_NSSMD1
      000000BDH   SFRSYM    DATA     WORD      ADC0
      000000D8H   SFRSYM    DATA     BYTE      UART1FCN1
      000000ABH   SFRSYM    DATA     BYTE      I2C0FCN1
      00000098H.5 SFRSYM    DATA     BIT       TMR4CN0_TF4LEN
      000000D0H   SFRSYM    DATA     BYTE      PSW
      000000F7H   SFRSYM    DATA     BYTE      PCA0PWM
      000000F7H   SFRSYM    DATA     BYTE      SPI0FCT
      000000B6H   SFRSYM    DATA     BYTE      REVID
      000000B7H   SFRSYM    DATA     BYTE      FLKEY
      000000B3H   SFRSYM    DATA     BYTE      ADC0AC

      01001A2DH   BLOCK     CODE     ---       LVL=0
      ---         BLOCKEND  ---      ---       LVL=0

      01003137H   BLOCK     CODE     ---       LVL=0
      01003137H   LINE      CODE     ---       #13
      01003137H   LINE      CODE     ---       #14
      01003137H   LINE      CODE     ---       #15
      0100313CH   LINE      CODE     ---       #16
      01003142H   LINE      CODE     ---       #17
      01003147H   LINE      CODE     ---       #18
      01003149H   LINE      CODE     ---       #23
      0100314FH   LINE      CODE     ---       #27
      01003154H   LINE      CODE     ---       #32
      ---         BLOCKEND  ---      ---       LVL=0

      010005B7H   BLOCK     CODE     ---       LVL=0
      010005B7H   BLOCK     CODE     NEAR LAB  LVL=1
      00000065H   SYMBOL    DATA     BYTE      i
      00000007H   SYMBOL    DATA     BYTE      self_temp
      00000066H   SYMBOL    DATA     BYTE      cnt
      ---         BLOCKEND  ---      ---       LVL=1
      010005B7H   LINE      CODE     ---       #92
      010005B7H   LINE      CODE     ---       #93
      010005B7H   LINE      CODE     ---       #96
LX51 LINKER/LOCATER V4.66.97.0                                                        08/08/2020  16:35:51  PAGE 35


      010005BFH   LINE      CODE     ---       #97
      010005BFH   LINE      CODE     ---       #98
      010005C5H   LINE      CODE     ---       #100
      010005C5H   LINE      CODE     ---       #102
      010005FFH   LINE      CODE     ---       #103
      010005FFH   LINE      CODE     ---       #104
      010005FFH   LINE      CODE     ---       #105
      010005FFH   LINE      CODE     ---       #106
      0100060DH   LINE      CODE     ---       #107
      01000613H   LINE      CODE     ---       #108
      01000619H   LINE      CODE     ---       #109
      0100061AH   LINE      CODE     ---       #110
      0100061AH   LINE      CODE     ---       #111
      0100061AH   LINE      CODE     ---       #112
      0100061AH   LINE      CODE     ---       #113
      0100061FH   LINE      CODE     ---       #114
      0100061FH   LINE      CODE     ---       #115
      0100062AH   LINE      CODE     ---       #116
      0100062AH   LINE      CODE     ---       #117
      01000632H   LINE      CODE     ---       #118
      01000632H   LINE      CODE     ---       #119
      01000633H   LINE      CODE     ---       #120
      01000637H   LINE      CODE     ---       #121
      0100063EH   LINE      CODE     ---       #122
      0100063EH   LINE      CODE     ---       #123
      01000641H   LINE      CODE     ---       #124
      01000644H   LINE      CODE     ---       #125
      01000647H   LINE      CODE     ---       #127
      01000647H   LINE      CODE     ---       #128
      0100064CH   LINE      CODE     ---       #129
      0100064CH   LINE      CODE     ---       #130
      0100064CH   LINE      CODE     ---       #131
      0100064CH   LINE      CODE     ---       #132
      0100064CH   LINE      CODE     ---       #133
      0100064FH   LINE      CODE     ---       #135
      0100064FH   LINE      CODE     ---       #136
      0100064FH   LINE      CODE     ---       #137
      01000664H   LINE      CODE     ---       #138
      01000664H   LINE      CODE     ---       #139
      01000668H   LINE      CODE     ---       #140
      0100066EH   LINE      CODE     ---       #141
      01000671H   LINE      CODE     ---       #142
      01000671H   LINE      CODE     ---       #143
      01000671H   LINE      CODE     ---       #145
      01000671H   LINE      CODE     ---       #146
      01000671H   LINE      CODE     ---       #148
      01000671H   LINE      CODE     ---       #149
      01000671H   LINE      CODE     ---       #159
      01000673H   LINE      CODE     ---       #160
      01000675H   LINE      CODE     ---       #161
      0100068CH   LINE      CODE     ---       #162
      0100068CH   LINE      CODE     ---       #163
      010006AAH   LINE      CODE     ---       #164
      010006AEH   LINE      CODE     ---       #165
      010006B6H   LINE      CODE     ---       #167
      010006C2H   LINE      CODE     ---       #168
      010006C2H   LINE      CODE     ---       #169
      010006C5H   LINE      CODE     ---       #170
      010006C7H   LINE      CODE     ---       #172
      010006C7H   LINE      CODE     ---       #173
      010006CAH   LINE      CODE     ---       #174
      010006CAH   LINE      CODE     ---       #202
LX51 LINKER/LOCATER V4.66.97.0                                                        08/08/2020  16:35:51  PAGE 36


      010006CFH   LINE      CODE     ---       #203
      010006D9H   LINE      CODE     ---       #204
      010006D9H   LINE      CODE     ---       #205
      010006DCH   LINE      CODE     ---       #206
      010006E3H   LINE      CODE     ---       #207
      010006E7H   LINE      CODE     ---       #208
      010006EDH   LINE      CODE     ---       #209
      010006F2H   LINE      CODE     ---       #211
      010006F3H   LINE      CODE     ---       #212
      010006F3H   LINE      CODE     ---       #214
      010006F3H   LINE      CODE     ---       #215
      010006F3H   LINE      CODE     ---       #216
      010006FAH   LINE      CODE     ---       #217
      01000708H   LINE      CODE     ---       #218
      0100070EH   LINE      CODE     ---       #219
      01000714H   LINE      CODE     ---       #220
      01000715H   LINE      CODE     ---       #221
      01000715H   LINE      CODE     ---       #223
      01000715H   LINE      CODE     ---       #224
      01000715H   LINE      CODE     ---       #225
      0100071AH   LINE      CODE     ---       #226
      0100071AH   LINE      CODE     ---       #227
      01000722H   LINE      CODE     ---       #228
      01000722H   LINE      CODE     ---       #229
      01000727H   LINE      CODE     ---       #230
      01000727H   LINE      CODE     ---       #231
      01000727H   LINE      CODE     ---       #232
      01000736H   LINE      CODE     ---       #233
      01000736H   LINE      CODE     ---       #234
      0100073EH   LINE      CODE     ---       #235
      01000741H   LINE      CODE     ---       #236
      01000755H   LINE      CODE     ---       #237
      0100075AH   LINE      CODE     ---       #238
      0100075CH   LINE      CODE     ---       #240
      0100075CH   LINE      CODE     ---       #241
      01000761H   LINE      CODE     ---       #242
      01000761H   LINE      CODE     ---       #243
      01000761H   LINE      CODE     ---       #244
      01000761H   LINE      CODE     ---       #245
      01000764H   LINE      CODE     ---       #246
      01000767H   LINE      CODE     ---       #248
      01000767H   LINE      CODE     ---       #249
      0100077BH   LINE      CODE     ---       #250
      0100078BH   LINE      CODE     ---       #251
      0100078BH   LINE      CODE     ---       #252
      01000790H   LINE      CODE     ---       #253
      01000796H   LINE      CODE     ---       #254
      0100079FH   LINE      CODE     ---       #255
      0100079FH   LINE      CODE     ---       #274
      010007A4H   LINE      CODE     ---       #275
      010007A4H   LINE      CODE     ---       #276
      010007A4H   LINE      CODE     ---       #277
      010007A4H   LINE      CODE     ---       #279
      010007A4H   LINE      CODE     ---       #280
      010007A4H   LINE      CODE     ---       #281
      010007B0H   LINE      CODE     ---       #282
      010007B0H   LINE      CODE     ---       #283
      010007B3H   LINE      CODE     ---       #284
      010007B8H   LINE      CODE     ---       #285
      010007BBH   LINE      CODE     ---       #286
      010007BEH   LINE      CODE     ---       #288
      010007C3H   LINE      CODE     ---       #289
LX51 LINKER/LOCATER V4.66.97.0                                                        08/08/2020  16:35:51  PAGE 37


      010007C3H   LINE      CODE     ---       #290
      010007C3H   LINE      CODE     ---       #291
      010007C5H   LINE      CODE     ---       #292
      010007CBH   LINE      CODE     ---       #293
      010007CBH   LINE      CODE     ---       #294
      010007D3H   LINE      CODE     ---       #295
      010007D3H   LINE      CODE     ---       #296
      010007D3H   LINE      CODE     ---       #297
      010007EBH   LINE      CODE     ---       #298
      010007EBH   LINE      CODE     ---       #317
      010007EBH   LINE      CODE     ---       #318
      010007EEH   LINE      CODE     ---       #319
      010007F5H   LINE      CODE     ---       #320
      010007F5H   LINE      CODE     ---       #321
      01000801H   LINE      CODE     ---       #323
      0100080CH   LINE      CODE     ---       #324
      0100080CH   LINE      CODE     ---       #325
      0100080CH   LINE      CODE     ---       #326
      0100080CH   LINE      CODE     ---       #327
      0100080CH   LINE      CODE     ---       #328
      0100080FH   LINE      CODE     ---       #329
      0100080FH   LINE      CODE     ---       #330
      0100080FH   LINE      CODE     ---       #331
      01000815H   LINE      CODE     ---       #332
      01000815H   LINE      CODE     ---       #354
      01000816H   LINE      CODE     ---       #355
      01000816H   LINE      CODE     ---       #356
      01000816H   LINE      CODE     ---       #357
      01000816H   LINE      CODE     ---       #364
      0100081BH   LINE      CODE     ---       #365
      0100081BH   LINE      CODE     ---       #373
      0100081CH   LINE      CODE     ---       #374
      0100081FH   LINE      CODE     ---       #376
      0100081FH   LINE      CODE     ---       #377
      01000822H   LINE      CODE     ---       #378
      01000834H   LINE      CODE     ---       #379
      01000834H   LINE      CODE     ---       #380
      01000834H   LINE      CODE     ---       #382
      01000834H   LINE      CODE     ---       #383
      01000834H   LINE      CODE     ---       #384
      01000837H   LINE      CODE     ---       #385
      0100083DH   LINE      CODE     ---       #386
      0100083DH   LINE      CODE     ---       #387
      0100083DH   LINE      CODE     ---       #388
      0100083EH   LINE      CODE     ---       #389
      0100083EH   LINE      CODE     ---       #391
      0100083EH   LINE      CODE     ---       #392
      0100083EH   LINE      CODE     ---       #399
      01000846H   LINE      CODE     ---       #400
      01000846H   LINE      CODE     ---       #407
      01000847H   LINE      CODE     ---       #408
      0100084AH   LINE      CODE     ---       #418
      0100084AH   LINE      CODE     ---       #420
      0100084AH   LINE      CODE     ---       #421
      0100084AH   LINE      CODE     ---       #422
      01000852H   LINE      CODE     ---       #423
      01000852H   LINE      CODE     ---       #424
      01000857H   LINE      CODE     ---       #425
      01000857H   LINE      CODE     ---       #426
      01000857H   LINE      CODE     ---       #458
      01000863H   LINE      CODE     ---       #459
      01000863H   LINE      CODE     ---       #460
LX51 LINKER/LOCATER V4.66.97.0                                                        08/08/2020  16:35:51  PAGE 38


      0100086AH   LINE      CODE     ---       #461
      0100086AH   LINE      CODE     ---       #462
      01000870H   LINE      CODE     ---       #463
      01000876H   LINE      CODE     ---       #464
      01000876H   LINE      CODE     ---       #465
      01000876H   LINE      CODE     ---       #466
      01000876H   LINE      CODE     ---       #468
      0100087EH   LINE      CODE     ---       #469
      0100087EH   LINE      CODE     ---       #470
      01000883H   LINE      CODE     ---       #471
      01000883H   LINE      CODE     ---       #472
      01000883H   LINE      CODE     ---       #473
      01000883H   LINE      CODE     ---       #474
      01000889H   LINE      CODE     ---       #475
      01000889H   LINE      CODE     ---       #476
      01000889H   LINE      CODE     ---       #478
      01000894H   LINE      CODE     ---       #479
      01000894H   LINE      CODE     ---       #480
      0100089CH   LINE      CODE     ---       #481
      0100089CH   LINE      CODE     ---       #482
      0100089CH   LINE      CODE     ---       #483
      010008ADH   LINE      CODE     ---       #484
      010008ADH   LINE      CODE     ---       #485
      010008B5H   LINE      CODE     ---       #486
      010008B9H   LINE      CODE     ---       #487
      010008B9H   LINE      CODE     ---       #488
      010008BFH   LINE      CODE     ---       #489
      010008BFH   LINE      CODE     ---       #490
      010008BFH   LINE      CODE     ---       #491
      010008BFH   LINE      CODE     ---       #493
      010008C0H   LINE      CODE     ---       #494
      010008C0H   LINE      CODE     ---       #496
      010008C0H   LINE      CODE     ---       #497
      010008C0H   LINE      CODE     ---       #509
      010008E4H   LINE      CODE     ---       #510
      010008F3H   LINE      CODE     ---       #511
      010008F8H   LINE      CODE     ---       #512
      010008FEH   LINE      CODE     ---       #513
      010008FFH   LINE      CODE     ---       #514
      010008FFH   LINE      CODE     ---       #516
      010008FFH   LINE      CODE     ---       #517
      010008FFH   LINE      CODE     ---       #518
      0100090AH   LINE      CODE     ---       #519
      0100090AH   LINE      CODE     ---       #520
      01000912H   LINE      CODE     ---       #521
      01000912H   LINE      CODE     ---       #522
      01000913H   LINE      CODE     ---       #523
      0100091DH   LINE      CODE     ---       #524
      0100091DH   LINE      CODE     ---       #525
      01000923H   LINE      CODE     ---       #526
      01000929H   LINE      CODE     ---       #527
      01000929H   LINE      CODE     ---       #528
      01000929H   LINE      CODE     ---       #529
      0100092AH   LINE      CODE     ---       #530
      0100092AH   LINE      CODE     ---       #532
      0100092AH   LINE      CODE     ---       #533
      0100092AH   LINE      CODE     ---       #534
      01000945H   LINE      CODE     ---       #535
      01000945H   LINE      CODE     ---       #536
      0100094AH   LINE      CODE     ---       #537
      01000958H   LINE      CODE     ---       #538
      01000965H   LINE      CODE     ---       #539
LX51 LINKER/LOCATER V4.66.97.0                                                        08/08/2020  16:35:51  PAGE 39


      01000970H   LINE      CODE     ---       #540
      01000970H   LINE      CODE     ---       #541
      0100097AH   LINE      CODE     ---       #542
      0100097AH   LINE      CODE     ---       #543
      01000987H   LINE      CODE     ---       #544
      01000989H   LINE      CODE     ---       #545
      01000989H   LINE      CODE     ---       #546
      01000990H   LINE      CODE     ---       #547
      01000990H   LINE      CODE     ---       #548
      010009A4H   LINE      CODE     ---       #549
      010009A9H   LINE      CODE     ---       #550
      010009AFH   LINE      CODE     ---       #551
      010009B0H   LINE      CODE     ---       #552
      010009B0H   LINE      CODE     ---       #554
      010009B0H   LINE      CODE     ---       #555
      010009B0H   LINE      CODE     ---       #562
      010009B5H   LINE      CODE     ---       #563
      010009B5H   LINE      CODE     ---       #571
      010009B9H   LINE      CODE     ---       #572
      010009BAH   LINE      CODE     ---       #574
      010009BAH   LINE      CODE     ---       #575
      010009BDH   LINE      CODE     ---       #576
      010009C0H   LINE      CODE     ---       #577
      010009C5H   LINE      CODE     ---       #578
      010009C8H   LINE      CODE     ---       #579
      010009CEH   LINE      CODE     ---       #580
      010009CEH   LINE      CODE     ---       #581
      010009CEH   LINE      CODE     ---       #582
      010009CEH   LINE      CODE     ---       #585
      010009CEH   LINE      CODE     ---       #587
      010009CEH   LINE      CODE     ---       #592
      ---         BLOCKEND  ---      ---       LVL=0

      01002B8AH   BLOCK     CODE     ---       LVL=0
      01002B8AH   LINE      CODE     ---       #594
      01002B8AH   LINE      CODE     ---       #595
      01002B8AH   LINE      CODE     ---       #596
      01002B93H   LINE      CODE     ---       #597
      01002B93H   LINE      CODE     ---       #598
      01002BA4H   LINE      CODE     ---       #599
      01002BA4H   LINE      CODE     ---       #601
      01002BACH   LINE      CODE     ---       #602
      01002BC1H   LINE      CODE     ---       #603
      01002BC3H   LINE      CODE     ---       #605
      01002BC3H   LINE      CODE     ---       #606
      01002BCFH   LINE      CODE     ---       #607
      01002BD8H   LINE      CODE     ---       #608
      01002BD8H   LINE      CODE     ---       #609
      01002BD8H   LINE      CODE     ---       #610
      01002BDFH   LINE      CODE     ---       #611
      ---         BLOCKEND  ---      ---       LVL=0

      01001DDBH   BLOCK     CODE     ---       LVL=0
      01001DDBH   LINE      CODE     ---       #613
      01001DDBH   LINE      CODE     ---       #614
      01001DDBH   LINE      CODE     ---       #615
      01001DDEH   LINE      CODE     ---       #617
      01001E00H   LINE      CODE     ---       #618
      01001E15H   LINE      CODE     ---       #619
      01001E1FH   LINE      CODE     ---       #620
      01001E29H   LINE      CODE     ---       #621
      01001E33H   LINE      CODE     ---       #622
LX51 LINKER/LOCATER V4.66.97.0                                                        08/08/2020  16:35:51  PAGE 40


      01001E3DH   LINE      CODE     ---       #624
      01001E61H   LINE      CODE     ---       #625
      01001E8BH   LINE      CODE     ---       #626
      01001E92H   LINE      CODE     ---       #627
      01001E96H   LINE      CODE     ---       #628
      01001E9AH   LINE      CODE     ---       #629
      01001E9EH   LINE      CODE     ---       #630
      01001EA8H   LINE      CODE     ---       #632
      01001EBAH   LINE      CODE     ---       #633
      ---         BLOCKEND  ---      ---       LVL=0

      010015B3H   BLOCK     CODE     ---       LVL=0
      010015B3H   BLOCK     CODE     NEAR LAB  LVL=1
      00000002H   SYMBOL    DATA     BYTE      i
      00000003H   SYMBOL    DATA     BYTE      NearestDis
      ---         BLOCKEND  ---      ---       LVL=1
      010015B3H   LINE      CODE     ---       #635
      010015B3H   LINE      CODE     ---       #636
      010015B3H   LINE      CODE     ---       #639
      010015B5H   LINE      CODE     ---       #641
      010015BCH   LINE      CODE     ---       #642
      010015BCH   LINE      CODE     ---       #643
      010015D3H   LINE      CODE     ---       #645
      010015D3H   LINE      CODE     ---       #646
      010015D9H   LINE      CODE     ---       #647
      010015DBH   LINE      CODE     ---       #648
      010015E5H   LINE      CODE     ---       #649
      010015E5H   LINE      CODE     ---       #650
      010015F9H   LINE      CODE     ---       #651
      010015FBH   LINE      CODE     ---       #652
      01001603H   LINE      CODE     ---       #653
      01001603H   LINE      CODE     ---       #654
      01001609H   LINE      CODE     ---       #655
      0100160BH   LINE      CODE     ---       #657
      0100160BH   LINE      CODE     ---       #658
      01001610H   LINE      CODE     ---       #659
      01001610H   LINE      CODE     ---       #661
      01001616H   LINE      CODE     ---       #662
      01001616H   LINE      CODE     ---       #663
      0100161BH   LINE      CODE     ---       #664
      0100161DH   LINE      CODE     ---       #666
      0100161DH   LINE      CODE     ---       #667
      01001623H   LINE      CODE     ---       #668
      01001623H   LINE      CODE     ---       #669
      01001626H   LINE      CODE     ---       #671
      0100162EH   LINE      CODE     ---       #672
      0100162EH   LINE      CODE     ---       #673
      01001637H   LINE      CODE     ---       #674
      01001637H   LINE      CODE     ---       #675
      01001639H   LINE      CODE     ---       #676
      01001639H   LINE      CODE     ---       #677
      01001646H   LINE      CODE     ---       #678
      01001646H   LINE      CODE     ---       #679
      01001648H   LINE      CODE     ---       #680
      01001648H   LINE      CODE     ---       #695
      0100164FH   LINE      CODE     ---       #696
      0100164FH   LINE      CODE     ---       #697
      0100165DH   LINE      CODE     ---       #698
      0100165DH   LINE      CODE     ---       #699
      01001663H   LINE      CODE     ---       #700
      01001663H   LINE      CODE     ---       #701
      0100166DH   LINE      CODE     ---       #702
LX51 LINKER/LOCATER V4.66.97.0                                                        08/08/2020  16:35:51  PAGE 41


      0100166DH   LINE      CODE     ---       #703
      0100166FH   LINE      CODE     ---       #704
      0100166FH   LINE      CODE     ---       #705
      01001672H   LINE      CODE     ---       #706
      0100167CH   LINE      CODE     ---       #707
      0100167CH   LINE      CODE     ---       #708
      0100167CH   LINE      CODE     ---       #709
      0100167FH   LINE      CODE     ---       #710
      0100168AH   LINE      CODE     ---       #711
      0100168AH   LINE      CODE     ---       #712
      0100168AH   LINE      CODE     ---       #713
      0100168DH   LINE      CODE     ---       #714
      01001698H   LINE      CODE     ---       #715
      01001698H   LINE      CODE     ---       #716
      0100169EH   LINE      CODE     ---       #717
      0100169FH   LINE      CODE     ---       #718
      010016AAH   LINE      CODE     ---       #719
      010016AAH   LINE      CODE     ---       #720
      010016B0H   LINE      CODE     ---       #721
      010016B0H   LINE      CODE     ---       #722
      010016B1H   LINE      CODE     ---       #723
      010016BAH   LINE      CODE     ---       #724
      010016BAH   LINE      CODE     ---       #725
      010016C7H   LINE      CODE     ---       #726
      010016C7H   LINE      CODE     ---       #727
      010016C9H   LINE      CODE     ---       #728
      010016C9H   LINE      CODE     ---       #729
      010016D6H   LINE      CODE     ---       #730
      010016D6H   LINE      CODE     ---       #731
      010016D8H   LINE      CODE     ---       #732
      010016D8H   LINE      CODE     ---       #741
      010016DFH   LINE      CODE     ---       #742
      010016DFH   LINE      CODE     ---       #743
      010016EDH   LINE      CODE     ---       #744
      010016EDH   LINE      CODE     ---       #745
      010016F3H   LINE      CODE     ---       #746
      010016F3H   LINE      CODE     ---       #748
      010016FDH   LINE      CODE     ---       #749
      010016FDH   LINE      CODE     ---       #750
      010016FFH   LINE      CODE     ---       #751
      010016FFH   LINE      CODE     ---       #752
      01001702H   LINE      CODE     ---       #753
      01001709H   LINE      CODE     ---       #754
      01001709H   LINE      CODE     ---       #755
      0100170FH   LINE      CODE     ---       #756
      01001710H   LINE      CODE     ---       #757
      0100171BH   LINE      CODE     ---       #758
      0100171BH   LINE      CODE     ---       #759
      01001721H   LINE      CODE     ---       #760
      01001722H   LINE      CODE     ---       #761
      0100172DH   LINE      CODE     ---       #762
      0100172DH   LINE      CODE     ---       #763
      01001733H   LINE      CODE     ---       #764
      01001734H   LINE      CODE     ---       #765
      0100173CH   LINE      CODE     ---       #766
      0100173CH   LINE      CODE     ---       #767
      01001741H   LINE      CODE     ---       #768
      01001741H   LINE      CODE     ---       #769
      01001741H   LINE      CODE     ---       #770
      ---         BLOCKEND  ---      ---       LVL=0

      010031F8H   BLOCK     CODE     ---       LVL=0
LX51 LINKER/LOCATER V4.66.97.0                                                        08/08/2020  16:35:51  PAGE 42


      010031F8H   LINE      CODE     ---       #772
      010031F8H   LINE      CODE     ---       #773
      010031F8H   LINE      CODE     ---       #774
      010031F8H   LINE      CODE     ---       #775
      010031FDH   LINE      CODE     ---       #776
      01003205H   LINE      CODE     ---       #777
      0100320DH   LINE      CODE     ---       #778
      0100320DH   LINE      CODE     ---       #779
      0100320EH   LINE      CODE     ---       #780
      0100320EH   LINE      CODE     ---       #788
      ---         BLOCKEND  ---      ---       LVL=0

      01002634H   BLOCK     CODE     ---       LVL=0
      00000007H   SYMBOL    DATA     BYTE      ForceCutFlag
      01002634H   BLOCK     CODE     NEAR LAB  LVL=1
      00000067H   SYMBOL    DATA     BYTE      cnt
      00000068H   SYMBOL    DATA     BYTE      sta
      00000007H   SYMBOL    DATA     BYTE      forcecutflag_b
      ---         BLOCKEND  ---      ---       LVL=1
      01002634H   LINE      CODE     ---       #790
      01002634H   LINE      CODE     ---       #791
      01002634H   LINE      CODE     ---       #795
      01002637H   LINE      CODE     ---       #796
      01002639H   LINE      CODE     ---       #797
      01002639H   LINE      CODE     ---       #798
      0100263EH   LINE      CODE     ---       #799
      0100263EH   LINE      CODE     ---       #800
      0100264BH   LINE      CODE     ---       #801
      0100264BH   LINE      CODE     ---       #802
      0100264BH   LINE      CODE     ---       #803
      0100264BH   LINE      CODE     ---       #804
      01002650H   LINE      CODE     ---       #805
      01002650H   LINE      CODE     ---       #806
      01002651H   LINE      CODE     ---       #807
      01002651H   LINE      CODE     ---       #808
      01002656H   LINE      CODE     ---       #809
      01002656H   LINE      CODE     ---       #810
      01002659H   LINE      CODE     ---       #811
      0100265BH   LINE      CODE     ---       #812
      0100265BH   LINE      CODE     ---       #813
      0100265FH   LINE      CODE     ---       #814
      01002663H   LINE      CODE     ---       #815
      01002663H   LINE      CODE     ---       #816
      01002668H   LINE      CODE     ---       #817
      01002668H   LINE      CODE     ---       #818
      0100266DH   LINE      CODE     ---       #819
      0100266DH   LINE      CODE     ---       #820
      0100266DH   LINE      CODE     ---       #821
      0100266DH   LINE      CODE     ---       #822
      0100266DH   LINE      CODE     ---       #823
      0100266FH   LINE      CODE     ---       #825
      0100266FH   LINE      CODE     ---       #826
      01002674H   LINE      CODE     ---       #827
      01002674H   LINE      CODE     ---       #828
      01002674H   LINE      CODE     ---       #829
      0100267AH   LINE      CODE     ---       #830
      0100267BH   LINE      CODE     ---       #832
      0100267BH   LINE      CODE     ---       #833
      0100268CH   LINE      CODE     ---       #834
      0100268CH   LINE      CODE     ---       #835
      0100268CH   LINE      CODE     ---       #836
      0100268CH   LINE      CODE     ---       #837
LX51 LINKER/LOCATER V4.66.97.0                                                        08/08/2020  16:35:51  PAGE 43


      01002691H   LINE      CODE     ---       #838
      01002691H   LINE      CODE     ---       #839
      01002692H   LINE      CODE     ---       #840
      01002692H   LINE      CODE     ---       #841
      01002697H   LINE      CODE     ---       #842
      01002697H   LINE      CODE     ---       #843
      0100269AH   LINE      CODE     ---       #844
      0100269CH   LINE      CODE     ---       #845
      0100269CH   LINE      CODE     ---       #846
      010026A0H   LINE      CODE     ---       #847
      010026ABH   LINE      CODE     ---       #848
      010026ABH   LINE      CODE     ---       #850
      010026AEH   LINE      CODE     ---       #851
      010026B1H   LINE      CODE     ---       #852
      010026B1H   LINE      CODE     ---       #853
      010026B5H   LINE      CODE     ---       #854
      010026B5H   LINE      CODE     ---       #855
      010026BAH   LINE      CODE     ---       #856
      010026BAH   LINE      CODE     ---       #857
      010026BFH   LINE      CODE     ---       #858
      010026BFH   LINE      CODE     ---       #859
      010026C4H   LINE      CODE     ---       #860
      010026CAH   LINE      CODE     ---       #861
      010026CAH   LINE      CODE     ---       #862
      010026CAH   LINE      CODE     ---       #863
      010026CAH   LINE      CODE     ---       #864
      ---         BLOCKEND  ---      ---       LVL=0

      010031C6H   BLOCK     CODE     ---       LVL=0
      010031C6H   BLOCK     CODE     NEAR LAB  LVL=1
      00000007H   SYMBOL    DATA     BYTE      i
      ---         BLOCKEND  ---      ---       LVL=1
      010031C6H   LINE      CODE     ---       #866
      010031C6H   LINE      CODE     ---       #867
      010031C6H   LINE      CODE     ---       #869
      010031D2H   LINE      CODE     ---       #870
      010031D2H   LINE      CODE     ---       #871
      010031DBH   LINE      CODE     ---       #872
      010031DEH   LINE      CODE     ---       #873
      ---         BLOCKEND  ---      ---       LVL=0

      01002FCCH   BLOCK     CODE     ---       LVL=0
      01002FCCH   BLOCK     CODE     NEAR LAB  LVL=1
      00000006H   SYMBOL    DATA     WORD      eve_temp
      ---         BLOCKEND  ---      ---       LVL=1
      01002FCCH   LINE      CODE     ---       #892
      01002FCCH   LINE      CODE     ---       #893
      01002FCCH   LINE      CODE     ---       #917
      01002FD2H   LINE      CODE     ---       #918
      01002FD7H   LINE      CODE     ---       #919
      01002FD7H   LINE      CODE     ---       #920
      01002FDCH   LINE      CODE     ---       #921
      01002FDEH   LINE      CODE     ---       #922
      01002FDEH   LINE      CODE     ---       #923
      01002FF2H   LINE      CODE     ---       #924
      01002FF2H   LINE      CODE     ---       #929
      ---         BLOCKEND  ---      ---       LVL=0

      01002A03H   BLOCK     CODE     ---       LVL=0
      01002A03H   BLOCK     CODE     NEAR LAB  LVL=1
      00000067H   SYMBOL    DATA     WORD      eve_temp
      ---         BLOCKEND  ---      ---       LVL=1
LX51 LINKER/LOCATER V4.66.97.0                                                        08/08/2020  16:35:51  PAGE 44


      01002A03H   LINE      CODE     ---       #931
      01002A03H   LINE      CODE     ---       #932
      01002A03H   LINE      CODE     ---       #972
      01002A0CH   LINE      CODE     ---       #974
      01002A1DH   LINE      CODE     ---       #975
      01002A23H   LINE      CODE     ---       #976
      01002A23H   LINE      CODE     ---       #977
      01002A26H   LINE      CODE     ---       #978
      01002A30H   LINE      CODE     ---       #979
      01002A30H   LINE      CODE     ---       #980
      01002A3BH   LINE      CODE     ---       #981
      01002A48H   LINE      CODE     ---       #982
      01002A48H   LINE      CODE     ---       #983
      01002A4DH   LINE      CODE     ---       #984
      01002A4FH   LINE      CODE     ---       #985
      01002A4FH   LINE      CODE     ---       #986
      01002A5DH   LINE      CODE     ---       #987
      01002A5DH   LINE      CODE     ---       #993
      ---         BLOCKEND  ---      ---       LVL=0

      ---         MODULE    ---      ---       CPU
      0000007BH   PUBLIC    DATA     BYTE      SFRPAGE_TEMP
      010030B0H   PUBLIC    CODE     ---       Cpu_InitHardwarePort
      01003271H   PUBLIC    CODE     ---       Cpu_DisableInterrupt
      01000056H   PUBLIC    CODE     ---       Cpu_EnableInterrupt
      01003173H   PUBLIC    CODE     ---       _Cpu_WDG_Init
      01003117H   PUBLIC    CODE     ---       Cpu_Clk_Init
      000000A2H   SFRSYM    DATA     BYTE      SPI0CKR
      00000080H   SFRSYM    DATA     BYTE      P0
      000000C8H.6 SFRSYM    DATA     BIT       SCON1_PERR
      000000D0H.2 SFRSYM    DATA     BIT       PSW_OV
      00000090H   SFRSYM    DATA     BYTE      P1
      000000F8H.1 SFRSYM    DATA     BIT       SPI0CN0_TXNF
      00000097H   SFRSYM    DATA     BYTE      WDTCN
      000000A0H   SFRSYM    DATA     BYTE      P2
      000000B0H   SFRSYM    DATA     BYTE      P3
      000000BCH   SFRSYM    DATA     BYTE      ADC0CF
      000000C0H.7 SFRSYM    DATA     BIT       SMB0CN0_MASTER
      000000F9H   SFRSYM    DATA     WORD      PCA0
      000000E6H   SFRSYM    DATA     BYTE      EIE1
      000000C0H.1 SFRSYM    DATA     BIT       SMB0CN0_ACK
      000000CEH   SFRSYM    DATA     BYTE      EIE2
      0000008FH   SFRSYM    DATA     BYTE      PSCTL
      000000E4H   SFRSYM    DATA     BYTE      IT01CF
      000000C0H.6 SFRSYM    DATA     BIT       SMB0CN0_TXMODE
      000000ADH   SFRSYM    DATA     BYTE      DERIVID
      000000A7H   SFRSYM    DATA     BYTE      SFRPAGE
      000000A4H   SFRSYM    DATA     BYTE      P0MDOUT
      000000A5H   SFRSYM    DATA     BYTE      P1MDOUT
      000000E8H.5 SFRSYM    DATA     BIT       ADC0CN0_ADINT
      000000CBH   SFRSYM    DATA     BYTE      TMR2RLH
      000000A6H   SFRSYM    DATA     BYTE      P2MDOUT
      000000A8H   SFRSYM    DATA     BYTE      IE
      00000093H   SFRSYM    DATA     BYTE      TMR3RLH
      0000009CH   SFRSYM    DATA     BYTE      P3MDOUT
      000000A3H   SFRSYM    DATA     BYTE      TMR4RLH
      000000F3H   SFRSYM    DATA     BYTE      EIP1
      000000F4H   SFRSYM    DATA     BYTE      EIP2
      00000098H.2 SFRSYM    DATA     BIT       SCON0_RB8
      000000CAH   SFRSYM    DATA     BYTE      TMR2RLL
      000000FCH   SFRSYM    DATA     BYTE      PCA0CPH0
      00000092H   SFRSYM    DATA     BYTE      TMR3RLL
LX51 LINKER/LOCATER V4.66.97.0                                                        08/08/2020  16:35:51  PAGE 45


      000000EAH   SFRSYM    DATA     BYTE      PCA0CPH1
      00000098H.3 SFRSYM    DATA     BIT       SCON0_TB8
      000000F0H.0 SFRSYM    DATA     BIT       B_B0
      00000082H   SFRSYM    DATA     WORD      DP
      000000A2H   SFRSYM    DATA     BYTE      TMR4RLL
      000000ECH   SFRSYM    DATA     BYTE      PCA0CPH2
      000000F0H.1 SFRSYM    DATA     BIT       B_B1
      000000C3H   SFRSYM    DATA     WORD      ADC0GT
      000000BDH   SFRSYM    DATA     BYTE      I2C0SLAD
      000000D8H.3 SFRSYM    DATA     BIT       UART1FCN1_RFRQ
      000000F0H.2 SFRSYM    DATA     BIT       B_B2
      000000CFH   SFRSYM    DATA     BYTE      SFRPGCN
      000000FBH   SFRSYM    DATA     BYTE      PCA0CPL0
      000000F0H.3 SFRSYM    DATA     BIT       B_B3
      000000D9H   SFRSYM    DATA     BYTE      PCA0MD
      000000DAH   SFRSYM    DATA     BYTE      PCA0CPM0
      000000E9H   SFRSYM    DATA     BYTE      PCA0CPL1
      000000D8H.7 SFRSYM    DATA     BIT       UART1FCN1_TFRQ
      000000F0H.4 SFRSYM    DATA     BIT       B_B4
      000000DBH   SFRSYM    DATA     BYTE      PCA0CPM1
      000000EBH   SFRSYM    DATA     BYTE      PCA0CPL2
      000000F0H.5 SFRSYM    DATA     BIT       B_B5
      000000DCH   SFRSYM    DATA     BYTE      PCA0CPM2
      000000B8H   SFRSYM    DATA     BYTE      IP
      000000B9H   SFRSYM    DATA     BYTE      ADC0TK
      000000F0H.6 SFRSYM    DATA     BIT       B_B6
      000000C5H   SFRSYM    DATA     WORD      ADC0LT
      000000D8H.6 SFRSYM    DATA     BIT       UART1FCN1_TXNF
      00000098H.5 SFRSYM    DATA     BIT       SCON0_MCE
      000000F0H.7 SFRSYM    DATA     BIT       B_B7
      000000C3H   SFRSYM    DATA     BYTE      SMB0FCN0
      000000E1H   SFRSYM    DATA     BYTE      XBR0
      000000C4H   SFRSYM    DATA     BYTE      SMB0FCN1
      000000C1H   SFRSYM    DATA     BYTE      SMB0CF
      000000E2H   SFRSYM    DATA     BYTE      XBR1
      000000C1H   SFRSYM    DATA     BYTE      PFE0CN
      000000E7H   SFRSYM    DATA     BYTE      EMI0CN
      000000C0H.5 SFRSYM    DATA     BIT       SMB0CN0_STA
      000000E3H   SFRSYM    DATA     BYTE      XBR2
      000000BBH   SFRSYM    DATA     BYTE      ADC0MX
      000000E0H.0 SFRSYM    DATA     BIT       ACC_ACC0
      000000D1H   SFRSYM    DATA     BYTE      REF0CN
      0000008EH   SFRSYM    DATA     BYTE      CKCON0
      000000E0H.1 SFRSYM    DATA     BIT       ACC_ACC1
      000000C9H   SFRSYM    DATA     BYTE      REG0CN
      000000DDH   SFRSYM    DATA     BYTE      CRC0IN
      000000A6H   SFRSYM    DATA     BYTE      CKCON1
      000000C8H.2 SFRSYM    DATA     BIT       TMR2CN0_TR2
      000000E0H.2 SFRSYM    DATA     BIT       ACC_ACC2
      000000C6H   SFRSYM    DATA     BYTE      REG1CN
      000000E0H.3 SFRSYM    DATA     BIT       ACC_ACC3
      00000081H   SFRSYM    DATA     BYTE      SP
      0000009DH   SFRSYM    DATA     BYTE      CMP0MD
      000000E0H.4 SFRSYM    DATA     BIT       ACC_ACC4
      000000B1H   SFRSYM    DATA     BYTE      LFO0CN
      000000ABH   SFRSYM    DATA     BYTE      CMP1MD
      000000D8H.0 SFRSYM    DATA     BIT       PCA0CN0_CCF0
      000000E0H.5 SFRSYM    DATA     BIT       ACC_ACC5
      00000098H.2 SFRSYM    DATA     BIT       TMR4CN0_TR4
      000000D8H.1 SFRSYM    DATA     BIT       PCA0CN0_CCF1
      000000E0H.6 SFRSYM    DATA     BIT       ACC_ACC6
      000000CCH   SFRSYM    DATA     WORD      TMR2
LX51 LINKER/LOCATER V4.66.97.0                                                        08/08/2020  16:35:51  PAGE 46


      0000009AH   SFRSYM    DATA     BYTE      SPI0FCN0
      000000D8H.2 SFRSYM    DATA     BIT       PCA0CN0_CCF2
      000000E0H.7 SFRSYM    DATA     BIT       ACC_ACC7
      00000094H   SFRSYM    DATA     WORD      TMR3
      0000009BH   SFRSYM    DATA     BYTE      SPI0FCN1
      000000A4H   SFRSYM    DATA     WORD      TMR4
      00000094H   SFRSYM    DATA     BYTE      SBCON1
      000000C0H.3 SFRSYM    DATA     BIT       SMB0CN0_ACKRQ
      000000FFH   SFRSYM    DATA     BYTE      VDM0CN
      000000F1H   SFRSYM    DATA     BYTE      P0MDIN
      00000098H.4 SFRSYM    DATA     BIT       SCON0_REN
      000000ACH   SFRSYM    DATA     BYTE      SMB0TC
      000000F2H   SFRSYM    DATA     BYTE      P1MDIN
      000000C8H.4 SFRSYM    DATA     BIT       SCON1_REN
      000000F3H   SFRSYM    DATA     BYTE      P2MDIN
      000000C0H.4 SFRSYM    DATA     BIT       SMB0CN0_STO
      000000F4H   SFRSYM    DATA     BYTE      P3MDIN
      000000B9H   SFRSYM    DATA     BYTE      I2C0STAT
      000000BBH   SFRSYM    DATA     BYTE      I2C0DOUT
      00000096H   SFRSYM    DATA     BYTE      SBRLH1
      000000FEH   SFRSYM    DATA     BYTE      P0MASK
      000000D8H.5 SFRSYM    DATA     BIT       UART1FCN1_TXHOLD
      000000EEH   SFRSYM    DATA     BYTE      P1MASK
      000000FCH   SFRSYM    DATA     BYTE      P2MASK
      000000D0H.3 SFRSYM    DATA     BIT       PSW_RS0
      000000D8H.7 SFRSYM    DATA     BIT       PCA0CN0_CF
      0000009EH   SFRSYM    DATA     BYTE      PCA0CENT
      000000BAH   SFRSYM    DATA     BYTE      I2C0CN0
      000000D2H   SFRSYM    DATA     BYTE      CRC0ST
      000000F8H.4 SFRSYM    DATA     BIT       SPI0CN0_RXOVRN
      000000D0H.4 SFRSYM    DATA     BIT       PSW_RS1
      00000095H   SFRSYM    DATA     BYTE      SBRLL1
      000000C8H.2 SFRSYM    DATA     BIT       SCON1_RBX
      000000C8H.0 SFRSYM    DATA     BIT       TMR2CN0_T2XCLK0
      000000C8H.1 SFRSYM    DATA     BIT       TMR2CN0_T2XCLK1
      000000C8H.3 SFRSYM    DATA     BIT       SCON1_TBX
      000000E8H.7 SFRSYM    DATA     BIT       ADC0CN0_ADEN
      00000089H   SFRSYM    DATA     BYTE      TMOD
      00000088H   SFRSYM    DATA     BYTE      TCON
      000000CFH   SFRSYM    DATA     BYTE      CRC0FLIP
      000000D0H.0 SFRSYM    DATA     BIT       PSW_PARITY
      000000A8H.4 SFRSYM    DATA     BIT       IE_ES0
      0000009FH   SFRSYM    DATA     BYTE      CMP0MX
      00000098H.0 SFRSYM    DATA     BIT       TMR4CN0_T4XCLK0
      000000A8H.1 SFRSYM    DATA     BIT       IE_ET0
      000000AAH   SFRSYM    DATA     BYTE      CMP1MX
      00000098H.1 SFRSYM    DATA     BIT       TMR4CN0_T4XCLK1
      000000A8H.3 SFRSYM    DATA     BIT       IE_ET1
      000000D4H   SFRSYM    DATA     BYTE      P0SKIP
      000000D8H.0 SFRSYM    DATA     BIT       UART1FCN1_RIE
      000000A8H.5 SFRSYM    DATA     BIT       IE_ET2
      000000D5H   SFRSYM    DATA     BYTE      P1SKIP
      000000CCH   SFRSYM    DATA     BYTE      P2SKIP
      000000E8H   SFRSYM    DATA     BYTE      ADC0CN0
      000000D8H.4 SFRSYM    DATA     BIT       UART1FCN1_TIE
      000000A8H.0 SFRSYM    DATA     BIT       IE_EX0
      000000B2H   SFRSYM    DATA     BYTE      ADC0CN1
      000000D8H.6 SFRSYM    DATA     BIT       PCA0CN0_CR
      000000A8H.2 SFRSYM    DATA     BIT       IE_EX1
      000000C8H.7 SFRSYM    DATA     BIT       SCON1_OVR
      00000098H.7 SFRSYM    DATA     BIT       SCON0_SMODE
      000000B5H   SFRSYM    DATA     BYTE      DEVICEID
LX51 LINKER/LOCATER V4.66.97.0                                                        08/08/2020  16:35:51  PAGE 47


      000000A9H   SFRSYM    DATA     BYTE      CLKSEL
      000000F8H.0 SFRSYM    DATA     BIT       SPI0CN0_SPIEN
      000000F0H   SFRSYM    DATA     BYTE      B
      000000BEH   SFRSYM    DATA     BYTE      ADC0H
      000000E8H.6 SFRSYM    DATA     BIT       ADC0CN0_ADBMEN
      000000CAH   SFRSYM    DATA     WORD      TMR2RL
      000000BDH   SFRSYM    DATA     BYTE      ADC0L
      00000092H   SFRSYM    DATA     WORD      TMR3RL
      000000A2H   SFRSYM    DATA     WORD      TMR4RL
      000000D8H   SFRSYM    DATA     BYTE      PCA0CN0
      000000E0H   SFRSYM    DATA     BYTE      ACC
      000000FBH   SFRSYM    DATA     WORD      PCA0CP0
      000000E9H   SFRSYM    DATA     WORD      PCA0CP1
      000000EBH   SFRSYM    DATA     WORD      PCA0CP2
      000000BCH   SFRSYM    DATA     BYTE      I2C0DIN
      000000CEH   SFRSYM    DATA     BYTE      CRC0CN0
      0000008CH   SFRSYM    DATA     BYTE      TH0
      00000086H   SFRSYM    DATA     BYTE      CRC0CN1
      000000B8H.4 SFRSYM    DATA     BIT       IP_PS0
      000000FAH   SFRSYM    DATA     BYTE      UART1FCT
      0000008DH   SFRSYM    DATA     BYTE      TH1
      000000FAH   SFRSYM    DATA     BYTE      PCA0H
      000000F5H   SFRSYM    DATA     BYTE      I2C0FCT
      000000B8H.1 SFRSYM    DATA     BIT       IP_PT0
      000000B8H.3 SFRSYM    DATA     BIT       IP_PT1
      000000C0H.2 SFRSYM    DATA     BIT       SMB0CN0_ARBLOST
      000000B8H.5 SFRSYM    DATA     BIT       IP_PT2
      0000008AH   SFRSYM    DATA     BYTE      TL0
      000000D0H.5 SFRSYM    DATA     BIT       PSW_F0
      000000A8H.6 SFRSYM    DATA     BIT       IE_ESPI0
      0000008BH   SFRSYM    DATA     BYTE      TL1
      000000F9H   SFRSYM    DATA     BYTE      PCA0L
      000000C0H.0 SFRSYM    DATA     BIT       SMB0CN0_SI
      000000D0H.1 SFRSYM    DATA     BIT       PSW_F1
      00000080H.0 SFRSYM    DATA     BIT       P0_B0
      000000B8H.0 SFRSYM    DATA     BIT       IP_PX0
      00000090H.0 SFRSYM    DATA     BIT       P1_B0
      00000080H.1 SFRSYM    DATA     BIT       P0_B1
      000000B8H.2 SFRSYM    DATA     BIT       IP_PX1
      0000009EH   SFRSYM    DATA     BYTE      UART1LIN
      0000009BH   SFRSYM    DATA     BYTE      CMP0CN0
      00000088H.1 SFRSYM    DATA     BIT       TCON_IE0
      000000A0H.0 SFRSYM    DATA     BIT       P2_B0
      00000090H.1 SFRSYM    DATA     BIT       P1_B1
      00000080H.2 SFRSYM    DATA     BIT       P0_B2
      000000BFH   SFRSYM    DATA     BYTE      CMP1CN0
      00000099H   SFRSYM    DATA     BYTE      CMP0CN1
      00000088H.3 SFRSYM    DATA     BIT       TCON_IE1
      000000B0H.0 SFRSYM    DATA     BIT       P3_B0
      000000A0H.1 SFRSYM    DATA     BIT       P2_B1
      00000090H.2 SFRSYM    DATA     BIT       P1_B2
      00000080H.3 SFRSYM    DATA     BIT       P0_B3
      000000C0H   SFRSYM    DATA     BYTE      SMB0CN0
      000000ACH   SFRSYM    DATA     BYTE      CMP1CN1
      000000B0H.1 SFRSYM    DATA     BIT       P3_B1
      000000A0H.2 SFRSYM    DATA     BIT       P2_B2
      00000090H.3 SFRSYM    DATA     BIT       P1_B3
      00000080H.4 SFRSYM    DATA     BIT       P0_B4
      000000A0H.3 SFRSYM    DATA     BIT       P2_B3
      00000090H.4 SFRSYM    DATA     BIT       P1_B4
      00000080H.5 SFRSYM    DATA     BIT       P0_B5
      000000D8H.1 SFRSYM    DATA     BIT       UART1FCN1_RXTO0
LX51 LINKER/LOCATER V4.66.97.0                                                        08/08/2020  16:35:51  PAGE 48


      00000090H.5 SFRSYM    DATA     BIT       P1_B5
      00000080H.6 SFRSYM    DATA     BIT       P0_B6
      000000F5H   SFRSYM    DATA     BYTE      EIP1H
      000000D8H.2 SFRSYM    DATA     BIT       UART1FCN1_RXTO1
      00000090H.6 SFRSYM    DATA     BIT       P1_B6
      00000080H.7 SFRSYM    DATA     BIT       P0_B7
      000000C5H   SFRSYM    DATA     BYTE      SMB0RXLN
      000000F6H   SFRSYM    DATA     BYTE      EIP2H
      00000090H.7 SFRSYM    DATA     BIT       P1_B7
      00000083H   SFRSYM    DATA     BYTE      DPH
      000000C4H   SFRSYM    DATA     BYTE      ADC0GTH
      000000C8H.7 SFRSYM    DATA     BIT       TMR2CN0_TF2H
      000000C8H.3 SFRSYM    DATA     BIT       TMR2CN0_T2SPLIT
      000000D0H.6 SFRSYM    DATA     BIT       PSW_AC
      000000F8H   SFRSYM    DATA     BYTE      SPI0CN0
      000000C7H   SFRSYM    DATA     BYTE      HFO0CAL
      00000088H.5 SFRSYM    DATA     BIT       TCON_TF0
      00000098H.0 SFRSYM    DATA     BIT       SCON0_RI
      000000D6H   SFRSYM    DATA     BYTE      HFO1CAL
      00000082H   SFRSYM    DATA     BYTE      DPL
      00000088H.7 SFRSYM    DATA     BIT       TCON_TF1
      000000C8H.0 SFRSYM    DATA     BIT       SCON1_RI
      00000099H   SFRSYM    DATA     BYTE      SBUF0
      00000087H   SFRSYM    DATA     BYTE      PCON0
      000000F2H   SFRSYM    DATA     BYTE      IPH
      000000C3H   SFRSYM    DATA     BYTE      ADC0GTL
      00000098H.7 SFRSYM    DATA     BIT       TMR4CN0_TF4H
      00000098H.3 SFRSYM    DATA     BIT       TMR4CN0_T4SPLIT
      000000C8H.6 SFRSYM    DATA     BIT       TMR2CN0_TF2L
      00000098H.1 SFRSYM    DATA     BIT       SCON0_TI
      000000E8H.0 SFRSYM    DATA     BIT       ADC0CN0_ADCM0
      00000092H   SFRSYM    DATA     BYTE      SBUF1
      0000009AH   SFRSYM    DATA     BYTE      PCON1
      000000C6H   SFRSYM    DATA     BYTE      ADC0LTH
      00000088H.0 SFRSYM    DATA     BIT       TCON_IT0
      000000C8H.1 SFRSYM    DATA     BIT       SCON1_TI
      000000E8H.1 SFRSYM    DATA     BIT       ADC0CN0_ADCM1
      000000EFH   SFRSYM    DATA     BYTE      RSTSRC
      000000FDH   SFRSYM    DATA     BYTE      P0MAT
      000000DEH   SFRSYM    DATA     BYTE      CRC0DAT
      00000088H.2 SFRSYM    DATA     BIT       TCON_IT1
      000000E8H.2 SFRSYM    DATA     BIT       ADC0CN0_ADCM2
      000000D7H   SFRSYM    DATA     BYTE      SFRSTACK
      00000098H   SFRSYM    DATA     BYTE      SCON0
      000000F6H   SFRSYM    DATA     BYTE      PRTDRV
      000000EDH   SFRSYM    DATA     BYTE      P1MAT
      000000E8H.3 SFRSYM    DATA     BIT       ADC0CN0_ADWINT
      00000095H   SFRSYM    DATA     WORD      SBRL1
      00000093H   SFRSYM    DATA     BYTE      SMOD1
      000000C8H   SFRSYM    DATA     BYTE      SCON1
      000000FBH   SFRSYM    DATA     BYTE      P2MAT
      00000098H.6 SFRSYM    DATA     BIT       TMR4CN0_TF4L
      000000E8H.4 SFRSYM    DATA     BIT       ADC0CN0_ADBUSY
      000000D6H   SFRSYM    DATA     BYTE      SMB0ADM
      000000C5H   SFRSYM    DATA     BYTE      ADC0LTL
      000000F8H.5 SFRSYM    DATA     BIT       SPI0CN0_MODF
      000000B8H.6 SFRSYM    DATA     BIT       IP_PSPI0
      0000009CH   SFRSYM    DATA     BYTE      PCA0CLR
      000000C8H   SFRSYM    DATA     BYTE      TMR2CN0
      00000091H   SFRSYM    DATA     BYTE      TMR3CN0
      000000FDH   SFRSYM    DATA     BYTE      TMR2CN1
      00000098H   SFRSYM    DATA     BYTE      TMR4CN0
LX51 LINKER/LOCATER V4.66.97.0                                                        08/08/2020  16:35:51  PAGE 49


      000000FEH   SFRSYM    DATA     BYTE      TMR3CN1
      000000FFH   SFRSYM    DATA     BYTE      TMR4CN1
      000000D7H   SFRSYM    DATA     BYTE      SMB0ADR
      00000088H.4 SFRSYM    DATA     BIT       TCON_TR0
      000000C8H.4 SFRSYM    DATA     BIT       TMR2CN0_TF2CEN
      00000088H.6 SFRSYM    DATA     BIT       TCON_TR1
      000000C2H   SFRSYM    DATA     BYTE      SMB0DAT
      000000CDH   SFRSYM    DATA     BYTE      TMR2H
      000000A1H   SFRSYM    DATA     BYTE      SPI0CFG
      00000095H   SFRSYM    DATA     BYTE      TMR3H
      000000EFH   SFRSYM    DATA     BYTE      HFOCN
      000000D3H   SFRSYM    DATA     BYTE      CRC0CNT
      000000A5H   SFRSYM    DATA     BYTE      TMR4H
      00000098H.4 SFRSYM    DATA     BIT       TMR4CN0_TF4CEN
      000000EFH   SFRSYM    DATA     BYTE      SMB0FCT
      00000096H   SFRSYM    DATA     BYTE      PCA0POL
      000000CCH   SFRSYM    DATA     BYTE      TMR2L
      000000F8H.7 SFRSYM    DATA     BIT       SPI0CN0_SPIF
      00000094H   SFRSYM    DATA     BYTE      TMR3L
      000000DFH   SFRSYM    DATA     BYTE      ADC0PWR
      000000A8H.7 SFRSYM    DATA     BIT       IE_EA
      000000A4H   SFRSYM    DATA     BYTE      TMR4L
      000000C8H.5 SFRSYM    DATA     BIT       TMR2CN0_TF2LEN
      000000F8H.6 SFRSYM    DATA     BIT       SPI0CN0_WCOL
      000000F8H.2 SFRSYM    DATA     BIT       SPI0CN0_NSSMD0
      000000D0H.7 SFRSYM    DATA     BIT       PSW_CY
      0000009DH   SFRSYM    DATA     BYTE      UART1FCN0
      000000A3H   SFRSYM    DATA     BYTE      SPI0DAT
      000000ADH   SFRSYM    DATA     BYTE      I2C0FCN0
      000000F8H.3 SFRSYM    DATA     BIT       SPI0CN0_NSSMD1
      000000BDH   SFRSYM    DATA     WORD      ADC0
      000000D8H   SFRSYM    DATA     BYTE      UART1FCN1
      000000ABH   SFRSYM    DATA     BYTE      I2C0FCN1
      00000098H.5 SFRSYM    DATA     BIT       TMR4CN0_TF4LEN
      000000D0H   SFRSYM    DATA     BYTE      PSW
      000000F7H   SFRSYM    DATA     BYTE      PCA0PWM
      000000F7H   SFRSYM    DATA     BYTE      SPI0FCT
      000000B6H   SFRSYM    DATA     BYTE      REVID
      000000B7H   SFRSYM    DATA     BYTE      FLKEY
      000000B3H   SFRSYM    DATA     BYTE      ADC0AC

      01003117H   BLOCK     CODE     ---       LVL=0
      01003117H   LINE      CODE     ---       #18
      01003117H   LINE      CODE     ---       #19
      01003117H   LINE      CODE     ---       #20
      0100311AH   LINE      CODE     ---       #21
      0100311DH   LINE      CODE     ---       #23
      01003120H   LINE      CODE     ---       #24
      01003122H   LINE      CODE     ---       #25
      01003124H   LINE      CODE     ---       #26
      0100312AH   LINE      CODE     ---       #27
      0100312DH   LINE      CODE     ---       #28
      01003130H   LINE      CODE     ---       #29
      01003136H   LINE      CODE     ---       #31
      ---         BLOCKEND  ---      ---       LVL=0

      01003173H   BLOCK     CODE     ---       LVL=0
      00000007H   SYMBOL    DATA     BYTE      Switch
      01003173H   LINE      CODE     ---       #34
      01003173H   LINE      CODE     ---       #35
      01003173H   LINE      CODE     ---       #36
      01003176H   LINE      CODE     ---       #37
LX51 LINKER/LOCATER V4.66.97.0                                                        08/08/2020  16:35:51  PAGE 50


      0100317EH   LINE      CODE     ---       #38
      0100317EH   LINE      CODE     ---       #39
      01003181H   LINE      CODE     ---       #40
      01003184H   LINE      CODE     ---       #41
      01003184H   LINE      CODE     ---       #42
      01003188H   LINE      CODE     ---       #43
      01003188H   LINE      CODE     ---       #44
      0100318BH   LINE      CODE     ---       #45
      0100318EH   LINE      CODE     ---       #46
      0100318EH   LINE      CODE     ---       #47
      ---         BLOCKEND  ---      ---       LVL=0

      01000056H   BLOCK     CODE     ---       LVL=0
      01000056H   LINE      CODE     ---       #49
      01000056H   LINE      CODE     ---       #50
      01000056H   LINE      CODE     ---       #51
      01000058H   LINE      CODE     ---       #52
      ---         BLOCKEND  ---      ---       LVL=0

      01003271H   BLOCK     CODE     ---       LVL=0
      01003271H   LINE      CODE     ---       #54
      01003271H   LINE      CODE     ---       #55
      01003271H   LINE      CODE     ---       #56
      01003273H   LINE      CODE     ---       #57
      ---         BLOCKEND  ---      ---       LVL=0

      010030B0H   BLOCK     CODE     ---       LVL=0
      010030B0H   LINE      CODE     ---       #59
      010030B0H   LINE      CODE     ---       #60
      010030B0H   LINE      CODE     ---       #61
      010030B3H   LINE      CODE     ---       #63
      010030B6H   LINE      CODE     ---       #65
      010030B9H   LINE      CODE     ---       #67
      010030BCH   LINE      CODE     ---       #69
      010030BFH   LINE      CODE     ---       #73
      010030C2H   LINE      CODE     ---       #75
      010030C5H   LINE      CODE     ---       #77
      010030C8H   LINE      CODE     ---       #79
      010030CBH   LINE      CODE     ---       #83
      010030CDH   LINE      CODE     ---       #87
      010030CFH   LINE      CODE     ---       #90
      010030D2H   LINE      CODE     ---       #94
      ---         BLOCKEND  ---      ---       LVL=0

      ---         MODULE    ---      ---       DETECTOBJ
      0000005CH   PUBLIC    DATA     ---       EachSNMaxDistance
      00000034H   PUBLIC    DATA     ---       TableWidth
      020001D0H   PUBLIC    XDATA    ---       NearestData
      00000020H   PUBLIC    DATA     ---       TableHeight
      0000001AH   PUBLIC    DATA     ---       EachSNMaxDistance_5Snr
      00000014H   PUBLIC    DATA     ---       EachSNMaxDistance_3Snr
      0000000EH   PUBLIC    DATA     ---       EachSNMaxDistance_2Snr
      020001CDH   PUBLIC    XDATA    ---       DetObj_DataPrcs
      020001C4H   PUBLIC    XDATA    ---       DetInfo
      02000075H   PUBLIC    XDATA    ---       RawData
      00000008H   PUBLIC    DATA     ---       DetectInterval
      0200006AH   PUBLIC    XDATA    ---       AnsData
      0200001DH   PUBLIC    XDATA    ---       CmpData
      02000017H   PUBLIC    XDATA    ---       ClrtData
      0200000CH   PUBLIC    XDATA    ---       DiagInfo
      02000000H   PUBLIC    XDATA    ---       Noise
      01000EF9H   PUBLIC    CODE     ---       DetObj_CompareTheData
LX51 LINKER/LOCATER V4.66.97.0                                                        08/08/2020  16:35:51  PAGE 51


      01002990H   PUBLIC    CODE     ---       DetObj_ProcessTheRingTime
      010018BBH   PUBLIC    CODE     ---       DetObj_GenerateTheNearestObstacle
      01002D65H   PUBLIC    CODE     ---       DetObj_HoldTheObstaclestate
      010010E4H   PUBLIC    CODE     ---       DetObj_DetTheObj
      01002203H   PUBLIC    CODE     ---       DetObj_RawNoiseDataAns
      01000CC1H   PUBLIC    CODE     ---       DetObj_RawEchoDataAns
      0100128CH   PUBLIC    CODE     ---       DetObj_RawFilter
      01001423H   PUBLIC    CODE     ---       DetObj_CalSampNoise
      00000065H   PUBLIC    DATA     BYTE      ?_DetObj_CopySamplingBuffer?BYTE
      01002F22H   PUBLIC    CODE     ---       _DetObj_CopySamplingBuffer
      01002DEEH   PUBLIC    CODE     ---       DetObj_ClearTheNoiseBuff
      01002CCEH   PUBLIC    CODE     ---       _GetDistance
      01002F7AH   PUBLIC    CODE     ---       DetObj_ClearTheRawDataBuff
      01002D1BH   PUBLIC    CODE     ---       DetObj_InitTheCCD
      01002C81H   PUBLIC    CODE     ---       DetObj_InitTheEPD
      0100006BH   PUBLIC    CODE     ---       DetObj_InitTheAnalysisData
      0100001CH   PUBLIC    CODE     ---       DetObj_Stop
      0100325FH   PUBLIC    CODE     ---       DetObj_Start
      010022C6H   PUBLIC    CODE     ---       DetObj_DiagnosticTheRingTime
      01003155H   PUBLIC    CODE     ---       DetObj_DiagnosticTheSensor
      0100287BH   PUBLIC    CODE     ---       DetObj_SendThe58KhzUltraSonic
      01002F50H   PUBLIC    CODE     ---       DetObj_RealTimeClock
      01002BE0H   PUBLIC    CODE     ---       DetObj_InitAllChannelDistance
      000000A2H   SFRSYM    DATA     BYTE      SPI0CKR
      00000080H   SFRSYM    DATA     BYTE      P0
      000000C8H.6 SFRSYM    DATA     BIT       SCON1_PERR
      000000D0H.2 SFRSYM    DATA     BIT       PSW_OV
      00000090H   SFRSYM    DATA     BYTE      P1
      000000F8H.1 SFRSYM    DATA     BIT       SPI0CN0_TXNF
      00000097H   SFRSYM    DATA     BYTE      WDTCN
      000000A0H   SFRSYM    DATA     BYTE      P2
      000000B0H   SFRSYM    DATA     BYTE      P3
      000000BCH   SFRSYM    DATA     BYTE      ADC0CF
      000000C0H.7 SFRSYM    DATA     BIT       SMB0CN0_MASTER
      000000F9H   SFRSYM    DATA     WORD      PCA0
      000000E6H   SFRSYM    DATA     BYTE      EIE1
      000000C0H.1 SFRSYM    DATA     BIT       SMB0CN0_ACK
      000000CEH   SFRSYM    DATA     BYTE      EIE2
      0000008FH   SFRSYM    DATA     BYTE      PSCTL
      000000E4H   SFRSYM    DATA     BYTE      IT01CF
      000000C0H.6 SFRSYM    DATA     BIT       SMB0CN0_TXMODE
      000000ADH   SFRSYM    DATA     BYTE      DERIVID
      000000A7H   SFRSYM    DATA     BYTE      SFRPAGE
      000000A4H   SFRSYM    DATA     BYTE      P0MDOUT
      000000A5H   SFRSYM    DATA     BYTE      P1MDOUT
      000000E8H.5 SFRSYM    DATA     BIT       ADC0CN0_ADINT
      000000CBH   SFRSYM    DATA     BYTE      TMR2RLH
      000000A6H   SFRSYM    DATA     BYTE      P2MDOUT
      000000A8H   SFRSYM    DATA     BYTE      IE
      00000093H   SFRSYM    DATA     BYTE      TMR3RLH
      0000009CH   SFRSYM    DATA     BYTE      P3MDOUT
      000000A3H   SFRSYM    DATA     BYTE      TMR4RLH
      000000F3H   SFRSYM    DATA     BYTE      EIP1
      000000F4H   SFRSYM    DATA     BYTE      EIP2
      00000098H.2 SFRSYM    DATA     BIT       SCON0_RB8
      000000CAH   SFRSYM    DATA     BYTE      TMR2RLL
      000000FCH   SFRSYM    DATA     BYTE      PCA0CPH0
      00000092H   SFRSYM    DATA     BYTE      TMR3RLL
      000000EAH   SFRSYM    DATA     BYTE      PCA0CPH1
      00000098H.3 SFRSYM    DATA     BIT       SCON0_TB8
      000000F0H.0 SFRSYM    DATA     BIT       B_B0
      00000082H   SFRSYM    DATA     WORD      DP
LX51 LINKER/LOCATER V4.66.97.0                                                        08/08/2020  16:35:51  PAGE 52


      000000A2H   SFRSYM    DATA     BYTE      TMR4RLL
      000000ECH   SFRSYM    DATA     BYTE      PCA0CPH2
      000000F0H.1 SFRSYM    DATA     BIT       B_B1
      000000C3H   SFRSYM    DATA     WORD      ADC0GT
      000000BDH   SFRSYM    DATA     BYTE      I2C0SLAD
      000000D8H.3 SFRSYM    DATA     BIT       UART1FCN1_RFRQ
      000000F0H.2 SFRSYM    DATA     BIT       B_B2
      000000CFH   SFRSYM    DATA     BYTE      SFRPGCN
      000000FBH   SFRSYM    DATA     BYTE      PCA0CPL0
      000000F0H.3 SFRSYM    DATA     BIT       B_B3
      000000D9H   SFRSYM    DATA     BYTE      PCA0MD
      000000DAH   SFRSYM    DATA     BYTE      PCA0CPM0
      000000E9H   SFRSYM    DATA     BYTE      PCA0CPL1
      000000D8H.7 SFRSYM    DATA     BIT       UART1FCN1_TFRQ
      000000F0H.4 SFRSYM    DATA     BIT       B_B4
      000000DBH   SFRSYM    DATA     BYTE      PCA0CPM1
      000000EBH   SFRSYM    DATA     BYTE      PCA0CPL2
      000000F0H.5 SFRSYM    DATA     BIT       B_B5
      000000DCH   SFRSYM    DATA     BYTE      PCA0CPM2
      000000B8H   SFRSYM    DATA     BYTE      IP
      000000B9H   SFRSYM    DATA     BYTE      ADC0TK
      000000F0H.6 SFRSYM    DATA     BIT       B_B6
      000000C5H   SFRSYM    DATA     WORD      ADC0LT
      000000D8H.6 SFRSYM    DATA     BIT       UART1FCN1_TXNF
      00000098H.5 SFRSYM    DATA     BIT       SCON0_MCE
      000000F0H.7 SFRSYM    DATA     BIT       B_B7
      000000C3H   SFRSYM    DATA     BYTE      SMB0FCN0
      000000E1H   SFRSYM    DATA     BYTE      XBR0
      000000C4H   SFRSYM    DATA     BYTE      SMB0FCN1
      000000C1H   SFRSYM    DATA     BYTE      SMB0CF
      000000E2H   SFRSYM    DATA     BYTE      XBR1
      000000C1H   SFRSYM    DATA     BYTE      PFE0CN
      000000E7H   SFRSYM    DATA     BYTE      EMI0CN
      000000C0H.5 SFRSYM    DATA     BIT       SMB0CN0_STA
      000000E3H   SFRSYM    DATA     BYTE      XBR2
      000000BBH   SFRSYM    DATA     BYTE      ADC0MX
      000000E0H.0 SFRSYM    DATA     BIT       ACC_ACC0
      000000D1H   SFRSYM    DATA     BYTE      REF0CN
      0000008EH   SFRSYM    DATA     BYTE      CKCON0
      000000E0H.1 SFRSYM    DATA     BIT       ACC_ACC1
      000000C9H   SFRSYM    DATA     BYTE      REG0CN
      000000DDH   SFRSYM    DATA     BYTE      CRC0IN
      000000A6H   SFRSYM    DATA     BYTE      CKCON1
      000000C8H.2 SFRSYM    DATA     BIT       TMR2CN0_TR2
      000000E0H.2 SFRSYM    DATA     BIT       ACC_ACC2
      000000C6H   SFRSYM    DATA     BYTE      REG1CN
      000000E0H.3 SFRSYM    DATA     BIT       ACC_ACC3
      00000081H   SFRSYM    DATA     BYTE      SP
      0000009DH   SFRSYM    DATA     BYTE      CMP0MD
      000000E0H.4 SFRSYM    DATA     BIT       ACC_ACC4
      000000B1H   SFRSYM    DATA     BYTE      LFO0CN
      000000ABH   SFRSYM    DATA     BYTE      CMP1MD
      000000D8H.0 SFRSYM    DATA     BIT       PCA0CN0_CCF0
      000000E0H.5 SFRSYM    DATA     BIT       ACC_ACC5
      00000098H.2 SFRSYM    DATA     BIT       TMR4CN0_TR4
      000000D8H.1 SFRSYM    DATA     BIT       PCA0CN0_CCF1
      000000E0H.6 SFRSYM    DATA     BIT       ACC_ACC6
      000000CCH   SFRSYM    DATA     WORD      TMR2
      0000009AH   SFRSYM    DATA     BYTE      SPI0FCN0
      000000D8H.2 SFRSYM    DATA     BIT       PCA0CN0_CCF2
      000000E0H.7 SFRSYM    DATA     BIT       ACC_ACC7
      00000094H   SFRSYM    DATA     WORD      TMR3
LX51 LINKER/LOCATER V4.66.97.0                                                        08/08/2020  16:35:51  PAGE 53


      0000009BH   SFRSYM    DATA     BYTE      SPI0FCN1
      000000A4H   SFRSYM    DATA     WORD      TMR4
      00000094H   SFRSYM    DATA     BYTE      SBCON1
      000000C0H.3 SFRSYM    DATA     BIT       SMB0CN0_ACKRQ
      000000FFH   SFRSYM    DATA     BYTE      VDM0CN
      000000F1H   SFRSYM    DATA     BYTE      P0MDIN
      00000098H.4 SFRSYM    DATA     BIT       SCON0_REN
      000000ACH   SFRSYM    DATA     BYTE      SMB0TC
      000000F2H   SFRSYM    DATA     BYTE      P1MDIN
      000000C8H.4 SFRSYM    DATA     BIT       SCON1_REN
      000000F3H   SFRSYM    DATA     BYTE      P2MDIN
      000000C0H.4 SFRSYM    DATA     BIT       SMB0CN0_STO
      000000F4H   SFRSYM    DATA     BYTE      P3MDIN
      000000B9H   SFRSYM    DATA     BYTE      I2C0STAT
      000000BBH   SFRSYM    DATA     BYTE      I2C0DOUT
      00000096H   SFRSYM    DATA     BYTE      SBRLH1
      000000FEH   SFRSYM    DATA     BYTE      P0MASK
      000000D8H.5 SFRSYM    DATA     BIT       UART1FCN1_TXHOLD
      000000EEH   SFRSYM    DATA     BYTE      P1MASK
      000000FCH   SFRSYM    DATA     BYTE      P2MASK
      000000D0H.3 SFRSYM    DATA     BIT       PSW_RS0
      000000D8H.7 SFRSYM    DATA     BIT       PCA0CN0_CF
      0000009EH   SFRSYM    DATA     BYTE      PCA0CENT
      000000BAH   SFRSYM    DATA     BYTE      I2C0CN0
      000000D2H   SFRSYM    DATA     BYTE      CRC0ST
      000000F8H.4 SFRSYM    DATA     BIT       SPI0CN0_RXOVRN
      000000D0H.4 SFRSYM    DATA     BIT       PSW_RS1
      00000095H   SFRSYM    DATA     BYTE      SBRLL1
      000000C8H.2 SFRSYM    DATA     BIT       SCON1_RBX
      000000C8H.0 SFRSYM    DATA     BIT       TMR2CN0_T2XCLK0
      000000C8H.1 SFRSYM    DATA     BIT       TMR2CN0_T2XCLK1
      000000C8H.3 SFRSYM    DATA     BIT       SCON1_TBX
      000000E8H.7 SFRSYM    DATA     BIT       ADC0CN0_ADEN
      00000089H   SFRSYM    DATA     BYTE      TMOD
      00000088H   SFRSYM    DATA     BYTE      TCON
      000000CFH   SFRSYM    DATA     BYTE      CRC0FLIP
      000000D0H.0 SFRSYM    DATA     BIT       PSW_PARITY
      000000A8H.4 SFRSYM    DATA     BIT       IE_ES0
      0000009FH   SFRSYM    DATA     BYTE      CMP0MX
      00000098H.0 SFRSYM    DATA     BIT       TMR4CN0_T4XCLK0
      000000A8H.1 SFRSYM    DATA     BIT       IE_ET0
      000000AAH   SFRSYM    DATA     BYTE      CMP1MX
      00000098H.1 SFRSYM    DATA     BIT       TMR4CN0_T4XCLK1
      000000A8H.3 SFRSYM    DATA     BIT       IE_ET1
      000000D4H   SFRSYM    DATA     BYTE      P0SKIP
      000000D8H.0 SFRSYM    DATA     BIT       UART1FCN1_RIE
      000000A8H.5 SFRSYM    DATA     BIT       IE_ET2
      000000D5H   SFRSYM    DATA     BYTE      P1SKIP
      000000CCH   SFRSYM    DATA     BYTE      P2SKIP
      000000E8H   SFRSYM    DATA     BYTE      ADC0CN0
      000000D8H.4 SFRSYM    DATA     BIT       UART1FCN1_TIE
      000000A8H.0 SFRSYM    DATA     BIT       IE_EX0
      000000B2H   SFRSYM    DATA     BYTE      ADC0CN1
      000000D8H.6 SFRSYM    DATA     BIT       PCA0CN0_CR
      000000A8H.2 SFRSYM    DATA     BIT       IE_EX1
      000000C8H.7 SFRSYM    DATA     BIT       SCON1_OVR
      00000098H.7 SFRSYM    DATA     BIT       SCON0_SMODE
      000000B5H   SFRSYM    DATA     BYTE      DEVICEID
      000000A9H   SFRSYM    DATA     BYTE      CLKSEL
      000000F8H.0 SFRSYM    DATA     BIT       SPI0CN0_SPIEN
      000000F0H   SFRSYM    DATA     BYTE      B
      000000BEH   SFRSYM    DATA     BYTE      ADC0H
LX51 LINKER/LOCATER V4.66.97.0                                                        08/08/2020  16:35:51  PAGE 54


      000000E8H.6 SFRSYM    DATA     BIT       ADC0CN0_ADBMEN
      000000CAH   SFRSYM    DATA     WORD      TMR2RL
      000000BDH   SFRSYM    DATA     BYTE      ADC0L
      00000092H   SFRSYM    DATA     WORD      TMR3RL
      000000A2H   SFRSYM    DATA     WORD      TMR4RL
      000000D8H   SFRSYM    DATA     BYTE      PCA0CN0
      000000E0H   SFRSYM    DATA     BYTE      ACC
      000000FBH   SFRSYM    DATA     WORD      PCA0CP0
      000000E9H   SFRSYM    DATA     WORD      PCA0CP1
      000000EBH   SFRSYM    DATA     WORD      PCA0CP2
      000000BCH   SFRSYM    DATA     BYTE      I2C0DIN
      000000CEH   SFRSYM    DATA     BYTE      CRC0CN0
      0000008CH   SFRSYM    DATA     BYTE      TH0
      00000086H   SFRSYM    DATA     BYTE      CRC0CN1
      000000B8H.4 SFRSYM    DATA     BIT       IP_PS0
      000000FAH   SFRSYM    DATA     BYTE      UART1FCT
      0000008DH   SFRSYM    DATA     BYTE      TH1
      000000FAH   SFRSYM    DATA     BYTE      PCA0H
      000000F5H   SFRSYM    DATA     BYTE      I2C0FCT
      000000B8H.1 SFRSYM    DATA     BIT       IP_PT0
      000000B8H.3 SFRSYM    DATA     BIT       IP_PT1
      000000C0H.2 SFRSYM    DATA     BIT       SMB0CN0_ARBLOST
      000000B8H.5 SFRSYM    DATA     BIT       IP_PT2
      0000008AH   SFRSYM    DATA     BYTE      TL0
      000000D0H.5 SFRSYM    DATA     BIT       PSW_F0
      000000A8H.6 SFRSYM    DATA     BIT       IE_ESPI0
      0000008BH   SFRSYM    DATA     BYTE      TL1
      000000F9H   SFRSYM    DATA     BYTE      PCA0L
      000000C0H.0 SFRSYM    DATA     BIT       SMB0CN0_SI
      000000D0H.1 SFRSYM    DATA     BIT       PSW_F1
      00000080H.0 SFRSYM    DATA     BIT       P0_B0
      000000B8H.0 SFRSYM    DATA     BIT       IP_PX0
      00000090H.0 SFRSYM    DATA     BIT       P1_B0
      00000080H.1 SFRSYM    DATA     BIT       P0_B1
      000000B8H.2 SFRSYM    DATA     BIT       IP_PX1
      0000009EH   SFRSYM    DATA     BYTE      UART1LIN
      0000009BH   SFRSYM    DATA     BYTE      CMP0CN0
      00000088H.1 SFRSYM    DATA     BIT       TCON_IE0
      000000A0H.0 SFRSYM    DATA     BIT       P2_B0
      00000090H.1 SFRSYM    DATA     BIT       P1_B1
      00000080H.2 SFRSYM    DATA     BIT       P0_B2
      000000BFH   SFRSYM    DATA     BYTE      CMP1CN0
      00000099H   SFRSYM    DATA     BYTE      CMP0CN1
      00000088H.3 SFRSYM    DATA     BIT       TCON_IE1
      000000B0H.0 SFRSYM    DATA     BIT       P3_B0
      000000A0H.1 SFRSYM    DATA     BIT       P2_B1
      00000090H.2 SFRSYM    DATA     BIT       P1_B2
      00000080H.3 SFRSYM    DATA     BIT       P0_B3
      000000C0H   SFRSYM    DATA     BYTE      SMB0CN0
      000000ACH   SFRSYM    DATA     BYTE      CMP1CN1
      000000B0H.1 SFRSYM    DATA     BIT       P3_B1
      000000A0H.2 SFRSYM    DATA     BIT       P2_B2
      00000090H.3 SFRSYM    DATA     BIT       P1_B3
      00000080H.4 SFRSYM    DATA     BIT       P0_B4
      000000A0H.3 SFRSYM    DATA     BIT       P2_B3
      00000090H.4 SFRSYM    DATA     BIT       P1_B4
      00000080H.5 SFRSYM    DATA     BIT       P0_B5
      000000D8H.1 SFRSYM    DATA     BIT       UART1FCN1_RXTO0
      00000090H.5 SFRSYM    DATA     BIT       P1_B5
      00000080H.6 SFRSYM    DATA     BIT       P0_B6
      000000F5H   SFRSYM    DATA     BYTE      EIP1H
      000000D8H.2 SFRSYM    DATA     BIT       UART1FCN1_RXTO1
LX51 LINKER/LOCATER V4.66.97.0                                                        08/08/2020  16:35:51  PAGE 55


      00000090H.6 SFRSYM    DATA     BIT       P1_B6
      00000080H.7 SFRSYM    DATA     BIT       P0_B7
      000000C5H   SFRSYM    DATA     BYTE      SMB0RXLN
      000000F6H   SFRSYM    DATA     BYTE      EIP2H
      00000090H.7 SFRSYM    DATA     BIT       P1_B7
      00000083H   SFRSYM    DATA     BYTE      DPH
      000000C4H   SFRSYM    DATA     BYTE      ADC0GTH
      000000C8H.7 SFRSYM    DATA     BIT       TMR2CN0_TF2H
      000000C8H.3 SFRSYM    DATA     BIT       TMR2CN0_T2SPLIT
      000000D0H.6 SFRSYM    DATA     BIT       PSW_AC
      000000F8H   SFRSYM    DATA     BYTE      SPI0CN0
      000000C7H   SFRSYM    DATA     BYTE      HFO0CAL
      00000088H.5 SFRSYM    DATA     BIT       TCON_TF0
      00000098H.0 SFRSYM    DATA     BIT       SCON0_RI
      000000D6H   SFRSYM    DATA     BYTE      HFO1CAL
      00000082H   SFRSYM    DATA     BYTE      DPL
      00000088H.7 SFRSYM    DATA     BIT       TCON_TF1
      000000C8H.0 SFRSYM    DATA     BIT       SCON1_RI
      00000099H   SFRSYM    DATA     BYTE      SBUF0
      00000087H   SFRSYM    DATA     BYTE      PCON0
      000000F2H   SFRSYM    DATA     BYTE      IPH
      000000C3H   SFRSYM    DATA     BYTE      ADC0GTL
      00000098H.7 SFRSYM    DATA     BIT       TMR4CN0_TF4H
      00000098H.3 SFRSYM    DATA     BIT       TMR4CN0_T4SPLIT
      000000C8H.6 SFRSYM    DATA     BIT       TMR2CN0_TF2L
      00000098H.1 SFRSYM    DATA     BIT       SCON0_TI
      000000E8H.0 SFRSYM    DATA     BIT       ADC0CN0_ADCM0
      00000092H   SFRSYM    DATA     BYTE      SBUF1
      0000009AH   SFRSYM    DATA     BYTE      PCON1
      000000C6H   SFRSYM    DATA     BYTE      ADC0LTH
      00000088H.0 SFRSYM    DATA     BIT       TCON_IT0
      000000C8H.1 SFRSYM    DATA     BIT       SCON1_TI
      000000E8H.1 SFRSYM    DATA     BIT       ADC0CN0_ADCM1
      000000EFH   SFRSYM    DATA     BYTE      RSTSRC
      000000FDH   SFRSYM    DATA     BYTE      P0MAT
      000000DEH   SFRSYM    DATA     BYTE      CRC0DAT
      00000088H.2 SFRSYM    DATA     BIT       TCON_IT1
      000000E8H.2 SFRSYM    DATA     BIT       ADC0CN0_ADCM2
      000000D7H   SFRSYM    DATA     BYTE      SFRSTACK
      00000098H   SFRSYM    DATA     BYTE      SCON0
      000000F6H   SFRSYM    DATA     BYTE      PRTDRV
      000000EDH   SFRSYM    DATA     BYTE      P1MAT
      000000E8H.3 SFRSYM    DATA     BIT       ADC0CN0_ADWINT
      00000095H   SFRSYM    DATA     WORD      SBRL1
      00000093H   SFRSYM    DATA     BYTE      SMOD1
      000000C8H   SFRSYM    DATA     BYTE      SCON1
      000000FBH   SFRSYM    DATA     BYTE      P2MAT
      00000098H.6 SFRSYM    DATA     BIT       TMR4CN0_TF4L
      000000E8H.4 SFRSYM    DATA     BIT       ADC0CN0_ADBUSY
      000000D6H   SFRSYM    DATA     BYTE      SMB0ADM
      000000C5H   SFRSYM    DATA     BYTE      ADC0LTL
      000000F8H.5 SFRSYM    DATA     BIT       SPI0CN0_MODF
      000000B8H.6 SFRSYM    DATA     BIT       IP_PSPI0
      0000009CH   SFRSYM    DATA     BYTE      PCA0CLR
      000000C8H   SFRSYM    DATA     BYTE      TMR2CN0
      00000091H   SFRSYM    DATA     BYTE      TMR3CN0
      000000FDH   SFRSYM    DATA     BYTE      TMR2CN1
      00000098H   SFRSYM    DATA     BYTE      TMR4CN0
      000000FEH   SFRSYM    DATA     BYTE      TMR3CN1
      000000FFH   SFRSYM    DATA     BYTE      TMR4CN1
      000000D7H   SFRSYM    DATA     BYTE      SMB0ADR
      00000088H.4 SFRSYM    DATA     BIT       TCON_TR0
LX51 LINKER/LOCATER V4.66.97.0                                                        08/08/2020  16:35:51  PAGE 56


      000000C8H.4 SFRSYM    DATA     BIT       TMR2CN0_TF2CEN
      00000088H.6 SFRSYM    DATA     BIT       TCON_TR1
      000000C2H   SFRSYM    DATA     BYTE      SMB0DAT
      000000CDH   SFRSYM    DATA     BYTE      TMR2H
      000000A1H   SFRSYM    DATA     BYTE      SPI0CFG
      00000095H   SFRSYM    DATA     BYTE      TMR3H
      000000EFH   SFRSYM    DATA     BYTE      HFOCN
      000000D3H   SFRSYM    DATA     BYTE      CRC0CNT
      000000A5H   SFRSYM    DATA     BYTE      TMR4H
      00000098H.4 SFRSYM    DATA     BIT       TMR4CN0_TF4CEN
      000000EFH   SFRSYM    DATA     BYTE      SMB0FCT
      00000096H   SFRSYM    DATA     BYTE      PCA0POL
      000000CCH   SFRSYM    DATA     BYTE      TMR2L
      000000F8H.7 SFRSYM    DATA     BIT       SPI0CN0_SPIF
      00000094H   SFRSYM    DATA     BYTE      TMR3L
      000000DFH   SFRSYM    DATA     BYTE      ADC0PWR
      000000A8H.7 SFRSYM    DATA     BIT       IE_EA
      000000A4H   SFRSYM    DATA     BYTE      TMR4L
      000000C8H.5 SFRSYM    DATA     BIT       TMR2CN0_TF2LEN
      000000F8H.6 SFRSYM    DATA     BIT       SPI0CN0_WCOL
      000000F8H.2 SFRSYM    DATA     BIT       SPI0CN0_NSSMD0
      000000D0H.7 SFRSYM    DATA     BIT       PSW_CY
      0000009DH   SFRSYM    DATA     BYTE      UART1FCN0
      000000A3H   SFRSYM    DATA     BYTE      SPI0DAT
      000000ADH   SFRSYM    DATA     BYTE      I2C0FCN0
      000000F8H.3 SFRSYM    DATA     BIT       SPI0CN0_NSSMD1
      000000BDH   SFRSYM    DATA     WORD      ADC0
      000000D8H   SFRSYM    DATA     BYTE      UART1FCN1
      000000ABH   SFRSYM    DATA     BYTE      I2C0FCN1
      00000098H.5 SFRSYM    DATA     BIT       TMR4CN0_TF4LEN
      000000D0H   SFRSYM    DATA     BYTE      PSW
      000000F7H   SFRSYM    DATA     BYTE      PCA0PWM
      000000F7H   SFRSYM    DATA     BYTE      SPI0FCT
      000000B6H   SFRSYM    DATA     BYTE      REVID
      000000B7H   SFRSYM    DATA     BYTE      FLKEY
      000000B3H   SFRSYM    DATA     BYTE      ADC0AC

      010009E8H   BLOCK     CODE     ---       LVL=0
      ---         BLOCKEND  ---      ---       LVL=0
      00000007H   SYMBOL    DATA     BYTE      i
      00000002H   SYMBOL    DATA     WORD      i

      01002BE0H   BLOCK     CODE     ---       LVL=0
      01002BE0H   BLOCK     CODE     NEAR LAB  LVL=1
      020002C1H   SYMBOL    XDATA    BYTE      i
      ---         BLOCKEND  ---      ---       LVL=1
      01002BE0H   LINE      CODE     ---       #243
      01002BE0H   LINE      CODE     ---       #244
      01002BE0H   LINE      CODE     ---       #246
      01002BE6H   LINE      CODE     ---       #247
      01002BE7H   LINE      CODE     ---       #248
      01002BE7H   LINE      CODE     ---       #249
      01002BF7H   LINE      CODE     ---       #250
      01002BF7H   LINE      CODE     ---       #251
      01002BFFH   LINE      CODE     ---       #252
      01002C0CH   LINE      CODE     ---       #253
      01002C18H   LINE      CODE     ---       #254
      01002C1EH   LINE      CODE     ---       #255
      01002C26H   LINE      CODE     ---       #256
      01002C2CH   LINE      CODE     ---       #257
      01002C31H   LINE      CODE     ---       #258
      ---         BLOCKEND  ---      ---       LVL=0
LX51 LINKER/LOCATER V4.66.97.0                                                        08/08/2020  16:35:51  PAGE 57



      01002F50H   BLOCK     CODE     ---       LVL=0
      01002F50H   LINE      CODE     ---       #261
      01002F50H   LINE      CODE     ---       #262
      01002F50H   LINE      CODE     ---       #263
      01002F5EH   LINE      CODE     ---       #264
      01002F6DH   LINE      CODE     ---       #265
      01002F6DH   LINE      CODE     ---       #266
      01002F79H   LINE      CODE     ---       #267
      01002F79H   LINE      CODE     ---       #268
      ---         BLOCKEND  ---      ---       LVL=0

      0100287BH   BLOCK     CODE     ---       LVL=0
      0100287BH   BLOCK     CODE     NEAR LAB  LVL=1
      00000065H   SYMBOL    DATA     BYTE      i
      ---         BLOCKEND  ---      ---       LVL=1
      0100287BH   LINE      CODE     ---       #346
      0100287BH   LINE      CODE     ---       #347
      0100287BH   LINE      CODE     ---       #350
      0100287EH   LINE      CODE     ---       #351
      0100288AH   LINE      CODE     ---       #352
      0100288AH   LINE      CODE     ---       #353
      0100288CH   LINE      CODE     ---       #354
      0100288EH   LINE      CODE     ---       #355
      01002895H   LINE      CODE     ---       #356
      010028A5H   LINE      CODE     ---       #357
      010028B5H   LINE      CODE     ---       #358
      010028C1H   LINE      CODE     ---       #359
      010028C3H   LINE      CODE     ---       #360
      010028C5H   LINE      CODE     ---       #361
      010028CCH   LINE      CODE     ---       #362
      010028DCH   LINE      CODE     ---       #363
      010028ECH   LINE      CODE     ---       #364
      010028F2H   LINE      CODE     ---       #365
      010028F6H   LINE      CODE     ---       #366
      010028F8H   LINE      CODE     ---       #367
      010028FAH   LINE      CODE     ---       #368
      01002904H   LINE      CODE     ---       #369
      ---         BLOCKEND  ---      ---       LVL=0

      01003155H   BLOCK     CODE     ---       LVL=0
      01003155H   LINE      CODE     ---       #376
      01003155H   LINE      CODE     ---       #377
      01003155H   LINE      CODE     ---       #378
      01003166H   LINE      CODE     ---       #379
      01003166H   LINE      CODE     ---       #380
      0100316CH   LINE      CODE     ---       #381
      0100316DH   LINE      CODE     ---       #383
      0100316DH   LINE      CODE     ---       #384
      01003172H   LINE      CODE     ---       #385
      01003172H   LINE      CODE     ---       #386
      ---         BLOCKEND  ---      ---       LVL=0

      010022C6H   BLOCK     CODE     ---       LVL=0
      010022C6H   LINE      CODE     ---       #398
      010022C6H   LINE      CODE     ---       #399
      010022C6H   LINE      CODE     ---       #400
      010022D3H   LINE      CODE     ---       #401
      010022D3H   LINE      CODE     ---       #402
      010022EBH   LINE      CODE     ---       #404
      010022EBH   LINE      CODE     ---       #405
      010022F1H   LINE      CODE     ---       #406
LX51 LINKER/LOCATER V4.66.97.0                                                        08/08/2020  16:35:51  PAGE 58


      01002300H   LINE      CODE     ---       #407
      01002305H   LINE      CODE     ---       #408
      01002305H   LINE      CODE     ---       #409
      01002308H   LINE      CODE     ---       #410
      01002308H   LINE      CODE     ---       #411
      0100230AH   LINE      CODE     ---       #412
      01002322H   LINE      CODE     ---       #414
      01002322H   LINE      CODE     ---       #415
      0100232AH   LINE      CODE     ---       #416
      01002334H   LINE      CODE     ---       #417
      01002336H   LINE      CODE     ---       #419
      01002336H   LINE      CODE     ---       #420
      0100233BH   LINE      CODE     ---       #421
      0100233BH   LINE      CODE     ---       #422
      0100233EH   LINE      CODE     ---       #423
      0100233EH   LINE      CODE     ---       #424
      0100233EH   LINE      CODE     ---       #425
      0100234DH   LINE      CODE     ---       #426
      0100234DH   LINE      CODE     ---       #427
      01002354H   LINE      CODE     ---       #428
      01002354H   LINE      CODE     ---       #429
      01002356H   LINE      CODE     ---       #431
      01002356H   LINE      CODE     ---       #433
      0100236FH   LINE      CODE     ---       #435
      0100236FH   LINE      CODE     ---       #436
      01002374H   LINE      CODE     ---       #437
      01002374H   LINE      CODE     ---       #438
      01002377H   LINE      CODE     ---       #439
      01002377H   LINE      CODE     ---       #440
      01002379H   LINE      CODE     ---       #442
      01002379H   LINE      CODE     ---       #444
      0100237EH   LINE      CODE     ---       #445
      0100237EH   LINE      CODE     ---       #446
      01002381H   LINE      CODE     ---       #447
      01002381H   LINE      CODE     ---       #448
      01002381H   LINE      CODE     ---       #449
      01002381H   LINE      CODE     ---       #450
      ---         BLOCKEND  ---      ---       LVL=0

      0100325FH   BLOCK     CODE     ---       LVL=0
      0100325FH   LINE      CODE     ---       #457
      0100325FH   LINE      CODE     ---       #458
      0100325FH   LINE      CODE     ---       #459
      01003262H   LINE      CODE     ---       #460
      01003265H   LINE      CODE     ---       #461
      ---         BLOCKEND  ---      ---       LVL=0

      0100001CH   BLOCK     CODE     ---       LVL=0
      0100001CH   LINE      CODE     ---       #464
      0100001CH   LINE      CODE     ---       #465
      0100001CH   LINE      CODE     ---       #466
      0100001FH   LINE      CODE     ---       #467
      ---         BLOCKEND  ---      ---       LVL=0

      0100006BH   BLOCK     CODE     ---       LVL=0
      0100006BH   LINE      CODE     ---       #470
      0100006BH   LINE      CODE     ---       #471
      0100006BH   LINE      CODE     ---       #472
      01000070H   LINE      CODE     ---       #473
      ---         BLOCKEND  ---      ---       LVL=0

      01002C81H   BLOCK     CODE     ---       LVL=0
LX51 LINKER/LOCATER V4.66.97.0                                                        08/08/2020  16:35:51  PAGE 59


      01002C81H   BLOCK     CODE     NEAR LAB  LVL=1
      00000007H   SYMBOL    DATA     BYTE      i
      ---         BLOCKEND  ---      ---       LVL=1
      01002C81H   LINE      CODE     ---       #478
      01002C81H   LINE      CODE     ---       #479
      01002C81H   LINE      CODE     ---       #481
      01002C8BH   LINE      CODE     ---       #482
      01002C93H   LINE      CODE     ---       #483
      01002C9CH   LINE      CODE     ---       #484
      01002CA2H   LINE      CODE     ---       #486
      01002CA8H   LINE      CODE     ---       #487
      01002CADH   LINE      CODE     ---       #488
      01002CB3H   LINE      CODE     ---       #489
      01002CB9H   LINE      CODE     ---       #491
      01002CC1H   LINE      CODE     ---       #492
      01002CC1H   LINE      CODE     ---       #493
      01002CCAH   LINE      CODE     ---       #494
      01002CCDH   LINE      CODE     ---       #495
      ---         BLOCKEND  ---      ---       LVL=0

      01002D1BH   BLOCK     CODE     ---       LVL=0
      01002D1BH   BLOCK     CODE     NEAR LAB  LVL=1
      00000007H   SYMBOL    DATA     BYTE      i
      ---         BLOCKEND  ---      ---       LVL=1
      01002D1BH   LINE      CODE     ---       #500
      01002D1BH   LINE      CODE     ---       #501
      01002D1BH   LINE      CODE     ---       #503
      01002D20H   LINE      CODE     ---       #504
      01002D24H   LINE      CODE     ---       #505
      01002D2AH   LINE      CODE     ---       #506
      01002D2DH   LINE      CODE     ---       #507
      01002D31H   LINE      CODE     ---       #509
      01002D35H   LINE      CODE     ---       #510
      01002D3AH   LINE      CODE     ---       #511
      01002D46H   LINE      CODE     ---       #512
      01002D46H   LINE      CODE     ---       #513
      01002D4CH   LINE      CODE     ---       #514
      01002D4FH   LINE      CODE     ---       #515
      01002D58H   LINE      CODE     ---       #516
      01002D58H   LINE      CODE     ---       #517
      01002D61H   LINE      CODE     ---       #518
      01002D64H   LINE      CODE     ---       #519
      ---         BLOCKEND  ---      ---       LVL=0

      01002F7AH   BLOCK     CODE     ---       LVL=0
      01002F7AH   BLOCK     CODE     NEAR LAB  LVL=1
      00000006H   SYMBOL    DATA     WORD      i
      ---         BLOCKEND  ---      ---       LVL=1
      01002F7AH   LINE      CODE     ---       #524
      01002F7AH   LINE      CODE     ---       #525
      01002F7AH   LINE      CODE     ---       #527
      01002F7DH   LINE      CODE     ---       #528
      01002F7DH   LINE      CODE     ---       #529
      01002F89H   LINE      CODE     ---       #530
      01002F94H   LINE      CODE     ---       #531
      01002F9BH   LINE      CODE     ---       #532
      01002FA1H   LINE      CODE     ---       #533
      ---         BLOCKEND  ---      ---       LVL=0

      01002CCEH   BLOCK     CODE     ---       LVL=0
      00000065H   SYMBOL    DATA     WORD      ObsTime
      00000067H   SYMBOL    DATA     WORD      EchoWidth
LX51 LINKER/LOCATER V4.66.97.0                                                        08/08/2020  16:35:51  PAGE 60


      00000003H   SYMBOL    DATA     BYTE      VolHeight
      01002CD6H   BLOCK     CODE     NEAR LAB  LVL=1
      00000005H   SYMBOL    DATA     BYTE      ret
      00000007H   SYMBOL    DATA     BYTE      Index
      ---         BLOCKEND  ---      ---       LVL=1
      01002CCEH   LINE      CODE     ---       #536
      01002CD6H   LINE      CODE     ---       #537
      01002CD6H   LINE      CODE     ---       #538
      01002CD8H   LINE      CODE     ---       #541
      01002CDDH   LINE      CODE     ---       #542
      01002CFFH   LINE      CODE     ---       #543
      01002CFFH   LINE      CODE     ---       #544
      01002D0EH   LINE      CODE     ---       #545
      01002D18H   LINE      CODE     ---       #546
      01002D18H   LINE      CODE     ---       #547
      01002D1AH   LINE      CODE     ---       #548
      ---         BLOCKEND  ---      ---       LVL=0

      01002DEEH   BLOCK     CODE     ---       LVL=0
      01002DEEH   LINE      CODE     ---       #553
      01002DEEH   LINE      CODE     ---       #554
      01002DEEH   LINE      CODE     ---       #555
      01002DF3H   LINE      CODE     ---       #556
      01002DF8H   LINE      CODE     ---       #557
      01002E02H   LINE      CODE     ---       #558
      01002E11H   LINE      CODE     ---       #559
      01002E20H   LINE      CODE     ---       #560
      01002E2AH   LINE      CODE     ---       #561
      ---         BLOCKEND  ---      ---       LVL=0

      01002F22H   BLOCK     CODE     ---       LVL=0
      00000065H   SYMBOL    DATA     ---       SP
      00000068H   SYMBOL    DATA     ---       EP
      0000006BH   SYMBOL    DATA     BYTE      Len
      01002F28H   BLOCK     CODE     NEAR LAB  LVL=1
      00000007H   SYMBOL    DATA     BYTE      i
      ---         BLOCKEND  ---      ---       LVL=1
      01002F22H   LINE      CODE     ---       #563
      01002F28H   LINE      CODE     ---       #564
      01002F28H   LINE      CODE     ---       #566
      01002F30H   LINE      CODE     ---       #567
      01002F30H   LINE      CODE     ---       #568
      01002F4CH   LINE      CODE     ---       #569
      01002F4FH   LINE      CODE     ---       #570
      ---         BLOCKEND  ---      ---       LVL=0

      01001423H   BLOCK     CODE     ---       LVL=0
      01001423H   BLOCK     CODE     NEAR LAB  LVL=1
      020002C1H   SYMBOL    XDATA    BYTE      i
      020002C2H   SYMBOL    XDATA    BYTE      j
      020002C3H   SYMBOL    XDATA    BYTE      temp
      020002C4H   SYMBOL    XDATA    BYTE      add
      020002C5H   SYMBOL    XDATA    WORD      AdLow
      020002C7H   SYMBOL    XDATA    WORD      AdMid
      020002C9H   SYMBOL    XDATA    WORD      AdHigh
      ---         BLOCKEND  ---      ---       LVL=1
      01001423H   LINE      CODE     ---       #573
      01001423H   LINE      CODE     ---       #574
      01001423H   LINE      CODE     ---       #580
      0100143FH   LINE      CODE     ---       #582
      0100144AH   LINE      CODE     ---       #584
      0100145AH   LINE      CODE     ---       #585
LX51 LINKER/LOCATER V4.66.97.0                                                        08/08/2020  16:35:51  PAGE 61


      0100145AH   LINE      CODE     ---       #586
      0100146BH   LINE      CODE     ---       #587
      0100146BH   LINE      CODE     ---       #588
      0100147FH   LINE      CODE     ---       #589
      0100147FH   LINE      CODE     ---       #590
      01001489H   LINE      CODE     ---       #591
      01001493H   LINE      CODE     ---       #592
      0100149BH   LINE      CODE     ---       #593
      0100149BH   LINE      CODE     ---       #594
      010014A3H   LINE      CODE     ---       #595
      010014ABH   LINE      CODE     ---       #596
      010014AFH   LINE      CODE     ---       #597
      010014AFH   LINE      CODE     ---       #598
      010014B2H   LINE      CODE     ---       #599
      010014C2H   LINE      CODE     ---       #600
      010014C2H   LINE      CODE     ---       #601
      010014D8H   LINE      CODE     ---       #602
      010014F1H   LINE      CODE     ---       #603
      0100150AH   LINE      CODE     ---       #604
      01001512H   LINE      CODE     ---       #605
      01001518H   LINE      CODE     ---       #606
      0100151BH   LINE      CODE     ---       #607
      0100152EH   LINE      CODE     ---       #609
      0100154CH   LINE      CODE     ---       #611
      01001552H   LINE      CODE     ---       #612
      01001552H   LINE      CODE     ---       #613
      01001559H   LINE      CODE     ---       #614
      0100155FH   LINE      CODE     ---       #615
      01001569H   LINE      CODE     ---       #616
      01001569H   LINE      CODE     ---       #622
      01001579H   LINE      CODE     ---       #623
      01001579H   LINE      CODE     ---       #624
      0100157CH   LINE      CODE     ---       #625
      01001585H   LINE      CODE     ---       #626
      01001587H   LINE      CODE     ---       #627
      01001599H   LINE      CODE     ---       #628
      01001599H   LINE      CODE     ---       #629
      0100159FH   LINE      CODE     ---       #630
      010015A1H   LINE      CODE     ---       #632
      010015A1H   LINE      CODE     ---       #633
      010015A6H   LINE      CODE     ---       #634
      010015A6H   LINE      CODE     ---       #635
      010015B0H   LINE      CODE     ---       #637
      ---         BLOCKEND  ---      ---       LVL=0

      0100128CH   BLOCK     CODE     ---       LVL=0
      0100128CH   BLOCK     CODE     NEAR LAB  LVL=1
      020002CAH   SYMBOL    XDATA    WORD      i
      020002CCH   SYMBOL    XDATA    WORD      j
      020002CEH   SYMBOL    XDATA    WORD      k
      020002D0H   SYMBOL    XDATA    BYTE      Temp
      ---         BLOCKEND  ---      ---       LVL=1
      0100128CH   LINE      CODE     ---       #642
      0100128CH   LINE      CODE     ---       #643
      0100128CH   LINE      CODE     ---       #644
      01001290H   LINE      CODE     ---       #645
      01001290H   LINE      CODE     ---       #646
      01001290H   LINE      CODE     ---       #647
      01001293H   LINE      CODE     ---       #650
      010012A2H   LINE      CODE     ---       #651
      010012A2H   LINE      CODE     ---       #652
      010012A8H   LINE      CODE     ---       #653
LX51 LINKER/LOCATER V4.66.97.0                                                        08/08/2020  16:35:51  PAGE 62


      010012A8H   LINE      CODE     ---       #654
      010012ACH   LINE      CODE     ---       #655
      010012B4H   LINE      CODE     ---       #656
      010012BCH   LINE      CODE     ---       #657
      010012BCH   LINE      CODE     ---       #658
      010012C2H   LINE      CODE     ---       #659
      010012C2H   LINE      CODE     ---       #660
      010012C4H   LINE      CODE     ---       #661
      010012C4H   LINE      CODE     ---       #662
      010012CEH   LINE      CODE     ---       #663
      010012E2H   LINE      CODE     ---       #664
      010012E2H   LINE      CODE     ---       #665
      010012EAH   LINE      CODE     ---       #666
      010012F4H   LINE      CODE     ---       #670
      01001307H   LINE      CODE     ---       #671
      01001307H   LINE      CODE     ---       #672
      0100130DH   LINE      CODE     ---       #673
      0100130DH   LINE      CODE     ---       #676
      0100130DH   LINE      CODE     ---       #677
      0100131AH   LINE      CODE     ---       #678
      0100131AH   LINE      CODE     ---       #679
      0100131AH   LINE      CODE     ---       #680
      01001324H   LINE      CODE     ---       #684
      0100133BH   LINE      CODE     ---       #685
      0100133BH   LINE      CODE     ---       #686
      01001379H   LINE      CODE     ---       #688
      01001379H   LINE      CODE     ---       #689
      010013A4H   LINE      CODE     ---       #690
      010013A4H   LINE      CODE     ---       #691
      010013C1H   LINE      CODE     ---       #692
      010013C1H   LINE      CODE     ---       #693
      010013CAH   LINE      CODE     ---       #694
      010013E7H   LINE      CODE     ---       #695
      010013E7H   LINE      CODE     ---       #696
      010013F6H   LINE      CODE     ---       #697
      01001406H   LINE      CODE     ---       #698
      01001406H   LINE      CODE     ---       #699
      01001406H   LINE      CODE     ---       #700
      01001417H   LINE      CODE     ---       #701
      01001417H   LINE      CODE     ---       #702
      01001422H   LINE      CODE     ---       #704
      ---         BLOCKEND  ---      ---       LVL=0

      01000CC1H   BLOCK     CODE     ---       LVL=0
      01000CC1H   BLOCK     CODE     NEAR LAB  LVL=1
      020002C1H   SYMBOL    XDATA    WORD      i
      020002C3H   SYMBOL    XDATA    BYTE      Distc
      020002C4H   SYMBOL    XDATA    WORD      EchoWidth
      020002C6H   SYMBOL    XDATA    WORD      ObsStartThre
      020002C8H   SYMBOL    XDATA    WORD      ObsExitThreFixed
      ---         BLOCKEND  ---      ---       LVL=1
      01000CC1H   LINE      CODE     ---       #706
      01000CC1H   LINE      CODE     ---       #707
      01000CC1H   LINE      CODE     ---       #716
      01000CD5H   LINE      CODE     ---       #718
      01000CE7H   LINE      CODE     ---       #721
      01000CEAH   LINE      CODE     ---       #723
      01000CF4H   LINE      CODE     ---       #726
      01000D0EH   LINE      CODE     ---       #727
      01000D0EH   LINE      CODE     ---       #728
      01000D28H   LINE      CODE     ---       #729
      01000D43H   LINE      CODE     ---       #730
LX51 LINKER/LOCATER V4.66.97.0                                                        08/08/2020  16:35:51  PAGE 63


      01000D43H   LINE      CODE     ---       #731
      01000D49H   LINE      CODE     ---       #732
      01000D49H   LINE      CODE     ---       #735
      01000D49H   LINE      CODE     ---       #736
      01000D4BH   LINE      CODE     ---       #737
      01000D50H   LINE      CODE     ---       #738
      01000D69H   LINE      CODE     ---       #739
      01000D6AH   LINE      CODE     ---       #740
      01000D6DH   LINE      CODE     ---       #741
      01000D73H   LINE      CODE     ---       #742
      01000D73H   LINE      CODE     ---       #743
      01000D73H   LINE      CODE     ---       #744
      01000D73H   LINE      CODE     ---       #746
      01000D9AH   LINE      CODE     ---       #747
      01000D9AH   LINE      CODE     ---       #748
      01000DA2H   LINE      CODE     ---       #749
      01000DA2H   LINE      CODE     ---       #752
      01000DA2H   LINE      CODE     ---       #753
      01000DA2H   LINE      CODE     ---       #754
      01000DACH   LINE      CODE     ---       #756
      01000DACH   LINE      CODE     ---       #757
      01000DB5H   LINE      CODE     ---       #758
      01000DB5H   LINE      CODE     ---       #759
      01000DBCH   LINE      CODE     ---       #761
      01000DC3H   LINE      CODE     ---       #762
      01000DC3H   LINE      CODE     ---       #763
      01000DF0H   LINE      CODE     ---       #764
      01000E00H   LINE      CODE     ---       #765
      01000E07H   LINE      CODE     ---       #766
      01000E0AH   LINE      CODE     ---       #767
      01000E0AH   LINE      CODE     ---       #770
      01000E2AH   LINE      CODE     ---       #774
      01000E31H   LINE      CODE     ---       #775
      01000E31H   LINE      CODE     ---       #776
      01000E4EH   LINE      CODE     ---       #777
      01000E51H   LINE      CODE     ---       #778
      01000E51H   LINE      CODE     ---       #779
      01000E66H   LINE      CODE     ---       #780
      01000E6EH   LINE      CODE     ---       #781
      01000E6EH   LINE      CODE     ---       #782
      01000E7DH   LINE      CODE     ---       #783
      01000E85H   LINE      CODE     ---       #785
      01000E85H   LINE      CODE     ---       #786
      01000E8BH   LINE      CODE     ---       #787
      01000E8BH   LINE      CODE     ---       #788
      01000E8BH   LINE      CODE     ---       #789
      01000E8BH   LINE      CODE     ---       #790
      01000E8BH   LINE      CODE     ---       #791
      01000E8BH   LINE      CODE     ---       #793
      01000E90H   LINE      CODE     ---       #794
      01000E90H   LINE      CODE     ---       #795
      01000E93H   LINE      CODE     ---       #796
      01000E9BH   LINE      CODE     ---       #797
      01000E9BH   LINE      CODE     ---       #798
      01000E9DH   LINE      CODE     ---       #799
      01000E9DH   LINE      CODE     ---       #802
      01000EC0H   LINE      CODE     ---       #803
      01000EC0H   LINE      CODE     ---       #804
      01000ED5H   LINE      CODE     ---       #805
      01000ED5H   LINE      CODE     ---       #806
      01000EDAH   LINE      CODE     ---       #807
      01000EDAH   LINE      CODE     ---       #808
LX51 LINKER/LOCATER V4.66.97.0                                                        08/08/2020  16:35:51  PAGE 64


      01000EDAH   LINE      CODE     ---       #809
      01000EDAH   LINE      CODE     ---       #810
      01000EEEH   LINE      CODE     ---       #812
      01000EF8H   LINE      CODE     ---       #814
      ---         BLOCKEND  ---      ---       LVL=0

      01002203H   BLOCK     CODE     ---       LVL=0
      01002203H   BLOCK     CODE     NEAR LAB  LVL=1
      020002CBH   SYMBOL    XDATA    WORD      i
      ---         BLOCKEND  ---      ---       LVL=1
      01002203H   LINE      CODE     ---       #816
      01002203H   LINE      CODE     ---       #817
      01002203H   LINE      CODE     ---       #818
      0100220AH   LINE      CODE     ---       #820
      01002214H   LINE      CODE     ---       #823
      0100222EH   LINE      CODE     ---       #824
      0100222EH   LINE      CODE     ---       #825
      0100224BH   LINE      CODE     ---       #826
      01002267H   LINE      CODE     ---       #827
      01002267H   LINE      CODE     ---       #828
      0100226DH   LINE      CODE     ---       #829
      0100226DH   LINE      CODE     ---       #832
      0100226DH   LINE      CODE     ---       #833
      0100226FH   LINE      CODE     ---       #834
      01002274H   LINE      CODE     ---       #835
      0100227AH   LINE      CODE     ---       #836
      0100227AH   LINE      CODE     ---       #837
      0100227AH   LINE      CODE     ---       #838
      0100227CH   LINE      CODE     ---       #839
      01002284H   LINE      CODE     ---       #840
      01002284H   LINE      CODE     ---       #841
      01002289H   LINE      CODE     ---       #842
      01002289H   LINE      CODE     ---       #845
      01002289H   LINE      CODE     ---       #846
      01002289H   LINE      CODE     ---       #847
      01002293H   LINE      CODE     ---       #849
      01002293H   LINE      CODE     ---       #850
      0100229CH   LINE      CODE     ---       #851
      0100229CH   LINE      CODE     ---       #852
      0100229CH   LINE      CODE     ---       #853
      0100229CH   LINE      CODE     ---       #854
      0100229CH   LINE      CODE     ---       #856
      010022A1H   LINE      CODE     ---       #857
      010022A1H   LINE      CODE     ---       #858
      010022A4H   LINE      CODE     ---       #859
      010022AFH   LINE      CODE     ---       #860
      010022AFH   LINE      CODE     ---       #861
      010022B1H   LINE      CODE     ---       #862
      010022B1H   LINE      CODE     ---       #863
      010022B1H   LINE      CODE     ---       #864
      010022C5H   LINE      CODE     ---       #865
      ---         BLOCKEND  ---      ---       LVL=0

      010010E4H   BLOCK     CODE     ---       LVL=0
      010010E4H   LINE      CODE     ---       #870
      010010E4H   LINE      CODE     ---       #871
      010010E4H   LINE      CODE     ---       #872
      0100110FH   LINE      CODE     ---       #873
      0100110FH   LINE      CODE     ---       #874
      0100110FH   LINE      CODE     ---       #876
      01001112H   LINE      CODE     ---       #878
      0100111DH   LINE      CODE     ---       #879
LX51 LINKER/LOCATER V4.66.97.0                                                        08/08/2020  16:35:51  PAGE 65


      0100111DH   LINE      CODE     ---       #880
      0100111EH   LINE      CODE     ---       #881
      01001121H   LINE      CODE     ---       #882
      01001126H   LINE      CODE     ---       #883
      0100112CH   LINE      CODE     ---       #884
      01001131H   LINE      CODE     ---       #885
      01001131H   LINE      CODE     ---       #887
      01001132H   LINE      CODE     ---       #888
      01001132H   LINE      CODE     ---       #889
      0100113CH   LINE      CODE     ---       #891
      0100113CH   LINE      CODE     ---       #892
      01001142H   LINE      CODE     ---       #893
      01001142H   LINE      CODE     ---       #894
      01001143H   LINE      CODE     ---       #895
      01001143H   LINE      CODE     ---       #896
      01001149H   LINE      CODE     ---       #897
      0100114CH   LINE      CODE     ---       #898
      0100114FH   LINE      CODE     ---       #899
      01001152H   LINE      CODE     ---       #900
      01001155H   LINE      CODE     ---       #901
      01001158H   LINE      CODE     ---       #902
      0100115BH   LINE      CODE     ---       #903
      0100115BH   LINE      CODE     ---       #904
      01001165H   LINE      CODE     ---       #906
      01001165H   LINE      CODE     ---       #907
      01001168H   LINE      CODE     ---       #908
      0100116BH   LINE      CODE     ---       #909
      01001171H   LINE      CODE     ---       #910
      01001171H   LINE      CODE     ---       #911
      01001172H   LINE      CODE     ---       #912
      01001172H   LINE      CODE     ---       #913
      01001175H   LINE      CODE     ---       #914
      01001178H   LINE      CODE     ---       #915
      0100117BH   LINE      CODE     ---       #916
      0100117EH   LINE      CODE     ---       #917
      01001181H   LINE      CODE     ---       #918
      01001186H   LINE      CODE     ---       #919
      01001195H   LINE      CODE     ---       #921
      0100119BH   LINE      CODE     ---       #922
      0100119CH   LINE      CODE     ---       #923
      0100119CH   LINE      CODE     ---       #924
      010011A8H   LINE      CODE     ---       #926
      010011A8H   LINE      CODE     ---       #927
      010011ABH   LINE      CODE     ---       #928
      010011AEH   LINE      CODE     ---       #929
      010011B4H   LINE      CODE     ---       #930
      010011B4H   LINE      CODE     ---       #931
      010011B5H   LINE      CODE     ---       #932
      010011B5H   LINE      CODE     ---       #933
      010011B8H   LINE      CODE     ---       #941
      01001204H   LINE      CODE     ---       #944
      01001204H   LINE      CODE     ---       #945
      01001209H   LINE      CODE     ---       #946
      0100120CH   LINE      CODE     ---       #947
      01001215H   LINE      CODE     ---       #948
      01001217H   LINE      CODE     ---       #950
      01001217H   LINE      CODE     ---       #951
      0100121AH   LINE      CODE     ---       #952
      0100121AH   LINE      CODE     ---       #953
      01001220H   LINE      CODE     ---       #954
      01001221H   LINE      CODE     ---       #955
      01001221H   LINE      CODE     ---       #956
LX51 LINKER/LOCATER V4.66.97.0                                                        08/08/2020  16:35:51  PAGE 66


      01001224H   LINE      CODE     ---       #957
      01001232H   LINE      CODE     ---       #958
      0100123AH   LINE      CODE     ---       #959
      0100123AH   LINE      CODE     ---       #960
      0100123CH   LINE      CODE     ---       #961
      0100124FH   LINE      CODE     ---       #962
      01001257H   LINE      CODE     ---       #963
      01001257H   LINE      CODE     ---       #964
      01001259H   LINE      CODE     ---       #966
      01001259H   LINE      CODE     ---       #967
      0100125CH   LINE      CODE     ---       #968
      01001261H   LINE      CODE     ---       #969
      01001267H   LINE      CODE     ---       #970
      01001267H   LINE      CODE     ---       #971
      0100126BH   LINE      CODE     ---       #972
      01001271H   LINE      CODE     ---       #973
      01001272H   LINE      CODE     ---       #975
      01001272H   LINE      CODE     ---       #976
      0100127AH   LINE      CODE     ---       #977
      0100127AH   LINE      CODE     ---       #978
      0100127DH   LINE      CODE     ---       #979
      0100127EH   LINE      CODE     ---       #981
      0100127EH   LINE      CODE     ---       #982
      01001284H   LINE      CODE     ---       #983
      01001284H   LINE      CODE     ---       #985
      01001284H   LINE      CODE     ---       #986
      01001284H   LINE      CODE     ---       #987
      01001285H   LINE      CODE     ---       #988
      01001285H   LINE      CODE     ---       #989
      0100128BH   LINE      CODE     ---       #990
      0100128BH   LINE      CODE     ---       #991
      0100128BH   LINE      CODE     ---       #992
      ---         BLOCKEND  ---      ---       LVL=0

      01002D65H   BLOCK     CODE     ---       LVL=0
      01002D65H   BLOCK     CODE     NEAR LAB  LVL=1
      020002C1H   SYMBOL    XDATA    BYTE      i
      ---         BLOCKEND  ---      ---       LVL=1
      01002D65H   LINE      CODE     ---       #994
      01002D65H   LINE      CODE     ---       #995
      01002D65H   LINE      CODE     ---       #997
      01002D6AH   LINE      CODE     ---       #998
      01002D6DH   LINE      CODE     ---       #999
      01002D73H   LINE      CODE     ---       #1000
      01002D76H   LINE      CODE     ---       #1001
      01002D7CH   LINE      CODE     ---       #1002
      01002D82H   LINE      CODE     ---       #1003
      01002D8AH   LINE      CODE     ---       #1004
      01002D9BH   LINE      CODE     ---       #1005
      01002D9BH   LINE      CODE     ---       #1006
      01002DA4H   LINE      CODE     ---       #1007
      01002DACH   LINE      CODE     ---       #1008
      ---         BLOCKEND  ---      ---       LVL=0

      010018BBH   BLOCK     CODE     ---       LVL=0
      010018BBH   BLOCK     CODE     NEAR LAB  LVL=1
      020002C1H   SYMBOL    XDATA    BYTE      i
      020002C2H   SYMBOL    XDATA    BYTE      bDis
      020002C3H   SYMBOL    XDATA    BYTE      bDiff
      00000007H   SYMBOL    DATA     BYTE      bFrockDis
      ---         BLOCKEND  ---      ---       LVL=1
      010018BBH   LINE      CODE     ---       #1013
LX51 LINKER/LOCATER V4.66.97.0                                                        08/08/2020  16:35:51  PAGE 67


      010018BBH   LINE      CODE     ---       #1014
      010018BBH   LINE      CODE     ---       #1019
      010018BDH   LINE      CODE     ---       #1020
      010018D0H   LINE      CODE     ---       #1021
      010018D0H   LINE      CODE     ---       #1022
      010018DDH   LINE      CODE     ---       #1023
      010018DDH   LINE      CODE     ---       #1024
      010018DFH   LINE      CODE     ---       #1025
      010018DFH   LINE      CODE     ---       #1026
      010018E4H   LINE      CODE     ---       #1027
      010018E9H   LINE      CODE     ---       #1031
      010018E9H   LINE      CODE     ---       #1032
      010018F1H   LINE      CODE     ---       #1033
      010018F1H   LINE      CODE     ---       #1034
      01001905H   LINE      CODE     ---       #1035
      01001905H   LINE      CODE     ---       #1036
      0100190EH   LINE      CODE     ---       #1037
      0100190EH   LINE      CODE     ---       #1038
      01001913H   LINE      CODE     ---       #1040
      0100191DH   LINE      CODE     ---       #1041
      0100191DH   LINE      CODE     ---       #1042
      0100192AH   LINE      CODE     ---       #1043
      0100192AH   LINE      CODE     ---       #1044
      0100192CH   LINE      CODE     ---       #1045
      0100192CH   LINE      CODE     ---       #1046
      01001931H   LINE      CODE     ---       #1048
      0100193DH   LINE      CODE     ---       #1049
      0100193DH   LINE      CODE     ---       #1050
      01001946H   LINE      CODE     ---       #1051
      01001946H   LINE      CODE     ---       #1052
      0100194AH   LINE      CODE     ---       #1053
      0100194CH   LINE      CODE     ---       #1055
      0100194CH   LINE      CODE     ---       #1056
      0100195EH   LINE      CODE     ---       #1059
      0100195EH   LINE      CODE     ---       #1061
      01001966H   LINE      CODE     ---       #1062
      01001966H   LINE      CODE     ---       #1063
      01001966H   LINE      CODE     ---       #1064
      01001966H   LINE      CODE     ---       #1066
      01001976H   LINE      CODE     ---       #1067
      01001976H   LINE      CODE     ---       #1086
      01001980H   LINE      CODE     ---       #1087
      01001980H   LINE      CODE     ---       #1088
      01001986H   LINE      CODE     ---       #1089
      01001986H   LINE      CODE     ---       #1090
      01001988H   LINE      CODE     ---       #1092
      01001988H   LINE      CODE     ---       #1093
      01001993H   LINE      CODE     ---       #1094
      01001993H   LINE      CODE     ---       #1095
      010019A1H   LINE      CODE     ---       #1096
      010019A9H   LINE      CODE     ---       #1098
      010019AEH   LINE      CODE     ---       #1099
      010019AEH   LINE      CODE     ---       #1100
      010019B0H   LINE      CODE     ---       #1101
      010019BEH   LINE      CODE     ---       #1102
      010019BEH   LINE      CODE     ---       #1103
      010019BEH   LINE      CODE     ---       #1104
      010019BEH   LINE      CODE     ---       #1105
      010019C0H   LINE      CODE     ---       #1107
      010019C0H   LINE      CODE     ---       #1108
      010019CAH   LINE      CODE     ---       #1109
      010019CDH   LINE      CODE     ---       #1110
LX51 LINKER/LOCATER V4.66.97.0                                                        08/08/2020  16:35:51  PAGE 68


      010019CDH   LINE      CODE     ---       #1111
      010019CDH   LINE      CODE     ---       #1114
      010019CDH   LINE      CODE     ---       #1115
      010019DAH   LINE      CODE     ---       #1116
      010019DAH   LINE      CODE     ---       #1117
      010019E7H   LINE      CODE     ---       #1118
      010019E7H   LINE      CODE     ---       #1119
      010019E9H   LINE      CODE     ---       #1120
      010019E9H   LINE      CODE     ---       #1121
      010019EEH   LINE      CODE     ---       #1123
      010019F9H   LINE      CODE     ---       #1124
      010019F9H   LINE      CODE     ---       #1127
      010019FDH   LINE      CODE     ---       #1128
      01001A06H   LINE      CODE     ---       #1129
      01001A06H   LINE      CODE     ---       #1131
      01001A0EH   LINE      CODE     ---       #1132
      01001A0EH   LINE      CODE     ---       #1133
      01001A0FH   LINE      CODE     ---       #1135
      01001A0FH   LINE      CODE     ---       #1137
      01001A1EH   LINE      CODE     ---       #1138
      01001A27H   LINE      CODE     ---       #1139
      01001A27H   LINE      CODE     ---       #1141
      01001A2CH   LINE      CODE     ---       #1142
      01001A2CH   LINE      CODE     ---       #1143
      01001A2CH   LINE      CODE     ---       #1146
      ---         BLOCKEND  ---      ---       LVL=0

      01002990H   BLOCK     CODE     ---       LVL=0
      01002990H   BLOCK     CODE     NEAR LAB  LVL=1
      020002C1H   SYMBOL    XDATA    WORD      wRingTimeDiff
      ---         BLOCKEND  ---      ---       LVL=1
      01002990H   LINE      CODE     ---       #1152
      01002990H   LINE      CODE     ---       #1153
      01002990H   LINE      CODE     ---       #1156
      0100299BH   LINE      CODE     ---       #1157
      010029AAH   LINE      CODE     ---       #1159
      010029B0H   LINE      CODE     ---       #1160
      010029B0H   LINE      CODE     ---       #1161
      010029B8H   LINE      CODE     ---       #1162
      010029B8H   LINE      CODE     ---       #1164
      010029C9H   LINE      CODE     ---       #1165
      010029D1H   LINE      CODE     ---       #1166
      010029D1H   LINE      CODE     ---       #1167
      010029DAH   LINE      CODE     ---       #1168
      010029DAH   LINE      CODE     ---       #1169
      010029DAH   LINE      CODE     ---       #1170
      010029DFH   LINE      CODE     ---       #1171
      010029DFH   LINE      CODE     ---       #1172
      010029DFH   LINE      CODE     ---       #1173
      010029DFH   LINE      CODE     ---       #1174
      010029E1H   LINE      CODE     ---       #1176
      010029E1H   LINE      CODE     ---       #1177
      010029F0H   LINE      CODE     ---       #1178
      010029F0H   LINE      CODE     ---       #1179
      010029F0H   LINE      CODE     ---       #1180
      010029F5H   LINE      CODE     ---       #1181
      010029F5H   LINE      CODE     ---       #1182
      010029F5H   LINE      CODE     ---       #1183
      010029F5H   LINE      CODE     ---       #1184
      010029F7H   LINE      CODE     ---       #1186
      010029F7H   LINE      CODE     ---       #1187
      010029FAH   LINE      CODE     ---       #1188
LX51 LINKER/LOCATER V4.66.97.0                                                        08/08/2020  16:35:51  PAGE 69


      010029FFH   LINE      CODE     ---       #1189
      010029FFH   LINE      CODE     ---       #1190
      01002A02H   LINE      CODE     ---       #1191
      01002A02H   LINE      CODE     ---       #1192
      01002A02H   LINE      CODE     ---       #1193
      01002A02H   LINE      CODE     ---       #1194
      01002A02H   LINE      CODE     ---       #1195
      01002A02H   LINE      CODE     ---       #1197
      01002A02H   LINE      CODE     ---       #1198
      01002A02H   LINE      CODE     ---       #1199
      01002A02H   LINE      CODE     ---       #1200
      ---         BLOCKEND  ---      ---       LVL=0

      01000EF9H   BLOCK     CODE     ---       LVL=0
      01000EF9H   BLOCK     CODE     NEAR LAB  LVL=1
      020002C1H   SYMBOL    XDATA    WORD      RingTimeDiff
      020002C3H   SYMBOL    XDATA    BYTE      DistanceDiff
      020002C4H   SYMBOL    XDATA    ---       bObsDistance
      020002CEH   SYMBOL    XDATA    ---       bEPDObsDistance
      020002D8H   SYMBOL    XDATA    BYTE      k
      020002D9H   SYMBOL    XDATA    BYTE      i
      020002DAH   SYMBOL    XDATA    BYTE      j
      ---         BLOCKEND  ---      ---       LVL=1
      01000EF9H   LINE      CODE     ---       #1206
      01000EF9H   LINE      CODE     ---       #1207
      01000EF9H   LINE      CODE     ---       #1212
      01000EFEH   LINE      CODE     ---       #1215
      01000F06H   LINE      CODE     ---       #1216
      01000F06H   LINE      CODE     ---       #1217
      01000F07H   LINE      CODE     ---       #1219
      01000F0BH   LINE      CODE     ---       #1220
      01000F22H   LINE      CODE     ---       #1221
      01000F22H   LINE      CODE     ---       #1222
      01000F2FH   LINE      CODE     ---       #1223
      01000F2FH   LINE      CODE     ---       #1224
      01000F37H   LINE      CODE     ---       #1225
      01000F3DH   LINE      CODE     ---       #1226
      01000F3DH   LINE      CODE     ---       #1227
      01000F42H   LINE      CODE     ---       #1228
      01000F49H   LINE      CODE     ---       #1229
      01000F4FH   LINE      CODE     ---       #1231
      01000F58H   LINE      CODE     ---       #1232
      01000F58H   LINE      CODE     ---       #1233
      01000F61H   LINE      CODE     ---       #1234
      01000F61H   LINE      CODE     ---       #1235
      01000F7FH   LINE      CODE     ---       #1236
      01000F7FH   LINE      CODE     ---       #1237
      01000F7FH   LINE      CODE     ---       #1238
      01000F7FH   LINE      CODE     ---       #1239
      01000F7FH   LINE      CODE     ---       #1240
      01000F7FH   LINE      CODE     ---       #1241
      01000F82H   LINE      CODE     ---       #1243
      01000F82H   LINE      CODE     ---       #1245
      01000F92H   LINE      CODE     ---       #1246
      01000F92H   LINE      CODE     ---       #1247
      01000F97H   LINE      CODE     ---       #1248
      01000F99H   LINE      CODE     ---       #1250
      01000F99H   LINE      CODE     ---       #1251
      01000FAEH   LINE      CODE     ---       #1252
      01000FAEH   LINE      CODE     ---       #1253
      01000FBDH   LINE      CODE     ---       #1254
      01000FBDH   LINE      CODE     ---       #1255
LX51 LINKER/LOCATER V4.66.97.0                                                        08/08/2020  16:35:51  PAGE 70


      01000FC1H   LINE      CODE     ---       #1256
      01000FC7H   LINE      CODE     ---       #1257
      01000FC9H   LINE      CODE     ---       #1259
      01000FC9H   LINE      CODE     ---       #1261
      01000FCCH   LINE      CODE     ---       #1262
      01000FD5H   LINE      CODE     ---       #1263
      01000FD5H   LINE      CODE     ---       #1264
      01000FD8H   LINE      CODE     ---       #1265
      01000FD8H   LINE      CODE     ---       #1266
      01000FDFH   LINE      CODE     ---       #1268
      01000FDFH   LINE      CODE     ---       #1270
      01000FEEH   LINE      CODE     ---       #1271
      01000FEEH   LINE      CODE     ---       #1272
      01000FFFH   LINE      CODE     ---       #1273
      01001004H   LINE      CODE     ---       #1274
      01001009H   LINE      CODE     ---       #1275
      01001018H   LINE      CODE     ---       #1276
      01001018H   LINE      CODE     ---       #1277
      01001029H   LINE      CODE     ---       #1278
      01001029H   LINE      CODE     ---       #1279
      01001034H   LINE      CODE     ---       #1280
      01001034H   LINE      CODE     ---       #1282
      0100103DH   LINE      CODE     ---       #1283
      0100103DH   LINE      CODE     ---       #1284
      01001044H   LINE      CODE     ---       #1285
      01001046H   LINE      CODE     ---       #1286
      01001055H   LINE      CODE     ---       #1287
      01001055H   LINE      CODE     ---       #1288
      0100105DH   LINE      CODE     ---       #1289
      0100105DH   LINE      CODE     ---       #1291
      01001076H   LINE      CODE     ---       #1292
      0100107FH   LINE      CODE     ---       #1293
      01001085H   LINE      CODE     ---       #1294
      01001085H   LINE      CODE     ---       #1295
      01001085H   LINE      CODE     ---       #1296
      0100108DH   LINE      CODE     ---       #1297
      01001093H   LINE      CODE     ---       #1300
      010010A4H   LINE      CODE     ---       #1301
      010010A4H   LINE      CODE     ---       #1302
      010010B7H   LINE      CODE     ---       #1303
      010010BCH   LINE      CODE     ---       #1304
      010010C1H   LINE      CODE     ---       #1306
      010010DEH   LINE      CODE     ---       #1308
      010010DEH   LINE      CODE     ---       #1310
      010010E3H   LINE      CODE     ---       #1311
      010010E3H   LINE      CODE     ---       #1312
      010010E3H   LINE      CODE     ---       #1333
      ---         BLOCKEND  ---      ---       LVL=0

      ---         MODULE    ---      ---       EFM8BB2_FLASHPRIMITIVES
      000000A2H   SFRSYM    DATA     BYTE      SPI0CKR
      00000080H   SFRSYM    DATA     BYTE      P0
      000000C8H.6 SFRSYM    DATA     BIT       SCON1_PERR
      000000D0H.2 SFRSYM    DATA     BIT       PSW_OV
      00000090H   SFRSYM    DATA     BYTE      P1
      000000F8H.1 SFRSYM    DATA     BIT       SPI0CN0_TXNF
      00000097H   SFRSYM    DATA     BYTE      WDTCN
      000000A0H   SFRSYM    DATA     BYTE      P2
      000000B0H   SFRSYM    DATA     BYTE      P3
      000000BCH   SFRSYM    DATA     BYTE      ADC0CF
      000000C0H.7 SFRSYM    DATA     BIT       SMB0CN0_MASTER
      000000F9H   SFRSYM    DATA     WORD      PCA0
LX51 LINKER/LOCATER V4.66.97.0                                                        08/08/2020  16:35:51  PAGE 71


      000000E6H   SFRSYM    DATA     BYTE      EIE1
      000000C0H.1 SFRSYM    DATA     BIT       SMB0CN0_ACK
      000000CEH   SFRSYM    DATA     BYTE      EIE2
      0000008FH   SFRSYM    DATA     BYTE      PSCTL
      000000E4H   SFRSYM    DATA     BYTE      IT01CF
      000000C0H.6 SFRSYM    DATA     BIT       SMB0CN0_TXMODE
      000000ADH   SFRSYM    DATA     BYTE      DERIVID
      000000A7H   SFRSYM    DATA     BYTE      SFRPAGE
      000000A4H   SFRSYM    DATA     BYTE      P0MDOUT
      000000A5H   SFRSYM    DATA     BYTE      P1MDOUT
      000000E8H.5 SFRSYM    DATA     BIT       ADC0CN0_ADINT
      000000CBH   SFRSYM    DATA     BYTE      TMR2RLH
      000000A6H   SFRSYM    DATA     BYTE      P2MDOUT
      000000A8H   SFRSYM    DATA     BYTE      IE
      00000093H   SFRSYM    DATA     BYTE      TMR3RLH
      0000009CH   SFRSYM    DATA     BYTE      P3MDOUT
      000000A3H   SFRSYM    DATA     BYTE      TMR4RLH
      000000F3H   SFRSYM    DATA     BYTE      EIP1
      000000F4H   SFRSYM    DATA     BYTE      EIP2
      00000098H.2 SFRSYM    DATA     BIT       SCON0_RB8
      000000CAH   SFRSYM    DATA     BYTE      TMR2RLL
      000000FCH   SFRSYM    DATA     BYTE      PCA0CPH0
      00000092H   SFRSYM    DATA     BYTE      TMR3RLL
      000000EAH   SFRSYM    DATA     BYTE      PCA0CPH1
      00000098H.3 SFRSYM    DATA     BIT       SCON0_TB8
      000000F0H.0 SFRSYM    DATA     BIT       B_B0
      00000082H   SFRSYM    DATA     WORD      DP
      000000A2H   SFRSYM    DATA     BYTE      TMR4RLL
      000000ECH   SFRSYM    DATA     BYTE      PCA0CPH2
      000000F0H.1 SFRSYM    DATA     BIT       B_B1
      000000C3H   SFRSYM    DATA     WORD      ADC0GT
      000000BDH   SFRSYM    DATA     BYTE      I2C0SLAD
      000000D8H.3 SFRSYM    DATA     BIT       UART1FCN1_RFRQ
      000000F0H.2 SFRSYM    DATA     BIT       B_B2
      000000CFH   SFRSYM    DATA     BYTE      SFRPGCN
      000000FBH   SFRSYM    DATA     BYTE      PCA0CPL0
      000000F0H.3 SFRSYM    DATA     BIT       B_B3
      000000D9H   SFRSYM    DATA     BYTE      PCA0MD
      000000DAH   SFRSYM    DATA     BYTE      PCA0CPM0
      000000E9H   SFRSYM    DATA     BYTE      PCA0CPL1
      000000D8H.7 SFRSYM    DATA     BIT       UART1FCN1_TFRQ
      000000F0H.4 SFRSYM    DATA     BIT       B_B4
      000000DBH   SFRSYM    DATA     BYTE      PCA0CPM1
      000000EBH   SFRSYM    DATA     BYTE      PCA0CPL2
      000000F0H.5 SFRSYM    DATA     BIT       B_B5
      000000DCH   SFRSYM    DATA     BYTE      PCA0CPM2
      000000B8H   SFRSYM    DATA     BYTE      IP
      000000B9H   SFRSYM    DATA     BYTE      ADC0TK
      000000F0H.6 SFRSYM    DATA     BIT       B_B6
      000000C5H   SFRSYM    DATA     WORD      ADC0LT
      000000D8H.6 SFRSYM    DATA     BIT       UART1FCN1_TXNF
      00000098H.5 SFRSYM    DATA     BIT       SCON0_MCE
      000000F0H.7 SFRSYM    DATA     BIT       B_B7
      000000C3H   SFRSYM    DATA     BYTE      SMB0FCN0
      000000E1H   SFRSYM    DATA     BYTE      XBR0
      000000C4H   SFRSYM    DATA     BYTE      SMB0FCN1
      000000C1H   SFRSYM    DATA     BYTE      SMB0CF
      000000E2H   SFRSYM    DATA     BYTE      XBR1
      000000C1H   SFRSYM    DATA     BYTE      PFE0CN
      000000E7H   SFRSYM    DATA     BYTE      EMI0CN
      000000C0H.5 SFRSYM    DATA     BIT       SMB0CN0_STA
      000000E3H   SFRSYM    DATA     BYTE      XBR2
LX51 LINKER/LOCATER V4.66.97.0                                                        08/08/2020  16:35:51  PAGE 72


      000000BBH   SFRSYM    DATA     BYTE      ADC0MX
      000000E0H.0 SFRSYM    DATA     BIT       ACC_ACC0
      000000D1H   SFRSYM    DATA     BYTE      REF0CN
      0000008EH   SFRSYM    DATA     BYTE      CKCON0
      000000E0H.1 SFRSYM    DATA     BIT       ACC_ACC1
      000000C9H   SFRSYM    DATA     BYTE      REG0CN
      000000DDH   SFRSYM    DATA     BYTE      CRC0IN
      000000A6H   SFRSYM    DATA     BYTE      CKCON1
      000000C8H.2 SFRSYM    DATA     BIT       TMR2CN0_TR2
      000000E0H.2 SFRSYM    DATA     BIT       ACC_ACC2
      000000C6H   SFRSYM    DATA     BYTE      REG1CN
      000000E0H.3 SFRSYM    DATA     BIT       ACC_ACC3
      00000081H   SFRSYM    DATA     BYTE      SP
      0000009DH   SFRSYM    DATA     BYTE      CMP0MD
      000000E0H.4 SFRSYM    DATA     BIT       ACC_ACC4
      000000B1H   SFRSYM    DATA     BYTE      LFO0CN
      000000ABH   SFRSYM    DATA     BYTE      CMP1MD
      000000D8H.0 SFRSYM    DATA     BIT       PCA0CN0_CCF0
      000000E0H.5 SFRSYM    DATA     BIT       ACC_ACC5
      00000098H.2 SFRSYM    DATA     BIT       TMR4CN0_TR4
      000000D8H.1 SFRSYM    DATA     BIT       PCA0CN0_CCF1
      000000E0H.6 SFRSYM    DATA     BIT       ACC_ACC6
      000000CCH   SFRSYM    DATA     WORD      TMR2
      0000009AH   SFRSYM    DATA     BYTE      SPI0FCN0
      000000D8H.2 SFRSYM    DATA     BIT       PCA0CN0_CCF2
      000000E0H.7 SFRSYM    DATA     BIT       ACC_ACC7
      00000094H   SFRSYM    DATA     WORD      TMR3
      0000009BH   SFRSYM    DATA     BYTE      SPI0FCN1
      000000A4H   SFRSYM    DATA     WORD      TMR4
      00000094H   SFRSYM    DATA     BYTE      SBCON1
      000000C0H.3 SFRSYM    DATA     BIT       SMB0CN0_ACKRQ
      000000FFH   SFRSYM    DATA     BYTE      VDM0CN
      000000F1H   SFRSYM    DATA     BYTE      P0MDIN
      00000098H.4 SFRSYM    DATA     BIT       SCON0_REN
      000000ACH   SFRSYM    DATA     BYTE      SMB0TC
      000000F2H   SFRSYM    DATA     BYTE      P1MDIN
      000000C8H.4 SFRSYM    DATA     BIT       SCON1_REN
      000000F3H   SFRSYM    DATA     BYTE      P2MDIN
      000000C0H.4 SFRSYM    DATA     BIT       SMB0CN0_STO
      000000F4H   SFRSYM    DATA     BYTE      P3MDIN
      000000B9H   SFRSYM    DATA     BYTE      I2C0STAT
      000000BBH   SFRSYM    DATA     BYTE      I2C0DOUT
      00000096H   SFRSYM    DATA     BYTE      SBRLH1
      000000FEH   SFRSYM    DATA     BYTE      P0MASK
      000000D8H.5 SFRSYM    DATA     BIT       UART1FCN1_TXHOLD
      000000EEH   SFRSYM    DATA     BYTE      P1MASK
      000000FCH   SFRSYM    DATA     BYTE      P2MASK
      000000D0H.3 SFRSYM    DATA     BIT       PSW_RS0
      000000D8H.7 SFRSYM    DATA     BIT       PCA0CN0_CF
      0000009EH   SFRSYM    DATA     BYTE      PCA0CENT
      000000BAH   SFRSYM    DATA     BYTE      I2C0CN0
      000000D2H   SFRSYM    DATA     BYTE      CRC0ST
      000000F8H.4 SFRSYM    DATA     BIT       SPI0CN0_RXOVRN
      000000D0H.4 SFRSYM    DATA     BIT       PSW_RS1
      00000095H   SFRSYM    DATA     BYTE      SBRLL1
      000000C8H.2 SFRSYM    DATA     BIT       SCON1_RBX
      000000C8H.0 SFRSYM    DATA     BIT       TMR2CN0_T2XCLK0
      000000C8H.1 SFRSYM    DATA     BIT       TMR2CN0_T2XCLK1
      000000C8H.3 SFRSYM    DATA     BIT       SCON1_TBX
      000000E8H.7 SFRSYM    DATA     BIT       ADC0CN0_ADEN
      00000089H   SFRSYM    DATA     BYTE      TMOD
      00000088H   SFRSYM    DATA     BYTE      TCON
LX51 LINKER/LOCATER V4.66.97.0                                                        08/08/2020  16:35:51  PAGE 73


      000000CFH   SFRSYM    DATA     BYTE      CRC0FLIP
      000000D0H.0 SFRSYM    DATA     BIT       PSW_PARITY
      000000A8H.4 SFRSYM    DATA     BIT       IE_ES0
      0000009FH   SFRSYM    DATA     BYTE      CMP0MX
      00000098H.0 SFRSYM    DATA     BIT       TMR4CN0_T4XCLK0
      000000A8H.1 SFRSYM    DATA     BIT       IE_ET0
      000000AAH   SFRSYM    DATA     BYTE      CMP1MX
      00000098H.1 SFRSYM    DATA     BIT       TMR4CN0_T4XCLK1
      000000A8H.3 SFRSYM    DATA     BIT       IE_ET1
      000000D4H   SFRSYM    DATA     BYTE      P0SKIP
      000000D8H.0 SFRSYM    DATA     BIT       UART1FCN1_RIE
      000000A8H.5 SFRSYM    DATA     BIT       IE_ET2
      000000D5H   SFRSYM    DATA     BYTE      P1SKIP
      000000CCH   SFRSYM    DATA     BYTE      P2SKIP
      000000E8H   SFRSYM    DATA     BYTE      ADC0CN0
      000000D8H.4 SFRSYM    DATA     BIT       UART1FCN1_TIE
      000000A8H.0 SFRSYM    DATA     BIT       IE_EX0
      000000B2H   SFRSYM    DATA     BYTE      ADC0CN1
      000000D8H.6 SFRSYM    DATA     BIT       PCA0CN0_CR
      000000A8H.2 SFRSYM    DATA     BIT       IE_EX1
      000000C8H.7 SFRSYM    DATA     BIT       SCON1_OVR
      00000098H.7 SFRSYM    DATA     BIT       SCON0_SMODE
      000000B5H   SFRSYM    DATA     BYTE      DEVICEID
      000000A9H   SFRSYM    DATA     BYTE      CLKSEL
      000000F8H.0 SFRSYM    DATA     BIT       SPI0CN0_SPIEN
      000000F0H   SFRSYM    DATA     BYTE      B
      000000BEH   SFRSYM    DATA     BYTE      ADC0H
      000000E8H.6 SFRSYM    DATA     BIT       ADC0CN0_ADBMEN
      000000CAH   SFRSYM    DATA     WORD      TMR2RL
      000000BDH   SFRSYM    DATA     BYTE      ADC0L
      00000092H   SFRSYM    DATA     WORD      TMR3RL
      000000A2H   SFRSYM    DATA     WORD      TMR4RL
      000000D8H   SFRSYM    DATA     BYTE      PCA0CN0
      000000E0H   SFRSYM    DATA     BYTE      ACC
      000000FBH   SFRSYM    DATA     WORD      PCA0CP0
      000000E9H   SFRSYM    DATA     WORD      PCA0CP1
      000000EBH   SFRSYM    DATA     WORD      PCA0CP2
      000000BCH   SFRSYM    DATA     BYTE      I2C0DIN
      000000CEH   SFRSYM    DATA     BYTE      CRC0CN0
      0000008CH   SFRSYM    DATA     BYTE      TH0
      00000086H   SFRSYM    DATA     BYTE      CRC0CN1
      000000B8H.4 SFRSYM    DATA     BIT       IP_PS0
      000000FAH   SFRSYM    DATA     BYTE      UART1FCT
      0000008DH   SFRSYM    DATA     BYTE      TH1
      000000FAH   SFRSYM    DATA     BYTE      PCA0H
      000000F5H   SFRSYM    DATA     BYTE      I2C0FCT
      000000B8H.1 SFRSYM    DATA     BIT       IP_PT0
      000000B8H.3 SFRSYM    DATA     BIT       IP_PT1
      000000C0H.2 SFRSYM    DATA     BIT       SMB0CN0_ARBLOST
      000000B8H.5 SFRSYM    DATA     BIT       IP_PT2
      0000008AH   SFRSYM    DATA     BYTE      TL0
      000000D0H.5 SFRSYM    DATA     BIT       PSW_F0
      000000A8H.6 SFRSYM    DATA     BIT       IE_ESPI0
      0000008BH   SFRSYM    DATA     BYTE      TL1
      000000F9H   SFRSYM    DATA     BYTE      PCA0L
      000000C0H.0 SFRSYM    DATA     BIT       SMB0CN0_SI
      000000D0H.1 SFRSYM    DATA     BIT       PSW_F1
      00000080H.0 SFRSYM    DATA     BIT       P0_B0
      000000B8H.0 SFRSYM    DATA     BIT       IP_PX0
      00000090H.0 SFRSYM    DATA     BIT       P1_B0
      00000080H.1 SFRSYM    DATA     BIT       P0_B1
      000000B8H.2 SFRSYM    DATA     BIT       IP_PX1
LX51 LINKER/LOCATER V4.66.97.0                                                        08/08/2020  16:35:51  PAGE 74


      0000009EH   SFRSYM    DATA     BYTE      UART1LIN
      0000009BH   SFRSYM    DATA     BYTE      CMP0CN0
      00000088H.1 SFRSYM    DATA     BIT       TCON_IE0
      000000A0H.0 SFRSYM    DATA     BIT       P2_B0
      00000090H.1 SFRSYM    DATA     BIT       P1_B1
      00000080H.2 SFRSYM    DATA     BIT       P0_B2
      000000BFH   SFRSYM    DATA     BYTE      CMP1CN0
      00000099H   SFRSYM    DATA     BYTE      CMP0CN1
      00000088H.3 SFRSYM    DATA     BIT       TCON_IE1
      000000B0H.0 SFRSYM    DATA     BIT       P3_B0
      000000A0H.1 SFRSYM    DATA     BIT       P2_B1
      00000090H.2 SFRSYM    DATA     BIT       P1_B2
      00000080H.3 SFRSYM    DATA     BIT       P0_B3
      000000C0H   SFRSYM    DATA     BYTE      SMB0CN0
      000000ACH   SFRSYM    DATA     BYTE      CMP1CN1
      000000B0H.1 SFRSYM    DATA     BIT       P3_B1
      000000A0H.2 SFRSYM    DATA     BIT       P2_B2
      00000090H.3 SFRSYM    DATA     BIT       P1_B3
      00000080H.4 SFRSYM    DATA     BIT       P0_B4
      000000A0H.3 SFRSYM    DATA     BIT       P2_B3
      00000090H.4 SFRSYM    DATA     BIT       P1_B4
      00000080H.5 SFRSYM    DATA     BIT       P0_B5
      000000D8H.1 SFRSYM    DATA     BIT       UART1FCN1_RXTO0
      00000090H.5 SFRSYM    DATA     BIT       P1_B5
      00000080H.6 SFRSYM    DATA     BIT       P0_B6
      000000F5H   SFRSYM    DATA     BYTE      EIP1H
      000000D8H.2 SFRSYM    DATA     BIT       UART1FCN1_RXTO1
      00000090H.6 SFRSYM    DATA     BIT       P1_B6
      00000080H.7 SFRSYM    DATA     BIT       P0_B7
      000000C5H   SFRSYM    DATA     BYTE      SMB0RXLN
      000000F6H   SFRSYM    DATA     BYTE      EIP2H
      00000090H.7 SFRSYM    DATA     BIT       P1_B7
      00000083H   SFRSYM    DATA     BYTE      DPH
      000000C4H   SFRSYM    DATA     BYTE      ADC0GTH
      000000C8H.7 SFRSYM    DATA     BIT       TMR2CN0_TF2H
      000000C8H.3 SFRSYM    DATA     BIT       TMR2CN0_T2SPLIT
      000000D0H.6 SFRSYM    DATA     BIT       PSW_AC
      000000F8H   SFRSYM    DATA     BYTE      SPI0CN0
      000000C7H   SFRSYM    DATA     BYTE      HFO0CAL
      00000088H.5 SFRSYM    DATA     BIT       TCON_TF0
      00000098H.0 SFRSYM    DATA     BIT       SCON0_RI
      000000D6H   SFRSYM    DATA     BYTE      HFO1CAL
      00000082H   SFRSYM    DATA     BYTE      DPL
      00000088H.7 SFRSYM    DATA     BIT       TCON_TF1
      000000C8H.0 SFRSYM    DATA     BIT       SCON1_RI
      00000099H   SFRSYM    DATA     BYTE      SBUF0
      00000087H   SFRSYM    DATA     BYTE      PCON0
      000000F2H   SFRSYM    DATA     BYTE      IPH
      000000C3H   SFRSYM    DATA     BYTE      ADC0GTL
      00000098H.7 SFRSYM    DATA     BIT       TMR4CN0_TF4H
      00000098H.3 SFRSYM    DATA     BIT       TMR4CN0_T4SPLIT
      000000C8H.6 SFRSYM    DATA     BIT       TMR2CN0_TF2L
      00000098H.1 SFRSYM    DATA     BIT       SCON0_TI
      000000E8H.0 SFRSYM    DATA     BIT       ADC0CN0_ADCM0
      00000092H   SFRSYM    DATA     BYTE      SBUF1
      0000009AH   SFRSYM    DATA     BYTE      PCON1
      000000C6H   SFRSYM    DATA     BYTE      ADC0LTH
      00000088H.0 SFRSYM    DATA     BIT       TCON_IT0
      000000C8H.1 SFRSYM    DATA     BIT       SCON1_TI
      000000E8H.1 SFRSYM    DATA     BIT       ADC0CN0_ADCM1
      000000EFH   SFRSYM    DATA     BYTE      RSTSRC
      000000FDH   SFRSYM    DATA     BYTE      P0MAT
LX51 LINKER/LOCATER V4.66.97.0                                                        08/08/2020  16:35:51  PAGE 75


      000000DEH   SFRSYM    DATA     BYTE      CRC0DAT
      00000088H.2 SFRSYM    DATA     BIT       TCON_IT1
      000000E8H.2 SFRSYM    DATA     BIT       ADC0CN0_ADCM2
      000000D7H   SFRSYM    DATA     BYTE      SFRSTACK
      00000098H   SFRSYM    DATA     BYTE      SCON0
      000000F6H   SFRSYM    DATA     BYTE      PRTDRV
      000000EDH   SFRSYM    DATA     BYTE      P1MAT
      000000E8H.3 SFRSYM    DATA     BIT       ADC0CN0_ADWINT
      00000095H   SFRSYM    DATA     WORD      SBRL1
      00000093H   SFRSYM    DATA     BYTE      SMOD1
      000000C8H   SFRSYM    DATA     BYTE      SCON1
      000000FBH   SFRSYM    DATA     BYTE      P2MAT
      00000098H.6 SFRSYM    DATA     BIT       TMR4CN0_TF4L
      000000E8H.4 SFRSYM    DATA     BIT       ADC0CN0_ADBUSY
      000000D6H   SFRSYM    DATA     BYTE      SMB0ADM
      000000C5H   SFRSYM    DATA     BYTE      ADC0LTL
      000000F8H.5 SFRSYM    DATA     BIT       SPI0CN0_MODF
      000000B8H.6 SFRSYM    DATA     BIT       IP_PSPI0
      0000009CH   SFRSYM    DATA     BYTE      PCA0CLR
      000000C8H   SFRSYM    DATA     BYTE      TMR2CN0
      00000091H   SFRSYM    DATA     BYTE      TMR3CN0
      000000FDH   SFRSYM    DATA     BYTE      TMR2CN1
      00000098H   SFRSYM    DATA     BYTE      TMR4CN0
      000000FEH   SFRSYM    DATA     BYTE      TMR3CN1
      000000FFH   SFRSYM    DATA     BYTE      TMR4CN1
      000000D7H   SFRSYM    DATA     BYTE      SMB0ADR
      00000088H.4 SFRSYM    DATA     BIT       TCON_TR0
      000000C8H.4 SFRSYM    DATA     BIT       TMR2CN0_TF2CEN
      00000088H.6 SFRSYM    DATA     BIT       TCON_TR1
      000000C2H   SFRSYM    DATA     BYTE      SMB0DAT
      000000CDH   SFRSYM    DATA     BYTE      TMR2H
      000000A1H   SFRSYM    DATA     BYTE      SPI0CFG
      00000095H   SFRSYM    DATA     BYTE      TMR3H
      000000EFH   SFRSYM    DATA     BYTE      HFOCN
      000000D3H   SFRSYM    DATA     BYTE      CRC0CNT
      000000A5H   SFRSYM    DATA     BYTE      TMR4H
      00000098H.4 SFRSYM    DATA     BIT       TMR4CN0_TF4CEN
      000000EFH   SFRSYM    DATA     BYTE      SMB0FCT
      00000096H   SFRSYM    DATA     BYTE      PCA0POL
      000000CCH   SFRSYM    DATA     BYTE      TMR2L
      000000F8H.7 SFRSYM    DATA     BIT       SPI0CN0_SPIF
      00000094H   SFRSYM    DATA     BYTE      TMR3L
      000000DFH   SFRSYM    DATA     BYTE      ADC0PWR
      000000A8H.7 SFRSYM    DATA     BIT       IE_EA
      000000A4H   SFRSYM    DATA     BYTE      TMR4L
      000000C8H.5 SFRSYM    DATA     BIT       TMR2CN0_TF2LEN
      000000F8H.6 SFRSYM    DATA     BIT       SPI0CN0_WCOL
      000000F8H.2 SFRSYM    DATA     BIT       SPI0CN0_NSSMD0
      000000D0H.7 SFRSYM    DATA     BIT       PSW_CY
      0000009DH   SFRSYM    DATA     BYTE      UART1FCN0
      000000A3H   SFRSYM    DATA     BYTE      SPI0DAT
      000000ADH   SFRSYM    DATA     BYTE      I2C0FCN0
      000000F8H.3 SFRSYM    DATA     BIT       SPI0CN0_NSSMD1
      000000BDH   SFRSYM    DATA     WORD      ADC0
      000000D8H   SFRSYM    DATA     BYTE      UART1FCN1
      000000ABH   SFRSYM    DATA     BYTE      I2C0FCN1
      00000098H.5 SFRSYM    DATA     BIT       TMR4CN0_TF4LEN
      000000D0H   SFRSYM    DATA     BYTE      PSW
      000000F7H   SFRSYM    DATA     BYTE      PCA0PWM
      000000F7H   SFRSYM    DATA     BYTE      SPI0FCT
      000000B6H   SFRSYM    DATA     BYTE      REVID
      000000B7H   SFRSYM    DATA     BYTE      FLKEY
LX51 LINKER/LOCATER V4.66.97.0                                                        08/08/2020  16:35:51  PAGE 76


      000000B3H   SFRSYM    DATA     BYTE      ADC0AC
      00000006H   SYMBOL    DATA     WORD      addr
      00000005H   SYMBOL    DATA     BYTE      byte
      00000082H   SYMBOL    DATA     ---       pwrite
      00000006H   SYMBOL    DATA     WORD      addr
      00000082H   SYMBOL    DATA     ---       pread
      00000007H   SYMBOL    DATA     BYTE      byte
      00000006H   SYMBOL    DATA     WORD      addr
      00000082H   SYMBOL    DATA     ---       pwrite
      00000005H   SYMBOL    DATA     BYTE      mode
      00000007H   SYMBOL    DATA     BYTE      temp_byte

      ---         MODULE    ---      ---       INITDEVICE
      000000A2H   SFRSYM    DATA     BYTE      SPI0CKR
      00000080H   SFRSYM    DATA     BYTE      P0
      000000C8H.6 SFRSYM    DATA     BIT       SCON1_PERR
      000000D0H.2 SFRSYM    DATA     BIT       PSW_OV
      00000090H   SFRSYM    DATA     BYTE      P1
      000000F8H.1 SFRSYM    DATA     BIT       SPI0CN0_TXNF
      00000097H   SFRSYM    DATA     BYTE      WDTCN
      000000A0H   SFRSYM    DATA     BYTE      P2
      000000B0H   SFRSYM    DATA     BYTE      P3
      000000BCH   SFRSYM    DATA     BYTE      ADC0CF
      000000C0H.7 SFRSYM    DATA     BIT       SMB0CN0_MASTER
      000000F9H   SFRSYM    DATA     WORD      PCA0
      000000E6H   SFRSYM    DATA     BYTE      EIE1
      000000C0H.1 SFRSYM    DATA     BIT       SMB0CN0_ACK
      000000CEH   SFRSYM    DATA     BYTE      EIE2
      0000008FH   SFRSYM    DATA     BYTE      PSCTL
      000000E4H   SFRSYM    DATA     BYTE      IT01CF
      000000C0H.6 SFRSYM    DATA     BIT       SMB0CN0_TXMODE
      000000ADH   SFRSYM    DATA     BYTE      DERIVID
      000000A7H   SFRSYM    DATA     BYTE      SFRPAGE
      000000A4H   SFRSYM    DATA     BYTE      P0MDOUT
      000000A5H   SFRSYM    DATA     BYTE      P1MDOUT
      000000E8H.5 SFRSYM    DATA     BIT       ADC0CN0_ADINT
      000000CBH   SFRSYM    DATA     BYTE      TMR2RLH
      000000A6H   SFRSYM    DATA     BYTE      P2MDOUT
      000000A8H   SFRSYM    DATA     BYTE      IE
      00000093H   SFRSYM    DATA     BYTE      TMR3RLH
      0000009CH   SFRSYM    DATA     BYTE      P3MDOUT
      000000A3H   SFRSYM    DATA     BYTE      TMR4RLH
      000000F3H   SFRSYM    DATA     BYTE      EIP1
      000000F4H   SFRSYM    DATA     BYTE      EIP2
      00000098H.2 SFRSYM    DATA     BIT       SCON0_RB8
      000000CAH   SFRSYM    DATA     BYTE      TMR2RLL
      000000FCH   SFRSYM    DATA     BYTE      PCA0CPH0
      00000092H   SFRSYM    DATA     BYTE      TMR3RLL
      000000EAH   SFRSYM    DATA     BYTE      PCA0CPH1
      00000098H.3 SFRSYM    DATA     BIT       SCON0_TB8
      000000F0H.0 SFRSYM    DATA     BIT       B_B0
      00000082H   SFRSYM    DATA     WORD      DP
      000000A2H   SFRSYM    DATA     BYTE      TMR4RLL
      000000ECH   SFRSYM    DATA     BYTE      PCA0CPH2
      000000F0H.1 SFRSYM    DATA     BIT       B_B1
      000000C3H   SFRSYM    DATA     WORD      ADC0GT
      000000BDH   SFRSYM    DATA     BYTE      I2C0SLAD
      000000D8H.3 SFRSYM    DATA     BIT       UART1FCN1_RFRQ
      000000F0H.2 SFRSYM    DATA     BIT       B_B2
      000000CFH   SFRSYM    DATA     BYTE      SFRPGCN
      000000FBH   SFRSYM    DATA     BYTE      PCA0CPL0
      000000F0H.3 SFRSYM    DATA     BIT       B_B3
LX51 LINKER/LOCATER V4.66.97.0                                                        08/08/2020  16:35:51  PAGE 77


      000000D9H   SFRSYM    DATA     BYTE      PCA0MD
      000000DAH   SFRSYM    DATA     BYTE      PCA0CPM0
      000000E9H   SFRSYM    DATA     BYTE      PCA0CPL1
      000000D8H.7 SFRSYM    DATA     BIT       UART1FCN1_TFRQ
      000000F0H.4 SFRSYM    DATA     BIT       B_B4
      000000DBH   SFRSYM    DATA     BYTE      PCA0CPM1
      000000EBH   SFRSYM    DATA     BYTE      PCA0CPL2
      000000F0H.5 SFRSYM    DATA     BIT       B_B5
      000000DCH   SFRSYM    DATA     BYTE      PCA0CPM2
      000000B8H   SFRSYM    DATA     BYTE      IP
      000000B9H   SFRSYM    DATA     BYTE      ADC0TK
      000000F0H.6 SFRSYM    DATA     BIT       B_B6
      000000C5H   SFRSYM    DATA     WORD      ADC0LT
      000000D8H.6 SFRSYM    DATA     BIT       UART1FCN1_TXNF
      00000098H.5 SFRSYM    DATA     BIT       SCON0_MCE
      000000F0H.7 SFRSYM    DATA     BIT       B_B7
      000000C3H   SFRSYM    DATA     BYTE      SMB0FCN0
      000000E1H   SFRSYM    DATA     BYTE      XBR0
      000000C4H   SFRSYM    DATA     BYTE      SMB0FCN1
      000000C1H   SFRSYM    DATA     BYTE      SMB0CF
      000000E2H   SFRSYM    DATA     BYTE      XBR1
      000000C1H   SFRSYM    DATA     BYTE      PFE0CN
      000000E7H   SFRSYM    DATA     BYTE      EMI0CN
      000000C0H.5 SFRSYM    DATA     BIT       SMB0CN0_STA
      000000E3H   SFRSYM    DATA     BYTE      XBR2
      000000BBH   SFRSYM    DATA     BYTE      ADC0MX
      000000E0H.0 SFRSYM    DATA     BIT       ACC_ACC0
      000000D1H   SFRSYM    DATA     BYTE      REF0CN
      0000008EH   SFRSYM    DATA     BYTE      CKCON0
      000000E0H.1 SFRSYM    DATA     BIT       ACC_ACC1
      000000C9H   SFRSYM    DATA     BYTE      REG0CN
      000000DDH   SFRSYM    DATA     BYTE      CRC0IN
      000000A6H   SFRSYM    DATA     BYTE      CKCON1
      000000C8H.2 SFRSYM    DATA     BIT       TMR2CN0_TR2
      000000E0H.2 SFRSYM    DATA     BIT       ACC_ACC2
      000000C6H   SFRSYM    DATA     BYTE      REG1CN
      000000E0H.3 SFRSYM    DATA     BIT       ACC_ACC3
      00000081H   SFRSYM    DATA     BYTE      SP
      0000009DH   SFRSYM    DATA     BYTE      CMP0MD
      000000E0H.4 SFRSYM    DATA     BIT       ACC_ACC4
      000000B1H   SFRSYM    DATA     BYTE      LFO0CN
      000000ABH   SFRSYM    DATA     BYTE      CMP1MD
      000000D8H.0 SFRSYM    DATA     BIT       PCA0CN0_CCF0
      000000E0H.5 SFRSYM    DATA     BIT       ACC_ACC5
      00000098H.2 SFRSYM    DATA     BIT       TMR4CN0_TR4
      000000D8H.1 SFRSYM    DATA     BIT       PCA0CN0_CCF1
      000000E0H.6 SFRSYM    DATA     BIT       ACC_ACC6
      000000CCH   SFRSYM    DATA     WORD      TMR2
      0000009AH   SFRSYM    DATA     BYTE      SPI0FCN0
      000000D8H.2 SFRSYM    DATA     BIT       PCA0CN0_CCF2
      000000E0H.7 SFRSYM    DATA     BIT       ACC_ACC7
      00000094H   SFRSYM    DATA     WORD      TMR3
      0000009BH   SFRSYM    DATA     BYTE      SPI0FCN1
      000000A4H   SFRSYM    DATA     WORD      TMR4
      00000094H   SFRSYM    DATA     BYTE      SBCON1
      000000C0H.3 SFRSYM    DATA     BIT       SMB0CN0_ACKRQ
      000000FFH   SFRSYM    DATA     BYTE      VDM0CN
      000000F1H   SFRSYM    DATA     BYTE      P0MDIN
      00000098H.4 SFRSYM    DATA     BIT       SCON0_REN
      000000ACH   SFRSYM    DATA     BYTE      SMB0TC
      000000F2H   SFRSYM    DATA     BYTE      P1MDIN
      000000C8H.4 SFRSYM    DATA     BIT       SCON1_REN
LX51 LINKER/LOCATER V4.66.97.0                                                        08/08/2020  16:35:51  PAGE 78


      000000F3H   SFRSYM    DATA     BYTE      P2MDIN
      000000C0H.4 SFRSYM    DATA     BIT       SMB0CN0_STO
      000000F4H   SFRSYM    DATA     BYTE      P3MDIN
      000000B9H   SFRSYM    DATA     BYTE      I2C0STAT
      000000BBH   SFRSYM    DATA     BYTE      I2C0DOUT
      00000096H   SFRSYM    DATA     BYTE      SBRLH1
      000000FEH   SFRSYM    DATA     BYTE      P0MASK
      000000D8H.5 SFRSYM    DATA     BIT       UART1FCN1_TXHOLD
      000000EEH   SFRSYM    DATA     BYTE      P1MASK
      000000FCH   SFRSYM    DATA     BYTE      P2MASK
      000000D0H.3 SFRSYM    DATA     BIT       PSW_RS0
      000000D8H.7 SFRSYM    DATA     BIT       PCA0CN0_CF
      0000009EH   SFRSYM    DATA     BYTE      PCA0CENT
      000000BAH   SFRSYM    DATA     BYTE      I2C0CN0
      000000D2H   SFRSYM    DATA     BYTE      CRC0ST
      000000F8H.4 SFRSYM    DATA     BIT       SPI0CN0_RXOVRN
      000000D0H.4 SFRSYM    DATA     BIT       PSW_RS1
      00000095H   SFRSYM    DATA     BYTE      SBRLL1
      000000C8H.2 SFRSYM    DATA     BIT       SCON1_RBX
      000000C8H.0 SFRSYM    DATA     BIT       TMR2CN0_T2XCLK0
      000000C8H.1 SFRSYM    DATA     BIT       TMR2CN0_T2XCLK1
      000000C8H.3 SFRSYM    DATA     BIT       SCON1_TBX
      000000E8H.7 SFRSYM    DATA     BIT       ADC0CN0_ADEN
      00000089H   SFRSYM    DATA     BYTE      TMOD
      00000088H   SFRSYM    DATA     BYTE      TCON
      000000CFH   SFRSYM    DATA     BYTE      CRC0FLIP
      000000D0H.0 SFRSYM    DATA     BIT       PSW_PARITY
      000000A8H.4 SFRSYM    DATA     BIT       IE_ES0
      0000009FH   SFRSYM    DATA     BYTE      CMP0MX
      00000098H.0 SFRSYM    DATA     BIT       TMR4CN0_T4XCLK0
      000000A8H.1 SFRSYM    DATA     BIT       IE_ET0
      000000AAH   SFRSYM    DATA     BYTE      CMP1MX
      00000098H.1 SFRSYM    DATA     BIT       TMR4CN0_T4XCLK1
      000000A8H.3 SFRSYM    DATA     BIT       IE_ET1
      000000D4H   SFRSYM    DATA     BYTE      P0SKIP
      000000D8H.0 SFRSYM    DATA     BIT       UART1FCN1_RIE
      000000A8H.5 SFRSYM    DATA     BIT       IE_ET2
      000000D5H   SFRSYM    DATA     BYTE      P1SKIP
      000000CCH   SFRSYM    DATA     BYTE      P2SKIP
      000000E8H   SFRSYM    DATA     BYTE      ADC0CN0
      000000D8H.4 SFRSYM    DATA     BIT       UART1FCN1_TIE
      000000A8H.0 SFRSYM    DATA     BIT       IE_EX0
      000000B2H   SFRSYM    DATA     BYTE      ADC0CN1
      000000D8H.6 SFRSYM    DATA     BIT       PCA0CN0_CR
      000000A8H.2 SFRSYM    DATA     BIT       IE_EX1
      000000C8H.7 SFRSYM    DATA     BIT       SCON1_OVR
      00000098H.7 SFRSYM    DATA     BIT       SCON0_SMODE
      000000B5H   SFRSYM    DATA     BYTE      DEVICEID
      000000A9H   SFRSYM    DATA     BYTE      CLKSEL
      000000F8H.0 SFRSYM    DATA     BIT       SPI0CN0_SPIEN
      000000F0H   SFRSYM    DATA     BYTE      B
      000000BEH   SFRSYM    DATA     BYTE      ADC0H
      000000E8H.6 SFRSYM    DATA     BIT       ADC0CN0_ADBMEN
      000000CAH   SFRSYM    DATA     WORD      TMR2RL
      000000BDH   SFRSYM    DATA     BYTE      ADC0L
      00000092H   SFRSYM    DATA     WORD      TMR3RL
      000000A2H   SFRSYM    DATA     WORD      TMR4RL
      000000D8H   SFRSYM    DATA     BYTE      PCA0CN0
      000000E0H   SFRSYM    DATA     BYTE      ACC
      000000FBH   SFRSYM    DATA     WORD      PCA0CP0
      000000E9H   SFRSYM    DATA     WORD      PCA0CP1
      000000EBH   SFRSYM    DATA     WORD      PCA0CP2
LX51 LINKER/LOCATER V4.66.97.0                                                        08/08/2020  16:35:51  PAGE 79


      000000BCH   SFRSYM    DATA     BYTE      I2C0DIN
      000000CEH   SFRSYM    DATA     BYTE      CRC0CN0
      0000008CH   SFRSYM    DATA     BYTE      TH0
      00000086H   SFRSYM    DATA     BYTE      CRC0CN1
      000000B8H.4 SFRSYM    DATA     BIT       IP_PS0
      000000FAH   SFRSYM    DATA     BYTE      UART1FCT
      0000008DH   SFRSYM    DATA     BYTE      TH1
      000000FAH   SFRSYM    DATA     BYTE      PCA0H
      000000F5H   SFRSYM    DATA     BYTE      I2C0FCT
      000000B8H.1 SFRSYM    DATA     BIT       IP_PT0
      000000B8H.3 SFRSYM    DATA     BIT       IP_PT1
      000000C0H.2 SFRSYM    DATA     BIT       SMB0CN0_ARBLOST
      000000B8H.5 SFRSYM    DATA     BIT       IP_PT2
      0000008AH   SFRSYM    DATA     BYTE      TL0
      000000D0H.5 SFRSYM    DATA     BIT       PSW_F0
      000000A8H.6 SFRSYM    DATA     BIT       IE_ESPI0
      0000008BH   SFRSYM    DATA     BYTE      TL1
      000000F9H   SFRSYM    DATA     BYTE      PCA0L
      000000C0H.0 SFRSYM    DATA     BIT       SMB0CN0_SI
      000000D0H.1 SFRSYM    DATA     BIT       PSW_F1
      00000080H.0 SFRSYM    DATA     BIT       P0_B0
      000000B8H.0 SFRSYM    DATA     BIT       IP_PX0
      00000090H.0 SFRSYM    DATA     BIT       P1_B0
      00000080H.1 SFRSYM    DATA     BIT       P0_B1
      000000B8H.2 SFRSYM    DATA     BIT       IP_PX1
      0000009EH   SFRSYM    DATA     BYTE      UART1LIN
      0000009BH   SFRSYM    DATA     BYTE      CMP0CN0
      00000088H.1 SFRSYM    DATA     BIT       TCON_IE0
      000000A0H.0 SFRSYM    DATA     BIT       P2_B0
      00000090H.1 SFRSYM    DATA     BIT       P1_B1
      00000080H.2 SFRSYM    DATA     BIT       P0_B2
      000000BFH   SFRSYM    DATA     BYTE      CMP1CN0
      00000099H   SFRSYM    DATA     BYTE      CMP0CN1
      00000088H.3 SFRSYM    DATA     BIT       TCON_IE1
      000000B0H.0 SFRSYM    DATA     BIT       P3_B0
      000000A0H.1 SFRSYM    DATA     BIT       P2_B1
      00000090H.2 SFRSYM    DATA     BIT       P1_B2
      00000080H.3 SFRSYM    DATA     BIT       P0_B3
      000000C0H   SFRSYM    DATA     BYTE      SMB0CN0
      000000ACH   SFRSYM    DATA     BYTE      CMP1CN1
      000000B0H.1 SFRSYM    DATA     BIT       P3_B1
      000000A0H.2 SFRSYM    DATA     BIT       P2_B2
      00000090H.3 SFRSYM    DATA     BIT       P1_B3
      00000080H.4 SFRSYM    DATA     BIT       P0_B4
      000000A0H.3 SFRSYM    DATA     BIT       P2_B3
      00000090H.4 SFRSYM    DATA     BIT       P1_B4
      00000080H.5 SFRSYM    DATA     BIT       P0_B5
      000000D8H.1 SFRSYM    DATA     BIT       UART1FCN1_RXTO0
      00000090H.5 SFRSYM    DATA     BIT       P1_B5
      00000080H.6 SFRSYM    DATA     BIT       P0_B6
      000000F5H   SFRSYM    DATA     BYTE      EIP1H
      000000D8H.2 SFRSYM    DATA     BIT       UART1FCN1_RXTO1
      00000090H.6 SFRSYM    DATA     BIT       P1_B6
      00000080H.7 SFRSYM    DATA     BIT       P0_B7
      000000C5H   SFRSYM    DATA     BYTE      SMB0RXLN
      000000F6H   SFRSYM    DATA     BYTE      EIP2H
      00000090H.7 SFRSYM    DATA     BIT       P1_B7
      00000083H   SFRSYM    DATA     BYTE      DPH
      000000C4H   SFRSYM    DATA     BYTE      ADC0GTH
      000000C8H.7 SFRSYM    DATA     BIT       TMR2CN0_TF2H
      000000C8H.3 SFRSYM    DATA     BIT       TMR2CN0_T2SPLIT
      000000D0H.6 SFRSYM    DATA     BIT       PSW_AC
LX51 LINKER/LOCATER V4.66.97.0                                                        08/08/2020  16:35:51  PAGE 80


      000000F8H   SFRSYM    DATA     BYTE      SPI0CN0
      000000C7H   SFRSYM    DATA     BYTE      HFO0CAL
      00000088H.5 SFRSYM    DATA     BIT       TCON_TF0
      00000098H.0 SFRSYM    DATA     BIT       SCON0_RI
      000000D6H   SFRSYM    DATA     BYTE      HFO1CAL
      00000082H   SFRSYM    DATA     BYTE      DPL
      00000088H.7 SFRSYM    DATA     BIT       TCON_TF1
      000000C8H.0 SFRSYM    DATA     BIT       SCON1_RI
      00000099H   SFRSYM    DATA     BYTE      SBUF0
      00000087H   SFRSYM    DATA     BYTE      PCON0
      000000F2H   SFRSYM    DATA     BYTE      IPH
      000000C3H   SFRSYM    DATA     BYTE      ADC0GTL
      00000098H.7 SFRSYM    DATA     BIT       TMR4CN0_TF4H
      00000098H.3 SFRSYM    DATA     BIT       TMR4CN0_T4SPLIT
      000000C8H.6 SFRSYM    DATA     BIT       TMR2CN0_TF2L
      00000098H.1 SFRSYM    DATA     BIT       SCON0_TI
      000000E8H.0 SFRSYM    DATA     BIT       ADC0CN0_ADCM0
      00000092H   SFRSYM    DATA     BYTE      SBUF1
      0000009AH   SFRSYM    DATA     BYTE      PCON1
      000000C6H   SFRSYM    DATA     BYTE      ADC0LTH
      00000088H.0 SFRSYM    DATA     BIT       TCON_IT0
      000000C8H.1 SFRSYM    DATA     BIT       SCON1_TI
      000000E8H.1 SFRSYM    DATA     BIT       ADC0CN0_ADCM1
      000000EFH   SFRSYM    DATA     BYTE      RSTSRC
      000000FDH   SFRSYM    DATA     BYTE      P0MAT
      000000DEH   SFRSYM    DATA     BYTE      CRC0DAT
      00000088H.2 SFRSYM    DATA     BIT       TCON_IT1
      000000E8H.2 SFRSYM    DATA     BIT       ADC0CN0_ADCM2
      000000D7H   SFRSYM    DATA     BYTE      SFRSTACK
      00000098H   SFRSYM    DATA     BYTE      SCON0
      000000F6H   SFRSYM    DATA     BYTE      PRTDRV
      000000EDH   SFRSYM    DATA     BYTE      P1MAT
      000000E8H.3 SFRSYM    DATA     BIT       ADC0CN0_ADWINT
      00000095H   SFRSYM    DATA     WORD      SBRL1
      00000093H   SFRSYM    DATA     BYTE      SMOD1
      000000C8H   SFRSYM    DATA     BYTE      SCON1
      000000FBH   SFRSYM    DATA     BYTE      P2MAT
      00000098H.6 SFRSYM    DATA     BIT       TMR4CN0_TF4L
      000000E8H.4 SFRSYM    DATA     BIT       ADC0CN0_ADBUSY
      000000D6H   SFRSYM    DATA     BYTE      SMB0ADM
      000000C5H   SFRSYM    DATA     BYTE      ADC0LTL
      000000F8H.5 SFRSYM    DATA     BIT       SPI0CN0_MODF
      000000B8H.6 SFRSYM    DATA     BIT       IP_PSPI0
      0000009CH   SFRSYM    DATA     BYTE      PCA0CLR
      000000C8H   SFRSYM    DATA     BYTE      TMR2CN0
      00000091H   SFRSYM    DATA     BYTE      TMR3CN0
      000000FDH   SFRSYM    DATA     BYTE      TMR2CN1
      00000098H   SFRSYM    DATA     BYTE      TMR4CN0
      000000FEH   SFRSYM    DATA     BYTE      TMR3CN1
      000000FFH   SFRSYM    DATA     BYTE      TMR4CN1
      000000D7H   SFRSYM    DATA     BYTE      SMB0ADR
      00000088H.4 SFRSYM    DATA     BIT       TCON_TR0
      000000C8H.4 SFRSYM    DATA     BIT       TMR2CN0_TF2CEN
      00000088H.6 SFRSYM    DATA     BIT       TCON_TR1
      000000C2H   SFRSYM    DATA     BYTE      SMB0DAT
      000000CDH   SFRSYM    DATA     BYTE      TMR2H
      000000A1H   SFRSYM    DATA     BYTE      SPI0CFG
      00000095H   SFRSYM    DATA     BYTE      TMR3H
      000000EFH   SFRSYM    DATA     BYTE      HFOCN
      000000D3H   SFRSYM    DATA     BYTE      CRC0CNT
      000000A5H   SFRSYM    DATA     BYTE      TMR4H
      00000098H.4 SFRSYM    DATA     BIT       TMR4CN0_TF4CEN
LX51 LINKER/LOCATER V4.66.97.0                                                        08/08/2020  16:35:51  PAGE 81


      000000EFH   SFRSYM    DATA     BYTE      SMB0FCT
      00000096H   SFRSYM    DATA     BYTE      PCA0POL
      000000CCH   SFRSYM    DATA     BYTE      TMR2L
      000000F8H.7 SFRSYM    DATA     BIT       SPI0CN0_SPIF
      00000094H   SFRSYM    DATA     BYTE      TMR3L
      000000DFH   SFRSYM    DATA     BYTE      ADC0PWR
      000000A8H.7 SFRSYM    DATA     BIT       IE_EA
      000000A4H   SFRSYM    DATA     BYTE      TMR4L
      000000C8H.5 SFRSYM    DATA     BIT       TMR2CN0_TF2LEN
      000000F8H.6 SFRSYM    DATA     BIT       SPI0CN0_WCOL
      000000F8H.2 SFRSYM    DATA     BIT       SPI0CN0_NSSMD0
      000000D0H.7 SFRSYM    DATA     BIT       PSW_CY
      0000009DH   SFRSYM    DATA     BYTE      UART1FCN0
      000000A3H   SFRSYM    DATA     BYTE      SPI0DAT
      000000ADH   SFRSYM    DATA     BYTE      I2C0FCN0
      000000F8H.3 SFRSYM    DATA     BIT       SPI0CN0_NSSMD1
      000000BDH   SFRSYM    DATA     WORD      ADC0
      000000D8H   SFRSYM    DATA     BYTE      UART1FCN1
      000000ABH   SFRSYM    DATA     BYTE      I2C0FCN1
      00000098H.5 SFRSYM    DATA     BIT       TMR4CN0_TF4LEN
      000000D0H   SFRSYM    DATA     BYTE      PSW
      000000F7H   SFRSYM    DATA     BYTE      PCA0PWM
      000000F7H   SFRSYM    DATA     BYTE      SPI0FCT
      000000B6H   SFRSYM    DATA     BYTE      REVID
      000000B7H   SFRSYM    DATA     BYTE      FLKEY
      000000B3H   SFRSYM    DATA     BYTE      ADC0AC
      00000007H   SYMBOL    DATA     BYTE      SFRPAGE_save

      ---         MODULE    ---      ---       MAIN
      02000300H   PUBLIC    XDATA    ---       buffer
      020002FCH   PUBLIC    XDATA    DWORD     errorCount
      0000007AH   PUBLIC    DATA     BYTE      Debug_RD2
      00000079H   PUBLIC    DATA     BYTE      Debug_RD1
      0100259BH   PUBLIC    CODE     ---       main
      01002067H   PUBLIC    CODE     ---       InitGlobalVariable
      01000022H   PUBLIC    CODE     ---       SiLabs_Startup
      000000A2H   SFRSYM    DATA     BYTE      SPI0CKR
      00000080H   SFRSYM    DATA     BYTE      P0
      000000C8H.6 SFRSYM    DATA     BIT       SCON1_PERR
      000000D0H.2 SFRSYM    DATA     BIT       PSW_OV
      00000090H   SFRSYM    DATA     BYTE      P1
      000000F8H.1 SFRSYM    DATA     BIT       SPI0CN0_TXNF
      00000097H   SFRSYM    DATA     BYTE      WDTCN
      000000A0H   SFRSYM    DATA     BYTE      P2
      000000B0H   SFRSYM    DATA     BYTE      P3
      000000BCH   SFRSYM    DATA     BYTE      ADC0CF
      000000C0H.7 SFRSYM    DATA     BIT       SMB0CN0_MASTER
      000000F9H   SFRSYM    DATA     WORD      PCA0
      000000E6H   SFRSYM    DATA     BYTE      EIE1
      000000C0H.1 SFRSYM    DATA     BIT       SMB0CN0_ACK
      000000CEH   SFRSYM    DATA     BYTE      EIE2
      0000008FH   SFRSYM    DATA     BYTE      PSCTL
      000000E4H   SFRSYM    DATA     BYTE      IT01CF
      000000C0H.6 SFRSYM    DATA     BIT       SMB0CN0_TXMODE
      000000ADH   SFRSYM    DATA     BYTE      DERIVID
      000000A7H   SFRSYM    DATA     BYTE      SFRPAGE
      000000A4H   SFRSYM    DATA     BYTE      P0MDOUT
      000000A5H   SFRSYM    DATA     BYTE      P1MDOUT
      000000E8H.5 SFRSYM    DATA     BIT       ADC0CN0_ADINT
      000000CBH   SFRSYM    DATA     BYTE      TMR2RLH
      000000A6H   SFRSYM    DATA     BYTE      P2MDOUT
      000000A8H   SFRSYM    DATA     BYTE      IE
LX51 LINKER/LOCATER V4.66.97.0                                                        08/08/2020  16:35:51  PAGE 82


      00000093H   SFRSYM    DATA     BYTE      TMR3RLH
      0000009CH   SFRSYM    DATA     BYTE      P3MDOUT
      000000A3H   SFRSYM    DATA     BYTE      TMR4RLH
      000000F3H   SFRSYM    DATA     BYTE      EIP1
      000000F4H   SFRSYM    DATA     BYTE      EIP2
      00000098H.2 SFRSYM    DATA     BIT       SCON0_RB8
      000000CAH   SFRSYM    DATA     BYTE      TMR2RLL
      000000FCH   SFRSYM    DATA     BYTE      PCA0CPH0
      00000092H   SFRSYM    DATA     BYTE      TMR3RLL
      000000EAH   SFRSYM    DATA     BYTE      PCA0CPH1
      00000098H.3 SFRSYM    DATA     BIT       SCON0_TB8
      000000F0H.0 SFRSYM    DATA     BIT       B_B0
      00000082H   SFRSYM    DATA     WORD      DP
      000000A2H   SFRSYM    DATA     BYTE      TMR4RLL
      000000ECH   SFRSYM    DATA     BYTE      PCA0CPH2
      000000F0H.1 SFRSYM    DATA     BIT       B_B1
      000000C3H   SFRSYM    DATA     WORD      ADC0GT
      000000BDH   SFRSYM    DATA     BYTE      I2C0SLAD
      000000D8H.3 SFRSYM    DATA     BIT       UART1FCN1_RFRQ
      000000F0H.2 SFRSYM    DATA     BIT       B_B2
      000000CFH   SFRSYM    DATA     BYTE      SFRPGCN
      000000FBH   SFRSYM    DATA     BYTE      PCA0CPL0
      000000F0H.3 SFRSYM    DATA     BIT       B_B3
      000000D9H   SFRSYM    DATA     BYTE      PCA0MD
      000000DAH   SFRSYM    DATA     BYTE      PCA0CPM0
      000000E9H   SFRSYM    DATA     BYTE      PCA0CPL1
      000000D8H.7 SFRSYM    DATA     BIT       UART1FCN1_TFRQ
      000000F0H.4 SFRSYM    DATA     BIT       B_B4
      000000DBH   SFRSYM    DATA     BYTE      PCA0CPM1
      000000EBH   SFRSYM    DATA     BYTE      PCA0CPL2
      000000F0H.5 SFRSYM    DATA     BIT       B_B5
      000000DCH   SFRSYM    DATA     BYTE      PCA0CPM2
      000000B8H   SFRSYM    DATA     BYTE      IP
      000000B9H   SFRSYM    DATA     BYTE      ADC0TK
      000000F0H.6 SFRSYM    DATA     BIT       B_B6
      000000C5H   SFRSYM    DATA     WORD      ADC0LT
      000000D8H.6 SFRSYM    DATA     BIT       UART1FCN1_TXNF
      00000098H.5 SFRSYM    DATA     BIT       SCON0_MCE
      000000F0H.7 SFRSYM    DATA     BIT       B_B7
      000000C3H   SFRSYM    DATA     BYTE      SMB0FCN0
      000000E1H   SFRSYM    DATA     BYTE      XBR0
      000000C4H   SFRSYM    DATA     BYTE      SMB0FCN1
      000000C1H   SFRSYM    DATA     BYTE      SMB0CF
      000000E2H   SFRSYM    DATA     BYTE      XBR1
      000000C1H   SFRSYM    DATA     BYTE      PFE0CN
      000000E7H   SFRSYM    DATA     BYTE      EMI0CN
      000000C0H.5 SFRSYM    DATA     BIT       SMB0CN0_STA
      000000E3H   SFRSYM    DATA     BYTE      XBR2
      000000BBH   SFRSYM    DATA     BYTE      ADC0MX
      000000E0H.0 SFRSYM    DATA     BIT       ACC_ACC0
      000000D1H   SFRSYM    DATA     BYTE      REF0CN
      0000008EH   SFRSYM    DATA     BYTE      CKCON0
      000000E0H.1 SFRSYM    DATA     BIT       ACC_ACC1
      000000C9H   SFRSYM    DATA     BYTE      REG0CN
      000000DDH   SFRSYM    DATA     BYTE      CRC0IN
      000000A6H   SFRSYM    DATA     BYTE      CKCON1
      000000C8H.2 SFRSYM    DATA     BIT       TMR2CN0_TR2
      000000E0H.2 SFRSYM    DATA     BIT       ACC_ACC2
      000000C6H   SFRSYM    DATA     BYTE      REG1CN
      000000E0H.3 SFRSYM    DATA     BIT       ACC_ACC3
      00000081H   SFRSYM    DATA     BYTE      SP
      0000009DH   SFRSYM    DATA     BYTE      CMP0MD
LX51 LINKER/LOCATER V4.66.97.0                                                        08/08/2020  16:35:51  PAGE 83


      000000E0H.4 SFRSYM    DATA     BIT       ACC_ACC4
      000000B1H   SFRSYM    DATA     BYTE      LFO0CN
      000000ABH   SFRSYM    DATA     BYTE      CMP1MD
      000000D8H.0 SFRSYM    DATA     BIT       PCA0CN0_CCF0
      000000E0H.5 SFRSYM    DATA     BIT       ACC_ACC5
      00000098H.2 SFRSYM    DATA     BIT       TMR4CN0_TR4
      000000D8H.1 SFRSYM    DATA     BIT       PCA0CN0_CCF1
      000000E0H.6 SFRSYM    DATA     BIT       ACC_ACC6
      000000CCH   SFRSYM    DATA     WORD      TMR2
      0000009AH   SFRSYM    DATA     BYTE      SPI0FCN0
      000000D8H.2 SFRSYM    DATA     BIT       PCA0CN0_CCF2
      000000E0H.7 SFRSYM    DATA     BIT       ACC_ACC7
      00000094H   SFRSYM    DATA     WORD      TMR3
      0000009BH   SFRSYM    DATA     BYTE      SPI0FCN1
      000000A4H   SFRSYM    DATA     WORD      TMR4
      00000094H   SFRSYM    DATA     BYTE      SBCON1
      000000C0H.3 SFRSYM    DATA     BIT       SMB0CN0_ACKRQ
      000000FFH   SFRSYM    DATA     BYTE      VDM0CN
      000000F1H   SFRSYM    DATA     BYTE      P0MDIN
      00000098H.4 SFRSYM    DATA     BIT       SCON0_REN
      000000ACH   SFRSYM    DATA     BYTE      SMB0TC
      000000F2H   SFRSYM    DATA     BYTE      P1MDIN
      000000C8H.4 SFRSYM    DATA     BIT       SCON1_REN
      000000F3H   SFRSYM    DATA     BYTE      P2MDIN
      000000C0H.4 SFRSYM    DATA     BIT       SMB0CN0_STO
      000000F4H   SFRSYM    DATA     BYTE      P3MDIN
      000000B9H   SFRSYM    DATA     BYTE      I2C0STAT
      000000BBH   SFRSYM    DATA     BYTE      I2C0DOUT
      00000096H   SFRSYM    DATA     BYTE      SBRLH1
      000000FEH   SFRSYM    DATA     BYTE      P0MASK
      000000D8H.5 SFRSYM    DATA     BIT       UART1FCN1_TXHOLD
      000000EEH   SFRSYM    DATA     BYTE      P1MASK
      000000FCH   SFRSYM    DATA     BYTE      P2MASK
      000000D0H.3 SFRSYM    DATA     BIT       PSW_RS0
      000000D8H.7 SFRSYM    DATA     BIT       PCA0CN0_CF
      0000009EH   SFRSYM    DATA     BYTE      PCA0CENT
      000000BAH   SFRSYM    DATA     BYTE      I2C0CN0
      000000D2H   SFRSYM    DATA     BYTE      CRC0ST
      000000F8H.4 SFRSYM    DATA     BIT       SPI0CN0_RXOVRN
      000000D0H.4 SFRSYM    DATA     BIT       PSW_RS1
      00000095H   SFRSYM    DATA     BYTE      SBRLL1
      000000C8H.2 SFRSYM    DATA     BIT       SCON1_RBX
      000000C8H.0 SFRSYM    DATA     BIT       TMR2CN0_T2XCLK0
      000000C8H.1 SFRSYM    DATA     BIT       TMR2CN0_T2XCLK1
      000000C8H.3 SFRSYM    DATA     BIT       SCON1_TBX
      000000E8H.7 SFRSYM    DATA     BIT       ADC0CN0_ADEN
      00000089H   SFRSYM    DATA     BYTE      TMOD
      00000088H   SFRSYM    DATA     BYTE      TCON
      000000CFH   SFRSYM    DATA     BYTE      CRC0FLIP
      000000D0H.0 SFRSYM    DATA     BIT       PSW_PARITY
      000000A8H.4 SFRSYM    DATA     BIT       IE_ES0
      0000009FH   SFRSYM    DATA     BYTE      CMP0MX
      00000098H.0 SFRSYM    DATA     BIT       TMR4CN0_T4XCLK0
      000000A8H.1 SFRSYM    DATA     BIT       IE_ET0
      000000AAH   SFRSYM    DATA     BYTE      CMP1MX
      00000098H.1 SFRSYM    DATA     BIT       TMR4CN0_T4XCLK1
      000000A8H.3 SFRSYM    DATA     BIT       IE_ET1
      000000D4H   SFRSYM    DATA     BYTE      P0SKIP
      000000D8H.0 SFRSYM    DATA     BIT       UART1FCN1_RIE
      000000A8H.5 SFRSYM    DATA     BIT       IE_ET2
      000000D5H   SFRSYM    DATA     BYTE      P1SKIP
      000000CCH   SFRSYM    DATA     BYTE      P2SKIP
LX51 LINKER/LOCATER V4.66.97.0                                                        08/08/2020  16:35:51  PAGE 84


      000000E8H   SFRSYM    DATA     BYTE      ADC0CN0
      000000D8H.4 SFRSYM    DATA     BIT       UART1FCN1_TIE
      000000A8H.0 SFRSYM    DATA     BIT       IE_EX0
      000000B2H   SFRSYM    DATA     BYTE      ADC0CN1
      000000D8H.6 SFRSYM    DATA     BIT       PCA0CN0_CR
      000000A8H.2 SFRSYM    DATA     BIT       IE_EX1
      000000C8H.7 SFRSYM    DATA     BIT       SCON1_OVR
      00000098H.7 SFRSYM    DATA     BIT       SCON0_SMODE
      000000B5H   SFRSYM    DATA     BYTE      DEVICEID
      000000A9H   SFRSYM    DATA     BYTE      CLKSEL
      000000F8H.0 SFRSYM    DATA     BIT       SPI0CN0_SPIEN
      000000F0H   SFRSYM    DATA     BYTE      B
      000000BEH   SFRSYM    DATA     BYTE      ADC0H
      000000E8H.6 SFRSYM    DATA     BIT       ADC0CN0_ADBMEN
      000000CAH   SFRSYM    DATA     WORD      TMR2RL
      000000BDH   SFRSYM    DATA     BYTE      ADC0L
      00000092H   SFRSYM    DATA     WORD      TMR3RL
      000000A2H   SFRSYM    DATA     WORD      TMR4RL
      000000D8H   SFRSYM    DATA     BYTE      PCA0CN0
      000000E0H   SFRSYM    DATA     BYTE      ACC
      000000FBH   SFRSYM    DATA     WORD      PCA0CP0
      000000E9H   SFRSYM    DATA     WORD      PCA0CP1
      000000EBH   SFRSYM    DATA     WORD      PCA0CP2
      000000BCH   SFRSYM    DATA     BYTE      I2C0DIN
      000000CEH   SFRSYM    DATA     BYTE      CRC0CN0
      0000008CH   SFRSYM    DATA     BYTE      TH0
      00000086H   SFRSYM    DATA     BYTE      CRC0CN1
      000000B8H.4 SFRSYM    DATA     BIT       IP_PS0
      000000FAH   SFRSYM    DATA     BYTE      UART1FCT
      0000008DH   SFRSYM    DATA     BYTE      TH1
      000000FAH   SFRSYM    DATA     BYTE      PCA0H
      000000F5H   SFRSYM    DATA     BYTE      I2C0FCT
      000000B8H.1 SFRSYM    DATA     BIT       IP_PT0
      000000B8H.3 SFRSYM    DATA     BIT       IP_PT1
      000000C0H.2 SFRSYM    DATA     BIT       SMB0CN0_ARBLOST
      000000B8H.5 SFRSYM    DATA     BIT       IP_PT2
      0000008AH   SFRSYM    DATA     BYTE      TL0
      000000D0H.5 SFRSYM    DATA     BIT       PSW_F0
      000000A8H.6 SFRSYM    DATA     BIT       IE_ESPI0
      0000008BH   SFRSYM    DATA     BYTE      TL1
      000000F9H   SFRSYM    DATA     BYTE      PCA0L
      000000C0H.0 SFRSYM    DATA     BIT       SMB0CN0_SI
      000000D0H.1 SFRSYM    DATA     BIT       PSW_F1
      00000080H.0 SFRSYM    DATA     BIT       P0_B0
      000000B8H.0 SFRSYM    DATA     BIT       IP_PX0
      00000090H.0 SFRSYM    DATA     BIT       P1_B0
      00000080H.1 SFRSYM    DATA     BIT       P0_B1
      000000B8H.2 SFRSYM    DATA     BIT       IP_PX1
      0000009EH   SFRSYM    DATA     BYTE      UART1LIN
      0000009BH   SFRSYM    DATA     BYTE      CMP0CN0
      00000088H.1 SFRSYM    DATA     BIT       TCON_IE0
      000000A0H.0 SFRSYM    DATA     BIT       P2_B0
      00000090H.1 SFRSYM    DATA     BIT       P1_B1
      00000080H.2 SFRSYM    DATA     BIT       P0_B2
      000000BFH   SFRSYM    DATA     BYTE      CMP1CN0
      00000099H   SFRSYM    DATA     BYTE      CMP0CN1
      00000088H.3 SFRSYM    DATA     BIT       TCON_IE1
      000000B0H.0 SFRSYM    DATA     BIT       P3_B0
      000000A0H.1 SFRSYM    DATA     BIT       P2_B1
      00000090H.2 SFRSYM    DATA     BIT       P1_B2
      00000080H.3 SFRSYM    DATA     BIT       P0_B3
      000000C0H   SFRSYM    DATA     BYTE      SMB0CN0
LX51 LINKER/LOCATER V4.66.97.0                                                        08/08/2020  16:35:51  PAGE 85


      000000ACH   SFRSYM    DATA     BYTE      CMP1CN1
      000000B0H.1 SFRSYM    DATA     BIT       P3_B1
      000000A0H.2 SFRSYM    DATA     BIT       P2_B2
      00000090H.3 SFRSYM    DATA     BIT       P1_B3
      00000080H.4 SFRSYM    DATA     BIT       P0_B4
      000000A0H.3 SFRSYM    DATA     BIT       P2_B3
      00000090H.4 SFRSYM    DATA     BIT       P1_B4
      00000080H.5 SFRSYM    DATA     BIT       P0_B5
      000000D8H.1 SFRSYM    DATA     BIT       UART1FCN1_RXTO0
      00000090H.5 SFRSYM    DATA     BIT       P1_B5
      00000080H.6 SFRSYM    DATA     BIT       P0_B6
      000000F5H   SFRSYM    DATA     BYTE      EIP1H
      000000D8H.2 SFRSYM    DATA     BIT       UART1FCN1_RXTO1
      00000090H.6 SFRSYM    DATA     BIT       P1_B6
      00000080H.7 SFRSYM    DATA     BIT       P0_B7
      000000C5H   SFRSYM    DATA     BYTE      SMB0RXLN
      000000F6H   SFRSYM    DATA     BYTE      EIP2H
      00000090H.7 SFRSYM    DATA     BIT       P1_B7
      00000083H   SFRSYM    DATA     BYTE      DPH
      000000C4H   SFRSYM    DATA     BYTE      ADC0GTH
      000000C8H.7 SFRSYM    DATA     BIT       TMR2CN0_TF2H
      000000C8H.3 SFRSYM    DATA     BIT       TMR2CN0_T2SPLIT
      000000D0H.6 SFRSYM    DATA     BIT       PSW_AC
      000000F8H   SFRSYM    DATA     BYTE      SPI0CN0
      000000C7H   SFRSYM    DATA     BYTE      HFO0CAL
      00000088H.5 SFRSYM    DATA     BIT       TCON_TF0
      00000098H.0 SFRSYM    DATA     BIT       SCON0_RI
      000000D6H   SFRSYM    DATA     BYTE      HFO1CAL
      00000082H   SFRSYM    DATA     BYTE      DPL
      00000088H.7 SFRSYM    DATA     BIT       TCON_TF1
      000000C8H.0 SFRSYM    DATA     BIT       SCON1_RI
      00000099H   SFRSYM    DATA     BYTE      SBUF0
      00000087H   SFRSYM    DATA     BYTE      PCON0
      000000F2H   SFRSYM    DATA     BYTE      IPH
      000000C3H   SFRSYM    DATA     BYTE      ADC0GTL
      00000098H.7 SFRSYM    DATA     BIT       TMR4CN0_TF4H
      00000098H.3 SFRSYM    DATA     BIT       TMR4CN0_T4SPLIT
      000000C8H.6 SFRSYM    DATA     BIT       TMR2CN0_TF2L
      00000098H.1 SFRSYM    DATA     BIT       SCON0_TI
      000000E8H.0 SFRSYM    DATA     BIT       ADC0CN0_ADCM0
      00000092H   SFRSYM    DATA     BYTE      SBUF1
      0000009AH   SFRSYM    DATA     BYTE      PCON1
      000000C6H   SFRSYM    DATA     BYTE      ADC0LTH
      00000088H.0 SFRSYM    DATA     BIT       TCON_IT0
      000000C8H.1 SFRSYM    DATA     BIT       SCON1_TI
      000000E8H.1 SFRSYM    DATA     BIT       ADC0CN0_ADCM1
      000000EFH   SFRSYM    DATA     BYTE      RSTSRC
      000000FDH   SFRSYM    DATA     BYTE      P0MAT
      000000DEH   SFRSYM    DATA     BYTE      CRC0DAT
      00000088H.2 SFRSYM    DATA     BIT       TCON_IT1
      000000E8H.2 SFRSYM    DATA     BIT       ADC0CN0_ADCM2
      000000D7H   SFRSYM    DATA     BYTE      SFRSTACK
      00000098H   SFRSYM    DATA     BYTE      SCON0
      000000F6H   SFRSYM    DATA     BYTE      PRTDRV
      000000EDH   SFRSYM    DATA     BYTE      P1MAT
      000000E8H.3 SFRSYM    DATA     BIT       ADC0CN0_ADWINT
      00000095H   SFRSYM    DATA     WORD      SBRL1
      00000093H   SFRSYM    DATA     BYTE      SMOD1
      000000C8H   SFRSYM    DATA     BYTE      SCON1
      000000FBH   SFRSYM    DATA     BYTE      P2MAT
      00000098H.6 SFRSYM    DATA     BIT       TMR4CN0_TF4L
      000000E8H.4 SFRSYM    DATA     BIT       ADC0CN0_ADBUSY
LX51 LINKER/LOCATER V4.66.97.0                                                        08/08/2020  16:35:51  PAGE 86


      000000D6H   SFRSYM    DATA     BYTE      SMB0ADM
      000000C5H   SFRSYM    DATA     BYTE      ADC0LTL
      000000F8H.5 SFRSYM    DATA     BIT       SPI0CN0_MODF
      000000B8H.6 SFRSYM    DATA     BIT       IP_PSPI0
      0000009CH   SFRSYM    DATA     BYTE      PCA0CLR
      000000C8H   SFRSYM    DATA     BYTE      TMR2CN0
      00000091H   SFRSYM    DATA     BYTE      TMR3CN0
      000000FDH   SFRSYM    DATA     BYTE      TMR2CN1
      00000098H   SFRSYM    DATA     BYTE      TMR4CN0
      000000FEH   SFRSYM    DATA     BYTE      TMR3CN1
      000000FFH   SFRSYM    DATA     BYTE      TMR4CN1
      000000D7H   SFRSYM    DATA     BYTE      SMB0ADR
      00000088H.4 SFRSYM    DATA     BIT       TCON_TR0
      000000C8H.4 SFRSYM    DATA     BIT       TMR2CN0_TF2CEN
      00000088H.6 SFRSYM    DATA     BIT       TCON_TR1
      000000C2H   SFRSYM    DATA     BYTE      SMB0DAT
      000000CDH   SFRSYM    DATA     BYTE      TMR2H
      000000A1H   SFRSYM    DATA     BYTE      SPI0CFG
      00000095H   SFRSYM    DATA     BYTE      TMR3H
      000000EFH   SFRSYM    DATA     BYTE      HFOCN
      000000D3H   SFRSYM    DATA     BYTE      CRC0CNT
      000000A5H   SFRSYM    DATA     BYTE      TMR4H
      00000098H.4 SFRSYM    DATA     BIT       TMR4CN0_TF4CEN
      000000EFH   SFRSYM    DATA     BYTE      SMB0FCT
      00000096H   SFRSYM    DATA     BYTE      PCA0POL
      000000CCH   SFRSYM    DATA     BYTE      TMR2L
      000000F8H.7 SFRSYM    DATA     BIT       SPI0CN0_SPIF
      00000094H   SFRSYM    DATA     BYTE      TMR3L
      000000DFH   SFRSYM    DATA     BYTE      ADC0PWR
      000000A8H.7 SFRSYM    DATA     BIT       IE_EA
      000000A4H   SFRSYM    DATA     BYTE      TMR4L
      000000C8H.5 SFRSYM    DATA     BIT       TMR2CN0_TF2LEN
      000000F8H.6 SFRSYM    DATA     BIT       SPI0CN0_WCOL
      000000F8H.2 SFRSYM    DATA     BIT       SPI0CN0_NSSMD0
      000000D0H.7 SFRSYM    DATA     BIT       PSW_CY
      0000009DH   SFRSYM    DATA     BYTE      UART1FCN0
      000000A3H   SFRSYM    DATA     BYTE      SPI0DAT
      000000ADH   SFRSYM    DATA     BYTE      I2C0FCN0
      000000F8H.3 SFRSYM    DATA     BIT       SPI0CN0_NSSMD1
      000000BDH   SFRSYM    DATA     WORD      ADC0
      000000D8H   SFRSYM    DATA     BYTE      UART1FCN1
      000000ABH   SFRSYM    DATA     BYTE      I2C0FCN1
      00000098H.5 SFRSYM    DATA     BIT       TMR4CN0_TF4LEN
      000000D0H   SFRSYM    DATA     BYTE      PSW
      000000F7H   SFRSYM    DATA     BYTE      PCA0PWM
      000000F7H   SFRSYM    DATA     BYTE      SPI0FCT
      000000B6H   SFRSYM    DATA     BYTE      REVID
      000000B7H   SFRSYM    DATA     BYTE      FLKEY
      000000B3H   SFRSYM    DATA     BYTE      ADC0AC

      01000022H   BLOCK     CODE     ---       LVL=0
      01000022H   LINE      CODE     ---       #38
      01000022H   LINE      CODE     ---       #39
      01000022H   LINE      CODE     ---       #40
      ---         BLOCKEND  ---      ---       LVL=0

      01002067H   BLOCK     CODE     ---       LVL=0
      01002067H   BLOCK     CODE     NEAR LAB  LVL=1
      00000003H   SYMBOL    DATA     BYTE      i
      ---         BLOCKEND  ---      ---       LVL=1
      01002067H   LINE      CODE     ---       #42
      01002067H   LINE      CODE     ---       #43
LX51 LINKER/LOCATER V4.66.97.0                                                        08/08/2020  16:35:51  PAGE 87


      01002067H   LINE      CODE     ---       #48
      0100206AH   LINE      CODE     ---       #49
      01002076H   LINE      CODE     ---       #50
      01002076H   LINE      CODE     ---       #51
      01002083H   LINE      CODE     ---       #52
      0100208FH   LINE      CODE     ---       #53
      0100209BH   LINE      CODE     ---       #54
      0100209EH   LINE      CODE     ---       #55
      010020A3H   LINE      CODE     ---       #56
      010020A7H   LINE      CODE     ---       #57
      010020ABH   LINE      CODE     ---       #58
      010020AFH   LINE      CODE     ---       #59
      010020B3H   LINE      CODE     ---       #60
      010020B7H   LINE      CODE     ---       #61
      010020BBH   LINE      CODE     ---       #62
      010020C1H   LINE      CODE     ---       #63
      010020C5H   LINE      CODE     ---       #64
      010020C9H   LINE      CODE     ---       #65
      010020CBH   LINE      CODE     ---       #66
      010020CDH   LINE      CODE     ---       #67
      010020CFH   LINE      CODE     ---       #68
      010020D1H   LINE      CODE     ---       #69
      010020DFH   LINE      CODE     ---       #71
      010020E5H   LINE      CODE     ---       #74
      010020EEH   LINE      CODE     ---       #77
      010020FAH   LINE      CODE     ---       #78
      010020FAH   LINE      CODE     ---       #79
      0100210FH   LINE      CODE     ---       #80
      01002124H   LINE      CODE     ---       #81
      01002127H   LINE      CODE     ---       #82
      01002131H   LINE      CODE     ---       #83
      0100213BH   LINE      CODE     ---       #86
      ---         BLOCKEND  ---      ---       LVL=0

      0100259BH   BLOCK     CODE     ---       LVL=0
      0100259BH   LINE      CODE     ---       #89
      0100259BH   LINE      CODE     ---       #90
      0100259BH   LINE      CODE     ---       #91
      0100259EH   LINE      CODE     ---       #92
      010025A1H   LINE      CODE     ---       #93
      010025A6H   LINE      CODE     ---       #94
      010025A9H   LINE      CODE     ---       #95
      010025ACH   LINE      CODE     ---       #96
      010025AFH   LINE      CODE     ---       #97
      010025B2H   LINE      CODE     ---       #98
      010025B5H   LINE      CODE     ---       #99
      010025B8H   LINE      CODE     ---       #100
      010025BBH   LINE      CODE     ---       #101
      010025BEH   LINE      CODE     ---       #102
      010025C5H   LINE      CODE     ---       #104
      010025C5H   LINE      CODE     ---       #105
      010025C8H   LINE      CODE     ---       #106
      010025C8H   LINE      CODE     ---       #122
      010025D2H   LINE      CODE     ---       #123
      010025D2H   LINE      CODE     ---       #124
      010025D8H   LINE      CODE     ---       #125
      010025D8H   LINE      CODE     ---       #126
      010025DAH   LINE      CODE     ---       #127
      010025DDH   LINE      CODE     ---       #128
      010025EBH   LINE      CODE     ---       #129
      010025EEH   LINE      CODE     ---       #130
      010025EEH   LINE      CODE     ---       #132
LX51 LINKER/LOCATER V4.66.97.0                                                        08/08/2020  16:35:51  PAGE 88


      010025F0H   LINE      CODE     ---       #134
      010025F5H   LINE      CODE     ---       #137
      010025FDH   LINE      CODE     ---       #138
      010025FDH   LINE      CODE     ---       #139
      01002602H   LINE      CODE     ---       #140
      0100260BH   LINE      CODE     ---       #141
      01002610H   LINE      CODE     ---       #142
      01002614H   LINE      CODE     ---       #148
      01002616H   LINE      CODE     ---       #150
      01002616H   LINE      CODE     ---       #151
      0100261CH   LINE      CODE     ---       #152
      01002621H   LINE      CODE     ---       #153
      01002621H   LINE      CODE     ---       #154
      01002624H   LINE      CODE     ---       #155
      01002624H   LINE      CODE     ---       #156
      01002624H   LINE      CODE     ---       #157
      0100262AH   LINE      CODE     ---       #158
      0100262AH   LINE      CODE     ---       #159
      0100262CH   LINE      CODE     ---       #160
      0100262FH   LINE      CODE     ---       #161
      0100262FH   LINE      CODE     ---       #162
      0100262FH   LINE      CODE     ---       #166
      0100262FH   LINE      CODE     ---       #201
      0100262FH   LINE      CODE     ---       #203
      01002632H   LINE      CODE     ---       #204
      ---         BLOCKEND  ---      ---       LVL=0

      ---         MODULE    ---      ---       ?C_STARTUP
      01000000H   PUBLIC    CODE     NEAR LAB  ?C_STARTUP
      000000E0H   SFRSYM    DATA     BYTE      ACC
      000000F0H   SFRSYM    DATA     BYTE      B
      00000083H   SFRSYM    DATA     BYTE      DPH
      00000082H   SFRSYM    DATA     BYTE      DPL
      000000A0H   SFRSYM    DATA     BYTE      PPAGE_SFR
      00000081H   SFRSYM    DATA     BYTE      SP
      00000000H   SYMBOL    NUMBER   ---       IBPSTACK
      00000100H   SYMBOL    NUMBER   ---       IBPSTACKTOP
      00000080H   SYMBOL    NUMBER   ---       IDATALEN
      010027F2H   SYMBOL    CODE     NEAR LAB  IDATALOOP
      00000000H   SYMBOL    NUMBER   ---       PBPSTACK
      00000100H   SYMBOL    NUMBER   ---       PBPSTACKTOP
      00000000H   SYMBOL    NUMBER   ---       PDATALEN
      00000000H   SYMBOL    NUMBER   ---       PDATASTART
      00000000H   SYMBOL    NUMBER   ---       PPAGE
      00000000H   SYMBOL    NUMBER   ---       PPAGEENABLE
      010027ECH   SYMBOL    CODE     NEAR LAB  STARTUP1
      00000000H   SYMBOL    NUMBER   ---       XBPSTACK
      00010000H   SYMBOL    NUMBER   ---       XBPSTACKTOP
      00000000H   SYMBOL    NUMBER   ---       XDATALEN
      00000000H   SYMBOL    NUMBER   ---       XDATASTART

      01000000H   BLOCK     CODE     NEAR LAB  LVL=0
      01000000H   LINE      CODE     ---       #126
      ---         BLOCKEND  ---      ---       LVL=0

      010027ECH   BLOCK     CODE     NEAR LAB  LVL=0
      010027ECH   LINE      CODE     ---       #134
      010027EFH   LINE      CODE     ---       #138
      010027F1H   LINE      CODE     ---       #139
      010027F2H   LINE      CODE     ---       #140
      010027F3H   LINE      CODE     ---       #141
      010027F5H   LINE      CODE     ---       #190
LX51 LINKER/LOCATER V4.66.97.0                                                        08/08/2020  16:35:51  PAGE 89


      010027F8H   LINE      CODE     ---       #201
      ---         BLOCKEND  ---      ---       LVL=0

      ---         MODULE    ---      ---       SERIAL
      02000244H   PUBLIC    XDATA    ---       Serial
      0200023DH   PUBLIC    XDATA    ---       Serial_ISP
      01002B30H   PUBLIC    CODE     ---       RxDataParity
      0100243EH   PUBLIC    CODE     ---       _Srl_GetData
      0100213CH   PUBLIC    CODE     ---       _Srl_GetHeader
      01001F91H   PUBLIC    CODE     ---       PCA0_ISR
      00000069H   PUBLIC    DATA     BYTE      ?_Srl_SendData?BYTE
      01001CD6H   PUBLIC    CODE     ---       _Srl_SendData
      01003255H   PUBLIC    CODE     ---       DisableInternalCommunicaiton
      010030D3H   PUBLIC    CODE     ---       EnableInternalCommunicaiton
      01002FA4H   PUBLIC    CODE     ---       _CommunicaitonMode
      000000A2H   SFRSYM    DATA     BYTE      SPI0CKR
      00000080H   SFRSYM    DATA     BYTE      P0
      000000C8H.6 SFRSYM    DATA     BIT       SCON1_PERR
      000000D0H.2 SFRSYM    DATA     BIT       PSW_OV
      00000090H   SFRSYM    DATA     BYTE      P1
      000000F8H.1 SFRSYM    DATA     BIT       SPI0CN0_TXNF
      00000097H   SFRSYM    DATA     BYTE      WDTCN
      000000A0H   SFRSYM    DATA     BYTE      P2
      000000B0H   SFRSYM    DATA     BYTE      P3
      000000BCH   SFRSYM    DATA     BYTE      ADC0CF
      000000C0H.7 SFRSYM    DATA     BIT       SMB0CN0_MASTER
      000000F9H   SFRSYM    DATA     WORD      PCA0
      000000E6H   SFRSYM    DATA     BYTE      EIE1
      000000C0H.1 SFRSYM    DATA     BIT       SMB0CN0_ACK
      000000CEH   SFRSYM    DATA     BYTE      EIE2
      0000008FH   SFRSYM    DATA     BYTE      PSCTL
      000000E4H   SFRSYM    DATA     BYTE      IT01CF
      000000C0H.6 SFRSYM    DATA     BIT       SMB0CN0_TXMODE
      000000ADH   SFRSYM    DATA     BYTE      DERIVID
      000000A7H   SFRSYM    DATA     BYTE      SFRPAGE
      000000A4H   SFRSYM    DATA     BYTE      P0MDOUT
      000000A5H   SFRSYM    DATA     BYTE      P1MDOUT
      000000E8H.5 SFRSYM    DATA     BIT       ADC0CN0_ADINT
      000000CBH   SFRSYM    DATA     BYTE      TMR2RLH
      000000A6H   SFRSYM    DATA     BYTE      P2MDOUT
      000000A8H   SFRSYM    DATA     BYTE      IE
      00000093H   SFRSYM    DATA     BYTE      TMR3RLH
      0000009CH   SFRSYM    DATA     BYTE      P3MDOUT
      000000A3H   SFRSYM    DATA     BYTE      TMR4RLH
      000000F3H   SFRSYM    DATA     BYTE      EIP1
      000000F4H   SFRSYM    DATA     BYTE      EIP2
      00000098H.2 SFRSYM    DATA     BIT       SCON0_RB8
      000000CAH   SFRSYM    DATA     BYTE      TMR2RLL
      000000FCH   SFRSYM    DATA     BYTE      PCA0CPH0
      00000092H   SFRSYM    DATA     BYTE      TMR3RLL
      000000EAH   SFRSYM    DATA     BYTE      PCA0CPH1
      00000098H.3 SFRSYM    DATA     BIT       SCON0_TB8
      000000F0H.0 SFRSYM    DATA     BIT       B_B0
      00000082H   SFRSYM    DATA     WORD      DP
      000000A2H   SFRSYM    DATA     BYTE      TMR4RLL
      000000ECH   SFRSYM    DATA     BYTE      PCA0CPH2
      000000F0H.1 SFRSYM    DATA     BIT       B_B1
      000000C3H   SFRSYM    DATA     WORD      ADC0GT
      000000BDH   SFRSYM    DATA     BYTE      I2C0SLAD
      000000D8H.3 SFRSYM    DATA     BIT       UART1FCN1_RFRQ
      000000F0H.2 SFRSYM    DATA     BIT       B_B2
      000000CFH   SFRSYM    DATA     BYTE      SFRPGCN
LX51 LINKER/LOCATER V4.66.97.0                                                        08/08/2020  16:35:51  PAGE 90


      000000FBH   SFRSYM    DATA     BYTE      PCA0CPL0
      000000F0H.3 SFRSYM    DATA     BIT       B_B3
      000000D9H   SFRSYM    DATA     BYTE      PCA0MD
      000000DAH   SFRSYM    DATA     BYTE      PCA0CPM0
      000000E9H   SFRSYM    DATA     BYTE      PCA0CPL1
      000000D8H.7 SFRSYM    DATA     BIT       UART1FCN1_TFRQ
      000000F0H.4 SFRSYM    DATA     BIT       B_B4
      000000DBH   SFRSYM    DATA     BYTE      PCA0CPM1
      000000EBH   SFRSYM    DATA     BYTE      PCA0CPL2
      000000F0H.5 SFRSYM    DATA     BIT       B_B5
      000000DCH   SFRSYM    DATA     BYTE      PCA0CPM2
      000000B8H   SFRSYM    DATA     BYTE      IP
      000000B9H   SFRSYM    DATA     BYTE      ADC0TK
      000000F0H.6 SFRSYM    DATA     BIT       B_B6
      000000C5H   SFRSYM    DATA     WORD      ADC0LT
      000000D8H.6 SFRSYM    DATA     BIT       UART1FCN1_TXNF
      00000098H.5 SFRSYM    DATA     BIT       SCON0_MCE
      000000F0H.7 SFRSYM    DATA     BIT       B_B7
      000000C3H   SFRSYM    DATA     BYTE      SMB0FCN0
      000000E1H   SFRSYM    DATA     BYTE      XBR0
      000000C4H   SFRSYM    DATA     BYTE      SMB0FCN1
      000000C1H   SFRSYM    DATA     BYTE      SMB0CF
      000000E2H   SFRSYM    DATA     BYTE      XBR1
      000000C1H   SFRSYM    DATA     BYTE      PFE0CN
      000000E7H   SFRSYM    DATA     BYTE      EMI0CN
      000000C0H.5 SFRSYM    DATA     BIT       SMB0CN0_STA
      000000E3H   SFRSYM    DATA     BYTE      XBR2
      000000BBH   SFRSYM    DATA     BYTE      ADC0MX
      000000E0H.0 SFRSYM    DATA     BIT       ACC_ACC0
      000000D1H   SFRSYM    DATA     BYTE      REF0CN
      0000008EH   SFRSYM    DATA     BYTE      CKCON0
      000000E0H.1 SFRSYM    DATA     BIT       ACC_ACC1
      000000C9H   SFRSYM    DATA     BYTE      REG0CN
      000000DDH   SFRSYM    DATA     BYTE      CRC0IN
      000000A6H   SFRSYM    DATA     BYTE      CKCON1
      000000C8H.2 SFRSYM    DATA     BIT       TMR2CN0_TR2
      000000E0H.2 SFRSYM    DATA     BIT       ACC_ACC2
      000000C6H   SFRSYM    DATA     BYTE      REG1CN
      000000E0H.3 SFRSYM    DATA     BIT       ACC_ACC3
      00000081H   SFRSYM    DATA     BYTE      SP
      0000009DH   SFRSYM    DATA     BYTE      CMP0MD
      000000E0H.4 SFRSYM    DATA     BIT       ACC_ACC4
      000000B1H   SFRSYM    DATA     BYTE      LFO0CN
      000000ABH   SFRSYM    DATA     BYTE      CMP1MD
      000000D8H.0 SFRSYM    DATA     BIT       PCA0CN0_CCF0
      000000E0H.5 SFRSYM    DATA     BIT       ACC_ACC5
      00000098H.2 SFRSYM    DATA     BIT       TMR4CN0_TR4
      000000D8H.1 SFRSYM    DATA     BIT       PCA0CN0_CCF1
      000000E0H.6 SFRSYM    DATA     BIT       ACC_ACC6
      000000CCH   SFRSYM    DATA     WORD      TMR2
      0000009AH   SFRSYM    DATA     BYTE      SPI0FCN0
      000000D8H.2 SFRSYM    DATA     BIT       PCA0CN0_CCF2
      000000E0H.7 SFRSYM    DATA     BIT       ACC_ACC7
      00000094H   SFRSYM    DATA     WORD      TMR3
      0000009BH   SFRSYM    DATA     BYTE      SPI0FCN1
      000000A4H   SFRSYM    DATA     WORD      TMR4
      00000094H   SFRSYM    DATA     BYTE      SBCON1
      000000C0H.3 SFRSYM    DATA     BIT       SMB0CN0_ACKRQ
      000000FFH   SFRSYM    DATA     BYTE      VDM0CN
      000000F1H   SFRSYM    DATA     BYTE      P0MDIN
      00000098H.4 SFRSYM    DATA     BIT       SCON0_REN
      000000ACH   SFRSYM    DATA     BYTE      SMB0TC
LX51 LINKER/LOCATER V4.66.97.0                                                        08/08/2020  16:35:51  PAGE 91


      000000F2H   SFRSYM    DATA     BYTE      P1MDIN
      000000C8H.4 SFRSYM    DATA     BIT       SCON1_REN
      000000F3H   SFRSYM    DATA     BYTE      P2MDIN
      000000C0H.4 SFRSYM    DATA     BIT       SMB0CN0_STO
      000000F4H   SFRSYM    DATA     BYTE      P3MDIN
      000000B9H   SFRSYM    DATA     BYTE      I2C0STAT
      000000BBH   SFRSYM    DATA     BYTE      I2C0DOUT
      00000096H   SFRSYM    DATA     BYTE      SBRLH1
      000000FEH   SFRSYM    DATA     BYTE      P0MASK
      000000D8H.5 SFRSYM    DATA     BIT       UART1FCN1_TXHOLD
      000000EEH   SFRSYM    DATA     BYTE      P1MASK
      000000FCH   SFRSYM    DATA     BYTE      P2MASK
      000000D0H.3 SFRSYM    DATA     BIT       PSW_RS0
      000000D8H.7 SFRSYM    DATA     BIT       PCA0CN0_CF
      0000009EH   SFRSYM    DATA     BYTE      PCA0CENT
      000000BAH   SFRSYM    DATA     BYTE      I2C0CN0
      000000D2H   SFRSYM    DATA     BYTE      CRC0ST
      000000F8H.4 SFRSYM    DATA     BIT       SPI0CN0_RXOVRN
      000000D0H.4 SFRSYM    DATA     BIT       PSW_RS1
      00000095H   SFRSYM    DATA     BYTE      SBRLL1
      000000C8H.2 SFRSYM    DATA     BIT       SCON1_RBX
      000000C8H.0 SFRSYM    DATA     BIT       TMR2CN0_T2XCLK0
      000000C8H.1 SFRSYM    DATA     BIT       TMR2CN0_T2XCLK1
      000000C8H.3 SFRSYM    DATA     BIT       SCON1_TBX
      000000E8H.7 SFRSYM    DATA     BIT       ADC0CN0_ADEN
      00000089H   SFRSYM    DATA     BYTE      TMOD
      00000088H   SFRSYM    DATA     BYTE      TCON
      000000CFH   SFRSYM    DATA     BYTE      CRC0FLIP
      000000D0H.0 SFRSYM    DATA     BIT       PSW_PARITY
      000000A8H.4 SFRSYM    DATA     BIT       IE_ES0
      0000009FH   SFRSYM    DATA     BYTE      CMP0MX
      00000098H.0 SFRSYM    DATA     BIT       TMR4CN0_T4XCLK0
      000000A8H.1 SFRSYM    DATA     BIT       IE_ET0
      000000AAH   SFRSYM    DATA     BYTE      CMP1MX
      00000098H.1 SFRSYM    DATA     BIT       TMR4CN0_T4XCLK1
      000000A8H.3 SFRSYM    DATA     BIT       IE_ET1
      000000D4H   SFRSYM    DATA     BYTE      P0SKIP
      000000D8H.0 SFRSYM    DATA     BIT       UART1FCN1_RIE
      000000A8H.5 SFRSYM    DATA     BIT       IE_ET2
      000000D5H   SFRSYM    DATA     BYTE      P1SKIP
      000000CCH   SFRSYM    DATA     BYTE      P2SKIP
      000000E8H   SFRSYM    DATA     BYTE      ADC0CN0
      000000D8H.4 SFRSYM    DATA     BIT       UART1FCN1_TIE
      000000A8H.0 SFRSYM    DATA     BIT       IE_EX0
      000000B2H   SFRSYM    DATA     BYTE      ADC0CN1
      000000D8H.6 SFRSYM    DATA     BIT       PCA0CN0_CR
      000000A8H.2 SFRSYM    DATA     BIT       IE_EX1
      000000C8H.7 SFRSYM    DATA     BIT       SCON1_OVR
      00000098H.7 SFRSYM    DATA     BIT       SCON0_SMODE
      000000B5H   SFRSYM    DATA     BYTE      DEVICEID
      000000A9H   SFRSYM    DATA     BYTE      CLKSEL
      000000F8H.0 SFRSYM    DATA     BIT       SPI0CN0_SPIEN
      000000F0H   SFRSYM    DATA     BYTE      B
      000000BEH   SFRSYM    DATA     BYTE      ADC0H
      000000E8H.6 SFRSYM    DATA     BIT       ADC0CN0_ADBMEN
      000000CAH   SFRSYM    DATA     WORD      TMR2RL
      000000BDH   SFRSYM    DATA     BYTE      ADC0L
      00000092H   SFRSYM    DATA     WORD      TMR3RL
      000000A2H   SFRSYM    DATA     WORD      TMR4RL
      000000D8H   SFRSYM    DATA     BYTE      PCA0CN0
      000000E0H   SFRSYM    DATA     BYTE      ACC
      000000FBH   SFRSYM    DATA     WORD      PCA0CP0
LX51 LINKER/LOCATER V4.66.97.0                                                        08/08/2020  16:35:51  PAGE 92


      000000E9H   SFRSYM    DATA     WORD      PCA0CP1
      000000EBH   SFRSYM    DATA     WORD      PCA0CP2
      000000BCH   SFRSYM    DATA     BYTE      I2C0DIN
      000000CEH   SFRSYM    DATA     BYTE      CRC0CN0
      0000008CH   SFRSYM    DATA     BYTE      TH0
      00000086H   SFRSYM    DATA     BYTE      CRC0CN1
      000000B8H.4 SFRSYM    DATA     BIT       IP_PS0
      000000FAH   SFRSYM    DATA     BYTE      UART1FCT
      0000008DH   SFRSYM    DATA     BYTE      TH1
      000000FAH   SFRSYM    DATA     BYTE      PCA0H
      000000F5H   SFRSYM    DATA     BYTE      I2C0FCT
      000000B8H.1 SFRSYM    DATA     BIT       IP_PT0
      000000B8H.3 SFRSYM    DATA     BIT       IP_PT1
      000000C0H.2 SFRSYM    DATA     BIT       SMB0CN0_ARBLOST
      000000B8H.5 SFRSYM    DATA     BIT       IP_PT2
      0000008AH   SFRSYM    DATA     BYTE      TL0
      000000D0H.5 SFRSYM    DATA     BIT       PSW_F0
      000000A8H.6 SFRSYM    DATA     BIT       IE_ESPI0
      0000008BH   SFRSYM    DATA     BYTE      TL1
      000000F9H   SFRSYM    DATA     BYTE      PCA0L
      000000C0H.0 SFRSYM    DATA     BIT       SMB0CN0_SI
      000000D0H.1 SFRSYM    DATA     BIT       PSW_F1
      00000080H.0 SFRSYM    DATA     BIT       P0_B0
      000000B8H.0 SFRSYM    DATA     BIT       IP_PX0
      00000090H.0 SFRSYM    DATA     BIT       P1_B0
      00000080H.1 SFRSYM    DATA     BIT       P0_B1
      000000B8H.2 SFRSYM    DATA     BIT       IP_PX1
      0000009EH   SFRSYM    DATA     BYTE      UART1LIN
      0000009BH   SFRSYM    DATA     BYTE      CMP0CN0
      00000088H.1 SFRSYM    DATA     BIT       TCON_IE0
      000000A0H.0 SFRSYM    DATA     BIT       P2_B0
      00000090H.1 SFRSYM    DATA     BIT       P1_B1
      00000080H.2 SFRSYM    DATA     BIT       P0_B2
      000000BFH   SFRSYM    DATA     BYTE      CMP1CN0
      00000099H   SFRSYM    DATA     BYTE      CMP0CN1
      00000088H.3 SFRSYM    DATA     BIT       TCON_IE1
      000000B0H.0 SFRSYM    DATA     BIT       P3_B0
      000000A0H.1 SFRSYM    DATA     BIT       P2_B1
      00000090H.2 SFRSYM    DATA     BIT       P1_B2
      00000080H.3 SFRSYM    DATA     BIT       P0_B3
      000000C0H   SFRSYM    DATA     BYTE      SMB0CN0
      000000ACH   SFRSYM    DATA     BYTE      CMP1CN1
      000000B0H.1 SFRSYM    DATA     BIT       P3_B1
      000000A0H.2 SFRSYM    DATA     BIT       P2_B2
      00000090H.3 SFRSYM    DATA     BIT       P1_B3
      00000080H.4 SFRSYM    DATA     BIT       P0_B4
      000000A0H.3 SFRSYM    DATA     BIT       P2_B3
      00000090H.4 SFRSYM    DATA     BIT       P1_B4
      00000080H.5 SFRSYM    DATA     BIT       P0_B5
      000000D8H.1 SFRSYM    DATA     BIT       UART1FCN1_RXTO0
      00000090H.5 SFRSYM    DATA     BIT       P1_B5
      00000080H.6 SFRSYM    DATA     BIT       P0_B6
      000000F5H   SFRSYM    DATA     BYTE      EIP1H
      000000D8H.2 SFRSYM    DATA     BIT       UART1FCN1_RXTO1
      00000090H.6 SFRSYM    DATA     BIT       P1_B6
      00000080H.7 SFRSYM    DATA     BIT       P0_B7
      000000C5H   SFRSYM    DATA     BYTE      SMB0RXLN
      000000F6H   SFRSYM    DATA     BYTE      EIP2H
      00000090H.7 SFRSYM    DATA     BIT       P1_B7
      00000083H   SFRSYM    DATA     BYTE      DPH
      000000C4H   SFRSYM    DATA     BYTE      ADC0GTH
      000000C8H.7 SFRSYM    DATA     BIT       TMR2CN0_TF2H
LX51 LINKER/LOCATER V4.66.97.0                                                        08/08/2020  16:35:51  PAGE 93


      000000C8H.3 SFRSYM    DATA     BIT       TMR2CN0_T2SPLIT
      000000D0H.6 SFRSYM    DATA     BIT       PSW_AC
      000000F8H   SFRSYM    DATA     BYTE      SPI0CN0
      000000C7H   SFRSYM    DATA     BYTE      HFO0CAL
      00000088H.5 SFRSYM    DATA     BIT       TCON_TF0
      00000098H.0 SFRSYM    DATA     BIT       SCON0_RI
      000000D6H   SFRSYM    DATA     BYTE      HFO1CAL
      00000082H   SFRSYM    DATA     BYTE      DPL
      00000088H.7 SFRSYM    DATA     BIT       TCON_TF1
      000000C8H.0 SFRSYM    DATA     BIT       SCON1_RI
      00000099H   SFRSYM    DATA     BYTE      SBUF0
      00000087H   SFRSYM    DATA     BYTE      PCON0
      000000F2H   SFRSYM    DATA     BYTE      IPH
      000000C3H   SFRSYM    DATA     BYTE      ADC0GTL
      00000098H.7 SFRSYM    DATA     BIT       TMR4CN0_TF4H
      00000098H.3 SFRSYM    DATA     BIT       TMR4CN0_T4SPLIT
      000000C8H.6 SFRSYM    DATA     BIT       TMR2CN0_TF2L
      00000098H.1 SFRSYM    DATA     BIT       SCON0_TI
      000000E8H.0 SFRSYM    DATA     BIT       ADC0CN0_ADCM0
      00000092H   SFRSYM    DATA     BYTE      SBUF1
      0000009AH   SFRSYM    DATA     BYTE      PCON1
      000000C6H   SFRSYM    DATA     BYTE      ADC0LTH
      00000088H.0 SFRSYM    DATA     BIT       TCON_IT0
      000000C8H.1 SFRSYM    DATA     BIT       SCON1_TI
      000000E8H.1 SFRSYM    DATA     BIT       ADC0CN0_ADCM1
      000000EFH   SFRSYM    DATA     BYTE      RSTSRC
      000000FDH   SFRSYM    DATA     BYTE      P0MAT
      000000DEH   SFRSYM    DATA     BYTE      CRC0DAT
      00000088H.2 SFRSYM    DATA     BIT       TCON_IT1
      000000E8H.2 SFRSYM    DATA     BIT       ADC0CN0_ADCM2
      000000D7H   SFRSYM    DATA     BYTE      SFRSTACK
      00000098H   SFRSYM    DATA     BYTE      SCON0
      000000F6H   SFRSYM    DATA     BYTE      PRTDRV
      000000EDH   SFRSYM    DATA     BYTE      P1MAT
      000000E8H.3 SFRSYM    DATA     BIT       ADC0CN0_ADWINT
      00000095H   SFRSYM    DATA     WORD      SBRL1
      00000093H   SFRSYM    DATA     BYTE      SMOD1
      000000C8H   SFRSYM    DATA     BYTE      SCON1
      000000FBH   SFRSYM    DATA     BYTE      P2MAT
      00000098H.6 SFRSYM    DATA     BIT       TMR4CN0_TF4L
      000000E8H.4 SFRSYM    DATA     BIT       ADC0CN0_ADBUSY
      000000D6H   SFRSYM    DATA     BYTE      SMB0ADM
      000000C5H   SFRSYM    DATA     BYTE      ADC0LTL
      000000F8H.5 SFRSYM    DATA     BIT       SPI0CN0_MODF
      000000B8H.6 SFRSYM    DATA     BIT       IP_PSPI0
      0000009CH   SFRSYM    DATA     BYTE      PCA0CLR
      000000C8H   SFRSYM    DATA     BYTE      TMR2CN0
      00000091H   SFRSYM    DATA     BYTE      TMR3CN0
      000000FDH   SFRSYM    DATA     BYTE      TMR2CN1
      00000098H   SFRSYM    DATA     BYTE      TMR4CN0
      000000FEH   SFRSYM    DATA     BYTE      TMR3CN1
      000000FFH   SFRSYM    DATA     BYTE      TMR4CN1
      000000D7H   SFRSYM    DATA     BYTE      SMB0ADR
      00000088H.4 SFRSYM    DATA     BIT       TCON_TR0
      000000C8H.4 SFRSYM    DATA     BIT       TMR2CN0_TF2CEN
      00000088H.6 SFRSYM    DATA     BIT       TCON_TR1
      000000C2H   SFRSYM    DATA     BYTE      SMB0DAT
      000000CDH   SFRSYM    DATA     BYTE      TMR2H
      000000A1H   SFRSYM    DATA     BYTE      SPI0CFG
      00000095H   SFRSYM    DATA     BYTE      TMR3H
      000000EFH   SFRSYM    DATA     BYTE      HFOCN
      000000D3H   SFRSYM    DATA     BYTE      CRC0CNT
LX51 LINKER/LOCATER V4.66.97.0                                                        08/08/2020  16:35:51  PAGE 94


      000000A5H   SFRSYM    DATA     BYTE      TMR4H
      00000098H.4 SFRSYM    DATA     BIT       TMR4CN0_TF4CEN
      000000EFH   SFRSYM    DATA     BYTE      SMB0FCT
      00000096H   SFRSYM    DATA     BYTE      PCA0POL
      000000CCH   SFRSYM    DATA     BYTE      TMR2L
      000000F8H.7 SFRSYM    DATA     BIT       SPI0CN0_SPIF
      00000094H   SFRSYM    DATA     BYTE      TMR3L
      000000DFH   SFRSYM    DATA     BYTE      ADC0PWR
      000000A8H.7 SFRSYM    DATA     BIT       IE_EA
      000000A4H   SFRSYM    DATA     BYTE      TMR4L
      000000C8H.5 SFRSYM    DATA     BIT       TMR2CN0_TF2LEN
      000000F8H.6 SFRSYM    DATA     BIT       SPI0CN0_WCOL
      000000F8H.2 SFRSYM    DATA     BIT       SPI0CN0_NSSMD0
      000000D0H.7 SFRSYM    DATA     BIT       PSW_CY
      0000009DH   SFRSYM    DATA     BYTE      UART1FCN0
      000000A3H   SFRSYM    DATA     BYTE      SPI0DAT
      000000ADH   SFRSYM    DATA     BYTE      I2C0FCN0
      000000F8H.3 SFRSYM    DATA     BIT       SPI0CN0_NSSMD1
      000000BDH   SFRSYM    DATA     WORD      ADC0
      000000D8H   SFRSYM    DATA     BYTE      UART1FCN1
      000000ABH   SFRSYM    DATA     BYTE      I2C0FCN1
      00000098H.5 SFRSYM    DATA     BIT       TMR4CN0_TF4LEN
      000000D0H   SFRSYM    DATA     BYTE      PSW
      000000F7H   SFRSYM    DATA     BYTE      PCA0PWM
      000000F7H   SFRSYM    DATA     BYTE      SPI0FCT
      000000B6H   SFRSYM    DATA     BYTE      REVID
      000000B7H   SFRSYM    DATA     BYTE      FLKEY
      000000B3H   SFRSYM    DATA     BYTE      ADC0AC
      02000240H   SYMBOL    XDATA    WORD      CapTime0
      02000242H   SYMBOL    XDATA    WORD      CapTime1

      01002384H   BLOCK     CODE     ---       LVL=0
      ---         BLOCKEND  ---      ---       LVL=0

      01002FA4H   BLOCK     CODE     ---       LVL=0
      00000069H   SYMBOL    DATA     BYTE      commode
      01002FA4H   LINE      CODE     ---       #23
      01002FA6H   LINE      CODE     ---       #24
      01002FA6H   LINE      CODE     ---       #25
      01002FABH   LINE      CODE     ---       #26
      01002FABH   LINE      CODE     ---       #27
      01002FAEH   LINE      CODE     ---       #28
      01002FB1H   LINE      CODE     ---       #29
      01002FB1H   LINE      CODE     ---       #30
      01002FB7H   LINE      CODE     ---       #31
      01002FB7H   LINE      CODE     ---       #32
      01002FBBH   LINE      CODE     ---       #33
      01002FBEH   LINE      CODE     ---       #34
      01002FC1H   LINE      CODE     ---       #35
      01002FC2H   LINE      CODE     ---       #37
      01002FC2H   LINE      CODE     ---       #38
      01002FC5H   LINE      CODE     ---       #39
      01002FC8H   LINE      CODE     ---       #40
      01002FCBH   LINE      CODE     ---       #41
      01002FCBH   LINE      CODE     ---       #42
      ---         BLOCKEND  ---      ---       LVL=0

      010030D3H   BLOCK     CODE     ---       LVL=0
      010030D3H   LINE      CODE     ---       #47
      010030D3H   LINE      CODE     ---       #48
      010030D3H   LINE      CODE     ---       #49
      010030D6H   LINE      CODE     ---       #50
LX51 LINKER/LOCATER V4.66.97.0                                                        08/08/2020  16:35:51  PAGE 95


      010030D9H   LINE      CODE     ---       #51
      010030DCH   LINE      CODE     ---       #52
      010030DFH   LINE      CODE     ---       #53
      010030E2H   LINE      CODE     ---       #59
      010030E5H   LINE      CODE     ---       #60
      010030E8H   LINE      CODE     ---       #61
      010030EBH   LINE      CODE     ---       #62
      010030EEH   LINE      CODE     ---       #63
      010030F1H   LINE      CODE     ---       #65
      ---         BLOCKEND  ---      ---       LVL=0

      01003255H   BLOCK     CODE     ---       LVL=0
      01003255H   LINE      CODE     ---       #67
      01003255H   LINE      CODE     ---       #68
      01003255H   LINE      CODE     ---       #69
      0100325AH   LINE      CODE     ---       #70
      ---         BLOCKEND  ---      ---       LVL=0
      00000007H   SYMBOL    DATA     BYTE      Data

      01001CD6H   BLOCK     CODE     ---       LVL=0
      00000069H   SYMBOL    DATA     WORD      Head
      00000005H   SYMBOL    DATA     BYTE      byId
      00000003H   SYMBOL    DATA     BYTE      byIdLen
      0000006DH   SYMBOL    DATA     WORD      byData
      0000006FH   SYMBOL    DATA     BYTE      byDataLen
      01001CDAH   BLOCK     CODE     NEAR LAB  LVL=1
      00000005H   SYMBOL    DATA     BYTE      i
      00000070H   SYMBOL    DATA     WORD      Data
      00000001H   SYMBOL    DATA     BYTE      CheckSum
      ---         BLOCKEND  ---      ---       LVL=1
      01001CD6H   LINE      CODE     ---       #156
      01001CDAH   LINE      CODE     ---       #157
      01001CDAH   LINE      CODE     ---       #160
      01001CDCH   LINE      CODE     ---       #162
      01001CF4H   LINE      CODE     ---       #164
      01001CFEH   LINE      CODE     ---       #165
      01001CFEH   LINE      CODE     ---       #166
      01001D04H   LINE      CODE     ---       #167
      01001D06H   LINE      CODE     ---       #169
      01001D06H   LINE      CODE     ---       #170
      01001D0BH   LINE      CODE     ---       #171
      01001D0BH   LINE      CODE     ---       #172
      01001D1BH   LINE      CODE     ---       #173
      01001D30H   LINE      CODE     ---       #174
      01001D30H   LINE      CODE     ---       #175
      01001D4BH   LINE      CODE     ---       #176
      01001D4BH   LINE      CODE     ---       #177
      01001D54H   LINE      CODE     ---       #178
      01001D5AH   LINE      CODE     ---       #179
      01001D5BH   LINE      CODE     ---       #180
      01001D5DH   LINE      CODE     ---       #182
      01001D5DH   LINE      CODE     ---       #183
      01001D66H   LINE      CODE     ---       #184
      01001D70H   LINE      CODE     ---       #185
      01001D70H   LINE      CODE     ---       #186
      01001D73H   LINE      CODE     ---       #187
      01001D76H   LINE      CODE     ---       #188
      01001D79H   LINE      CODE     ---       #189
      01001D79H   LINE      CODE     ---       #190
      01001D83H   LINE      CODE     ---       #191
      01001D8AH   LINE      CODE     ---       #192
      01001D8CH   LINE      CODE     ---       #194
LX51 LINKER/LOCATER V4.66.97.0                                                        08/08/2020  16:35:51  PAGE 96


      01001D8CH   LINE      CODE     ---       #195
      01001D96H   LINE      CODE     ---       #196
      01001DA1H   LINE      CODE     ---       #197
      01001DA1H   LINE      CODE     ---       #198
      01001DB9H   LINE      CODE     ---       #199
      01001DCAH   LINE      CODE     ---       #201
      01001DCFH   LINE      CODE     ---       #202
      01001DD8H   LINE      CODE     ---       #204
      ---         BLOCKEND  ---      ---       LVL=0

      01001F91H   BLOCK     CODE     ---       LVL=0
      01001F91H   LINE      CODE     ---       #213
      01001FAEH   LINE      CODE     ---       #215
      01001FB1H   LINE      CODE     ---       #216
      01001FB1H   LINE      CODE     ---       #217
      01001FB9H   LINE      CODE     ---       #218
      01001FB9H   LINE      CODE     ---       #219
      01001FC1H   LINE      CODE     ---       #220
      01001FC9H   LINE      CODE     ---       #221
      01001FC9H   LINE      CODE     ---       #222
      01001FCEH   LINE      CODE     ---       #223
      01001FD0H   LINE      CODE     ---       #225
      01001FD0H   LINE      CODE     ---       #226
      01001FDDH   LINE      CODE     ---       #227
      01001FDDH   LINE      CODE     ---       #230
      01001FE0H   LINE      CODE     ---       #231
      01001FE2H   LINE      CODE     ---       #232
      01001FE2H   LINE      CODE     ---       #233
      01001FE5H   LINE      CODE     ---       #234
      01001FE5H   LINE      CODE     ---       #236
      01001FE5H   LINE      CODE     ---       #237
      01001FEDH   LINE      CODE     ---       #238
      01001FF5H   LINE      CODE     ---       #239
      01001FF5H   LINE      CODE     ---       #240
      01001FFAH   LINE      CODE     ---       #241
      01001FFCH   LINE      CODE     ---       #243
      01001FFCH   LINE      CODE     ---       #244
      01002009H   LINE      CODE     ---       #245
      01002009H   LINE      CODE     ---       #248
      0100200CH   LINE      CODE     ---       #249
      0100200EH   LINE      CODE     ---       #250
      0100200EH   LINE      CODE     ---       #251
      01002011H   LINE      CODE     ---       #252
      01002011H   LINE      CODE     ---       #254
      01002013H   LINE      CODE     ---       #255
      01002013H   LINE      CODE     ---       #256
      01002016H   LINE      CODE     ---       #257
      01002016H   LINE      CODE     ---       #258
      0100201EH   LINE      CODE     ---       #259
      0100201EH   LINE      CODE     ---       #268
      01002020H   LINE      CODE     ---       #269
      01002037H   LINE      CODE     ---       #270
      0100203DH   LINE      CODE     ---       #271
      01002047H   LINE      CODE     ---       #272
      01002047H   LINE      CODE     ---       #273
      0100204AH   LINE      CODE     ---       #274
      0100204AH   LINE      CODE     ---       #275
      0100204AH   LINE      CODE     ---       #276
      0100204CH   LINE      CODE     ---       #277
      0100204CH   LINE      CODE     ---       #278
      ---         BLOCKEND  ---      ---       LVL=0

LX51 LINKER/LOCATER V4.66.97.0                                                        08/08/2020  16:35:51  PAGE 97


      0100213CH   BLOCK     CODE     ---       LVL=0
      00000007H   SYMBOL    DATA     BYTE      bLevel
      00000004H   SYMBOL    DATA     WORD      wTime
      0100213CH   LINE      CODE     ---       #280
      0100213CH   LINE      CODE     ---       #281
      0100213CH   LINE      CODE     ---       #282
      01002142H   LINE      CODE     ---       #283
      01002142H   LINE      CODE     ---       #284
      0100214BH   LINE      CODE     ---       #285
      0100215CH   LINE      CODE     ---       #286
      0100215CH   LINE      CODE     ---       #287
      0100215EH   LINE      CODE     ---       #288
      01002168H   LINE      CODE     ---       #289
      01002168H   LINE      CODE     ---       #290
      01002179H   LINE      CODE     ---       #291
      01002179H   LINE      CODE     ---       #292
      0100217BH   LINE      CODE     ---       #293
      01002185H   LINE      CODE     ---       #294
      01002185H   LINE      CODE     ---       #295
      01002196H   LINE      CODE     ---       #296
      01002196H   LINE      CODE     ---       #297
      01002198H   LINE      CODE     ---       #298
      010021A2H   LINE      CODE     ---       #299
      010021A2H   LINE      CODE     ---       #300
      010021B3H   LINE      CODE     ---       #301
      010021B3H   LINE      CODE     ---       #302
      010021B8H   LINE      CODE     ---       #303
      010021C2H   LINE      CODE     ---       #304
      010021C2H   LINE      CODE     ---       #305
      010021D3H   LINE      CODE     ---       #306
      010021D3H   LINE      CODE     ---       #307
      010021D8H   LINE      CODE     ---       #308
      010021E2H   LINE      CODE     ---       #309
      010021E2H   LINE      CODE     ---       #310
      010021F3H   LINE      CODE     ---       #311
      010021F3H   LINE      CODE     ---       #312
      010021F8H   LINE      CODE     ---       #313
      01002202H   LINE      CODE     ---       #314
      01002202H   LINE      CODE     ---       #315
      01002202H   LINE      CODE     ---       #316
      ---         BLOCKEND  ---      ---       LVL=0

      0100243EH   BLOCK     CODE     ---       LVL=0
      00000007H   SYMBOL    DATA     BYTE      bLevel
      00000065H   SYMBOL    DATA     WORD      wTime
      0100243EH   LINE      CODE     ---       #319
      01002442H   LINE      CODE     ---       #320
      01002442H   LINE      CODE     ---       #321
      01002456H   LINE      CODE     ---       #323
      01002459H   LINE      CODE     ---       #324
      01002459H   LINE      CODE     ---       #325
      01002468H   LINE      CODE     ---       #326
      01002468H   LINE      CODE     ---       #327
      0100246EH   LINE      CODE     ---       #328
      0100246EH   LINE      CODE     ---       #329
      01002490H   LINE      CODE     ---       #330
      01002490H   LINE      CODE     ---       #331
      01002493H   LINE      CODE     ---       #332
      01002495H   LINE      CODE     ---       #334
      01002495H   LINE      CODE     ---       #336
      010024A2H   LINE      CODE     ---       #337
      010024A2H   LINE      CODE     ---       #338
LX51 LINKER/LOCATER V4.66.97.0                                                        08/08/2020  16:35:51  PAGE 98


      010024AAH   LINE      CODE     ---       #339
      010024AFH   LINE      CODE     ---       #340
      010024AFH   LINE      CODE     ---       #341
      010024B1H   LINE      CODE     ---       #344
      010024B1H   LINE      CODE     ---       #345
      010024B1H   LINE      CODE     ---       #346
      010024BBH   LINE      CODE     ---       #347
      010024BBH   LINE      CODE     ---       #348
      010024C1H   LINE      CODE     ---       #349
      010024C1H   LINE      CODE     ---       #350
      010024CBH   LINE      CODE     ---       #351
      010024CCH   LINE      CODE     ---       #353
      010024CCH   LINE      CODE     ---       #354
      010024CCH   LINE      CODE     ---       #355
      010024CFH   LINE      CODE     ---       #356
      010024CFH   LINE      CODE     ---       #357
      010024CFH   LINE      CODE     ---       #358
      010024D0H   LINE      CODE     ---       #360
      010024D0H   LINE      CODE     ---       #361
      010024DFH   LINE      CODE     ---       #362
      010024DFH   LINE      CODE     ---       #363
      010024E4H   LINE      CODE     ---       #364
      010024E4H   LINE      CODE     ---       #365
      010024EEH   LINE      CODE     ---       #366
      010024EEH   LINE      CODE     ---       #367
      010024F4H   LINE      CODE     ---       #368
      010024F4H   LINE      CODE     ---       #369
      010024F4H   LINE      CODE     ---       #370
      ---         BLOCKEND  ---      ---       LVL=0

      01002B30H   BLOCK     CODE     ---       LVL=0
      01002B30H   BLOCK     CODE     NEAR LAB  LVL=1
      00000004H   SYMBOL    DATA     BYTE      i
      00000001H   SYMBOL    DATA     BYTE      RET
      00000005H   SYMBOL    DATA     BYTE      CheckSum
      ---         BLOCKEND  ---      ---       LVL=1
      01002B30H   LINE      CODE     ---       #372
      01002B30H   LINE      CODE     ---       #373
      01002B30H   LINE      CODE     ---       #374
      01002B32H   LINE      CODE     ---       #375
      01002B33H   LINE      CODE     ---       #377
      01002B3FH   LINE      CODE     ---       #378
      01002B3FH   LINE      CODE     ---       #379
      01002B5CH   LINE      CODE     ---       #380
      01002B5CH   LINE      CODE     ---       #381
      01002B5DH   LINE      CODE     ---       #382
      01002B5DH   LINE      CODE     ---       #383
      01002B60H   LINE      CODE     ---       #384
      01002B63H   LINE      CODE     ---       #385
      01002B85H   LINE      CODE     ---       #386
      01002B85H   LINE      CODE     ---       #387
      01002B87H   LINE      CODE     ---       #388
      01002B87H   LINE      CODE     ---       #389
      01002B89H   LINE      CODE     ---       #390
      ---         BLOCKEND  ---      ---       LVL=0

      ---         MODULE    ---      ---       SPEAKER
      02000305H   PUBLIC    XDATA    ---       Speaker
      000000A2H   SFRSYM    DATA     BYTE      SPI0CKR
      00000080H   SFRSYM    DATA     BYTE      P0
      000000C8H.6 SFRSYM    DATA     BIT       SCON1_PERR
      000000D0H.2 SFRSYM    DATA     BIT       PSW_OV
LX51 LINKER/LOCATER V4.66.97.0                                                        08/08/2020  16:35:51  PAGE 99


      00000090H   SFRSYM    DATA     BYTE      P1
      000000F8H.1 SFRSYM    DATA     BIT       SPI0CN0_TXNF
      00000097H   SFRSYM    DATA     BYTE      WDTCN
      000000A0H   SFRSYM    DATA     BYTE      P2
      000000B0H   SFRSYM    DATA     BYTE      P3
      000000BCH   SFRSYM    DATA     BYTE      ADC0CF
      000000C0H.7 SFRSYM    DATA     BIT       SMB0CN0_MASTER
      000000F9H   SFRSYM    DATA     WORD      PCA0
      000000E6H   SFRSYM    DATA     BYTE      EIE1
      000000C0H.1 SFRSYM    DATA     BIT       SMB0CN0_ACK
      000000CEH   SFRSYM    DATA     BYTE      EIE2
      0000008FH   SFRSYM    DATA     BYTE      PSCTL
      000000E4H   SFRSYM    DATA     BYTE      IT01CF
      000000C0H.6 SFRSYM    DATA     BIT       SMB0CN0_TXMODE
      000000ADH   SFRSYM    DATA     BYTE      DERIVID
      000000A7H   SFRSYM    DATA     BYTE      SFRPAGE
      000000A4H   SFRSYM    DATA     BYTE      P0MDOUT
      000000A5H   SFRSYM    DATA     BYTE      P1MDOUT
      000000E8H.5 SFRSYM    DATA     BIT       ADC0CN0_ADINT
      000000CBH   SFRSYM    DATA     BYTE      TMR2RLH
      000000A6H   SFRSYM    DATA     BYTE      P2MDOUT
      000000A8H   SFRSYM    DATA     BYTE      IE
      00000093H   SFRSYM    DATA     BYTE      TMR3RLH
      0000009CH   SFRSYM    DATA     BYTE      P3MDOUT
      000000A3H   SFRSYM    DATA     BYTE      TMR4RLH
      000000F3H   SFRSYM    DATA     BYTE      EIP1
      000000F4H   SFRSYM    DATA     BYTE      EIP2
      00000098H.2 SFRSYM    DATA     BIT       SCON0_RB8
      000000CAH   SFRSYM    DATA     BYTE      TMR2RLL
      000000FCH   SFRSYM    DATA     BYTE      PCA0CPH0
      00000092H   SFRSYM    DATA     BYTE      TMR3RLL
      000000EAH   SFRSYM    DATA     BYTE      PCA0CPH1
      00000098H.3 SFRSYM    DATA     BIT       SCON0_TB8
      000000F0H.0 SFRSYM    DATA     BIT       B_B0
      00000082H   SFRSYM    DATA     WORD      DP
      000000A2H   SFRSYM    DATA     BYTE      TMR4RLL
      000000ECH   SFRSYM    DATA     BYTE      PCA0CPH2
      000000F0H.1 SFRSYM    DATA     BIT       B_B1
      000000C3H   SFRSYM    DATA     WORD      ADC0GT
      000000BDH   SFRSYM    DATA     BYTE      I2C0SLAD
      000000D8H.3 SFRSYM    DATA     BIT       UART1FCN1_RFRQ
      000000F0H.2 SFRSYM    DATA     BIT       B_B2
      000000CFH   SFRSYM    DATA     BYTE      SFRPGCN
      000000FBH   SFRSYM    DATA     BYTE      PCA0CPL0
      000000F0H.3 SFRSYM    DATA     BIT       B_B3
      000000D9H   SFRSYM    DATA     BYTE      PCA0MD
      000000DAH   SFRSYM    DATA     BYTE      PCA0CPM0
      000000E9H   SFRSYM    DATA     BYTE      PCA0CPL1
      000000D8H.7 SFRSYM    DATA     BIT       UART1FCN1_TFRQ
      000000F0H.4 SFRSYM    DATA     BIT       B_B4
      000000DBH   SFRSYM    DATA     BYTE      PCA0CPM1
      000000EBH   SFRSYM    DATA     BYTE      PCA0CPL2
      000000F0H.5 SFRSYM    DATA     BIT       B_B5
      000000DCH   SFRSYM    DATA     BYTE      PCA0CPM2
      000000B8H   SFRSYM    DATA     BYTE      IP
      000000B9H   SFRSYM    DATA     BYTE      ADC0TK
      000000F0H.6 SFRSYM    DATA     BIT       B_B6
      000000C5H   SFRSYM    DATA     WORD      ADC0LT
      000000D8H.6 SFRSYM    DATA     BIT       UART1FCN1_TXNF
      00000098H.5 SFRSYM    DATA     BIT       SCON0_MCE
      000000F0H.7 SFRSYM    DATA     BIT       B_B7
      000000C3H   SFRSYM    DATA     BYTE      SMB0FCN0
LX51 LINKER/LOCATER V4.66.97.0                                                        08/08/2020  16:35:51  PAGE 100


      000000E1H   SFRSYM    DATA     BYTE      XBR0
      000000C4H   SFRSYM    DATA     BYTE      SMB0FCN1
      000000C1H   SFRSYM    DATA     BYTE      SMB0CF
      000000E2H   SFRSYM    DATA     BYTE      XBR1
      000000C1H   SFRSYM    DATA     BYTE      PFE0CN
      000000E7H   SFRSYM    DATA     BYTE      EMI0CN
      000000C0H.5 SFRSYM    DATA     BIT       SMB0CN0_STA
      000000E3H   SFRSYM    DATA     BYTE      XBR2
      000000BBH   SFRSYM    DATA     BYTE      ADC0MX
      000000E0H.0 SFRSYM    DATA     BIT       ACC_ACC0
      000000D1H   SFRSYM    DATA     BYTE      REF0CN
      0000008EH   SFRSYM    DATA     BYTE      CKCON0
      000000E0H.1 SFRSYM    DATA     BIT       ACC_ACC1
      000000C9H   SFRSYM    DATA     BYTE      REG0CN
      000000DDH   SFRSYM    DATA     BYTE      CRC0IN
      000000A6H   SFRSYM    DATA     BYTE      CKCON1
      000000C8H.2 SFRSYM    DATA     BIT       TMR2CN0_TR2
      000000E0H.2 SFRSYM    DATA     BIT       ACC_ACC2
      000000C6H   SFRSYM    DATA     BYTE      REG1CN
      000000E0H.3 SFRSYM    DATA     BIT       ACC_ACC3
      00000081H   SFRSYM    DATA     BYTE      SP
      0000009DH   SFRSYM    DATA     BYTE      CMP0MD
      000000E0H.4 SFRSYM    DATA     BIT       ACC_ACC4
      000000B1H   SFRSYM    DATA     BYTE      LFO0CN
      000000ABH   SFRSYM    DATA     BYTE      CMP1MD
      000000D8H.0 SFRSYM    DATA     BIT       PCA0CN0_CCF0
      000000E0H.5 SFRSYM    DATA     BIT       ACC_ACC5
      00000098H.2 SFRSYM    DATA     BIT       TMR4CN0_TR4
      000000D8H.1 SFRSYM    DATA     BIT       PCA0CN0_CCF1
      000000E0H.6 SFRSYM    DATA     BIT       ACC_ACC6
      000000CCH   SFRSYM    DATA     WORD      TMR2
      0000009AH   SFRSYM    DATA     BYTE      SPI0FCN0
      000000D8H.2 SFRSYM    DATA     BIT       PCA0CN0_CCF2
      000000E0H.7 SFRSYM    DATA     BIT       ACC_ACC7
      00000094H   SFRSYM    DATA     WORD      TMR3
      0000009BH   SFRSYM    DATA     BYTE      SPI0FCN1
      000000A4H   SFRSYM    DATA     WORD      TMR4
      00000094H   SFRSYM    DATA     BYTE      SBCON1
      000000C0H.3 SFRSYM    DATA     BIT       SMB0CN0_ACKRQ
      000000FFH   SFRSYM    DATA     BYTE      VDM0CN
      000000F1H   SFRSYM    DATA     BYTE      P0MDIN
      00000098H.4 SFRSYM    DATA     BIT       SCON0_REN
      000000ACH   SFRSYM    DATA     BYTE      SMB0TC
      000000F2H   SFRSYM    DATA     BYTE      P1MDIN
      000000C8H.4 SFRSYM    DATA     BIT       SCON1_REN
      000000F3H   SFRSYM    DATA     BYTE      P2MDIN
      000000C0H.4 SFRSYM    DATA     BIT       SMB0CN0_STO
      000000F4H   SFRSYM    DATA     BYTE      P3MDIN
      000000B9H   SFRSYM    DATA     BYTE      I2C0STAT
      000000BBH   SFRSYM    DATA     BYTE      I2C0DOUT
      00000096H   SFRSYM    DATA     BYTE      SBRLH1
      000000FEH   SFRSYM    DATA     BYTE      P0MASK
      000000D8H.5 SFRSYM    DATA     BIT       UART1FCN1_TXHOLD
      000000EEH   SFRSYM    DATA     BYTE      P1MASK
      000000FCH   SFRSYM    DATA     BYTE      P2MASK
      000000D0H.3 SFRSYM    DATA     BIT       PSW_RS0
      000000D8H.7 SFRSYM    DATA     BIT       PCA0CN0_CF
      0000009EH   SFRSYM    DATA     BYTE      PCA0CENT
      000000BAH   SFRSYM    DATA     BYTE      I2C0CN0
      000000D2H   SFRSYM    DATA     BYTE      CRC0ST
      000000F8H.4 SFRSYM    DATA     BIT       SPI0CN0_RXOVRN
      000000D0H.4 SFRSYM    DATA     BIT       PSW_RS1
LX51 LINKER/LOCATER V4.66.97.0                                                        08/08/2020  16:35:51  PAGE 101


      00000095H   SFRSYM    DATA     BYTE      SBRLL1
      000000C8H.2 SFRSYM    DATA     BIT       SCON1_RBX
      000000C8H.0 SFRSYM    DATA     BIT       TMR2CN0_T2XCLK0
      000000C8H.1 SFRSYM    DATA     BIT       TMR2CN0_T2XCLK1
      000000C8H.3 SFRSYM    DATA     BIT       SCON1_TBX
      000000E8H.7 SFRSYM    DATA     BIT       ADC0CN0_ADEN
      00000089H   SFRSYM    DATA     BYTE      TMOD
      00000088H   SFRSYM    DATA     BYTE      TCON
      000000CFH   SFRSYM    DATA     BYTE      CRC0FLIP
      000000D0H.0 SFRSYM    DATA     BIT       PSW_PARITY
      000000A8H.4 SFRSYM    DATA     BIT       IE_ES0
      0000009FH   SFRSYM    DATA     BYTE      CMP0MX
      00000098H.0 SFRSYM    DATA     BIT       TMR4CN0_T4XCLK0
      000000A8H.1 SFRSYM    DATA     BIT       IE_ET0
      000000AAH   SFRSYM    DATA     BYTE      CMP1MX
      00000098H.1 SFRSYM    DATA     BIT       TMR4CN0_T4XCLK1
      000000A8H.3 SFRSYM    DATA     BIT       IE_ET1
      000000D4H   SFRSYM    DATA     BYTE      P0SKIP
      000000D8H.0 SFRSYM    DATA     BIT       UART1FCN1_RIE
      000000A8H.5 SFRSYM    DATA     BIT       IE_ET2
      000000D5H   SFRSYM    DATA     BYTE      P1SKIP
      000000CCH   SFRSYM    DATA     BYTE      P2SKIP
      000000E8H   SFRSYM    DATA     BYTE      ADC0CN0
      000000D8H.4 SFRSYM    DATA     BIT       UART1FCN1_TIE
      000000A8H.0 SFRSYM    DATA     BIT       IE_EX0
      000000B2H   SFRSYM    DATA     BYTE      ADC0CN1
      000000D8H.6 SFRSYM    DATA     BIT       PCA0CN0_CR
      000000A8H.2 SFRSYM    DATA     BIT       IE_EX1
      000000C8H.7 SFRSYM    DATA     BIT       SCON1_OVR
      00000098H.7 SFRSYM    DATA     BIT       SCON0_SMODE
      000000B5H   SFRSYM    DATA     BYTE      DEVICEID
      000000A9H   SFRSYM    DATA     BYTE      CLKSEL
      000000F8H.0 SFRSYM    DATA     BIT       SPI0CN0_SPIEN
      000000F0H   SFRSYM    DATA     BYTE      B
      000000BEH   SFRSYM    DATA     BYTE      ADC0H
      000000E8H.6 SFRSYM    DATA     BIT       ADC0CN0_ADBMEN
      000000CAH   SFRSYM    DATA     WORD      TMR2RL
      000000BDH   SFRSYM    DATA     BYTE      ADC0L
      00000092H   SFRSYM    DATA     WORD      TMR3RL
      000000A2H   SFRSYM    DATA     WORD      TMR4RL
      000000D8H   SFRSYM    DATA     BYTE      PCA0CN0
      000000E0H   SFRSYM    DATA     BYTE      ACC
      000000FBH   SFRSYM    DATA     WORD      PCA0CP0
      000000E9H   SFRSYM    DATA     WORD      PCA0CP1
      000000EBH   SFRSYM    DATA     WORD      PCA0CP2
      000000BCH   SFRSYM    DATA     BYTE      I2C0DIN
      000000CEH   SFRSYM    DATA     BYTE      CRC0CN0
      0000008CH   SFRSYM    DATA     BYTE      TH0
      00000086H   SFRSYM    DATA     BYTE      CRC0CN1
      000000B8H.4 SFRSYM    DATA     BIT       IP_PS0
      000000FAH   SFRSYM    DATA     BYTE      UART1FCT
      0000008DH   SFRSYM    DATA     BYTE      TH1
      000000FAH   SFRSYM    DATA     BYTE      PCA0H
      000000F5H   SFRSYM    DATA     BYTE      I2C0FCT
      000000B8H.1 SFRSYM    DATA     BIT       IP_PT0
      000000B8H.3 SFRSYM    DATA     BIT       IP_PT1
      000000C0H.2 SFRSYM    DATA     BIT       SMB0CN0_ARBLOST
      000000B8H.5 SFRSYM    DATA     BIT       IP_PT2
      0000008AH   SFRSYM    DATA     BYTE      TL0
      000000D0H.5 SFRSYM    DATA     BIT       PSW_F0
      000000A8H.6 SFRSYM    DATA     BIT       IE_ESPI0
      0000008BH   SFRSYM    DATA     BYTE      TL1
LX51 LINKER/LOCATER V4.66.97.0                                                        08/08/2020  16:35:51  PAGE 102


      000000F9H   SFRSYM    DATA     BYTE      PCA0L
      000000C0H.0 SFRSYM    DATA     BIT       SMB0CN0_SI
      000000D0H.1 SFRSYM    DATA     BIT       PSW_F1
      00000080H.0 SFRSYM    DATA     BIT       P0_B0
      000000B8H.0 SFRSYM    DATA     BIT       IP_PX0
      00000090H.0 SFRSYM    DATA     BIT       P1_B0
      00000080H.1 SFRSYM    DATA     BIT       P0_B1
      000000B8H.2 SFRSYM    DATA     BIT       IP_PX1
      0000009EH   SFRSYM    DATA     BYTE      UART1LIN
      0000009BH   SFRSYM    DATA     BYTE      CMP0CN0
      00000088H.1 SFRSYM    DATA     BIT       TCON_IE0
      000000A0H.0 SFRSYM    DATA     BIT       P2_B0
      00000090H.1 SFRSYM    DATA     BIT       P1_B1
      00000080H.2 SFRSYM    DATA     BIT       P0_B2
      000000BFH   SFRSYM    DATA     BYTE      CMP1CN0
      00000099H   SFRSYM    DATA     BYTE      CMP0CN1
      00000088H.3 SFRSYM    DATA     BIT       TCON_IE1
      000000B0H.0 SFRSYM    DATA     BIT       P3_B0
      000000A0H.1 SFRSYM    DATA     BIT       P2_B1
      00000090H.2 SFRSYM    DATA     BIT       P1_B2
      00000080H.3 SFRSYM    DATA     BIT       P0_B3
      000000C0H   SFRSYM    DATA     BYTE      SMB0CN0
      000000ACH   SFRSYM    DATA     BYTE      CMP1CN1
      000000B0H.1 SFRSYM    DATA     BIT       P3_B1
      000000A0H.2 SFRSYM    DATA     BIT       P2_B2
      00000090H.3 SFRSYM    DATA     BIT       P1_B3
      00000080H.4 SFRSYM    DATA     BIT       P0_B4
      000000A0H.3 SFRSYM    DATA     BIT       P2_B3
      00000090H.4 SFRSYM    DATA     BIT       P1_B4
      00000080H.5 SFRSYM    DATA     BIT       P0_B5
      000000D8H.1 SFRSYM    DATA     BIT       UART1FCN1_RXTO0
      00000090H.5 SFRSYM    DATA     BIT       P1_B5
      00000080H.6 SFRSYM    DATA     BIT       P0_B6
      000000F5H   SFRSYM    DATA     BYTE      EIP1H
      000000D8H.2 SFRSYM    DATA     BIT       UART1FCN1_RXTO1
      00000090H.6 SFRSYM    DATA     BIT       P1_B6
      00000080H.7 SFRSYM    DATA     BIT       P0_B7
      000000C5H   SFRSYM    DATA     BYTE      SMB0RXLN
      000000F6H   SFRSYM    DATA     BYTE      EIP2H
      00000090H.7 SFRSYM    DATA     BIT       P1_B7
      00000083H   SFRSYM    DATA     BYTE      DPH
      000000C4H   SFRSYM    DATA     BYTE      ADC0GTH
      000000C8H.7 SFRSYM    DATA     BIT       TMR2CN0_TF2H
      000000C8H.3 SFRSYM    DATA     BIT       TMR2CN0_T2SPLIT
      000000D0H.6 SFRSYM    DATA     BIT       PSW_AC
      000000F8H   SFRSYM    DATA     BYTE      SPI0CN0
      000000C7H   SFRSYM    DATA     BYTE      HFO0CAL
      00000088H.5 SFRSYM    DATA     BIT       TCON_TF0
      00000098H.0 SFRSYM    DATA     BIT       SCON0_RI
      000000D6H   SFRSYM    DATA     BYTE      HFO1CAL
      00000082H   SFRSYM    DATA     BYTE      DPL
      00000088H.7 SFRSYM    DATA     BIT       TCON_TF1
      000000C8H.0 SFRSYM    DATA     BIT       SCON1_RI
      00000099H   SFRSYM    DATA     BYTE      SBUF0
      00000087H   SFRSYM    DATA     BYTE      PCON0
      000000F2H   SFRSYM    DATA     BYTE      IPH
      000000C3H   SFRSYM    DATA     BYTE      ADC0GTL
      00000098H.7 SFRSYM    DATA     BIT       TMR4CN0_TF4H
      00000098H.3 SFRSYM    DATA     BIT       TMR4CN0_T4SPLIT
      000000C8H.6 SFRSYM    DATA     BIT       TMR2CN0_TF2L
      00000098H.1 SFRSYM    DATA     BIT       SCON0_TI
      000000E8H.0 SFRSYM    DATA     BIT       ADC0CN0_ADCM0
LX51 LINKER/LOCATER V4.66.97.0                                                        08/08/2020  16:35:51  PAGE 103


      00000092H   SFRSYM    DATA     BYTE      SBUF1
      0000009AH   SFRSYM    DATA     BYTE      PCON1
      000000C6H   SFRSYM    DATA     BYTE      ADC0LTH
      00000088H.0 SFRSYM    DATA     BIT       TCON_IT0
      000000C8H.1 SFRSYM    DATA     BIT       SCON1_TI
      000000E8H.1 SFRSYM    DATA     BIT       ADC0CN0_ADCM1
      000000EFH   SFRSYM    DATA     BYTE      RSTSRC
      000000FDH   SFRSYM    DATA     BYTE      P0MAT
      000000DEH   SFRSYM    DATA     BYTE      CRC0DAT
      00000088H.2 SFRSYM    DATA     BIT       TCON_IT1
      000000E8H.2 SFRSYM    DATA     BIT       ADC0CN0_ADCM2
      000000D7H   SFRSYM    DATA     BYTE      SFRSTACK
      00000098H   SFRSYM    DATA     BYTE      SCON0
      000000F6H   SFRSYM    DATA     BYTE      PRTDRV
      000000EDH   SFRSYM    DATA     BYTE      P1MAT
      000000E8H.3 SFRSYM    DATA     BIT       ADC0CN0_ADWINT
      00000095H   SFRSYM    DATA     WORD      SBRL1
      00000093H   SFRSYM    DATA     BYTE      SMOD1
      000000C8H   SFRSYM    DATA     BYTE      SCON1
      000000FBH   SFRSYM    DATA     BYTE      P2MAT
      00000098H.6 SFRSYM    DATA     BIT       TMR4CN0_TF4L
      000000E8H.4 SFRSYM    DATA     BIT       ADC0CN0_ADBUSY
      000000D6H   SFRSYM    DATA     BYTE      SMB0ADM
      000000C5H   SFRSYM    DATA     BYTE      ADC0LTL
      000000F8H.5 SFRSYM    DATA     BIT       SPI0CN0_MODF
      000000B8H.6 SFRSYM    DATA     BIT       IP_PSPI0
      0000009CH   SFRSYM    DATA     BYTE      PCA0CLR
      000000C8H   SFRSYM    DATA     BYTE      TMR2CN0
      00000091H   SFRSYM    DATA     BYTE      TMR3CN0
      000000FDH   SFRSYM    DATA     BYTE      TMR2CN1
      00000098H   SFRSYM    DATA     BYTE      TMR4CN0
      000000FEH   SFRSYM    DATA     BYTE      TMR3CN1
      000000FFH   SFRSYM    DATA     BYTE      TMR4CN1
      000000D7H   SFRSYM    DATA     BYTE      SMB0ADR
      00000088H.4 SFRSYM    DATA     BIT       TCON_TR0
      000000C8H.4 SFRSYM    DATA     BIT       TMR2CN0_TF2CEN
      00000088H.6 SFRSYM    DATA     BIT       TCON_TR1
      000000C2H   SFRSYM    DATA     BYTE      SMB0DAT
      000000CDH   SFRSYM    DATA     BYTE      TMR2H
      000000A1H   SFRSYM    DATA     BYTE      SPI0CFG
      00000095H   SFRSYM    DATA     BYTE      TMR3H
      000000EFH   SFRSYM    DATA     BYTE      HFOCN
      000000D3H   SFRSYM    DATA     BYTE      CRC0CNT
      000000A5H   SFRSYM    DATA     BYTE      TMR4H
      00000098H.4 SFRSYM    DATA     BIT       TMR4CN0_TF4CEN
      000000EFH   SFRSYM    DATA     BYTE      SMB0FCT
      00000096H   SFRSYM    DATA     BYTE      PCA0POL
      000000CCH   SFRSYM    DATA     BYTE      TMR2L
      000000F8H.7 SFRSYM    DATA     BIT       SPI0CN0_SPIF
      00000094H   SFRSYM    DATA     BYTE      TMR3L
      000000DFH   SFRSYM    DATA     BYTE      ADC0PWR
      000000A8H.7 SFRSYM    DATA     BIT       IE_EA
      000000A4H   SFRSYM    DATA     BYTE      TMR4L
      000000C8H.5 SFRSYM    DATA     BIT       TMR2CN0_TF2LEN
      000000F8H.6 SFRSYM    DATA     BIT       SPI0CN0_WCOL
      000000F8H.2 SFRSYM    DATA     BIT       SPI0CN0_NSSMD0
      000000D0H.7 SFRSYM    DATA     BIT       PSW_CY
      0000009DH   SFRSYM    DATA     BYTE      UART1FCN0
      000000A3H   SFRSYM    DATA     BYTE      SPI0DAT
      000000ADH   SFRSYM    DATA     BYTE      I2C0FCN0
      000000F8H.3 SFRSYM    DATA     BIT       SPI0CN0_NSSMD1
      000000BDH   SFRSYM    DATA     WORD      ADC0
LX51 LINKER/LOCATER V4.66.97.0                                                        08/08/2020  16:35:51  PAGE 104


      000000D8H   SFRSYM    DATA     BYTE      UART1FCN1
      000000ABH   SFRSYM    DATA     BYTE      I2C0FCN1
      00000098H.5 SFRSYM    DATA     BIT       TMR4CN0_TF4LEN
      000000D0H   SFRSYM    DATA     BYTE      PSW
      000000F7H   SFRSYM    DATA     BYTE      PCA0PWM
      000000F7H   SFRSYM    DATA     BYTE      SPI0FCT
      000000B6H   SFRSYM    DATA     BYTE      REVID
      000000B7H   SFRSYM    DATA     BYTE      FLKEY
      000000B3H   SFRSYM    DATA     BYTE      ADC0AC
      00000007H   SYMBOL    DATA     BYTE      WarningClass

      ---         MODULE    ---      ---       TIMER
      020002FBH   PUBLIC    XDATA    BYTE      bTimeFlag
      020002F9H   PUBLIC    XDATA    WORD      wSensorCheckTime
      020002F7H   PUBLIC    XDATA    WORD      w50msCnt
      020002F6H   PUBLIC    XDATA    BYTE      bLevel
      020002F4H   PUBLIC    XDATA    WORD      wTimeMs
      020002F3H   PUBLIC    XDATA    BYTE      bSensorCheckFlag
      020002F2H   PUBLIC    XDATA    BYTE      b50msFlag
      020002F0H   PUBLIC    XDATA    WORD      wTime
      01002EC4H   PUBLIC    CODE     ---       TIMER3_ISR
      01003268H   PUBLIC    CODE     ---       TIMER4_ISR
      01000051H   PUBLIC    CODE     ---       TIMER0_ISR
      01002A68H   PUBLIC    CODE     ---       TIMER2_ISR
      0100002EH   PUBLIC    CODE     ---       _Delay1ms
      01002E95H   PUBLIC    CODE     ---       _Delay1us
      01003232H   PUBLIC    CODE     ---       Time_StopAdcTrigger
      0100320FH   PUBLIC    CODE     ---       Time_StartAdcTrigger
      010030F6H   PUBLIC    CODE     ---       Time_InitAdcTriggerTimer
      0100308BH   PUBLIC    CODE     ---       Time_InitTheDelayTimer
      01000026H   PUBLIC    CODE     ---       StartTheUart0Timer
      01003065H   PUBLIC    CODE     ---       Time_InitUart0Timer
      0100318FH   PUBLIC    CODE     ---       Time_Init32msTimer
      01000076H   PUBLIC    CODE     ---       Time_Init1msTimer
      0100303FH   PUBLIC    CODE     ---       _Stop_PCA0_Capture
      01003019H   PUBLIC    CODE     ---       _Start_PCA0_Capture
      01000003H   PUBLIC    CODE     ---       Stop_PCA0_Comparator
      01003225H   PUBLIC    CODE     ---       Start_PCA0_Comparator
      01002E64H   PUBLIC    CODE     ---       Time_InitPCA0
      000000A2H   SFRSYM    DATA     BYTE      SPI0CKR
      00000080H   SFRSYM    DATA     BYTE      P0
      000000C8H.6 SFRSYM    DATA     BIT       SCON1_PERR
      000000D0H.2 SFRSYM    DATA     BIT       PSW_OV
      00000090H   SFRSYM    DATA     BYTE      P1
      000000F8H.1 SFRSYM    DATA     BIT       SPI0CN0_TXNF
      00000097H   SFRSYM    DATA     BYTE      WDTCN
      000000A0H   SFRSYM    DATA     BYTE      P2
      000000B0H   SFRSYM    DATA     BYTE      P3
      000000BCH   SFRSYM    DATA     BYTE      ADC0CF
      000000C0H.7 SFRSYM    DATA     BIT       SMB0CN0_MASTER
      000000F9H   SFRSYM    DATA     WORD      PCA0
      000000E6H   SFRSYM    DATA     BYTE      EIE1
      000000C0H.1 SFRSYM    DATA     BIT       SMB0CN0_ACK
      000000CEH   SFRSYM    DATA     BYTE      EIE2
      0000008FH   SFRSYM    DATA     BYTE      PSCTL
      000000E4H   SFRSYM    DATA     BYTE      IT01CF
      000000C0H.6 SFRSYM    DATA     BIT       SMB0CN0_TXMODE
      000000ADH   SFRSYM    DATA     BYTE      DERIVID
      000000A7H   SFRSYM    DATA     BYTE      SFRPAGE
      000000A4H   SFRSYM    DATA     BYTE      P0MDOUT
      000000A5H   SFRSYM    DATA     BYTE      P1MDOUT
      000000E8H.5 SFRSYM    DATA     BIT       ADC0CN0_ADINT
LX51 LINKER/LOCATER V4.66.97.0                                                        08/08/2020  16:35:51  PAGE 105


      000000CBH   SFRSYM    DATA     BYTE      TMR2RLH
      000000A6H   SFRSYM    DATA     BYTE      P2MDOUT
      000000A8H   SFRSYM    DATA     BYTE      IE
      00000093H   SFRSYM    DATA     BYTE      TMR3RLH
      0000009CH   SFRSYM    DATA     BYTE      P3MDOUT
      000000A3H   SFRSYM    DATA     BYTE      TMR4RLH
      000000F3H   SFRSYM    DATA     BYTE      EIP1
      000000F4H   SFRSYM    DATA     BYTE      EIP2
      00000098H.2 SFRSYM    DATA     BIT       SCON0_RB8
      000000CAH   SFRSYM    DATA     BYTE      TMR2RLL
      000000FCH   SFRSYM    DATA     BYTE      PCA0CPH0
      00000092H   SFRSYM    DATA     BYTE      TMR3RLL
      000000EAH   SFRSYM    DATA     BYTE      PCA0CPH1
      00000098H.3 SFRSYM    DATA     BIT       SCON0_TB8
      000000F0H.0 SFRSYM    DATA     BIT       B_B0
      00000082H   SFRSYM    DATA     WORD      DP
      000000A2H   SFRSYM    DATA     BYTE      TMR4RLL
      000000ECH   SFRSYM    DATA     BYTE      PCA0CPH2
      000000F0H.1 SFRSYM    DATA     BIT       B_B1
      000000C3H   SFRSYM    DATA     WORD      ADC0GT
      000000BDH   SFRSYM    DATA     BYTE      I2C0SLAD
      000000D8H.3 SFRSYM    DATA     BIT       UART1FCN1_RFRQ
      000000F0H.2 SFRSYM    DATA     BIT       B_B2
      000000CFH   SFRSYM    DATA     BYTE      SFRPGCN
      000000FBH   SFRSYM    DATA     BYTE      PCA0CPL0
      000000F0H.3 SFRSYM    DATA     BIT       B_B3
      000000D9H   SFRSYM    DATA     BYTE      PCA0MD
      000000DAH   SFRSYM    DATA     BYTE      PCA0CPM0
      000000E9H   SFRSYM    DATA     BYTE      PCA0CPL1
      000000D8H.7 SFRSYM    DATA     BIT       UART1FCN1_TFRQ
      000000F0H.4 SFRSYM    DATA     BIT       B_B4
      000000DBH   SFRSYM    DATA     BYTE      PCA0CPM1
      000000EBH   SFRSYM    DATA     BYTE      PCA0CPL2
      000000F0H.5 SFRSYM    DATA     BIT       B_B5
      000000DCH   SFRSYM    DATA     BYTE      PCA0CPM2
      000000B8H   SFRSYM    DATA     BYTE      IP
      000000B9H   SFRSYM    DATA     BYTE      ADC0TK
      000000F0H.6 SFRSYM    DATA     BIT       B_B6
      000000C5H   SFRSYM    DATA     WORD      ADC0LT
      000000D8H.6 SFRSYM    DATA     BIT       UART1FCN1_TXNF
      00000098H.5 SFRSYM    DATA     BIT       SCON0_MCE
      000000F0H.7 SFRSYM    DATA     BIT       B_B7
      000000C3H   SFRSYM    DATA     BYTE      SMB0FCN0
      000000E1H   SFRSYM    DATA     BYTE      XBR0
      000000C4H   SFRSYM    DATA     BYTE      SMB0FCN1
      000000C1H   SFRSYM    DATA     BYTE      SMB0CF
      000000E2H   SFRSYM    DATA     BYTE      XBR1
      000000C1H   SFRSYM    DATA     BYTE      PFE0CN
      000000E7H   SFRSYM    DATA     BYTE      EMI0CN
      000000C0H.5 SFRSYM    DATA     BIT       SMB0CN0_STA
      000000E3H   SFRSYM    DATA     BYTE      XBR2
      000000BBH   SFRSYM    DATA     BYTE      ADC0MX
      000000E0H.0 SFRSYM    DATA     BIT       ACC_ACC0
      000000D1H   SFRSYM    DATA     BYTE      REF0CN
      0000008EH   SFRSYM    DATA     BYTE      CKCON0
      000000E0H.1 SFRSYM    DATA     BIT       ACC_ACC1
      000000C9H   SFRSYM    DATA     BYTE      REG0CN
      000000DDH   SFRSYM    DATA     BYTE      CRC0IN
      000000A6H   SFRSYM    DATA     BYTE      CKCON1
      000000C8H.2 SFRSYM    DATA     BIT       TMR2CN0_TR2
      000000E0H.2 SFRSYM    DATA     BIT       ACC_ACC2
      000000C6H   SFRSYM    DATA     BYTE      REG1CN
LX51 LINKER/LOCATER V4.66.97.0                                                        08/08/2020  16:35:51  PAGE 106


      000000E0H.3 SFRSYM    DATA     BIT       ACC_ACC3
      00000081H   SFRSYM    DATA     BYTE      SP
      0000009DH   SFRSYM    DATA     BYTE      CMP0MD
      000000E0H.4 SFRSYM    DATA     BIT       ACC_ACC4
      000000B1H   SFRSYM    DATA     BYTE      LFO0CN
      000000ABH   SFRSYM    DATA     BYTE      CMP1MD
      000000D8H.0 SFRSYM    DATA     BIT       PCA0CN0_CCF0
      000000E0H.5 SFRSYM    DATA     BIT       ACC_ACC5
      00000098H.2 SFRSYM    DATA     BIT       TMR4CN0_TR4
      000000D8H.1 SFRSYM    DATA     BIT       PCA0CN0_CCF1
      000000E0H.6 SFRSYM    DATA     BIT       ACC_ACC6
      000000CCH   SFRSYM    DATA     WORD      TMR2
      0000009AH   SFRSYM    DATA     BYTE      SPI0FCN0
      000000D8H.2 SFRSYM    DATA     BIT       PCA0CN0_CCF2
      000000E0H.7 SFRSYM    DATA     BIT       ACC_ACC7
      00000094H   SFRSYM    DATA     WORD      TMR3
      0000009BH   SFRSYM    DATA     BYTE      SPI0FCN1
      000000A4H   SFRSYM    DATA     WORD      TMR4
      00000094H   SFRSYM    DATA     BYTE      SBCON1
      000000C0H.3 SFRSYM    DATA     BIT       SMB0CN0_ACKRQ
      000000FFH   SFRSYM    DATA     BYTE      VDM0CN
      000000F1H   SFRSYM    DATA     BYTE      P0MDIN
      00000098H.4 SFRSYM    DATA     BIT       SCON0_REN
      000000ACH   SFRSYM    DATA     BYTE      SMB0TC
      000000F2H   SFRSYM    DATA     BYTE      P1MDIN
      000000C8H.4 SFRSYM    DATA     BIT       SCON1_REN
      000000F3H   SFRSYM    DATA     BYTE      P2MDIN
      000000C0H.4 SFRSYM    DATA     BIT       SMB0CN0_STO
      000000F4H   SFRSYM    DATA     BYTE      P3MDIN
      000000B9H   SFRSYM    DATA     BYTE      I2C0STAT
      000000BBH   SFRSYM    DATA     BYTE      I2C0DOUT
      00000096H   SFRSYM    DATA     BYTE      SBRLH1
      000000FEH   SFRSYM    DATA     BYTE      P0MASK
      000000D8H.5 SFRSYM    DATA     BIT       UART1FCN1_TXHOLD
      000000EEH   SFRSYM    DATA     BYTE      P1MASK
      000000FCH   SFRSYM    DATA     BYTE      P2MASK
      000000D0H.3 SFRSYM    DATA     BIT       PSW_RS0
      000000D8H.7 SFRSYM    DATA     BIT       PCA0CN0_CF
      0000009EH   SFRSYM    DATA     BYTE      PCA0CENT
      000000BAH   SFRSYM    DATA     BYTE      I2C0CN0
      000000D2H   SFRSYM    DATA     BYTE      CRC0ST
      000000F8H.4 SFRSYM    DATA     BIT       SPI0CN0_RXOVRN
      000000D0H.4 SFRSYM    DATA     BIT       PSW_RS1
      00000095H   SFRSYM    DATA     BYTE      SBRLL1
      000000C8H.2 SFRSYM    DATA     BIT       SCON1_RBX
      000000C8H.0 SFRSYM    DATA     BIT       TMR2CN0_T2XCLK0
      000000C8H.1 SFRSYM    DATA     BIT       TMR2CN0_T2XCLK1
      000000C8H.3 SFRSYM    DATA     BIT       SCON1_TBX
      000000E8H.7 SFRSYM    DATA     BIT       ADC0CN0_ADEN
      00000089H   SFRSYM    DATA     BYTE      TMOD
      00000088H   SFRSYM    DATA     BYTE      TCON
      000000CFH   SFRSYM    DATA     BYTE      CRC0FLIP
      000000D0H.0 SFRSYM    DATA     BIT       PSW_PARITY
      000000A8H.4 SFRSYM    DATA     BIT       IE_ES0
      0000009FH   SFRSYM    DATA     BYTE      CMP0MX
      00000098H.0 SFRSYM    DATA     BIT       TMR4CN0_T4XCLK0
      000000A8H.1 SFRSYM    DATA     BIT       IE_ET0
      000000AAH   SFRSYM    DATA     BYTE      CMP1MX
      00000098H.1 SFRSYM    DATA     BIT       TMR4CN0_T4XCLK1
      000000A8H.3 SFRSYM    DATA     BIT       IE_ET1
      000000D4H   SFRSYM    DATA     BYTE      P0SKIP
      000000D8H.0 SFRSYM    DATA     BIT       UART1FCN1_RIE
LX51 LINKER/LOCATER V4.66.97.0                                                        08/08/2020  16:35:51  PAGE 107


      000000A8H.5 SFRSYM    DATA     BIT       IE_ET2
      000000D5H   SFRSYM    DATA     BYTE      P1SKIP
      000000CCH   SFRSYM    DATA     BYTE      P2SKIP
      000000E8H   SFRSYM    DATA     BYTE      ADC0CN0
      000000D8H.4 SFRSYM    DATA     BIT       UART1FCN1_TIE
      000000A8H.0 SFRSYM    DATA     BIT       IE_EX0
      000000B2H   SFRSYM    DATA     BYTE      ADC0CN1
      000000D8H.6 SFRSYM    DATA     BIT       PCA0CN0_CR
      000000A8H.2 SFRSYM    DATA     BIT       IE_EX1
      000000C8H.7 SFRSYM    DATA     BIT       SCON1_OVR
      00000098H.7 SFRSYM    DATA     BIT       SCON0_SMODE
      000000B5H   SFRSYM    DATA     BYTE      DEVICEID
      000000A9H   SFRSYM    DATA     BYTE      CLKSEL
      000000F8H.0 SFRSYM    DATA     BIT       SPI0CN0_SPIEN
      000000F0H   SFRSYM    DATA     BYTE      B
      000000BEH   SFRSYM    DATA     BYTE      ADC0H
      000000E8H.6 SFRSYM    DATA     BIT       ADC0CN0_ADBMEN
      000000CAH   SFRSYM    DATA     WORD      TMR2RL
      000000BDH   SFRSYM    DATA     BYTE      ADC0L
      00000092H   SFRSYM    DATA     WORD      TMR3RL
      000000A2H   SFRSYM    DATA     WORD      TMR4RL
      000000D8H   SFRSYM    DATA     BYTE      PCA0CN0
      000000E0H   SFRSYM    DATA     BYTE      ACC
      000000FBH   SFRSYM    DATA     WORD      PCA0CP0
      000000E9H   SFRSYM    DATA     WORD      PCA0CP1
      000000EBH   SFRSYM    DATA     WORD      PCA0CP2
      000000BCH   SFRSYM    DATA     BYTE      I2C0DIN
      000000CEH   SFRSYM    DATA     BYTE      CRC0CN0
      0000008CH   SFRSYM    DATA     BYTE      TH0
      00000086H   SFRSYM    DATA     BYTE      CRC0CN1
      000000B8H.4 SFRSYM    DATA     BIT       IP_PS0
      000000FAH   SFRSYM    DATA     BYTE      UART1FCT
      0000008DH   SFRSYM    DATA     BYTE      TH1
      000000FAH   SFRSYM    DATA     BYTE      PCA0H
      000000F5H   SFRSYM    DATA     BYTE      I2C0FCT
      000000B8H.1 SFRSYM    DATA     BIT       IP_PT0
      000000B8H.3 SFRSYM    DATA     BIT       IP_PT1
      000000C0H.2 SFRSYM    DATA     BIT       SMB0CN0_ARBLOST
      000000B8H.5 SFRSYM    DATA     BIT       IP_PT2
      0000008AH   SFRSYM    DATA     BYTE      TL0
      000000D0H.5 SFRSYM    DATA     BIT       PSW_F0
      000000A8H.6 SFRSYM    DATA     BIT       IE_ESPI0
      0000008BH   SFRSYM    DATA     BYTE      TL1
      000000F9H   SFRSYM    DATA     BYTE      PCA0L
      000000C0H.0 SFRSYM    DATA     BIT       SMB0CN0_SI
      000000D0H.1 SFRSYM    DATA     BIT       PSW_F1
      00000080H.0 SFRSYM    DATA     BIT       P0_B0
      000000B8H.0 SFRSYM    DATA     BIT       IP_PX0
      00000090H.0 SFRSYM    DATA     BIT       P1_B0
      00000080H.1 SFRSYM    DATA     BIT       P0_B1
      000000B8H.2 SFRSYM    DATA     BIT       IP_PX1
      0000009EH   SFRSYM    DATA     BYTE      UART1LIN
      0000009BH   SFRSYM    DATA     BYTE      CMP0CN0
      00000088H.1 SFRSYM    DATA     BIT       TCON_IE0
      000000A0H.0 SFRSYM    DATA     BIT       P2_B0
      00000090H.1 SFRSYM    DATA     BIT       P1_B1
      00000080H.2 SFRSYM    DATA     BIT       P0_B2
      000000BFH   SFRSYM    DATA     BYTE      CMP1CN0
      00000099H   SFRSYM    DATA     BYTE      CMP0CN1
      00000088H.3 SFRSYM    DATA     BIT       TCON_IE1
      000000B0H.0 SFRSYM    DATA     BIT       P3_B0
      000000A0H.1 SFRSYM    DATA     BIT       P2_B1
LX51 LINKER/LOCATER V4.66.97.0                                                        08/08/2020  16:35:51  PAGE 108


      00000090H.2 SFRSYM    DATA     BIT       P1_B2
      00000080H.3 SFRSYM    DATA     BIT       P0_B3
      000000C0H   SFRSYM    DATA     BYTE      SMB0CN0
      000000ACH   SFRSYM    DATA     BYTE      CMP1CN1
      000000B0H.1 SFRSYM    DATA     BIT       P3_B1
      000000A0H.2 SFRSYM    DATA     BIT       P2_B2
      00000090H.3 SFRSYM    DATA     BIT       P1_B3
      00000080H.4 SFRSYM    DATA     BIT       P0_B4
      000000A0H.3 SFRSYM    DATA     BIT       P2_B3
      00000090H.4 SFRSYM    DATA     BIT       P1_B4
      00000080H.5 SFRSYM    DATA     BIT       P0_B5
      000000D8H.1 SFRSYM    DATA     BIT       UART1FCN1_RXTO0
      00000090H.5 SFRSYM    DATA     BIT       P1_B5
      00000080H.6 SFRSYM    DATA     BIT       P0_B6
      000000F5H   SFRSYM    DATA     BYTE      EIP1H
      000000D8H.2 SFRSYM    DATA     BIT       UART1FCN1_RXTO1
      00000090H.6 SFRSYM    DATA     BIT       P1_B6
      00000080H.7 SFRSYM    DATA     BIT       P0_B7
      000000C5H   SFRSYM    DATA     BYTE      SMB0RXLN
      000000F6H   SFRSYM    DATA     BYTE      EIP2H
      00000090H.7 SFRSYM    DATA     BIT       P1_B7
      00000083H   SFRSYM    DATA     BYTE      DPH
      000000C4H   SFRSYM    DATA     BYTE      ADC0GTH
      000000C8H.7 SFRSYM    DATA     BIT       TMR2CN0_TF2H
      000000C8H.3 SFRSYM    DATA     BIT       TMR2CN0_T2SPLIT
      000000D0H.6 SFRSYM    DATA     BIT       PSW_AC
      000000F8H   SFRSYM    DATA     BYTE      SPI0CN0
      000000C7H   SFRSYM    DATA     BYTE      HFO0CAL
      00000088H.5 SFRSYM    DATA     BIT       TCON_TF0
      00000098H.0 SFRSYM    DATA     BIT       SCON0_RI
      000000D6H   SFRSYM    DATA     BYTE      HFO1CAL
      00000082H   SFRSYM    DATA     BYTE      DPL
      00000088H.7 SFRSYM    DATA     BIT       TCON_TF1
      000000C8H.0 SFRSYM    DATA     BIT       SCON1_RI
      00000099H   SFRSYM    DATA     BYTE      SBUF0
      00000087H   SFRSYM    DATA     BYTE      PCON0
      000000F2H   SFRSYM    DATA     BYTE      IPH
      000000C3H   SFRSYM    DATA     BYTE      ADC0GTL
      00000098H.7 SFRSYM    DATA     BIT       TMR4CN0_TF4H
      00000098H.3 SFRSYM    DATA     BIT       TMR4CN0_T4SPLIT
      000000C8H.6 SFRSYM    DATA     BIT       TMR2CN0_TF2L
      00000098H.1 SFRSYM    DATA     BIT       SCON0_TI
      000000E8H.0 SFRSYM    DATA     BIT       ADC0CN0_ADCM0
      00000092H   SFRSYM    DATA     BYTE      SBUF1
      0000009AH   SFRSYM    DATA     BYTE      PCON1
      000000C6H   SFRSYM    DATA     BYTE      ADC0LTH
      00000088H.0 SFRSYM    DATA     BIT       TCON_IT0
      000000C8H.1 SFRSYM    DATA     BIT       SCON1_TI
      000000E8H.1 SFRSYM    DATA     BIT       ADC0CN0_ADCM1
      000000EFH   SFRSYM    DATA     BYTE      RSTSRC
      000000FDH   SFRSYM    DATA     BYTE      P0MAT
      000000DEH   SFRSYM    DATA     BYTE      CRC0DAT
      00000088H.2 SFRSYM    DATA     BIT       TCON_IT1
      000000E8H.2 SFRSYM    DATA     BIT       ADC0CN0_ADCM2
      000000D7H   SFRSYM    DATA     BYTE      SFRSTACK
      00000098H   SFRSYM    DATA     BYTE      SCON0
      000000F6H   SFRSYM    DATA     BYTE      PRTDRV
      000000EDH   SFRSYM    DATA     BYTE      P1MAT
      000000E8H.3 SFRSYM    DATA     BIT       ADC0CN0_ADWINT
      00000095H   SFRSYM    DATA     WORD      SBRL1
      00000093H   SFRSYM    DATA     BYTE      SMOD1
      000000C8H   SFRSYM    DATA     BYTE      SCON1
LX51 LINKER/LOCATER V4.66.97.0                                                        08/08/2020  16:35:51  PAGE 109


      000000FBH   SFRSYM    DATA     BYTE      P2MAT
      00000098H.6 SFRSYM    DATA     BIT       TMR4CN0_TF4L
      000000E8H.4 SFRSYM    DATA     BIT       ADC0CN0_ADBUSY
      000000D6H   SFRSYM    DATA     BYTE      SMB0ADM
      000000C5H   SFRSYM    DATA     BYTE      ADC0LTL
      000000F8H.5 SFRSYM    DATA     BIT       SPI0CN0_MODF
      000000B8H.6 SFRSYM    DATA     BIT       IP_PSPI0
      0000009CH   SFRSYM    DATA     BYTE      PCA0CLR
      000000C8H   SFRSYM    DATA     BYTE      TMR2CN0
      00000091H   SFRSYM    DATA     BYTE      TMR3CN0
      000000FDH   SFRSYM    DATA     BYTE      TMR2CN1
      00000098H   SFRSYM    DATA     BYTE      TMR4CN0
      000000FEH   SFRSYM    DATA     BYTE      TMR3CN1
      000000FFH   SFRSYM    DATA     BYTE      TMR4CN1
      000000D7H   SFRSYM    DATA     BYTE      SMB0ADR
      00000088H.4 SFRSYM    DATA     BIT       TCON_TR0
      000000C8H.4 SFRSYM    DATA     BIT       TMR2CN0_TF2CEN
      00000088H.6 SFRSYM    DATA     BIT       TCON_TR1
      000000C2H   SFRSYM    DATA     BYTE      SMB0DAT
      000000CDH   SFRSYM    DATA     BYTE      TMR2H
      000000A1H   SFRSYM    DATA     BYTE      SPI0CFG
      00000095H   SFRSYM    DATA     BYTE      TMR3H
      000000EFH   SFRSYM    DATA     BYTE      HFOCN
      000000D3H   SFRSYM    DATA     BYTE      CRC0CNT
      000000A5H   SFRSYM    DATA     BYTE      TMR4H
      00000098H.4 SFRSYM    DATA     BIT       TMR4CN0_TF4CEN
      000000EFH   SFRSYM    DATA     BYTE      SMB0FCT
      00000096H   SFRSYM    DATA     BYTE      PCA0POL
      000000CCH   SFRSYM    DATA     BYTE      TMR2L
      000000F8H.7 SFRSYM    DATA     BIT       SPI0CN0_SPIF
      00000094H   SFRSYM    DATA     BYTE      TMR3L
      000000DFH   SFRSYM    DATA     BYTE      ADC0PWR
      000000A8H.7 SFRSYM    DATA     BIT       IE_EA
      000000A4H   SFRSYM    DATA     BYTE      TMR4L
      000000C8H.5 SFRSYM    DATA     BIT       TMR2CN0_TF2LEN
      000000F8H.6 SFRSYM    DATA     BIT       SPI0CN0_WCOL
      000000F8H.2 SFRSYM    DATA     BIT       SPI0CN0_NSSMD0
      000000D0H.7 SFRSYM    DATA     BIT       PSW_CY
      0000009DH   SFRSYM    DATA     BYTE      UART1FCN0
      000000A3H   SFRSYM    DATA     BYTE      SPI0DAT
      000000ADH   SFRSYM    DATA     BYTE      I2C0FCN0
      000000F8H.3 SFRSYM    DATA     BIT       SPI0CN0_NSSMD1
      000000BDH   SFRSYM    DATA     WORD      ADC0
      000000D8H   SFRSYM    DATA     BYTE      UART1FCN1
      000000ABH   SFRSYM    DATA     BYTE      I2C0FCN1
      00000098H.5 SFRSYM    DATA     BIT       TMR4CN0_TF4LEN
      000000D0H   SFRSYM    DATA     BYTE      PSW
      000000F7H   SFRSYM    DATA     BYTE      PCA0PWM
      000000F7H   SFRSYM    DATA     BYTE      SPI0FCT
      000000B6H   SFRSYM    DATA     BYTE      REVID
      000000B7H   SFRSYM    DATA     BYTE      FLKEY
      000000B3H   SFRSYM    DATA     BYTE      ADC0AC

      0100000EH   BLOCK     CODE     ---       LVL=0
      ---         BLOCKEND  ---      ---       LVL=0

      01002E64H   BLOCK     CODE     ---       LVL=0
      01002E64H   LINE      CODE     ---       #44
      01002E64H   LINE      CODE     ---       #45
      01002E64H   LINE      CODE     ---       #46
      01002E64H   LINE      CODE     ---       #47
      01002E67H   LINE      CODE     ---       #49
LX51 LINKER/LOCATER V4.66.97.0                                                        08/08/2020  16:35:51  PAGE 110


      01002E69H   LINE      CODE     ---       #50
      01002E6BH   LINE      CODE     ---       #51
      01002E6DH   LINE      CODE     ---       #52
      01002E6FH   LINE      CODE     ---       #54
      01002E72H   LINE      CODE     ---       #58
      01002E74H   LINE      CODE     ---       #59
      01002E76H   LINE      CODE     ---       #60
      01002E78H   LINE      CODE     ---       #61
      01002E7AH   LINE      CODE     ---       #62
      01002E7CH   LINE      CODE     ---       #63
      01002E7EH   LINE      CODE     ---       #65
      01002E81H   LINE      CODE     ---       #74
      01002E84H   LINE      CODE     ---       #76
      01002E86H   LINE      CODE     ---       #78
      01002E89H   LINE      CODE     ---       #79
      01002E8CH   LINE      CODE     ---       #80
      01002E8FH   LINE      CODE     ---       #81
      01002E91H   LINE      CODE     ---       #83
      01002E94H   LINE      CODE     ---       #84
      ---         BLOCKEND  ---      ---       LVL=0

      01003225H   BLOCK     CODE     ---       LVL=0
      01003225H   LINE      CODE     ---       #86
      01003225H   LINE      CODE     ---       #87
      01003225H   LINE      CODE     ---       #88
      0100322BH   LINE      CODE     ---       #89
      01003231H   LINE      CODE     ---       #90
      ---         BLOCKEND  ---      ---       LVL=0

      01000003H   BLOCK     CODE     ---       LVL=0
      01000003H   LINE      CODE     ---       #91
      01000003H   LINE      CODE     ---       #92
      01000003H   LINE      CODE     ---       #93
      01000005H   LINE      CODE     ---       #94
      0100000AH   LINE      CODE     ---       #95
      ---         BLOCKEND  ---      ---       LVL=0

      01003019H   BLOCK     CODE     ---       LVL=0
      00000007H   SYMBOL    DATA     BYTE      CH
      01003019H   LINE      CODE     ---       #97
      01003019H   LINE      CODE     ---       #98
      01003019H   LINE      CODE     ---       #99
      01003019H   LINE      CODE     ---       #100
      0100301CH   LINE      CODE     ---       #101
      0100301EH   LINE      CODE     ---       #102
      01003024H   LINE      CODE     ---       #103
      01003024H   LINE      CODE     ---       #104
      01003027H   LINE      CODE     ---       #105
      01003027H   LINE      CODE     ---       #106
      0100302DH   LINE      CODE     ---       #107
      0100302DH   LINE      CODE     ---       #108
      01003030H   LINE      CODE     ---       #109
      01003030H   LINE      CODE     ---       #110
      01003036H   LINE      CODE     ---       #111
      01003036H   LINE      CODE     ---       #112
      01003039H   LINE      CODE     ---       #113
      01003039H   LINE      CODE     ---       #114
      0100303BH   LINE      CODE     ---       #115
      0100303EH   LINE      CODE     ---       #116
      ---         BLOCKEND  ---      ---       LVL=0

      0100303FH   BLOCK     CODE     ---       LVL=0
LX51 LINKER/LOCATER V4.66.97.0                                                        08/08/2020  16:35:51  PAGE 111


      00000007H   SYMBOL    DATA     BYTE      CH
      0100303FH   LINE      CODE     ---       #118
      0100303FH   LINE      CODE     ---       #119
      0100303FH   LINE      CODE     ---       #120
      0100303FH   LINE      CODE     ---       #121
      01003042H   LINE      CODE     ---       #122
      01003044H   LINE      CODE     ---       #123
      0100304AH   LINE      CODE     ---       #124
      0100304AH   LINE      CODE     ---       #125
      0100304DH   LINE      CODE     ---       #126
      0100304DH   LINE      CODE     ---       #127
      01003053H   LINE      CODE     ---       #128
      01003053H   LINE      CODE     ---       #129
      01003056H   LINE      CODE     ---       #130
      01003056H   LINE      CODE     ---       #131
      0100305CH   LINE      CODE     ---       #132
      0100305CH   LINE      CODE     ---       #133
      0100305FH   LINE      CODE     ---       #134
      0100305FH   LINE      CODE     ---       #135
      01003061H   LINE      CODE     ---       #136
      01003064H   LINE      CODE     ---       #144
      ---         BLOCKEND  ---      ---       LVL=0

      01000076H   BLOCK     CODE     ---       LVL=0
      01000076H   LINE      CODE     ---       #148
      01000076H   LINE      CODE     ---       #149
      01000076H   LINE      CODE     ---       #150
      01000076H   LINE      CODE     ---       #151
      01000079H   LINE      CODE     ---       #153
      0100007BH   LINE      CODE     ---       #154
      0100007DH   LINE      CODE     ---       #155
      0100007FH   LINE      CODE     ---       #156
      01000081H   LINE      CODE     ---       #157
      01000084H   LINE      CODE     ---       #158
      01000087H   LINE      CODE     ---       #159
      0100008AH   LINE      CODE     ---       #160
      0100008DH   LINE      CODE     ---       #161
      0100008FH   LINE      CODE     ---       #162
      01000092H   LINE      CODE     ---       #163
      01000095H   LINE      CODE     ---       #164
      01000097H   LINE      CODE     ---       #166
      0100009AH   LINE      CODE     ---       #167
      ---         BLOCKEND  ---      ---       LVL=0

      0100318FH   BLOCK     CODE     ---       LVL=0
      0100318FH   LINE      CODE     ---       #173
      0100318FH   LINE      CODE     ---       #174
      0100318FH   LINE      CODE     ---       #175
      01003192H   LINE      CODE     ---       #176
      01003195H   LINE      CODE     ---       #177
      01003198H   LINE      CODE     ---       #178
      0100319BH   LINE      CODE     ---       #179
      0100319EH   LINE      CODE     ---       #180
      010031A0H   LINE      CODE     ---       #181
      010031A2H   LINE      CODE     ---       #182
      010031A5H   LINE      CODE     ---       #183
      010031A8H   LINE      CODE     ---       #185
      010031AAH   LINE      CODE     ---       #186
      ---         BLOCKEND  ---      ---       LVL=0

      01003065H   BLOCK     CODE     ---       LVL=0
      01003065H   LINE      CODE     ---       #210
LX51 LINKER/LOCATER V4.66.97.0                                                        08/08/2020  16:35:51  PAGE 112


      01003065H   LINE      CODE     ---       #211
      01003065H   LINE      CODE     ---       #212
      01003068H   LINE      CODE     ---       #216
      0100306BH   LINE      CODE     ---       #217
      0100306EH   LINE      CODE     ---       #218
      01003071H   LINE      CODE     ---       #219
      01003074H   LINE      CODE     ---       #221
      01003077H   LINE      CODE     ---       #222
      0100307AH   LINE      CODE     ---       #224
      0100307DH   LINE      CODE     ---       #225
      0100307FH   LINE      CODE     ---       #226
      01003082H   LINE      CODE     ---       #227
      01003085H   LINE      CODE     ---       #228
      01003088H   LINE      CODE     ---       #230
      0100308AH   LINE      CODE     ---       #231
      ---         BLOCKEND  ---      ---       LVL=0

      01000026H   BLOCK     CODE     ---       LVL=0
      01000026H   LINE      CODE     ---       #233
      01000026H   LINE      CODE     ---       #234
      01000026H   LINE      CODE     ---       #235
      01000028H   LINE      CODE     ---       #236
      0100002AH   LINE      CODE     ---       #237
      ---         BLOCKEND  ---      ---       LVL=0

      0100308BH   BLOCK     CODE     ---       LVL=0
      0100308BH   LINE      CODE     ---       #247
      0100308BH   LINE      CODE     ---       #248
      0100308BH   LINE      CODE     ---       #249
      0100308BH   LINE      CODE     ---       #250
      0100308EH   LINE      CODE     ---       #251
      01003090H   LINE      CODE     ---       #252
      01003092H   LINE      CODE     ---       #253
      01003094H   LINE      CODE     ---       #254
      01003096H   LINE      CODE     ---       #255
      01003099H   LINE      CODE     ---       #256
      0100309CH   LINE      CODE     ---       #257
      0100309FH   LINE      CODE     ---       #258
      010030A1H   LINE      CODE     ---       #259
      010030A4H   LINE      CODE     ---       #260
      010030A7H   LINE      CODE     ---       #261
      010030AAH   LINE      CODE     ---       #263
      010030ACH   LINE      CODE     ---       #265
      010030AFH   LINE      CODE     ---       #266
      ---         BLOCKEND  ---      ---       LVL=0

      010030F6H   BLOCK     CODE     ---       LVL=0
      010030F6H   LINE      CODE     ---       #268
      010030F6H   LINE      CODE     ---       #269
      010030F6H   LINE      CODE     ---       #270
      010030F6H   LINE      CODE     ---       #271
      010030F9H   LINE      CODE     ---       #273
      010030FBH   LINE      CODE     ---       #277
      010030FEH   LINE      CODE     ---       #278
      01003101H   LINE      CODE     ---       #279
      01003104H   LINE      CODE     ---       #280
      01003107H   LINE      CODE     ---       #281
      0100310AH   LINE      CODE     ---       #282
      0100310DH   LINE      CODE     ---       #283
      01003110H   LINE      CODE     ---       #284
      01003113H   LINE      CODE     ---       #286
      01003116H   LINE      CODE     ---       #287
LX51 LINKER/LOCATER V4.66.97.0                                                        08/08/2020  16:35:51  PAGE 113


      ---         BLOCKEND  ---      ---       LVL=0

      0100320FH   BLOCK     CODE     ---       LVL=0
      0100320FH   LINE      CODE     ---       #289
      0100320FH   LINE      CODE     ---       #290
      0100320FH   LINE      CODE     ---       #291
      0100320FH   LINE      CODE     ---       #292
      01003212H   LINE      CODE     ---       #294
      01003215H   LINE      CODE     ---       #295
      01003218H   LINE      CODE     ---       #296
      0100321BH   LINE      CODE     ---       #297
      0100321EH   LINE      CODE     ---       #298
      01003221H   LINE      CODE     ---       #300
      01003224H   LINE      CODE     ---       #301
      ---         BLOCKEND  ---      ---       LVL=0

      01003232H   BLOCK     CODE     ---       LVL=0
      01003232H   LINE      CODE     ---       #303
      01003232H   LINE      CODE     ---       #304
      01003232H   LINE      CODE     ---       #305
      01003232H   LINE      CODE     ---       #306
      01003235H   LINE      CODE     ---       #308
      01003238H   LINE      CODE     ---       #309
      0100323BH   LINE      CODE     ---       #311
      0100323EH   LINE      CODE     ---       #312
      ---         BLOCKEND  ---      ---       LVL=0

      01002E95H   BLOCK     CODE     ---       LVL=0
      00000006H   SYMBOL    DATA     WORD      byTime
      01002E95H   BLOCK     CODE     NEAR LAB  LVL=1
      00000006H   SYMBOL    DATA     WORD      Temp
      ---         BLOCKEND  ---      ---       LVL=1
      01002E95H   LINE      CODE     ---       #362
      01002E95H   LINE      CODE     ---       #363
      01002E95H   LINE      CODE     ---       #366
      01002E95H   LINE      CODE     ---       #367
      01002E98H   LINE      CODE     ---       #369
      01002EA3H   LINE      CODE     ---       #370
      01002EACH   LINE      CODE     ---       #371
      01002EAFH   LINE      CODE     ---       #372
      01002EB2H   LINE      CODE     ---       #373
      01002EB4H   LINE      CODE     ---       #374
      01002EB7H   LINE      CODE     ---       #375
      01002EB7H   LINE      CODE     ---       #376
      01002EBAH   LINE      CODE     ---       #377
      01002EBCH   LINE      CODE     ---       #378
      01002EBEH   LINE      CODE     ---       #379
      01002EC0H   LINE      CODE     ---       #381
      01002EC3H   LINE      CODE     ---       #382
      ---         BLOCKEND  ---      ---       LVL=0

      0100002EH   BLOCK     CODE     ---       LVL=0
      00000004H   SYMBOL    DATA     WORD      byTime
      01000032H   BLOCK     CODE     NEAR LAB  LVL=1
      00000002H   SYMBOL    DATA     WORD      i
      ---         BLOCKEND  ---      ---       LVL=1
      0100002EH   LINE      CODE     ---       #387
      01000032H   LINE      CODE     ---       #388
      01000032H   LINE      CODE     ---       #390
      0100003CH   LINE      CODE     ---       #391
      0100003CH   LINE      CODE     ---       #392
      01000043H   LINE      CODE     ---       #393
LX51 LINKER/LOCATER V4.66.97.0                                                        08/08/2020  16:35:51  PAGE 114


      0100004AH   LINE      CODE     ---       #394
      ---         BLOCKEND  ---      ---       LVL=0

      01002A68H   BLOCK     CODE     ---       LVL=0
      01002A68H   LINE      CODE     ---       #400
      01002A85H   LINE      CODE     ---       #402
      01002A8BH   LINE      CODE     ---       #403
      01002AA0H   LINE      CODE     ---       #404
      01002AA0H   LINE      CODE     ---       #405
      01002AA7H   LINE      CODE     ---       #406
      01002AACH   LINE      CODE     ---       #407
      01002AACH   LINE      CODE     ---       #408
      01002AAFH   LINE      CODE     ---       #409
      01002AB1H   LINE      CODE     ---       #410
      ---         BLOCKEND  ---      ---       LVL=0

      01000051H   BLOCK     CODE     ---       LVL=0
      01000051H   LINE      CODE     ---       #415
      01000051H   LINE      CODE     ---       #418
      ---         BLOCKEND  ---      ---       LVL=0

      01003268H   BLOCK     CODE     ---       LVL=0
      01003268H   LINE      CODE     ---       #424
      01003268H   LINE      CODE     ---       #426
      01003268H   LINE      CODE     ---       #427
      0100326BH   LINE      CODE     ---       #428
      0100326DH   LINE      CODE     ---       #429
      01003270H   LINE      CODE     ---       #430
      ---         BLOCKEND  ---      ---       LVL=0

      01002EC4H   BLOCK     CODE     ---       LVL=0
      01002EC4H   LINE      CODE     ---       #436
      01002ECCH   LINE      CODE     ---       #438
      01002EDBH   LINE      CODE     ---       #439
      01002EE7H   LINE      CODE     ---       #440
      01002EEAH   LINE      CODE     ---       #441
      ---         BLOCKEND  ---      ---       LVL=0

      ---         MODULE    ---      ---       UART
 S130:00000022H   PUBLIC    DATA     BYTE      Uart0RX_OK_Flag
 S130:00000021H   PUBLIC    DATA     BYTE      Uart0TX_NOTOK_Flag
 S130:00000009H   PUBLIC    DATA     ---       gUart0ReceivePduInfo
 S130:00000008H   PUBLIC    DATA     BYTE      Uart0TX_ALL_Flag
 S130:00000000H   PUBLIC    DATA     ---       gslinContext
      01002ACCH   PUBLIC    CODE     ---       UART0_ISR
      01001742H   PUBLIC    CODE     ---       _UART0_RXData
      010031DFH   PUBLIC    CODE     ---       UART0_Moudle_Dis
      010031ABH   PUBLIC    CODE     ---       Uart0_Init
      000000A2H   SFRSYM    DATA     BYTE      SPI0CKR
      00000080H   SFRSYM    DATA     BYTE      P0
      000000C8H.6 SFRSYM    DATA     BIT       SCON1_PERR
      000000D0H.2 SFRSYM    DATA     BIT       PSW_OV
      00000090H   SFRSYM    DATA     BYTE      P1
      000000F8H.1 SFRSYM    DATA     BIT       SPI0CN0_TXNF
      00000097H   SFRSYM    DATA     BYTE      WDTCN
      000000A0H   SFRSYM    DATA     BYTE      P2
      000000B0H   SFRSYM    DATA     BYTE      P3
      000000BCH   SFRSYM    DATA     BYTE      ADC0CF
      000000C0H.7 SFRSYM    DATA     BIT       SMB0CN0_MASTER
      000000F9H   SFRSYM    DATA     WORD      PCA0
      000000E6H   SFRSYM    DATA     BYTE      EIE1
      000000C0H.1 SFRSYM    DATA     BIT       SMB0CN0_ACK
LX51 LINKER/LOCATER V4.66.97.0                                                        08/08/2020  16:35:51  PAGE 115


      000000CEH   SFRSYM    DATA     BYTE      EIE2
      0000008FH   SFRSYM    DATA     BYTE      PSCTL
      000000E4H   SFRSYM    DATA     BYTE      IT01CF
      000000C0H.6 SFRSYM    DATA     BIT       SMB0CN0_TXMODE
      000000ADH   SFRSYM    DATA     BYTE      DERIVID
      000000A7H   SFRSYM    DATA     BYTE      SFRPAGE
      000000A4H   SFRSYM    DATA     BYTE      P0MDOUT
      000000A5H   SFRSYM    DATA     BYTE      P1MDOUT
      000000E8H.5 SFRSYM    DATA     BIT       ADC0CN0_ADINT
      000000CBH   SFRSYM    DATA     BYTE      TMR2RLH
      000000A6H   SFRSYM    DATA     BYTE      P2MDOUT
      000000A8H   SFRSYM    DATA     BYTE      IE
      00000093H   SFRSYM    DATA     BYTE      TMR3RLH
      0000009CH   SFRSYM    DATA     BYTE      P3MDOUT
      000000A3H   SFRSYM    DATA     BYTE      TMR4RLH
      000000F3H   SFRSYM    DATA     BYTE      EIP1
      000000F4H   SFRSYM    DATA     BYTE      EIP2
      00000098H.2 SFRSYM    DATA     BIT       SCON0_RB8
      000000CAH   SFRSYM    DATA     BYTE      TMR2RLL
      000000FCH   SFRSYM    DATA     BYTE      PCA0CPH0
      00000092H   SFRSYM    DATA     BYTE      TMR3RLL
      000000EAH   SFRSYM    DATA     BYTE      PCA0CPH1
      00000098H.3 SFRSYM    DATA     BIT       SCON0_TB8
      000000F0H.0 SFRSYM    DATA     BIT       B_B0
      00000082H   SFRSYM    DATA     WORD      DP
      000000A2H   SFRSYM    DATA     BYTE      TMR4RLL
      000000ECH   SFRSYM    DATA     BYTE      PCA0CPH2
      000000F0H.1 SFRSYM    DATA     BIT       B_B1
      000000C3H   SFRSYM    DATA     WORD      ADC0GT
      000000BDH   SFRSYM    DATA     BYTE      I2C0SLAD
      000000D8H.3 SFRSYM    DATA     BIT       UART1FCN1_RFRQ
      000000F0H.2 SFRSYM    DATA     BIT       B_B2
      000000CFH   SFRSYM    DATA     BYTE      SFRPGCN
      000000FBH   SFRSYM    DATA     BYTE      PCA0CPL0
      000000F0H.3 SFRSYM    DATA     BIT       B_B3
      000000D9H   SFRSYM    DATA     BYTE      PCA0MD
      000000DAH   SFRSYM    DATA     BYTE      PCA0CPM0
      000000E9H   SFRSYM    DATA     BYTE      PCA0CPL1
      000000D8H.7 SFRSYM    DATA     BIT       UART1FCN1_TFRQ
      000000F0H.4 SFRSYM    DATA     BIT       B_B4
      000000DBH   SFRSYM    DATA     BYTE      PCA0CPM1
      000000EBH   SFRSYM    DATA     BYTE      PCA0CPL2
      000000F0H.5 SFRSYM    DATA     BIT       B_B5
      000000DCH   SFRSYM    DATA     BYTE      PCA0CPM2
      000000B8H   SFRSYM    DATA     BYTE      IP
      000000B9H   SFRSYM    DATA     BYTE      ADC0TK
      000000F0H.6 SFRSYM    DATA     BIT       B_B6
      000000C5H   SFRSYM    DATA     WORD      ADC0LT
      000000D8H.6 SFRSYM    DATA     BIT       UART1FCN1_TXNF
      00000098H.5 SFRSYM    DATA     BIT       SCON0_MCE
      000000F0H.7 SFRSYM    DATA     BIT       B_B7
      000000C3H   SFRSYM    DATA     BYTE      SMB0FCN0
      000000E1H   SFRSYM    DATA     BYTE      XBR0
      000000C4H   SFRSYM    DATA     BYTE      SMB0FCN1
      000000C1H   SFRSYM    DATA     BYTE      SMB0CF
      000000E2H   SFRSYM    DATA     BYTE      XBR1
      000000C1H   SFRSYM    DATA     BYTE      PFE0CN
      000000E7H   SFRSYM    DATA     BYTE      EMI0CN
      000000C0H.5 SFRSYM    DATA     BIT       SMB0CN0_STA
      000000E3H   SFRSYM    DATA     BYTE      XBR2
      000000BBH   SFRSYM    DATA     BYTE      ADC0MX
      000000E0H.0 SFRSYM    DATA     BIT       ACC_ACC0
LX51 LINKER/LOCATER V4.66.97.0                                                        08/08/2020  16:35:51  PAGE 116


      000000D1H   SFRSYM    DATA     BYTE      REF0CN
      0000008EH   SFRSYM    DATA     BYTE      CKCON0
      000000E0H.1 SFRSYM    DATA     BIT       ACC_ACC1
      000000C9H   SFRSYM    DATA     BYTE      REG0CN
      000000DDH   SFRSYM    DATA     BYTE      CRC0IN
      000000A6H   SFRSYM    DATA     BYTE      CKCON1
      000000C8H.2 SFRSYM    DATA     BIT       TMR2CN0_TR2
      000000E0H.2 SFRSYM    DATA     BIT       ACC_ACC2
      000000C6H   SFRSYM    DATA     BYTE      REG1CN
      000000E0H.3 SFRSYM    DATA     BIT       ACC_ACC3
      00000081H   SFRSYM    DATA     BYTE      SP
      0000009DH   SFRSYM    DATA     BYTE      CMP0MD
      000000E0H.4 SFRSYM    DATA     BIT       ACC_ACC4
      000000B1H   SFRSYM    DATA     BYTE      LFO0CN
      000000ABH   SFRSYM    DATA     BYTE      CMP1MD
      000000D8H.0 SFRSYM    DATA     BIT       PCA0CN0_CCF0
      000000E0H.5 SFRSYM    DATA     BIT       ACC_ACC5
      00000098H.2 SFRSYM    DATA     BIT       TMR4CN0_TR4
      000000D8H.1 SFRSYM    DATA     BIT       PCA0CN0_CCF1
      000000E0H.6 SFRSYM    DATA     BIT       ACC_ACC6
      000000CCH   SFRSYM    DATA     WORD      TMR2
      0000009AH   SFRSYM    DATA     BYTE      SPI0FCN0
      000000D8H.2 SFRSYM    DATA     BIT       PCA0CN0_CCF2
      000000E0H.7 SFRSYM    DATA     BIT       ACC_ACC7
      00000094H   SFRSYM    DATA     WORD      TMR3
      0000009BH   SFRSYM    DATA     BYTE      SPI0FCN1
      000000A4H   SFRSYM    DATA     WORD      TMR4
      00000094H   SFRSYM    DATA     BYTE      SBCON1
      000000C0H.3 SFRSYM    DATA     BIT       SMB0CN0_ACKRQ
      000000FFH   SFRSYM    DATA     BYTE      VDM0CN
      000000F1H   SFRSYM    DATA     BYTE      P0MDIN
      00000098H.4 SFRSYM    DATA     BIT       SCON0_REN
      000000ACH   SFRSYM    DATA     BYTE      SMB0TC
      000000F2H   SFRSYM    DATA     BYTE      P1MDIN
      000000C8H.4 SFRSYM    DATA     BIT       SCON1_REN
      000000F3H   SFRSYM    DATA     BYTE      P2MDIN
      000000C0H.4 SFRSYM    DATA     BIT       SMB0CN0_STO
      000000F4H   SFRSYM    DATA     BYTE      P3MDIN
      000000B9H   SFRSYM    DATA     BYTE      I2C0STAT
      000000BBH   SFRSYM    DATA     BYTE      I2C0DOUT
      00000096H   SFRSYM    DATA     BYTE      SBRLH1
      000000FEH   SFRSYM    DATA     BYTE      P0MASK
      000000D8H.5 SFRSYM    DATA     BIT       UART1FCN1_TXHOLD
      000000EEH   SFRSYM    DATA     BYTE      P1MASK
      000000FCH   SFRSYM    DATA     BYTE      P2MASK
      000000D0H.3 SFRSYM    DATA     BIT       PSW_RS0
      000000D8H.7 SFRSYM    DATA     BIT       PCA0CN0_CF
      0000009EH   SFRSYM    DATA     BYTE      PCA0CENT
      000000BAH   SFRSYM    DATA     BYTE      I2C0CN0
      000000D2H   SFRSYM    DATA     BYTE      CRC0ST
      000000F8H.4 SFRSYM    DATA     BIT       SPI0CN0_RXOVRN
      000000D0H.4 SFRSYM    DATA     BIT       PSW_RS1
      00000095H   SFRSYM    DATA     BYTE      SBRLL1
      000000C8H.2 SFRSYM    DATA     BIT       SCON1_RBX
      000000C8H.0 SFRSYM    DATA     BIT       TMR2CN0_T2XCLK0
      000000C8H.1 SFRSYM    DATA     BIT       TMR2CN0_T2XCLK1
      000000C8H.3 SFRSYM    DATA     BIT       SCON1_TBX
      000000E8H.7 SFRSYM    DATA     BIT       ADC0CN0_ADEN
      00000089H   SFRSYM    DATA     BYTE      TMOD
      00000088H   SFRSYM    DATA     BYTE      TCON
      000000CFH   SFRSYM    DATA     BYTE      CRC0FLIP
      000000D0H.0 SFRSYM    DATA     BIT       PSW_PARITY
LX51 LINKER/LOCATER V4.66.97.0                                                        08/08/2020  16:35:51  PAGE 117


      000000A8H.4 SFRSYM    DATA     BIT       IE_ES0
      0000009FH   SFRSYM    DATA     BYTE      CMP0MX
      00000098H.0 SFRSYM    DATA     BIT       TMR4CN0_T4XCLK0
      000000A8H.1 SFRSYM    DATA     BIT       IE_ET0
      000000AAH   SFRSYM    DATA     BYTE      CMP1MX
      00000098H.1 SFRSYM    DATA     BIT       TMR4CN0_T4XCLK1
      000000A8H.3 SFRSYM    DATA     BIT       IE_ET1
      000000D4H   SFRSYM    DATA     BYTE      P0SKIP
      000000D8H.0 SFRSYM    DATA     BIT       UART1FCN1_RIE
      000000A8H.5 SFRSYM    DATA     BIT       IE_ET2
      000000D5H   SFRSYM    DATA     BYTE      P1SKIP
      000000CCH   SFRSYM    DATA     BYTE      P2SKIP
      000000E8H   SFRSYM    DATA     BYTE      ADC0CN0
      000000D8H.4 SFRSYM    DATA     BIT       UART1FCN1_TIE
      000000A8H.0 SFRSYM    DATA     BIT       IE_EX0
      000000B2H   SFRSYM    DATA     BYTE      ADC0CN1
      000000D8H.6 SFRSYM    DATA     BIT       PCA0CN0_CR
      000000A8H.2 SFRSYM    DATA     BIT       IE_EX1
      000000C8H.7 SFRSYM    DATA     BIT       SCON1_OVR
      00000098H.7 SFRSYM    DATA     BIT       SCON0_SMODE
      000000B5H   SFRSYM    DATA     BYTE      DEVICEID
      000000A9H   SFRSYM    DATA     BYTE      CLKSEL
      000000F8H.0 SFRSYM    DATA     BIT       SPI0CN0_SPIEN
      000000F0H   SFRSYM    DATA     BYTE      B
      000000BEH   SFRSYM    DATA     BYTE      ADC0H
      000000E8H.6 SFRSYM    DATA     BIT       ADC0CN0_ADBMEN
      000000CAH   SFRSYM    DATA     WORD      TMR2RL
      000000BDH   SFRSYM    DATA     BYTE      ADC0L
      00000092H   SFRSYM    DATA     WORD      TMR3RL
      000000A2H   SFRSYM    DATA     WORD      TMR4RL
      000000D8H   SFRSYM    DATA     BYTE      PCA0CN0
      000000E0H   SFRSYM    DATA     BYTE      ACC
      000000FBH   SFRSYM    DATA     WORD      PCA0CP0
      000000E9H   SFRSYM    DATA     WORD      PCA0CP1
      000000EBH   SFRSYM    DATA     WORD      PCA0CP2
      000000BCH   SFRSYM    DATA     BYTE      I2C0DIN
      000000CEH   SFRSYM    DATA     BYTE      CRC0CN0
      0000008CH   SFRSYM    DATA     BYTE      TH0
      00000086H   SFRSYM    DATA     BYTE      CRC0CN1
      000000B8H.4 SFRSYM    DATA     BIT       IP_PS0
      000000FAH   SFRSYM    DATA     BYTE      UART1FCT
      0000008DH   SFRSYM    DATA     BYTE      TH1
      000000FAH   SFRSYM    DATA     BYTE      PCA0H
      000000F5H   SFRSYM    DATA     BYTE      I2C0FCT
      000000B8H.1 SFRSYM    DATA     BIT       IP_PT0
      000000B8H.3 SFRSYM    DATA     BIT       IP_PT1
      000000C0H.2 SFRSYM    DATA     BIT       SMB0CN0_ARBLOST
      000000B8H.5 SFRSYM    DATA     BIT       IP_PT2
      0000008AH   SFRSYM    DATA     BYTE      TL0
      000000D0H.5 SFRSYM    DATA     BIT       PSW_F0
      000000A8H.6 SFRSYM    DATA     BIT       IE_ESPI0
      0000008BH   SFRSYM    DATA     BYTE      TL1
      000000F9H   SFRSYM    DATA     BYTE      PCA0L
      000000C0H.0 SFRSYM    DATA     BIT       SMB0CN0_SI
      000000D0H.1 SFRSYM    DATA     BIT       PSW_F1
      00000080H.0 SFRSYM    DATA     BIT       P0_B0
      000000B8H.0 SFRSYM    DATA     BIT       IP_PX0
      00000090H.0 SFRSYM    DATA     BIT       P1_B0
      00000080H.1 SFRSYM    DATA     BIT       P0_B1
      000000B8H.2 SFRSYM    DATA     BIT       IP_PX1
      0000009EH   SFRSYM    DATA     BYTE      UART1LIN
      0000009BH   SFRSYM    DATA     BYTE      CMP0CN0
LX51 LINKER/LOCATER V4.66.97.0                                                        08/08/2020  16:35:51  PAGE 118


      00000088H.1 SFRSYM    DATA     BIT       TCON_IE0
      000000A0H.0 SFRSYM    DATA     BIT       P2_B0
      00000090H.1 SFRSYM    DATA     BIT       P1_B1
      00000080H.2 SFRSYM    DATA     BIT       P0_B2
      000000BFH   SFRSYM    DATA     BYTE      CMP1CN0
      00000099H   SFRSYM    DATA     BYTE      CMP0CN1
      00000088H.3 SFRSYM    DATA     BIT       TCON_IE1
      000000B0H.0 SFRSYM    DATA     BIT       P3_B0
      000000A0H.1 SFRSYM    DATA     BIT       P2_B1
      00000090H.2 SFRSYM    DATA     BIT       P1_B2
      00000080H.3 SFRSYM    DATA     BIT       P0_B3
      000000C0H   SFRSYM    DATA     BYTE      SMB0CN0
      000000ACH   SFRSYM    DATA     BYTE      CMP1CN1
      000000B0H.1 SFRSYM    DATA     BIT       P3_B1
      000000A0H.2 SFRSYM    DATA     BIT       P2_B2
      00000090H.3 SFRSYM    DATA     BIT       P1_B3
      00000080H.4 SFRSYM    DATA     BIT       P0_B4
      000000A0H.3 SFRSYM    DATA     BIT       P2_B3
      00000090H.4 SFRSYM    DATA     BIT       P1_B4
      00000080H.5 SFRSYM    DATA     BIT       P0_B5
      000000D8H.1 SFRSYM    DATA     BIT       UART1FCN1_RXTO0
      00000090H.5 SFRSYM    DATA     BIT       P1_B5
      00000080H.6 SFRSYM    DATA     BIT       P0_B6
      000000F5H   SFRSYM    DATA     BYTE      EIP1H
      000000D8H.2 SFRSYM    DATA     BIT       UART1FCN1_RXTO1
      00000090H.6 SFRSYM    DATA     BIT       P1_B6
      00000080H.7 SFRSYM    DATA     BIT       P0_B7
      000000C5H   SFRSYM    DATA     BYTE      SMB0RXLN
      000000F6H   SFRSYM    DATA     BYTE      EIP2H
      00000090H.7 SFRSYM    DATA     BIT       P1_B7
      00000083H   SFRSYM    DATA     BYTE      DPH
      000000C4H   SFRSYM    DATA     BYTE      ADC0GTH
      000000C8H.7 SFRSYM    DATA     BIT       TMR2CN0_TF2H
      000000C8H.3 SFRSYM    DATA     BIT       TMR2CN0_T2SPLIT
      000000D0H.6 SFRSYM    DATA     BIT       PSW_AC
      000000F8H   SFRSYM    DATA     BYTE      SPI0CN0
      000000C7H   SFRSYM    DATA     BYTE      HFO0CAL
      00000088H.5 SFRSYM    DATA     BIT       TCON_TF0
      00000098H.0 SFRSYM    DATA     BIT       SCON0_RI
      000000D6H   SFRSYM    DATA     BYTE      HFO1CAL
      00000082H   SFRSYM    DATA     BYTE      DPL
      00000088H.7 SFRSYM    DATA     BIT       TCON_TF1
      000000C8H.0 SFRSYM    DATA     BIT       SCON1_RI
      00000099H   SFRSYM    DATA     BYTE      SBUF0
      00000087H   SFRSYM    DATA     BYTE      PCON0
      000000F2H   SFRSYM    DATA     BYTE      IPH
      000000C3H   SFRSYM    DATA     BYTE      ADC0GTL
      00000098H.7 SFRSYM    DATA     BIT       TMR4CN0_TF4H
      00000098H.3 SFRSYM    DATA     BIT       TMR4CN0_T4SPLIT
      000000C8H.6 SFRSYM    DATA     BIT       TMR2CN0_TF2L
      00000098H.1 SFRSYM    DATA     BIT       SCON0_TI
      000000E8H.0 SFRSYM    DATA     BIT       ADC0CN0_ADCM0
      00000092H   SFRSYM    DATA     BYTE      SBUF1
      0000009AH   SFRSYM    DATA     BYTE      PCON1
      000000C6H   SFRSYM    DATA     BYTE      ADC0LTH
      00000088H.0 SFRSYM    DATA     BIT       TCON_IT0
      000000C8H.1 SFRSYM    DATA     BIT       SCON1_TI
      000000E8H.1 SFRSYM    DATA     BIT       ADC0CN0_ADCM1
      000000EFH   SFRSYM    DATA     BYTE      RSTSRC
      000000FDH   SFRSYM    DATA     BYTE      P0MAT
      000000DEH   SFRSYM    DATA     BYTE      CRC0DAT
      00000088H.2 SFRSYM    DATA     BIT       TCON_IT1
LX51 LINKER/LOCATER V4.66.97.0                                                        08/08/2020  16:35:51  PAGE 119


      000000E8H.2 SFRSYM    DATA     BIT       ADC0CN0_ADCM2
      000000D7H   SFRSYM    DATA     BYTE      SFRSTACK
      00000098H   SFRSYM    DATA     BYTE      SCON0
      000000F6H   SFRSYM    DATA     BYTE      PRTDRV
      000000EDH   SFRSYM    DATA     BYTE      P1MAT
      000000E8H.3 SFRSYM    DATA     BIT       ADC0CN0_ADWINT
      00000095H   SFRSYM    DATA     WORD      SBRL1
      00000093H   SFRSYM    DATA     BYTE      SMOD1
      000000C8H   SFRSYM    DATA     BYTE      SCON1
      000000FBH   SFRSYM    DATA     BYTE      P2MAT
      00000098H.6 SFRSYM    DATA     BIT       TMR4CN0_TF4L
      000000E8H.4 SFRSYM    DATA     BIT       ADC0CN0_ADBUSY
      000000D6H   SFRSYM    DATA     BYTE      SMB0ADM
      000000C5H   SFRSYM    DATA     BYTE      ADC0LTL
      000000F8H.5 SFRSYM    DATA     BIT       SPI0CN0_MODF
      000000B8H.6 SFRSYM    DATA     BIT       IP_PSPI0
      0000009CH   SFRSYM    DATA     BYTE      PCA0CLR
      000000C8H   SFRSYM    DATA     BYTE      TMR2CN0
      00000091H   SFRSYM    DATA     BYTE      TMR3CN0
      000000FDH   SFRSYM    DATA     BYTE      TMR2CN1
      00000098H   SFRSYM    DATA     BYTE      TMR4CN0
      000000FEH   SFRSYM    DATA     BYTE      TMR3CN1
      000000FFH   SFRSYM    DATA     BYTE      TMR4CN1
      000000D7H   SFRSYM    DATA     BYTE      SMB0ADR
      00000088H.4 SFRSYM    DATA     BIT       TCON_TR0
      000000C8H.4 SFRSYM    DATA     BIT       TMR2CN0_TF2CEN
      00000088H.6 SFRSYM    DATA     BIT       TCON_TR1
      000000C2H   SFRSYM    DATA     BYTE      SMB0DAT
      000000CDH   SFRSYM    DATA     BYTE      TMR2H
      000000A1H   SFRSYM    DATA     BYTE      SPI0CFG
      00000095H   SFRSYM    DATA     BYTE      TMR3H
      000000EFH   SFRSYM    DATA     BYTE      HFOCN
      000000D3H   SFRSYM    DATA     BYTE      CRC0CNT
      000000A5H   SFRSYM    DATA     BYTE      TMR4H
      00000098H.4 SFRSYM    DATA     BIT       TMR4CN0_TF4CEN
      000000EFH   SFRSYM    DATA     BYTE      SMB0FCT
      00000096H   SFRSYM    DATA     BYTE      PCA0POL
      000000CCH   SFRSYM    DATA     BYTE      TMR2L
      000000F8H.7 SFRSYM    DATA     BIT       SPI0CN0_SPIF
      00000094H   SFRSYM    DATA     BYTE      TMR3L
      000000DFH   SFRSYM    DATA     BYTE      ADC0PWR
      000000A8H.7 SFRSYM    DATA     BIT       IE_EA
      000000A4H   SFRSYM    DATA     BYTE      TMR4L
      000000C8H.5 SFRSYM    DATA     BIT       TMR2CN0_TF2LEN
      000000F8H.6 SFRSYM    DATA     BIT       SPI0CN0_WCOL
      000000F8H.2 SFRSYM    DATA     BIT       SPI0CN0_NSSMD0
      000000D0H.7 SFRSYM    DATA     BIT       PSW_CY
      0000009DH   SFRSYM    DATA     BYTE      UART1FCN0
      000000A3H   SFRSYM    DATA     BYTE      SPI0DAT
      000000ADH   SFRSYM    DATA     BYTE      I2C0FCN0
      000000F8H.3 SFRSYM    DATA     BIT       SPI0CN0_NSSMD1
      000000BDH   SFRSYM    DATA     WORD      ADC0
      000000D8H   SFRSYM    DATA     BYTE      UART1FCN1
      000000ABH   SFRSYM    DATA     BYTE      I2C0FCN1
      00000098H.5 SFRSYM    DATA     BIT       TMR4CN0_TF4LEN
      000000D0H   SFRSYM    DATA     BYTE      PSW
      000000F7H   SFRSYM    DATA     BYTE      PCA0PWM
      000000F7H   SFRSYM    DATA     BYTE      SPI0FCT
      000000B6H   SFRSYM    DATA     BYTE      REVID
      000000B7H   SFRSYM    DATA     BYTE      FLKEY
      000000B3H   SFRSYM    DATA     BYTE      ADC0AC

LX51 LINKER/LOCATER V4.66.97.0                                                        08/08/2020  16:35:51  PAGE 120


      01002EF3H   BLOCK     CODE     ---       LVL=0
      ---         BLOCKEND  ---      ---       LVL=0

      010031ABH   BLOCK     CODE     ---       LVL=0
      010031ABH   LINE      CODE     ---       #14
      010031ABH   LINE      CODE     ---       #15
      010031ABH   LINE      CODE     ---       #16
      010031ABH   LINE      CODE     ---       #17
      010031AEH   LINE      CODE     ---       #18
      010031B1H   LINE      CODE     ---       #19
      010031B4H   LINE      CODE     ---       #20
      010031B7H   LINE      CODE     ---       #22
      010031BAH   LINE      CODE     ---       #24
      010031BDH   LINE      CODE     ---       #25
      010031C0H   LINE      CODE     ---       #26
      010031C0H   LINE      CODE     ---       #27
      010031C0H   LINE      CODE     ---       #28
      010031C3H   LINE      CODE     ---       #30
      ---         BLOCKEND  ---      ---       LVL=0
      00000007H   SYMBOL    DATA     BYTE      savedPage
      00000007H   SYMBOL    DATA     BYTE      savedPage

      010031DFH   BLOCK     CODE     ---       LVL=0
      010031DFH   LINE      CODE     ---       #57
      010031DFH   LINE      CODE     ---       #58
      010031DFH   LINE      CODE     ---       #59
      010031DFH   LINE      CODE     ---       #60
      010031E2H   LINE      CODE     ---       #61
      010031E5H   LINE      CODE     ---       #62
      010031E8H   LINE      CODE     ---       #63
      010031EBH   LINE      CODE     ---       #65
      010031EEH   LINE      CODE     ---       #67
      010031F1H   LINE      CODE     ---       #68
      010031F4H   LINE      CODE     ---       #69
      010031F4H   LINE      CODE     ---       #70
      010031F4H   LINE      CODE     ---       #71
      010031F7H   LINE      CODE     ---       #72
      ---         BLOCKEND  ---      ---       LVL=0
      00000002H   SYMBOL    DATA     WORD      dataTx
      00000005H   SYMBOL    DATA     BYTE      savedPage

      01001742H   BLOCK     CODE     ---       LVL=0
      00000006H   SYMBOL    DATA     WORD      rxdata
      01001742H   BLOCK     CODE     NEAR LAB  LVL=1
      00000073H   SYMBOL    DATA     BYTE      i
      00000074H   SYMBOL    DATA     ---       pCtt
      ---         BLOCKEND  ---      ---       LVL=1
      01001742H   LINE      CODE     ---       #113
      01001742H   LINE      CODE     ---       #114
      01001742H   LINE      CODE     ---       #117
      0100174BH   LINE      CODE     ---       #188
      01001757H   LINE      CODE     ---       #190
      01001757H   LINE      CODE     ---       #191
      01001766H   LINE      CODE     ---       #192
      01001772H   LINE      CODE     ---       #193
      0100177AH   LINE      CODE     ---       #194
      01001781H   LINE      CODE     ---       #195
      0100178DH   LINE      CODE     ---       #196
      0100178DH   LINE      CODE     ---       #197
      010017A4H   LINE      CODE     ---       #199
      010017A4H   LINE      CODE     ---       #200
      010017B9H   LINE      CODE     ---       #201
LX51 LINKER/LOCATER V4.66.97.0                                                        08/08/2020  16:35:51  PAGE 121


      010017C4H   LINE      CODE     ---       #203
      010017D7H   LINE      CODE     ---       #204
      010017D7H   LINE      CODE     ---       #205
      010017E6H   LINE      CODE     ---       #206
      010017FFH   LINE      CODE     ---       #207
      010017FFH   LINE      CODE     ---       #208
      01001811H   LINE      CODE     ---       #209
      01001811H   LINE      CODE     ---       #210
      0100182EH   LINE      CODE     ---       #211
      0100182EH   LINE      CODE     ---       #212
      01001835H   LINE      CODE     ---       #213
      01001837H   LINE      CODE     ---       #215
      01001837H   LINE      CODE     ---       #216
      0100183FH   LINE      CODE     ---       #217
      01001841H   LINE      CODE     ---       #218
      01001841H   LINE      CODE     ---       #219
      01001845H   LINE      CODE     ---       #220
      01001845H   LINE      CODE     ---       #222
      01001845H   LINE      CODE     ---       #223
      01001850H   LINE      CODE     ---       #224
      01001850H   LINE      CODE     ---       #226
      0100185DH   LINE      CODE     ---       #227
      0100185DH   LINE      CODE     ---       #228
      01001864H   LINE      CODE     ---       #229
      0100186DH   LINE      CODE     ---       #230
      0100187BH   LINE      CODE     ---       #231
      0100187BH   LINE      CODE     ---       #232
      0100187EH   LINE      CODE     ---       #233
      0100187EH   LINE      CODE     ---       #234
      01001884H   LINE      CODE     ---       #235
      01001884H   LINE      CODE     ---       #236
      01001887H   LINE      CODE     ---       #237
      01001889H   LINE      CODE     ---       #244
      01001889H   LINE      CODE     ---       #245
      0100188CH   LINE      CODE     ---       #246
      0100188FH   LINE      CODE     ---       #247
      0100188FH   LINE      CODE     ---       #248
      0100188FH   LINE      CODE     ---       #250
      010018A1H   LINE      CODE     ---       #251
      010018A1H   LINE      CODE     ---       #252
      010018A4H   LINE      CODE     ---       #253
      010018A4H   LINE      CODE     ---       #254
      010018A4H   LINE      CODE     ---       #256
      010018B7H   LINE      CODE     ---       #258
      010018B7H   LINE      CODE     ---       #259
      010018BAH   LINE      CODE     ---       #260
      010018BAH   LINE      CODE     ---       #263
      ---         BLOCKEND  ---      ---       LVL=0

      01002ACCH   BLOCK     CODE     ---       LVL=0
      01002AE9H   BLOCK     CODE     NEAR LAB  LVL=1
      00000072H   SYMBOL    DATA     BYTE      scon0_buff
      00000005H   SYMBOL    DATA     BYTE      sbuf0_buff
      00000006H   SYMBOL    DATA     WORD      data_9bit
      ---         BLOCKEND  ---      ---       LVL=1
      01002ACCH   LINE      CODE     ---       #266
      01002AE9H   LINE      CODE     ---       #270
      01002AE9H   LINE      CODE     ---       #271
      01002AECH   LINE      CODE     ---       #273
      01002AF4H   LINE      CODE     ---       #274
      01002AF4H   LINE      CODE     ---       #275
      01002AF6H   LINE      CODE     ---       #276
LX51 LINKER/LOCATER V4.66.97.0                                                        08/08/2020  16:35:51  PAGE 122


      01002AF8H   LINE      CODE     ---       #277
      01002B06H   LINE      CODE     ---       #278
      01002B09H   LINE      CODE     ---       #279
      01002B09H   LINE      CODE     ---       #281
      01002B11H   LINE      CODE     ---       #282
      01002B11H   LINE      CODE     ---       #283
      01002B13H   LINE      CODE     ---       #284
      01002B15H   LINE      CODE     ---       #285
      01002B15H   LINE      CODE     ---       #286
      ---         BLOCKEND  ---      ---       LVL=0

      ---         MODULE    ---      ---       UARTCFG
      02000235H   PUBLIC    XDATA    ---       MsgRadar_Self_Init
      0200022DH   PUBLIC    XDATA    ---       MsgBCM_Info
      02000225H   PUBLIC    XDATA    ---       MsgBCM_Mode
      0200021DH   PUBLIC    XDATA    ---       MsgBCM_Info_Init
      02000215H   PUBLIC    XDATA    ---       MsgBCM_Mode_Init
      0200020DH   PUBLIC    XDATA    ---       MsgRadar_ReqMode
      020001FDH   PUBLIC    XDATA    ---       MsgRadar_Distance
      020001F5H   PUBLIC    XDATA    ---       MsgRadar_ReqMode_Init
      020001E5H   PUBLIC    XDATA    ---       MsgRadar_Distance_Init
      020001DDH   PUBLIC    XDATA    ---       MsgRadar_Self
      01002E2BH   PUBLIC    CODE     ---       InitUart0ReceiveVar
      01001B83H   PUBLIC    CODE     ---       _ReceiveFramereCorresponding
      01002DADH   PUBLIC    CODE     ---       _CalcByteEVEN
      000000A2H   SFRSYM    DATA     BYTE      SPI0CKR
      00000080H   SFRSYM    DATA     BYTE      P0
      000000C8H.6 SFRSYM    DATA     BIT       SCON1_PERR
      000000D0H.2 SFRSYM    DATA     BIT       PSW_OV
      00000090H   SFRSYM    DATA     BYTE      P1
      000000F8H.1 SFRSYM    DATA     BIT       SPI0CN0_TXNF
      00000097H   SFRSYM    DATA     BYTE      WDTCN
      000000A0H   SFRSYM    DATA     BYTE      P2
      000000B0H   SFRSYM    DATA     BYTE      P3
      000000BCH   SFRSYM    DATA     BYTE      ADC0CF
      000000C0H.7 SFRSYM    DATA     BIT       SMB0CN0_MASTER
      000000F9H   SFRSYM    DATA     WORD      PCA0
      000000E6H   SFRSYM    DATA     BYTE      EIE1
      000000C0H.1 SFRSYM    DATA     BIT       SMB0CN0_ACK
      000000CEH   SFRSYM    DATA     BYTE      EIE2
      0000008FH   SFRSYM    DATA     BYTE      PSCTL
      000000E4H   SFRSYM    DATA     BYTE      IT01CF
      000000C0H.6 SFRSYM    DATA     BIT       SMB0CN0_TXMODE
      000000ADH   SFRSYM    DATA     BYTE      DERIVID
      000000A7H   SFRSYM    DATA     BYTE      SFRPAGE
      000000A4H   SFRSYM    DATA     BYTE      P0MDOUT
      000000A5H   SFRSYM    DATA     BYTE      P1MDOUT
      000000E8H.5 SFRSYM    DATA     BIT       ADC0CN0_ADINT
      000000CBH   SFRSYM    DATA     BYTE      TMR2RLH
      000000A6H   SFRSYM    DATA     BYTE      P2MDOUT
      000000A8H   SFRSYM    DATA     BYTE      IE
      00000093H   SFRSYM    DATA     BYTE      TMR3RLH
      0000009CH   SFRSYM    DATA     BYTE      P3MDOUT
      000000A3H   SFRSYM    DATA     BYTE      TMR4RLH
      000000F3H   SFRSYM    DATA     BYTE      EIP1
      000000F4H   SFRSYM    DATA     BYTE      EIP2
      00000098H.2 SFRSYM    DATA     BIT       SCON0_RB8
      000000CAH   SFRSYM    DATA     BYTE      TMR2RLL
      000000FCH   SFRSYM    DATA     BYTE      PCA0CPH0
      00000092H   SFRSYM    DATA     BYTE      TMR3RLL
      000000EAH   SFRSYM    DATA     BYTE      PCA0CPH1
      00000098H.3 SFRSYM    DATA     BIT       SCON0_TB8
LX51 LINKER/LOCATER V4.66.97.0                                                        08/08/2020  16:35:51  PAGE 123


      000000F0H.0 SFRSYM    DATA     BIT       B_B0
      00000082H   SFRSYM    DATA     WORD      DP
      000000A2H   SFRSYM    DATA     BYTE      TMR4RLL
      000000ECH   SFRSYM    DATA     BYTE      PCA0CPH2
      000000F0H.1 SFRSYM    DATA     BIT       B_B1
      000000C3H   SFRSYM    DATA     WORD      ADC0GT
      000000BDH   SFRSYM    DATA     BYTE      I2C0SLAD
      000000D8H.3 SFRSYM    DATA     BIT       UART1FCN1_RFRQ
      000000F0H.2 SFRSYM    DATA     BIT       B_B2
      000000CFH   SFRSYM    DATA     BYTE      SFRPGCN
      000000FBH   SFRSYM    DATA     BYTE      PCA0CPL0
      000000F0H.3 SFRSYM    DATA     BIT       B_B3
      000000D9H   SFRSYM    DATA     BYTE      PCA0MD
      000000DAH   SFRSYM    DATA     BYTE      PCA0CPM0
      000000E9H   SFRSYM    DATA     BYTE      PCA0CPL1
      000000D8H.7 SFRSYM    DATA     BIT       UART1FCN1_TFRQ
      000000F0H.4 SFRSYM    DATA     BIT       B_B4
      000000DBH   SFRSYM    DATA     BYTE      PCA0CPM1
      000000EBH   SFRSYM    DATA     BYTE      PCA0CPL2
      000000F0H.5 SFRSYM    DATA     BIT       B_B5
      000000DCH   SFRSYM    DATA     BYTE      PCA0CPM2
      000000B8H   SFRSYM    DATA     BYTE      IP
      000000B9H   SFRSYM    DATA     BYTE      ADC0TK
      000000F0H.6 SFRSYM    DATA     BIT       B_B6
      000000C5H   SFRSYM    DATA     WORD      ADC0LT
      000000D8H.6 SFRSYM    DATA     BIT       UART1FCN1_TXNF
      00000098H.5 SFRSYM    DATA     BIT       SCON0_MCE
      000000F0H.7 SFRSYM    DATA     BIT       B_B7
      000000C3H   SFRSYM    DATA     BYTE      SMB0FCN0
      000000E1H   SFRSYM    DATA     BYTE      XBR0
      000000C4H   SFRSYM    DATA     BYTE      SMB0FCN1
      000000C1H   SFRSYM    DATA     BYTE      SMB0CF
      000000E2H   SFRSYM    DATA     BYTE      XBR1
      000000C1H   SFRSYM    DATA     BYTE      PFE0CN
      000000E7H   SFRSYM    DATA     BYTE      EMI0CN
      000000C0H.5 SFRSYM    DATA     BIT       SMB0CN0_STA
      000000E3H   SFRSYM    DATA     BYTE      XBR2
      000000BBH   SFRSYM    DATA     BYTE      ADC0MX
      000000E0H.0 SFRSYM    DATA     BIT       ACC_ACC0
      000000D1H   SFRSYM    DATA     BYTE      REF0CN
      0000008EH   SFRSYM    DATA     BYTE      CKCON0
      000000E0H.1 SFRSYM    DATA     BIT       ACC_ACC1
      000000C9H   SFRSYM    DATA     BYTE      REG0CN
      000000DDH   SFRSYM    DATA     BYTE      CRC0IN
      000000A6H   SFRSYM    DATA     BYTE      CKCON1
      000000C8H.2 SFRSYM    DATA     BIT       TMR2CN0_TR2
      000000E0H.2 SFRSYM    DATA     BIT       ACC_ACC2
      000000C6H   SFRSYM    DATA     BYTE      REG1CN
      000000E0H.3 SFRSYM    DATA     BIT       ACC_ACC3
      00000081H   SFRSYM    DATA     BYTE      SP
      0000009DH   SFRSYM    DATA     BYTE      CMP0MD
      000000E0H.4 SFRSYM    DATA     BIT       ACC_ACC4
      000000B1H   SFRSYM    DATA     BYTE      LFO0CN
      000000ABH   SFRSYM    DATA     BYTE      CMP1MD
      000000D8H.0 SFRSYM    DATA     BIT       PCA0CN0_CCF0
      000000E0H.5 SFRSYM    DATA     BIT       ACC_ACC5
      00000098H.2 SFRSYM    DATA     BIT       TMR4CN0_TR4
      000000D8H.1 SFRSYM    DATA     BIT       PCA0CN0_CCF1
      000000E0H.6 SFRSYM    DATA     BIT       ACC_ACC6
      000000CCH   SFRSYM    DATA     WORD      TMR2
      0000009AH   SFRSYM    DATA     BYTE      SPI0FCN0
      000000D8H.2 SFRSYM    DATA     BIT       PCA0CN0_CCF2
LX51 LINKER/LOCATER V4.66.97.0                                                        08/08/2020  16:35:51  PAGE 124


      000000E0H.7 SFRSYM    DATA     BIT       ACC_ACC7
      00000094H   SFRSYM    DATA     WORD      TMR3
      0000009BH   SFRSYM    DATA     BYTE      SPI0FCN1
      000000A4H   SFRSYM    DATA     WORD      TMR4
      00000094H   SFRSYM    DATA     BYTE      SBCON1
      000000C0H.3 SFRSYM    DATA     BIT       SMB0CN0_ACKRQ
      000000FFH   SFRSYM    DATA     BYTE      VDM0CN
      000000F1H   SFRSYM    DATA     BYTE      P0MDIN
      00000098H.4 SFRSYM    DATA     BIT       SCON0_REN
      000000ACH   SFRSYM    DATA     BYTE      SMB0TC
      000000F2H   SFRSYM    DATA     BYTE      P1MDIN
      000000C8H.4 SFRSYM    DATA     BIT       SCON1_REN
      000000F3H   SFRSYM    DATA     BYTE      P2MDIN
      000000C0H.4 SFRSYM    DATA     BIT       SMB0CN0_STO
      000000F4H   SFRSYM    DATA     BYTE      P3MDIN
      000000B9H   SFRSYM    DATA     BYTE      I2C0STAT
      000000BBH   SFRSYM    DATA     BYTE      I2C0DOUT
      00000096H   SFRSYM    DATA     BYTE      SBRLH1
      000000FEH   SFRSYM    DATA     BYTE      P0MASK
      000000D8H.5 SFRSYM    DATA     BIT       UART1FCN1_TXHOLD
      000000EEH   SFRSYM    DATA     BYTE      P1MASK
      000000FCH   SFRSYM    DATA     BYTE      P2MASK
      000000D0H.3 SFRSYM    DATA     BIT       PSW_RS0
      000000D8H.7 SFRSYM    DATA     BIT       PCA0CN0_CF
      0000009EH   SFRSYM    DATA     BYTE      PCA0CENT
      000000BAH   SFRSYM    DATA     BYTE      I2C0CN0
      000000D2H   SFRSYM    DATA     BYTE      CRC0ST
      000000F8H.4 SFRSYM    DATA     BIT       SPI0CN0_RXOVRN
      000000D0H.4 SFRSYM    DATA     BIT       PSW_RS1
      00000095H   SFRSYM    DATA     BYTE      SBRLL1
      000000C8H.2 SFRSYM    DATA     BIT       SCON1_RBX
      000000C8H.0 SFRSYM    DATA     BIT       TMR2CN0_T2XCLK0
      000000C8H.1 SFRSYM    DATA     BIT       TMR2CN0_T2XCLK1
      000000C8H.3 SFRSYM    DATA     BIT       SCON1_TBX
      000000E8H.7 SFRSYM    DATA     BIT       ADC0CN0_ADEN
      00000089H   SFRSYM    DATA     BYTE      TMOD
      00000088H   SFRSYM    DATA     BYTE      TCON
      000000CFH   SFRSYM    DATA     BYTE      CRC0FLIP
      000000D0H.0 SFRSYM    DATA     BIT       PSW_PARITY
      000000A8H.4 SFRSYM    DATA     BIT       IE_ES0
      0000009FH   SFRSYM    DATA     BYTE      CMP0MX
      00000098H.0 SFRSYM    DATA     BIT       TMR4CN0_T4XCLK0
      000000A8H.1 SFRSYM    DATA     BIT       IE_ET0
      000000AAH   SFRSYM    DATA     BYTE      CMP1MX
      00000098H.1 SFRSYM    DATA     BIT       TMR4CN0_T4XCLK1
      000000A8H.3 SFRSYM    DATA     BIT       IE_ET1
      000000D4H   SFRSYM    DATA     BYTE      P0SKIP
      000000D8H.0 SFRSYM    DATA     BIT       UART1FCN1_RIE
      000000A8H.5 SFRSYM    DATA     BIT       IE_ET2
      000000D5H   SFRSYM    DATA     BYTE      P1SKIP
      000000CCH   SFRSYM    DATA     BYTE      P2SKIP
      000000E8H   SFRSYM    DATA     BYTE      ADC0CN0
      000000D8H.4 SFRSYM    DATA     BIT       UART1FCN1_TIE
      000000A8H.0 SFRSYM    DATA     BIT       IE_EX0
      000000B2H   SFRSYM    DATA     BYTE      ADC0CN1
      000000D8H.6 SFRSYM    DATA     BIT       PCA0CN0_CR
      000000A8H.2 SFRSYM    DATA     BIT       IE_EX1
      000000C8H.7 SFRSYM    DATA     BIT       SCON1_OVR
      00000098H.7 SFRSYM    DATA     BIT       SCON0_SMODE
      000000B5H   SFRSYM    DATA     BYTE      DEVICEID
      000000A9H   SFRSYM    DATA     BYTE      CLKSEL
      000000F8H.0 SFRSYM    DATA     BIT       SPI0CN0_SPIEN
LX51 LINKER/LOCATER V4.66.97.0                                                        08/08/2020  16:35:51  PAGE 125


      000000F0H   SFRSYM    DATA     BYTE      B
      000000BEH   SFRSYM    DATA     BYTE      ADC0H
      000000E8H.6 SFRSYM    DATA     BIT       ADC0CN0_ADBMEN
      000000CAH   SFRSYM    DATA     WORD      TMR2RL
      000000BDH   SFRSYM    DATA     BYTE      ADC0L
      00000092H   SFRSYM    DATA     WORD      TMR3RL
      000000A2H   SFRSYM    DATA     WORD      TMR4RL
      000000D8H   SFRSYM    DATA     BYTE      PCA0CN0
      000000E0H   SFRSYM    DATA     BYTE      ACC
      000000FBH   SFRSYM    DATA     WORD      PCA0CP0
      000000E9H   SFRSYM    DATA     WORD      PCA0CP1
      000000EBH   SFRSYM    DATA     WORD      PCA0CP2
      000000BCH   SFRSYM    DATA     BYTE      I2C0DIN
      000000CEH   SFRSYM    DATA     BYTE      CRC0CN0
      0000008CH   SFRSYM    DATA     BYTE      TH0
      00000086H   SFRSYM    DATA     BYTE      CRC0CN1
      000000B8H.4 SFRSYM    DATA     BIT       IP_PS0
      000000FAH   SFRSYM    DATA     BYTE      UART1FCT
      0000008DH   SFRSYM    DATA     BYTE      TH1
      000000FAH   SFRSYM    DATA     BYTE      PCA0H
      000000F5H   SFRSYM    DATA     BYTE      I2C0FCT
      000000B8H.1 SFRSYM    DATA     BIT       IP_PT0
      000000B8H.3 SFRSYM    DATA     BIT       IP_PT1
      000000C0H.2 SFRSYM    DATA     BIT       SMB0CN0_ARBLOST
      000000B8H.5 SFRSYM    DATA     BIT       IP_PT2
      0000008AH   SFRSYM    DATA     BYTE      TL0
      000000D0H.5 SFRSYM    DATA     BIT       PSW_F0
      000000A8H.6 SFRSYM    DATA     BIT       IE_ESPI0
      0000008BH   SFRSYM    DATA     BYTE      TL1
      000000F9H   SFRSYM    DATA     BYTE      PCA0L
      000000C0H.0 SFRSYM    DATA     BIT       SMB0CN0_SI
      000000D0H.1 SFRSYM    DATA     BIT       PSW_F1
      00000080H.0 SFRSYM    DATA     BIT       P0_B0
      000000B8H.0 SFRSYM    DATA     BIT       IP_PX0
      00000090H.0 SFRSYM    DATA     BIT       P1_B0
      00000080H.1 SFRSYM    DATA     BIT       P0_B1
      000000B8H.2 SFRSYM    DATA     BIT       IP_PX1
      0000009EH   SFRSYM    DATA     BYTE      UART1LIN
      0000009BH   SFRSYM    DATA     BYTE      CMP0CN0
      00000088H.1 SFRSYM    DATA     BIT       TCON_IE0
      000000A0H.0 SFRSYM    DATA     BIT       P2_B0
      00000090H.1 SFRSYM    DATA     BIT       P1_B1
      00000080H.2 SFRSYM    DATA     BIT       P0_B2
      000000BFH   SFRSYM    DATA     BYTE      CMP1CN0
      00000099H   SFRSYM    DATA     BYTE      CMP0CN1
      00000088H.3 SFRSYM    DATA     BIT       TCON_IE1
      000000B0H.0 SFRSYM    DATA     BIT       P3_B0
      000000A0H.1 SFRSYM    DATA     BIT       P2_B1
      00000090H.2 SFRSYM    DATA     BIT       P1_B2
      00000080H.3 SFRSYM    DATA     BIT       P0_B3
      000000C0H   SFRSYM    DATA     BYTE      SMB0CN0
      000000ACH   SFRSYM    DATA     BYTE      CMP1CN1
      000000B0H.1 SFRSYM    DATA     BIT       P3_B1
      000000A0H.2 SFRSYM    DATA     BIT       P2_B2
      00000090H.3 SFRSYM    DATA     BIT       P1_B3
      00000080H.4 SFRSYM    DATA     BIT       P0_B4
      000000A0H.3 SFRSYM    DATA     BIT       P2_B3
      00000090H.4 SFRSYM    DATA     BIT       P1_B4
      00000080H.5 SFRSYM    DATA     BIT       P0_B5
      000000D8H.1 SFRSYM    DATA     BIT       UART1FCN1_RXTO0
      00000090H.5 SFRSYM    DATA     BIT       P1_B5
      00000080H.6 SFRSYM    DATA     BIT       P0_B6
LX51 LINKER/LOCATER V4.66.97.0                                                        08/08/2020  16:35:51  PAGE 126


      000000F5H   SFRSYM    DATA     BYTE      EIP1H
      000000D8H.2 SFRSYM    DATA     BIT       UART1FCN1_RXTO1
      00000090H.6 SFRSYM    DATA     BIT       P1_B6
      00000080H.7 SFRSYM    DATA     BIT       P0_B7
      000000C5H   SFRSYM    DATA     BYTE      SMB0RXLN
      000000F6H   SFRSYM    DATA     BYTE      EIP2H
      00000090H.7 SFRSYM    DATA     BIT       P1_B7
      00000083H   SFRSYM    DATA     BYTE      DPH
      000000C4H   SFRSYM    DATA     BYTE      ADC0GTH
      000000C8H.7 SFRSYM    DATA     BIT       TMR2CN0_TF2H
      000000C8H.3 SFRSYM    DATA     BIT       TMR2CN0_T2SPLIT
      000000D0H.6 SFRSYM    DATA     BIT       PSW_AC
      000000F8H   SFRSYM    DATA     BYTE      SPI0CN0
      000000C7H   SFRSYM    DATA     BYTE      HFO0CAL
      00000088H.5 SFRSYM    DATA     BIT       TCON_TF0
      00000098H.0 SFRSYM    DATA     BIT       SCON0_RI
      000000D6H   SFRSYM    DATA     BYTE      HFO1CAL
      00000082H   SFRSYM    DATA     BYTE      DPL
      00000088H.7 SFRSYM    DATA     BIT       TCON_TF1
      000000C8H.0 SFRSYM    DATA     BIT       SCON1_RI
      00000099H   SFRSYM    DATA     BYTE      SBUF0
      00000087H   SFRSYM    DATA     BYTE      PCON0
      000000F2H   SFRSYM    DATA     BYTE      IPH
      000000C3H   SFRSYM    DATA     BYTE      ADC0GTL
      00000098H.7 SFRSYM    DATA     BIT       TMR4CN0_TF4H
      00000098H.3 SFRSYM    DATA     BIT       TMR4CN0_T4SPLIT
      000000C8H.6 SFRSYM    DATA     BIT       TMR2CN0_TF2L
      00000098H.1 SFRSYM    DATA     BIT       SCON0_TI
      000000E8H.0 SFRSYM    DATA     BIT       ADC0CN0_ADCM0
      00000092H   SFRSYM    DATA     BYTE      SBUF1
      0000009AH   SFRSYM    DATA     BYTE      PCON1
      000000C6H   SFRSYM    DATA     BYTE      ADC0LTH
      00000088H.0 SFRSYM    DATA     BIT       TCON_IT0
      000000C8H.1 SFRSYM    DATA     BIT       SCON1_TI
      000000E8H.1 SFRSYM    DATA     BIT       ADC0CN0_ADCM1
      000000EFH   SFRSYM    DATA     BYTE      RSTSRC
      000000FDH   SFRSYM    DATA     BYTE      P0MAT
      000000DEH   SFRSYM    DATA     BYTE      CRC0DAT
      00000088H.2 SFRSYM    DATA     BIT       TCON_IT1
      000000E8H.2 SFRSYM    DATA     BIT       ADC0CN0_ADCM2
      000000D7H   SFRSYM    DATA     BYTE      SFRSTACK
      00000098H   SFRSYM    DATA     BYTE      SCON0
      000000F6H   SFRSYM    DATA     BYTE      PRTDRV
      000000EDH   SFRSYM    DATA     BYTE      P1MAT
      000000E8H.3 SFRSYM    DATA     BIT       ADC0CN0_ADWINT
      00000095H   SFRSYM    DATA     WORD      SBRL1
      00000093H   SFRSYM    DATA     BYTE      SMOD1
      000000C8H   SFRSYM    DATA     BYTE      SCON1
      000000FBH   SFRSYM    DATA     BYTE      P2MAT
      00000098H.6 SFRSYM    DATA     BIT       TMR4CN0_TF4L
      000000E8H.4 SFRSYM    DATA     BIT       ADC0CN0_ADBUSY
      000000D6H   SFRSYM    DATA     BYTE      SMB0ADM
      000000C5H   SFRSYM    DATA     BYTE      ADC0LTL
      000000F8H.5 SFRSYM    DATA     BIT       SPI0CN0_MODF
      000000B8H.6 SFRSYM    DATA     BIT       IP_PSPI0
      0000009CH   SFRSYM    DATA     BYTE      PCA0CLR
      000000C8H   SFRSYM    DATA     BYTE      TMR2CN0
      00000091H   SFRSYM    DATA     BYTE      TMR3CN0
      000000FDH   SFRSYM    DATA     BYTE      TMR2CN1
      00000098H   SFRSYM    DATA     BYTE      TMR4CN0
      000000FEH   SFRSYM    DATA     BYTE      TMR3CN1
      000000FFH   SFRSYM    DATA     BYTE      TMR4CN1
LX51 LINKER/LOCATER V4.66.97.0                                                        08/08/2020  16:35:51  PAGE 127


      000000D7H   SFRSYM    DATA     BYTE      SMB0ADR
      00000088H.4 SFRSYM    DATA     BIT       TCON_TR0
      000000C8H.4 SFRSYM    DATA     BIT       TMR2CN0_TF2CEN
      00000088H.6 SFRSYM    DATA     BIT       TCON_TR1
      000000C2H   SFRSYM    DATA     BYTE      SMB0DAT
      000000CDH   SFRSYM    DATA     BYTE      TMR2H
      000000A1H   SFRSYM    DATA     BYTE      SPI0CFG
      00000095H   SFRSYM    DATA     BYTE      TMR3H
      000000EFH   SFRSYM    DATA     BYTE      HFOCN
      000000D3H   SFRSYM    DATA     BYTE      CRC0CNT
      000000A5H   SFRSYM    DATA     BYTE      TMR4H
      00000098H.4 SFRSYM    DATA     BIT       TMR4CN0_TF4CEN
      000000EFH   SFRSYM    DATA     BYTE      SMB0FCT
      00000096H   SFRSYM    DATA     BYTE      PCA0POL
      000000CCH   SFRSYM    DATA     BYTE      TMR2L
      000000F8H.7 SFRSYM    DATA     BIT       SPI0CN0_SPIF
      00000094H   SFRSYM    DATA     BYTE      TMR3L
      000000DFH   SFRSYM    DATA     BYTE      ADC0PWR
      000000A8H.7 SFRSYM    DATA     BIT       IE_EA
      000000A4H   SFRSYM    DATA     BYTE      TMR4L
      000000C8H.5 SFRSYM    DATA     BIT       TMR2CN0_TF2LEN
      000000F8H.6 SFRSYM    DATA     BIT       SPI0CN0_WCOL
      000000F8H.2 SFRSYM    DATA     BIT       SPI0CN0_NSSMD0
      000000D0H.7 SFRSYM    DATA     BIT       PSW_CY
      0000009DH   SFRSYM    DATA     BYTE      UART1FCN0
      000000A3H   SFRSYM    DATA     BYTE      SPI0DAT
      000000ADH   SFRSYM    DATA     BYTE      I2C0FCN0
      000000F8H.3 SFRSYM    DATA     BIT       SPI0CN0_NSSMD1
      000000BDH   SFRSYM    DATA     WORD      ADC0
      000000D8H   SFRSYM    DATA     BYTE      UART1FCN1
      000000ABH   SFRSYM    DATA     BYTE      I2C0FCN1
      00000098H.5 SFRSYM    DATA     BIT       TMR4CN0_TF4LEN
      000000D0H   SFRSYM    DATA     BYTE      PSW
      000000F7H   SFRSYM    DATA     BYTE      PCA0PWM
      000000F7H   SFRSYM    DATA     BYTE      SPI0FCT
      000000B6H   SFRSYM    DATA     BYTE      REVID
      000000B7H   SFRSYM    DATA     BYTE      FLKEY
      000000B3H   SFRSYM    DATA     BYTE      ADC0AC

      01002907H   BLOCK     CODE     ---       LVL=0
      ---         BLOCKEND  ---      ---       LVL=0
      00000007H   SYMBOL    DATA     BYTE      i

      01002DADH   BLOCK     CODE     ---       LVL=0
      00000077H   SYMBOL    DATA     BYTE      value
      01002DAFH   BLOCK     CODE     NEAR LAB  LVL=1
      00000004H   SYMBOL    DATA     BYTE      i
      00000001H   SYMBOL    DATA     BYTE      evensum
      00000005H   SYMBOL    DATA     BYTE      ret
      ---         BLOCKEND  ---      ---       LVL=1
      01002DADH   LINE      CODE     ---       #46
      01002DAFH   LINE      CODE     ---       #47
      01002DAFH   LINE      CODE     ---       #49
      01002DB1H   LINE      CODE     ---       #50
      01002DB2H   LINE      CODE     ---       #51
      01002DBDH   LINE      CODE     ---       #52
      01002DBDH   LINE      CODE     ---       #53
      01002DE5H   LINE      CODE     ---       #54
      01002DE5H   LINE      CODE     ---       #55
      01002DE6H   LINE      CODE     ---       #56
      01002DE6H   LINE      CODE     ---       #57
      01002DE9H   LINE      CODE     ---       #58
LX51 LINKER/LOCATER V4.66.97.0                                                        08/08/2020  16:35:51  PAGE 128


      01002DECH   LINE      CODE     ---       #59
      01002DEDH   LINE      CODE     ---       #60
      ---         BLOCKEND  ---      ---       LVL=0
      00000007H   SYMBOL    DATA     BYTE      mode
      00000006H   SYMBOL    DATA     BYTE      i
      00000001H   SYMBOL    DATA     BYTE      ret
      00000004H   SYMBOL    DATA     WORD      checksum

      01001B83H   BLOCK     CODE     ---       LVL=0
      00000077H   SYMBOL    DATA     WORD      start
      01001B87H   BLOCK     CODE     NEAR LAB  LVL=1
      00000001H   SYMBOL    DATA     ---       pCtt
      ---         BLOCKEND  ---      ---       LVL=1
      01001B83H   LINE      CODE     ---       #122
      01001B87H   LINE      CODE     ---       #123
      01001B87H   LINE      CODE     ---       #125
      01001B8DH   LINE      CODE     ---       #127
      01001B95H   LINE      CODE     ---       #128
      01001B95H   LINE      CODE     ---       #129
      01001BA0H   LINE      CODE     ---       #130
      01001BADH   LINE      CODE     ---       #131
      01001BB9H   LINE      CODE     ---       #132
      01001BC5H   LINE      CODE     ---       #133
      01001BCFH   LINE      CODE     ---       #134
      01001BDCH   LINE      CODE     ---       #135
      01001BEAH   LINE      CODE     ---       #136
      01001BF9H   LINE      CODE     ---       #137
      01001BFCH   LINE      CODE     ---       #138
      01001C07H   LINE      CODE     ---       #139
      01001C07H   LINE      CODE     ---       #140
      01001C12H   LINE      CODE     ---       #141
      01001C24H   LINE      CODE     ---       #142
      01001C30H   LINE      CODE     ---       #143
      01001C47H   LINE      CODE     ---       #144
      01001C67H   LINE      CODE     ---       #145
      01001C87H   LINE      CODE     ---       #146
      01001C98H   LINE      CODE     ---       #147
      01001CA2H   LINE      CODE     ---       #148
      01001CAFH   LINE      CODE     ---       #149
      01001CBDH   LINE      CODE     ---       #150
      01001CD1H   LINE      CODE     ---       #151
      01001CD2H   LINE      CODE     ---       #153
      01001CD2H   LINE      CODE     ---       #154
      01001CD5H   LINE      CODE     ---       #155
      01001CD5H   LINE      CODE     ---       #157
      ---         BLOCKEND  ---      ---       LVL=0

      01002E2BH   BLOCK     CODE     ---       LVL=0
      01002E2BH   BLOCK     CODE     NEAR LAB  LVL=1
      00000007H   SYMBOL    DATA     BYTE      i
      ---         BLOCKEND  ---      ---       LVL=1
      01002E2BH   LINE      CODE     ---       #159
      01002E2BH   LINE      CODE     ---       #160
      01002E2BH   LINE      CODE     ---       #163
      01002E37H   LINE      CODE     ---       #164
      01002E37H   LINE      CODE     ---       #165
      01002E41H   LINE      CODE     ---       #166
      01002E4BH   LINE      CODE     ---       #167
      01002E4EH   LINE      CODE     ---       #168
      01002E57H   LINE      CODE     ---       #169
      01002E5AH   LINE      CODE     ---       #170
      01002E5EH   LINE      CODE     ---       #171
LX51 LINKER/LOCATER V4.66.97.0                                                        08/08/2020  16:35:51  PAGE 129


      01002E61H   LINE      CODE     ---       #172
      01002E63H   LINE      CODE     ---       #175
      ---         BLOCKEND  ---      ---       LVL=0

      ---         MODULE    ---      ---       ?C_INIT
      01002836H   PUBLIC    CODE     ---       ?C_START

      ---         MODULE    ---      ---       ?C?COPY
      0100016EH   PUBLIC    CODE     ---       ?C?COPY

      ---         MODULE    ---      ---       ?C?CLDOPTR
      01000194H   PUBLIC    CODE     ---       ?C?CLDOPTR

      ---         MODULE    ---      ---       ?C?CILDOPTR
      010001C1H   PUBLIC    CODE     ---       ?C?CILDOPTR

      ---         MODULE    ---      ---       ?C?CSTOPTR
      010001F4H   PUBLIC    CODE     ---       ?C?CSTOPTR

      ---         MODULE    ---      ---       ?C?IMUL
      01000216H   PUBLIC    CODE     ---       ?C?IMUL

      ---         MODULE    ---      ---       ?C?UIDIV
      01000228H   PUBLIC    CODE     ---       ?C?UIDIV

      ---         MODULE    ---      ---       ?C?IILDX
      0100027DH   PUBLIC    CODE     ---       ?C?IILDX

      ---         MODULE    ---      ---       ?C?ILDPTR
      01000293H   PUBLIC    CODE     ---       ?C?ILDPTR

      ---         MODULE    ---      ---       ?C?ILDOPTR
      010002BEH   PUBLIC    CODE     ---       ?C?ILDOPTR

      ---         MODULE    ---      ---       ?C?ISTPTR
      010002F6H   PUBLIC    CODE     ---       ?C?ISTPTR

      ---         MODULE    ---      ---       ?C?ISTOPTR
      01000315H   PUBLIC    CODE     ---       ?C?ISTOPTR

      ---         MODULE    ---      ---       ?C?LMUL
      01000342H   PUBLIC    CODE     ---       ?C?LMUL

      ---         MODULE    ---      ---       ?C?ULDIV
      010003CDH   PUBLIC    CODE     ---       ?C?ULDIV

      ---         MODULE    ---      ---       ?C?ULCMP
      0100045FH   PUBLIC    CODE     ---       ?C?ULCMP

      ---         MODULE    ---      ---       ?C?LSTXDATA
      01000470H   PUBLIC    CODE     ---       ?C?LSTXDATA

      ---         MODULE    ---      ---       ?C?LSTKXDATA
      0100047CH   PUBLIC    CODE     ---       ?C?LSTKXDATA

      ---         MODULE    ---      ---       ?C?OFFXADD
      010004ADH   PUBLIC    CODE     ---       ?C?OFFXADD

      ---         MODULE    ---      ---       ?C?PLDOPTR
      010004B9H   PUBLIC    CODE     ---       ?C?PLDOPTR

      ---         MODULE    ---      ---       ?C?PSTOPTR
LX51 LINKER/LOCATER V4.66.97.0                                                        08/08/2020  16:35:51  PAGE 130


      010004E9H   PUBLIC    CODE     ---       ?C?PSTOPTR

      ---         MODULE    ---      ---       ?C?ICALL
      01000542H   PUBLIC    CODE     ---       ?C?ICALL
      01000546H   PUBLIC    CODE     ---       ?C?ICALL2

      ---         MODULE    ---      ---       ?C?LIMUL
      01000548H   PUBLIC    CODE     ---       ?C?LIMUL

      ---         MODULE    ---      ---       ?C?PLDIDATA
      01000575H   PUBLIC    CODE     ---       ?C?PLDIDATA

      ---         MODULE    ---      ---       ?C?PSTIDATA
      0100057EH   PUBLIC    CODE     ---       ?C?PSTIDATA

      ---         MODULE    ---      ---       ?C?PLDXDATA
      01000587H   PUBLIC    CODE     ---       ?C?PLDXDATA

      ---         MODULE    ---      ---       ?C?PSTXDATA
      01000590H   PUBLIC    CODE     ---       ?C?PSTXDATA

      ---         MODULE    ---      ---       ?C?PLDPDATA
      01000599H   PUBLIC    CODE     ---       ?C?PLDPDATA

      ---         MODULE    ---      ---       ?C?PSTPDATA
      010005A2H   PUBLIC    CODE     ---       ?C?PSTPDATA

      ---         MODULE    ---      ---       ?C?PLDCODE
      010005ABH   PUBLIC    CODE     ---       ?C?PLDCODE



*** WARNING L13: RECURSIVE CALL TO FUNCTION
    CALLED:  _SRL_GETHEADER/SERIAL
    CALLER:  _SRL_GETDATA/SERIAL

*** ERROR L107: ADDRESS SPACE OVERFLOW
    SPACE:   DATA
    SEGMENT: ?DT?UART
    LENGTH:  000023H   

*** ERROR L107: ADDRESS SPACE OVERFLOW
    SPACE:   DATA
    SEGMENT: ?DT?ADC
    LENGTH:  000014H   

*** ERROR L107: ADDRESS SPACE OVERFLOW
    SPACE:   DATA
    SEGMENT: ?DT?COMMAND
    LENGTH:  00000CH   

*** ERROR L127: UNRESOLVED EXTERNAL SYMBOL
    SYMBOL:  ADC_IDSample
    MODULE:  ./src/Adc.OBJ (ADC)

*** ERROR L128: REFERENCE MADE TO UNRESOLVED EXTERNAL
    SYMBOL:  ADC_IDSample
    MODULE:  ./src/Adc.OBJ (ADC)
    ADDRESS: 10024FFH

*** ERROR L128: REFERENCE MADE TO UNRESOLVED EXTERNAL
    SYMBOL:  ADC_IDSample
LX51 LINKER/LOCATER V4.66.97.0                                                        08/08/2020  16:35:51  PAGE 131


    MODULE:  ./src/Adc.OBJ (ADC)
    ADDRESS: 100256DH

Program Size: data=192.0 xdata=779 const=0 code=12911
LX51 RUN COMPLETE.  1 WARNING(S),  6 ERROR(S)
