LX51 LINKER/LOCATER V4.66.30.0                                                          08/11/2020  17:20:48  PAGE 1


LX51 LINKER/LOCATER V4.66.30.0, INVOKED BY:
D:\SILICONLABS\SIMPLICITYSTUDIO\V4\DEVELOPER\TOOLCHAINS\KEIL_8051\9.53\BIN\LX51.EXE ./src/Adc.OBJ, ./src/Command.OBJ, ./
>> src/Cpu.OBJ, ./src/DetectObj.OBJ, ./src/EFM8BB2_FlashPrimitives.OBJ, ./src/InitDevice.OBJ, ./src/Main.OBJ, ./src/SILA
>> BS_STARTUP.OBJ, ./src/Serial.OBJ, ./src/Speaker.OBJ, ./src/Timer.OBJ, ./src/Uart.OBJ, ./src/UartCfg.OBJ TO DFSK-F508-
>> EFM8BB21F16G-C-QFN20.OMF.CRBUILD REMOVEUNUSED PRINT (.\DFSK-F508-EFM8BB21F16G-C-QFN20.m51) PAGEWIDTH (120) PAGELENGTH
>>  (65) CLASSES (ECODE (C:0X0-C:0X3FFE), HCONST (C:0X0-C:0X3FFE), XDATA (X:0X0-X:0X7FF), HDATA (X:0X0-X:0X7FF))




PROGRAM RECURSIONS REMOVED FROM CALL TREE
=========================================
+--> _SRL_GETHEADER/SERIAL
<--+ _SRL_GETDATA/SERIAL



CPU MODE:     8051 MODE
MEMORY MODEL: LARGE


INPUT MODULES INCLUDED:
  ./src/Adc.OBJ (ADC)
         COMMENT TYPE 0: C51 V9.53.0.0
  ./src/Command.OBJ (COMMAND)
         COMMENT TYPE 0: C51 V9.53.0.0
  ./src/Cpu.OBJ (CPU)
         COMMENT TYPE 0: C51 V9.53.0.0
  ./src/DetectObj.OBJ (DETECTOBJ)
         COMMENT TYPE 0: C51 V9.53.0.0
  ./src/EFM8BB2_FlashPrimitives.OBJ (EFM8BB2_FLASHPRIMITIVES)
         COMMENT TYPE 0: C51 V9.53.0.0
  ./src/InitDevice.OBJ (INITDEVICE)
         COMMENT TYPE 0: C51 V9.53.0.0
  ./src/Main.OBJ (MAIN)
         COMMENT TYPE 0: C51 V9.53.0.0
  ./src/SILABS_STARTUP.OBJ (?C_STARTUP)
         COMMENT TYPE 0: AX51 V3.12.0.0
  ./src/Serial.OBJ (SERIAL)
         COMMENT TYPE 0: C51 V9.53.0.0
  ./src/Speaker.OBJ (SPEAKER)
         COMMENT TYPE 0: C51 V9.53.0.0
  ./src/Timer.OBJ (TIMER)
         COMMENT TYPE 0: C51 V9.53.0.0
  ./src/Uart.OBJ (UART)
         COMMENT TYPE 0: C51 V9.53.0.0
  ./src/UartCfg.OBJ (UARTCFG)
         COMMENT TYPE 0: C51 V9.53.0.0
  D:\SILICONLABS\SIMPLICITYSTUDIO\V4\DEVELOPER\TOOLCHAINS\KEIL_8051\9.53\LIB\C51L.LIB (?C_INIT)
         COMMENT TYPE 1: A51 / ASM51 Assembler
  D:\SILICONLABS\SIMPLICITYSTUDIO\V4\DEVELOPER\TOOLCHAINS\KEIL_8051\9.53\LIB\C51L.LIB (?C?CLDOPTR)
         COMMENT TYPE 1: A51 / ASM51 Assembler
  D:\SILICONLABS\SIMPLICITYSTUDIO\V4\DEVELOPER\TOOLCHAINS\KEIL_8051\9.53\LIB\C51L.LIB (?C?CILDOPTR)
         COMMENT TYPE 1: A51 / ASM51 Assembler
  D:\SILICONLABS\SIMPLICITYSTUDIO\V4\DEVELOPER\TOOLCHAINS\KEIL_8051\9.53\LIB\C51L.LIB (?C?CSTOPTR)
         COMMENT TYPE 1: A51 / ASM51 Assembler
  D:\SILICONLABS\SIMPLICITYSTUDIO\V4\DEVELOPER\TOOLCHAINS\KEIL_8051\9.53\LIB\C51L.LIB (?C?IMUL)
         COMMENT TYPE 1: A51 / ASM51 Assembler
  D:\SILICONLABS\SIMPLICITYSTUDIO\V4\DEVELOPER\TOOLCHAINS\KEIL_8051\9.53\LIB\C51L.LIB (?C?UIDIV)
         COMMENT TYPE 1: A51 / ASM51 Assembler
  D:\SILICONLABS\SIMPLICITYSTUDIO\V4\DEVELOPER\TOOLCHAINS\KEIL_8051\9.53\LIB\C51L.LIB (?C?IILDX)
         COMMENT TYPE 1: A51 / ASM51 Assembler
  D:\SILICONLABS\SIMPLICITYSTUDIO\V4\DEVELOPER\TOOLCHAINS\KEIL_8051\9.53\LIB\C51L.LIB (?C?ILDPTR)
LX51 LINKER/LOCATER V4.66.30.0                                                        08/11/2020  17:20:48  PAGE 2


         COMMENT TYPE 1: A51 / ASM51 Assembler
  D:\SILICONLABS\SIMPLICITYSTUDIO\V4\DEVELOPER\TOOLCHAINS\KEIL_8051\9.53\LIB\C51L.LIB (?C?ILDOPTR)
         COMMENT TYPE 1: A51 / ASM51 Assembler
  D:\SILICONLABS\SIMPLICITYSTUDIO\V4\DEVELOPER\TOOLCHAINS\KEIL_8051\9.53\LIB\C51L.LIB (?C?ISTPTR)
         COMMENT TYPE 1: A51 / ASM51 Assembler
  D:\SILICONLABS\SIMPLICITYSTUDIO\V4\DEVELOPER\TOOLCHAINS\KEIL_8051\9.53\LIB\C51L.LIB (?C?ISTOPTR)
         COMMENT TYPE 1: A51 / ASM51 Assembler
  D:\SILICONLABS\SIMPLICITYSTUDIO\V4\DEVELOPER\TOOLCHAINS\KEIL_8051\9.53\LIB\C51L.LIB (?C?ULDIV)
         COMMENT TYPE 1: A51 / ASM51 Assembler
  D:\SILICONLABS\SIMPLICITYSTUDIO\V4\DEVELOPER\TOOLCHAINS\KEIL_8051\9.53\LIB\C51L.LIB (?C?ULCMP)
         COMMENT TYPE 1: A51 / ASM51 Assembler
  D:\SILICONLABS\SIMPLICITYSTUDIO\V4\DEVELOPER\TOOLCHAINS\KEIL_8051\9.53\LIB\C51L.LIB (?C?LSTXDATA)
         COMMENT TYPE 1: A51 / ASM51 Assembler
  D:\SILICONLABS\SIMPLICITYSTUDIO\V4\DEVELOPER\TOOLCHAINS\KEIL_8051\9.53\LIB\C51L.LIB (?C?LSTKXDATA)
         COMMENT TYPE 1: A51 / ASM51 Assembler
  D:\SILICONLABS\SIMPLICITYSTUDIO\V4\DEVELOPER\TOOLCHAINS\KEIL_8051\9.53\LIB\C51L.LIB (?C?OFFXADD)
         COMMENT TYPE 1: A51 / ASM51 Assembler
  D:\SILICONLABS\SIMPLICITYSTUDIO\V4\DEVELOPER\TOOLCHAINS\KEIL_8051\9.53\LIB\C51L.LIB (?C?PLDOPTR)
         COMMENT TYPE 1: A51 / ASM51 Assembler
  D:\SILICONLABS\SIMPLICITYSTUDIO\V4\DEVELOPER\TOOLCHAINS\KEIL_8051\9.53\LIB\C51L.LIB (?C?PSTOPTR)
         COMMENT TYPE 1: A51 / ASM51 Assembler
  D:\SILICONLABS\SIMPLICITYSTUDIO\V4\DEVELOPER\TOOLCHAINS\KEIL_8051\9.53\LIB\C51L.LIB (?C?ICALL)
         COMMENT TYPE 1: A51 / ASM51 Assembler
  D:\SILICONLABS\SIMPLICITYSTUDIO\V4\DEVELOPER\TOOLCHAINS\KEIL_8051\9.53\LIB\C51L.LIB (?C?LIMUL)
         COMMENT TYPE 1: A51 / ASM51 Assembler
  D:\SILICONLABS\SIMPLICITYSTUDIO\V4\DEVELOPER\TOOLCHAINS\KEIL_8051\9.53\LIB\C51L.LIB (?C?PLDIDATA)
         COMMENT TYPE 1: A51 / ASM51 Assembler
  D:\SILICONLABS\SIMPLICITYSTUDIO\V4\DEVELOPER\TOOLCHAINS\KEIL_8051\9.53\LIB\C51L.LIB (?C?PSTIDATA)
         COMMENT TYPE 1: A51 / ASM51 Assembler
  D:\SILICONLABS\SIMPLICITYSTUDIO\V4\DEVELOPER\TOOLCHAINS\KEIL_8051\9.53\LIB\C51L.LIB (?C?PLDXDATA)
         COMMENT TYPE 1: A51 / ASM51 Assembler
  D:\SILICONLABS\SIMPLICITYSTUDIO\V4\DEVELOPER\TOOLCHAINS\KEIL_8051\9.53\LIB\C51L.LIB (?C?PSTXDATA)
         COMMENT TYPE 1: A51 / ASM51 Assembler
  D:\SILICONLABS\SIMPLICITYSTUDIO\V4\DEVELOPER\TOOLCHAINS\KEIL_8051\9.53\LIB\C51L.LIB (?C?PLDPDATA)
         COMMENT TYPE 1: A51 / ASM51 Assembler
  D:\SILICONLABS\SIMPLICITYSTUDIO\V4\DEVELOPER\TOOLCHAINS\KEIL_8051\9.53\LIB\C51L.LIB (?C?PSTPDATA)
         COMMENT TYPE 1: A51 / ASM51 Assembler
  D:\SILICONLABS\SIMPLICITYSTUDIO\V4\DEVELOPER\TOOLCHAINS\KEIL_8051\9.53\LIB\C51L.LIB (?C?PLDCODE)
         COMMENT TYPE 1: A51 / ASM51 Assembler


ACTIVE MEMORY CLASSES OF MODULE:  DFSK-F508-EFM8BB21F16G-C-QFN20.OMF.CRBUILD (ADC)

BASE        START       END         USED      MEMORY CLASS
==========================================================
C:000000H   C:000000H   C:003FFEH             ECODE
B00:0000H   C:000000H   C:003FFEH             HCONST
X:000000H   X:000000H   X:0007FFH   0003C2H   XDATA
X:000000H   X:000000H   X:0007FFH             HDATA
C:000000H   C:000000H   C:00FFFFH   003CC9H   CODE
I:000020H.0 I:000020H.0 I:00002FH.7 000000H.1 BIT
I:000000H   I:000000H   I:0000FFH   000001H   IDATA
I:000000H   I:000000H   I:00007FH   000008H   DATA


MEMORY MAP OF MODULE:  DFSK-F508-EFM8BB21F16G-C-QFN20.OMF.CRBUILD (ADC)


START     STOP      LENGTH    ALIGN  RELOC    MEMORY CLASS   SEGMENT NAME
=========================================================================

* * * * * * * * * * *   D A T A   M E M O R Y   * * * * * * * * * * * * *
LX51 LINKER/LOCATER V4.66.30.0                                                        08/11/2020  17:20:48  PAGE 3


000000H   000007H   000008H   ---    AT..     DATA           "REG BANK 0"
000008H.0 00001FH.7 000018H.0 ---    ---      **GAP**
000020H.0 000020H.0 000000H.1 BIT    UNIT     BIT            _BIT_GROUP_
000020H.1 000020H   000000H.7 ---    ---      **GAP**
000021H   000021H   000001H   BYTE   UNIT     IDATA          ?STACK

* * * * * * * * * * *   C O D E   M E M O R Y   * * * * * * * * * * * * *
000000H   000002H   000003H   ---    OFFS..   CODE           ?CO?SILABS_STARTUP?3
000003H   00000AH   000008H   BYTE   UNIT     CODE           ?PR?FLASH_READVECHILEMODE?EFM8BB2_FLASHPRIMITIVES
00000BH   00000DH   000003H   BYTE   OFFS..   CODE           ?TIMER?0000B
00000EH   000020H   000013H   BYTE   UNIT     CODE           ?PR?TIME_STOPADCTRIGGER?TIMER
000021H   000021H   000001H   BYTE   UNIT     CODE           ?PR?SILABS_STARTUP?MAIN
000022H   000022H   000001H   BYTE   UNIT     CODE           ?PR?TIMER0_ISR?TIMER
000023H   000025H   000003H   BYTE   OFFS..   CODE           ?UART?00023
000026H   00002AH   000005H   BYTE   UNIT     CODE           ?PR?STARTTHEUART0TIMER?TIMER
00002BH   00002DH   000003H   BYTE   OFFS..   CODE           ?TIMER?0002B
00002EH   00004AH   00001DH   BYTE   UNIT     CODE           ?PR?_DELAY1MS?TIMER
00004BH   00004DH   000003H   BYTE   OFFS..   CODE           ?ADC?0004B
00004EH   000050H   000003H   BYTE   UNIT     CODE           ?PR?ADC_WINDOW_ISR?ADC
000051H   000052H   000002H   ---    ---      **GAP**
000053H   000055H   000003H   BYTE   OFFS..   CODE           ?ADC?00053
000056H   000058H   000003H   BYTE   UNIT     CODE           ?PR?CPU_ENABLEINTERRUPT?CPU
000059H   00005AH   000002H   ---    ---      **GAP**
00005BH   00005DH   000003H   BYTE   OFFS..   CODE           ?SERIAL?0005B
00005EH   00006FH   000012H   BYTE   UNIT     CODE           ?PR?_FLASH_BYTEREAD?EFM8BB2_FLASHPRIMITIVES
000070H   000072H   000003H   BYTE   UNIT     CODE           ?PR?CPU_DISABLEINTERRUPT?CPU
000073H   000075H   000003H   BYTE   OFFS..   CODE           ?TIMER?00073
000076H   00009AH   000025H   BYTE   UNIT     CODE           ?PR?UART0_MOUDLE_DIS?UART
00009BH   00009DH   000003H   BYTE   OFFS..   CODE           ?TIMER?0009B
00009EH   00069FH   000602H   BYTE   UNIT     CODE           ?PR?CMD_PROCESS?COMMAND
0006A0H   000A73H   0003D4H   BYTE   UNIT     CODE           ?C?LIB_CODE
000A74H   000DB7H   000344H   BYTE   UNIT     CODE           ?PR?DETOBJ_RAWECHODATAANS?DETECTOBJ
000DB8H   00103FH   000288H   BYTE   UNIT     CODE           ?PR?DETOBJ_COMPARETHEDATA?DETECTOBJ
001040H   0012AAH   00026BH   BYTE   UNIT     CODE           ?PR?_RECEIVEFRAMERECORRESPONDING?UARTCFG
0012ABH   0014D8H   00022EH   BYTE   UNIT     CODE           ?PR?_UART0_RXDATA?UART
0014D9H   0016E7H   00020FH   BYTE   UNIT     CODE           ?PR?DETOBJ_DETTHEOBJ?DETECTOBJ
0016E8H   0018E7H   000200H   BYTE   UNIT     CODE           ?PR?ADC_READID?ADC
0018E8H   001ACDH   0001E6H   BYTE   UNIT     CODE           ?PR?CMD_UPDATADISTANCE?COMMAND
001ACEH   001CB0H   0001E3H   BYTE   UNIT     CODE           ?PR?DETOBJ_CALSAMPNOISE?DETECTOBJ
001CB1H   001E86H   0001D6H   BYTE   UNIT     CODE           ?PR?DETOBJ_RAWFILTER?DETECTOBJ
001E87H   00200CH   000186H   BYTE   UNIT     CODE           ?PR?_SRL_SENDDATA?SERIAL
00200DH   002173H   000167H   BYTE   UNIT     CODE           ?PR?DETOBJ_GENERATETHENEARESTOBSTACLE?DETECTOBJ
002174H   0022CCH   000159H   BYTE   UNIT     CODE           ?PR?PCA0_ISR?SERIAL
0022CDH   002411H   000145H   BYTE   UNIT     CODE           ?PR?DETOBJ_RAWNOISEDATAANS?DETECTOBJ
002412H   002525H   000114H   BYTE   UNIT     CODE           ?PR?CMD_DISTANCETOCOMINFO?COMMAND
002526H   00262CH   000107H   BYTE   UNIT     CODE           ?PR?DETOBJ_DIAGNOSTICTHERINGTIME?DETECTOBJ
00262DH   002732H   000106H   BYTE   UNIT     CODE           ?PR?CMD_GETVECHILEMODE?COMMAND
002733H   002837H   000105H   BYTE   UNIT     CODE           ?PR?_SRL_GETDATA?SERIAL
002838H   002937H   000100H   BYTE   UNIT     CODE           ?PR?CMD_RENEWVECHILECFG?COMMAND
002938H   0029F8H   0000C1H   BYTE   UNIT     CODE           ?PR?CMD_SENDDISTANCETOBCM?COMMAND
0029F9H   002AB8H   0000C0H   BYTE   UNIT     CODE           ?PR?INITGLOBALVARIABLE?MAIN
002AB9H   002B77H   0000BFH   BYTE   UNIT     CODE           ?PR?ADC_ISR?ADC
002B78H   002C34H   0000BDH   BYTE   UNIT     CODE           ?PR?UART0_DATAINIT?UARTCFG
002C35H   002CE9H   0000B5H   BYTE   UNIT     CODE           ?C_INITSEG
002CEAH   002D95H   0000ACH   BYTE   UNIT     CODE           ?PR?CMD_SENDSELFCHECKTOBCM?COMMAND
002D96H   002E41H   0000ACH   BYTE   UNIT     CODE           ?PR?_CALCFRAMECHECKSUM?UARTCFG
002E42H   002EE8H   0000A7H   BYTE   UNIT     CODE           ?PR?_SRL_GETHEADER?SERIAL
002EE9H   002F89H   0000A1H   BYTE   UNIT     CODE           ?PR?DETOBJ_PROCESSTHERINGTIME?DETECTOBJ
002F8AH   003028H   00009FH   BYTE   UNIT     CODE           ?PR?MAIN?MAIN
003029H   0030B7H   00008FH   BYTE   UNIT     CODE           ?C_C51STARTUP
0030B8H   00313CH   000085H   BYTE   UNIT     CODE           ?PR?DETOBJ_INITTHEEPD?DETECTOBJ
00313DH   0031AFH   000073H   BYTE   UNIT     CODE           ?PR?DETOBJ_CLEARTHENOISEBUFF?DETECTOBJ
LX51 LINKER/LOCATER V4.66.30.0                                                        08/11/2020  17:20:48  PAGE 4


0031B0H   003218H   000069H   BYTE   UNIT     CODE           ?PR?ADC_POWERSAMPLE?ADC
003219H   003280H   000068H   BYTE   UNIT     CODE           ?PR?CMD_NEXTSENSORDET?COMMAND
003281H   0032E6H   000066H   BYTE   UNIT     CODE           ?PR?CMD_SAVEDATA?COMMAND
0032E7H   00334BH   000065H   BYTE   UNIT     CODE           ?PR?_GETDISTANCE?DETECTOBJ
00334CH   0033B0H   000065H   BYTE   UNIT     CODE           ?PR?UART0_ISR?UART
0033B1H   003414H   000064H   BYTE   UNIT     CODE           ?PR?TIMER2_ISR?TIMER
003415H   003477H   000063H   BYTE   UNIT     CODE           ?PR?DETOBJ_SENDTHE58KHZULTRASONIC?DETECTOBJ
003478H   0034DAH   000063H   BYTE   UNIT     CODE           ?PR?DETOBJ_HOLDTHEOBSTACLESTATE?DETECTOBJ
0034DBH   003537H   00005DH   BYTE   UNIT     CODE           ?PR?_CMD_RELEASEVECHILECFGINFO?COMMAND
003538H   003592H   00005BH   BYTE   UNIT     CODE           ?PR?RXDATAPARITY?SERIAL
003593H   0035E3H   000051H   BYTE   UNIT     CODE           ?PR?DETOBJ_INITALLCHANNELDISTANCE?DETECTOBJ
0035E4H   00362EH   00004BH   BYTE   UNIT     CODE           ?PR?DETOBJ_INITTHECCD?DETECTOBJ
00362FH   003678H   00004AH   BYTE   UNIT     CODE           ?PR?INITUART0RECEIVEVAR?UARTCFG
003679H   0036BDH   000045H   BYTE   UNIT     CODE           ?PR?CMD_SENDREQVECHIMODETOBCM?COMMAND
0036BEH   003701H   000044H   BYTE   UNIT     CODE           ?PR?ADC_CALUE?ADC
003702H   003744H   000043H   BYTE   UNIT     CODE           ?PR?_DETOBJ_COPYSAMPLINGBUFFER?DETECTOBJ
003745H   003784H   000040H   BYTE   UNIT     CODE           ?PR?_CALCBYTEEVEN?UARTCFG
003785H   0037C3H   00003FH   BYTE   UNIT     CODE           ?PR?CMD_NEXTSENSORSELF?COMMAND
0037C4H   0037FDH   00003AH   BYTE   UNIT     CODE           ?PR?INITUART0ALLVAR?UARTCFG
0037FEH   003835H   000038H   BYTE   UNIT     CODE           ?PR?_DELAY1US?TIMER
003836H   00386CH   000037H   BYTE   UNIT     CODE           ?PR?TIME_INITPCA0?TIMER
00386DH   00389FH   000033H   BYTE   UNIT     CODE           ?PR?ADC_INITDETECT?ADC
0038A0H   0038CEH   00002FH   BYTE   UNIT     CODE           ?PR?ADC_POWERSAMPLINGINIT?ADC
0038CFH   0038FDH   00002FH   BYTE   UNIT     CODE           ?PR?ADC_IDSAMPLINGINIT?ADC
0038FEH   00392CH   00002FH   BYTE   UNIT     CODE           ?PR?TIMER3_ISR?TIMER
00392DH   003959H   00002DH   BYTE   UNIT     CODE           ?PR?_COMMUNICATIONMODE?SERIAL
00395AH   003984H   00002BH   BYTE   UNIT     CODE           ?PR?TIME_INIT1MSTIMER?TIMER
003985H   0039AFH   00002BH   BYTE   UNIT     CODE           ?PR?TIME_INITTHEDELAYTIMER?TIMER
0039B0H   0039D9H   00002AH   BYTE   UNIT     CODE           ?PR?DETOBJ_REALTIMECLOCK?DETECTOBJ
0039DAH   003A03H   00002AH   BYTE   UNIT     CODE           ?PR?DETOBJ_CLEARTHERAWDATABUFF?DETECTOBJ
003A04H   003A2CH   000029H   BYTE   UNIT     CODE           ?PR?_FLASH_BYTEWRITE?EFM8BB2_FLASHPRIMITIVES
003A2DH   003A55H   000029H   BYTE   UNIT     CODE           ?PR?_FLASH_PAGEERASE?EFM8BB2_FLASHPRIMITIVES
003A56H   003A7EH   000029H   BYTE   UNIT     CODE           ?PR?TIME_INITUART0TIMER?TIMER
003A7FH   003AA6H   000028H   BYTE   UNIT     CODE           ?PR?_START_PCA0_CAPTURE?TIMER
003AA7H   003ACEH   000028H   BYTE   UNIT     CODE           ?PR?_STOP_PCA0_CAPTURE?TIMER
003ACFH   003AF5H   000027H   BYTE   UNIT     CODE           ?PR?TIME_INITADCTRIGGERTIMER?TIMER
003AF6H   003B1CH   000027H   BYTE   UNIT     CODE           ?PR?UART0_INIT?UART
003B1DH   003B43H   000027H   BYTE   UNIT     CODE           ?PR?_UART0_WRITEBYTE?UART
003B44H   003B69H   000026H   BYTE   UNIT     CODE           ?PR?DETOBJ_DIAGNOSTICTHESENSOR?DETECTOBJ
003B6AH   003B8FH   000026H   BYTE   UNIT     CODE           ?PR?ENABLEINTERNALCOMMUNICAITON?SERIAL
003B90H   003BB3H   000024H   BYTE   UNIT     CODE           ?PR?CPU_INITHARDWAREPORT?CPU
003BB4H   003BD1H   00001EH   BYTE   UNIT     CODE           ?PR?CPU_CLK_INIT?CPU
003BD2H   003BEDH   00001CH   BYTE   UNIT     CODE           ?PR?TIME_INIT32MSTIMER?TIMER
003BEEH   003C09H   00001CH   BYTE   UNIT     CODE           ?PR?TIME_STARTADCTRIGGER?TIMER
003C0AH   003C24H   00001BH   BYTE   UNIT     CODE           ?PR?TIMER4_ISR?TIMER
003C25H   003C3BH   000017H   BYTE   UNIT     CODE           ?PR?_CPU_WDG_INIT?CPU
003C3CH   003C4BH   000010H   BYTE   UNIT     CODE           ?PR?UART0_MODEDATAL?UART
003C4CH   003C5BH   000010H   BYTE   UNIT     CODE           ?PR?UART0_MODEDATAH?UART
003C5CH   003C69H   00000EH   BYTE   UNIT     CODE           ?PR?_FLASH_WRITEVECHILEMODE?EFM8BB2_FLASHPRIMITIVES
003C6AH   003C76H   00000DH   BYTE   UNIT     CODE           ?PR?ADC_START?ADC
003C77H   003C83H   00000DH   BYTE   UNIT     CODE           ?PR?START_PCA0_COMPARATOR?TIMER
003C84H   003C8FH   00000CH   BYTE   UNIT     CODE           ?PR?UART0_INTRX_DIS?UART
003C90H   003C9BH   00000CH   BYTE   UNIT     CODE           ?PR?UART0_INTRX_EN?UART
003C9CH   003CA5H   00000AH   BYTE   UNIT     CODE           ?PR?ADC_STOP?ADC
003CA6H   003CAFH   00000AH   BYTE   UNIT     CODE           ?PR?DISABLEINTERNALCOMMUNICAITON?SERIAL
003CB0H   003CB8H   000009H   BYTE   UNIT     CODE           ?PR?DETOBJ_START?DETECTOBJ
003CB9H   003CC0H   000008H   BYTE   UNIT     CODE           ?PR?STOP_PCA0_COMPARATOR?TIMER
003CC1H   003CC6H   000006H   BYTE   UNIT     CODE           ?PR?DETOBJ_STOP?DETECTOBJ
003CC7H   003CCCH   000006H   BYTE   UNIT     CODE           ?PR?DETOBJ_INITTHEANALYSISDATA?DETECTOBJ

* * * * * * * * * * *  X D A T A   M E M O R Y  * * * * * * * * * * * * *
000000H   000227H   000228H   BYTE   UNIT     XDATA          ?XD?DETECTOBJ
LX51 LINKER/LOCATER V4.66.30.0                                                        08/11/2020  17:20:48  PAGE 5


000228H   000287H   000060H   BYTE   UNIT     XDATA          ?XD?UARTCFG
000288H   0002E1H   00005AH   BYTE   UNIT     XDATA          ?XD?COMMAND
0002E2H   000338H   000057H   BYTE   UNIT     XDATA          ?XD?SERIAL
000339H   000361H   000029H   BYTE   UNIT     XDATA          ?XD?ADC
000362H   000384H   000023H   BYTE   UNIT     XDATA          ?XD?UART
000385H   0003A5H   000021H   BYTE   UNIT     XDATA          _XDATA_GROUP_
0003A6H   0003B0H   00000BH   BYTE   UNIT     XDATA          ?XD?MAIN
0003B1H   0003BAH   00000AH   BYTE   UNIT     XDATA          ?XD?TIMER
0003BBH   0003C0H   000006H   BYTE   UNIT     XDATA          ?XD?SPEAKER
0003C1H   0003C1H   000001H   BYTE   UNIT     XDATA          ?XD?CPU

* * * * * * * * *   R E M O V E D     S E G M E N T S   * * * * * * * *
   *DEL*:           00001CH   BYTE   UNIT     CODE           ?PR?ADC_INITVARIABLE?ADC
   *DEL*:           000015H   BYTE   UNIT     CODE           ?PR?CMD_CLEARBUFFER?COMMAND
   *DEL*:           000003H   BYTE   UNIT     CODE           ?PR?CMD_VECHILECFGCHECK?COMMAND
   *DEL*:           000001H   BYTE   UNIT     CODE           ?PR?CPU_INIT_VECT?CPU
   *DEL*:           000001H   BYTE   UNIT     CODE           ?PR?NULL?DETECTOBJ
   *DEL*:           000050H   BYTE   UNIT     CODE           ?PR?DETOBJ_INITSELFCHECKVAR?DETECTOBJ
   *DEL*:           000241H   BYTE   UNIT     CODE           ?PR?DETOBJ_INITVARIABLE?DETECTOBJ
   *DEL*:           000002H   BYTE   UNIT     XDATA          ?XD?DETOBJ_INITVARIABLE?DETECTOBJ
   *DEL*:           000001H   BYTE   UNIT     CODE           ?PR?DETOBJ_PREECHOPROCESS?DETECTOBJ
   *DEL*:           000005H   BYTE   UNIT     CODE           ?PR?ENTER_DEFAULTMODE_FROM_RESET?INITDEVICE
   *DEL*:           00001EH   BYTE   UNIT     CODE           ?PR?SRL_INITVARIABLE?SERIAL
   *DEL*:           000006H   BYTE   UNIT     CODE           ?PR?SPK_INITHARDWARE?SPEAKER
   *DEL*:           000012H   BYTE   UNIT     CODE           ?PR?SPK_INITVARIABLE?SPEAKER
   *DEL*:           0000C6H   BYTE   UNIT     CODE           ?PR?SPK_DRIVETHESPEAKER?SPEAKER
   *DEL*:           00001AH   BYTE   UNIT     CODE           ?PR?TIME_INITVARIABLE?TIMER
   *DEL*:           000005H   BYTE   UNIT     CODE           ?PR?ENABLETHE32MSTIMERINTERRUPT?TIMER
   *DEL*:           000003H   BYTE   UNIT     CODE           ?PR?DISABLETHE32MSTIMERINTERRUPT?TIMER
   *DEL*:           000005H   BYTE   UNIT     CODE           ?PR?STOPTHEUART0TIMER?TIMER
   *DEL*:           000013H   BYTE   UNIT     CODE           ?PR?STARTTHE32MSTIMER?TIMER
   *DEL*:           00000FH   BYTE   UNIT     CODE           ?PR?STOPTHE32MSTIMER?TIMER
   *DEL*:           000017H   BYTE   UNIT     CODE           ?PR?START1MSTIMER?TIMER
   *DEL*:           000011H   BYTE   UNIT     CODE           ?PR?STOP1MSTIMER?TIMER



OVERLAY MAP OF MODULE:   DFSK-F508-EFM8BB21F16G-C-QFN20.OMF.CRBUILD (ADC)


FUNCTION/MODULE                                BIT_GROUP   XDATA_GROUP
--> CALLED FUNCTION/MODULE                    START  STOP  START  STOP
======================================================================
ADC_ISR/ADC                                   ----- -----  0385H 0387H

*** NEW ROOT ********************************

ADC_WINDOW_ISR/ADC                            ----- -----  ----- -----

*** NEW ROOT ********************************

?C_C51STARTUP                                 ----- -----  ----- -----
  +--> SILABS_STARTUP/MAIN
  +--> MAIN/MAIN
  +--> ?C_INITSEG

SILABS_STARTUP/MAIN                           ----- -----  ----- -----

MAIN/MAIN                                     ----- -----  ----- -----
  +--> CPU_CLK_INIT/CPU
  +--> CPU_INITHARDWAREPORT/CPU
  +--> _CPU_WDG_INIT/CPU
LX51 LINKER/LOCATER V4.66.30.0                                                        08/11/2020  17:20:48  PAGE 6


  +--> TIME_INITTHEDELAYTIMER/TIMER
  +--> TIME_INIT1MSTIMER/TIMER
  +--> TIME_INIT32MSTIMER/TIMER
  +--> INITGLOBALVARIABLE/MAIN
  +--> TIME_INITUART0TIMER/TIMER
  +--> TIME_INITPCA0/TIMER
  +--> CPU_ENABLEINTERRUPT/CPU
  +--> _DELAY1MS/TIMER
  +--> ADC_READID/ADC
  +--> CMD_GETVECHILEMODE/COMMAND
  +--> DETOBJ_DETTHEOBJ/DETECTOBJ
  +--> _COMMUNICATIONMODE/SERIAL
  +--> DETOBJ_INITALLCHANNELDISTANCE/DETECTOBJ

CPU_CLK_INIT/CPU                              ----- -----  ----- -----

CPU_INITHARDWAREPORT/CPU                      ----- -----  ----- -----

_CPU_WDG_INIT/CPU                             ----- -----  ----- -----

TIME_INITTHEDELAYTIMER/TIMER                  ----- -----  ----- -----

TIME_INIT1MSTIMER/TIMER                       ----- -----  ----- -----

TIME_INIT32MSTIMER/TIMER                      ----- -----  ----- -----

INITGLOBALVARIABLE/MAIN                       ----- -----  ----- -----
  +--> INITUART0ALLVAR/UARTCFG
  +--> DETOBJ_INITALLCHANNELDISTANCE/DETECTOBJ
  +--> _SRL_GETHEADER/SERIAL

INITUART0ALLVAR/UARTCFG                       ----- -----  ----- -----
  +--> UART0_DATAINIT/UARTCFG
  +--> INITUART0RECEIVEVAR/UARTCFG

UART0_DATAINIT/UARTCFG                        ----- -----  ----- -----

INITUART0RECEIVEVAR/UARTCFG                   ----- -----  ----- -----

DETOBJ_INITALLCHANNELDISTANCE/DETECTOBJ       ----- -----  ----- -----
  +--> DETOBJ_STOP/DETECTOBJ

DETOBJ_STOP/DETECTOBJ                         ----- -----  ----- -----
  +--> TIME_STOPADCTRIGGER/TIMER
  +--> ADC_STOP/ADC

TIME_STOPADCTRIGGER/TIMER                     ----- -----  ----- -----

ADC_STOP/ADC                                  ----- -----  ----- -----

_SRL_GETHEADER/SERIAL                         ----- -----  ----- -----
  +--> _SRL_GETDATA/SERIAL

_SRL_GETDATA/SERIAL                           ----- -----  0388H 038AH
  +--> RXDATAPARITY/SERIAL

RXDATAPARITY/SERIAL                           ----- -----  ----- -----

TIME_INITUART0TIMER/TIMER                     ----- -----  ----- -----

TIME_INITPCA0/TIMER                           ----- -----  ----- -----

LX51 LINKER/LOCATER V4.66.30.0                                                        08/11/2020  17:20:48  PAGE 7


CPU_ENABLEINTERRUPT/CPU                       ----- -----  ----- -----

_DELAY1MS/TIMER                               ----- -----  ----- -----
  +--> _DELAY1US/TIMER

_DELAY1US/TIMER                               ----- -----  ----- -----

ADC_READID/ADC                                ----- -----  ----- -----
  +--> ADC_POWERSAMPLE/ADC
  +--> _DELAY1MS/TIMER

ADC_POWERSAMPLE/ADC                           ----- -----  ----- -----
  +--> ADC_POWERSAMPLINGINIT/ADC
  +--> ADC_CALUE/ADC
  +--> ADC_IDSAMPLINGINIT/ADC

ADC_POWERSAMPLINGINIT/ADC                     ----- -----  ----- -----

ADC_CALUE/ADC                                 ----- -----  ----- -----
  +--> _DELAY1US/TIMER
  +--> ADC_STOP/ADC

ADC_IDSAMPLINGINIT/ADC                        ----- -----  ----- -----

CMD_GETVECHILEMODE/COMMAND                    ----- -----  0388H 0388H
  +--> _COMMUNICATIONMODE/SERIAL
  +--> _DELAY1US/TIMER
  +--> CMD_SENDREQVECHIMODETOBCM/COMMAND
  +--> _FLASH_WRITEVECHILEMODE/EFM8BB2_FLASHPRIMITIVES
  +--> FLASH_READVECHILEMODE/EFM8BB2_FLASHPRIMITIVES
  +--> _CMD_RELEASEVECHILECFGINFO/COMMAND

_COMMUNICATIONMODE/SERIAL                     ----- -----  038AH 038AH
  +--> UART0_MOUDLE_DIS/UART
  +--> ENABLEINTERNALCOMMUNICAITON/SERIAL
  +--> _STOP_PCA0_CAPTURE/TIMER
  +--> UART0_INIT/UART
  +--> DISABLEINTERNALCOMMUNICAITON/SERIAL

UART0_MOUDLE_DIS/UART                         ----- -----  ----- -----

ENABLEINTERNALCOMMUNICAITON/SERIAL            ----- -----  ----- -----
  +--> _START_PCA0_CAPTURE/TIMER

_START_PCA0_CAPTURE/TIMER                     ----- -----  ----- -----

_STOP_PCA0_CAPTURE/TIMER                      ----- -----  ----- -----

UART0_INIT/UART                               ----- -----  ----- -----
  +--> STARTTHEUART0TIMER/TIMER

STARTTHEUART0TIMER/TIMER                      ----- -----  ----- -----

DISABLEINTERNALCOMMUNICAITON/SERIAL           ----- -----  ----- -----
  +--> _STOP_PCA0_CAPTURE/TIMER

CMD_SENDREQVECHIMODETOBCM/COMMAND             ----- -----  0389H 0389H
  +--> UART0_MODEDATAL/UART
  +--> UART0_INTRX_DIS/UART
  +--> _DELAY1US/TIMER
  +--> _UART0_WRITEBYTE/UART
  +--> UART0_INTRX_EN/UART
LX51 LINKER/LOCATER V4.66.30.0                                                        08/11/2020  17:20:48  PAGE 8


  +--> UART0_MODEDATAH/UART

UART0_MODEDATAL/UART                          ----- -----  ----- -----

UART0_INTRX_DIS/UART                          ----- -----  ----- -----

_UART0_WRITEBYTE/UART                         ----- -----  ----- -----

UART0_INTRX_EN/UART                           ----- -----  ----- -----

UART0_MODEDATAH/UART                          ----- -----  ----- -----

_FLASH_WRITEVECHILEMODE/EFM8BB2_FLASHPRI+     ----- -----  ----- -----
... MITIVES
  +--> _FLASH_PAGEERASE/EFM8BB2_FLASHPRIMITIVES
  +--> _FLASH_BYTEWRITE/EFM8BB2_FLASHPRIMITIVES

_FLASH_PAGEERASE/EFM8BB2_FLASHPRIMITIVES      20H.0 20H.0  ----- -----

_FLASH_BYTEWRITE/EFM8BB2_FLASHPRIMITIVES      20H.0 20H.0  ----- -----

FLASH_READVECHILEMODE/EFM8BB2_FLASHPRIMI+     ----- -----  ----- -----
... TIVES
  +--> _FLASH_BYTEREAD/EFM8BB2_FLASHPRIMITIVES

_FLASH_BYTEREAD/EFM8BB2_FLASHPRIMITIVES       20H.0 20H.0  ----- -----

_CMD_RELEASEVECHILECFGINFO/COMMAND            ----- -----  ----- -----

DETOBJ_DETTHEOBJ/DETECTOBJ                    ----- -----  ----- -----
  +--> CMD_PROCESS/COMMAND
  +--> DETOBJ_INITTHECCD/DETECTOBJ
  +--> DETOBJ_CLEARTHERAWDATABUFF/DETECTOBJ
  +--> DETOBJ_CLEARTHENOISEBUFF/DETECTOBJ
  +--> ADC_INITDETECT/ADC
  +--> DETOBJ_START/DETECTOBJ
  +--> DETOBJ_STOP/DETECTOBJ
  +--> DETOBJ_CALSAMPNOISE/DETECTOBJ
  +--> DETOBJ_INITTHEEPD/DETECTOBJ
  +--> DETOBJ_SENDTHE58KHZULTRASONIC/DETECTOBJ
  +--> DETOBJ_RAWECHODATAANS/DETECTOBJ
  +--> DETOBJ_DIAGNOSTICTHERINGTIME/DETECTOBJ
  +--> DETOBJ_HOLDTHEOBSTACLESTATE/DETECTOBJ
  +--> DETOBJ_COMPARETHEDATA/DETECTOBJ
  +--> DETOBJ_PROCESSTHERINGTIME/DETECTOBJ
  +--> DETOBJ_GENERATETHENEARESTOBSTACLE/DETECTOBJ

CMD_PROCESS/COMMAND                           ----- -----  0388H 0389H
  +--> _SRL_SENDDATA/SERIAL
  +--> CMD_SAVEDATA/COMMAND
  +--> CMD_NEXTSENSORSELF/COMMAND
  +--> _COMMUNICATIONMODE/SERIAL
  +--> CMD_SENDSELFCHECKTOBCM/COMMAND
  +--> _DELAY1MS/TIMER
  +--> CMD_UPDATADISTANCE/COMMAND
  +--> INITUART0RECEIVEVAR/UARTCFG
  +--> CMD_SENDDISTANCETOBCM/COMMAND
  +--> CMD_RENEWVECHILECFG/COMMAND
  +--> DETOBJ_INITALLCHANNELDISTANCE/DETECTOBJ
  +--> CMD_NEXTSENSORDET/COMMAND
  +--> _STOP_PCA0_CAPTURE/TIMER
  +--> _START_PCA0_CAPTURE/TIMER
LX51 LINKER/LOCATER V4.66.30.0                                                        08/11/2020  17:20:48  PAGE 9



_SRL_SENDDATA/SERIAL                          ----- -----  038AH 0392H
  +--> START_PCA0_COMPARATOR/TIMER

START_PCA0_COMPARATOR/TIMER                   ----- -----  ----- -----

CMD_SAVEDATA/COMMAND                          ----- -----  ----- -----

CMD_NEXTSENSORSELF/COMMAND                    ----- -----  ----- -----

CMD_SENDSELFCHECKTOBCM/COMMAND                ----- -----  038AH 038BH
  +--> _CALCFRAMECHECKSUM/UARTCFG
  +--> _CALCBYTEEVEN/UARTCFG
  +--> UART0_MODEDATAL/UART
  +--> UART0_INTRX_DIS/UART
  +--> _DELAY1US/TIMER
  +--> _UART0_WRITEBYTE/UART
  +--> UART0_MODEDATAH/UART

_CALCFRAMECHECKSUM/UARTCFG                    ----- -----  ----- -----

_CALCBYTEEVEN/UARTCFG                         ----- -----  03A4H 03A4H

CMD_UPDATADISTANCE/COMMAND                    ----- -----  ----- -----
  +--> CMD_DISTANCETOCOMINFO/COMMAND

CMD_DISTANCETOCOMINFO/COMMAND                 ----- -----  ----- -----

CMD_SENDDISTANCETOBCM/COMMAND                 ----- -----  038AH 038BH
  +--> _CALCFRAMECHECKSUM/UARTCFG
  +--> _CALCBYTEEVEN/UARTCFG
  +--> UART0_MODEDATAL/UART
  +--> UART0_INTRX_DIS/UART
  +--> _DELAY1US/TIMER
  +--> _UART0_WRITEBYTE/UART
  +--> UART0_INTRX_EN/UART
  +--> UART0_MODEDATAH/UART

CMD_RENEWVECHILECFG/COMMAND                   ----- -----  ----- -----

CMD_NEXTSENSORDET/COMMAND                     ----- -----  ----- -----
  +--> _COMMUNICATIONMODE/SERIAL

DETOBJ_INITTHECCD/DETECTOBJ                   ----- -----  ----- -----

DETOBJ_CLEARTHERAWDATABUFF/DETECTOBJ          ----- -----  ----- -----
  +--> DETOBJ_INITTHEANALYSISDATA/DETECTOBJ

DETOBJ_INITTHEANALYSISDATA/DETECTOBJ          ----- -----  ----- -----

DETOBJ_CLEARTHENOISEBUFF/DETECTOBJ            ----- -----  ----- -----

ADC_INITDETECT/ADC                            ----- -----  ----- -----
  +--> ADC_START/ADC

ADC_START/ADC                                 ----- -----  ----- -----

DETOBJ_START/DETECTOBJ                        ----- -----  ----- -----
  +--> TIME_INITADCTRIGGERTIMER/TIMER
  +--> TIME_STARTADCTRIGGER/TIMER
  +--> ADC_START/ADC

LX51 LINKER/LOCATER V4.66.30.0                                                        08/11/2020  17:20:48  PAGE 10


TIME_INITADCTRIGGERTIMER/TIMER                ----- -----  ----- -----

TIME_STARTADCTRIGGER/TIMER                    ----- -----  ----- -----

DETOBJ_CALSAMPNOISE/DETECTOBJ                 ----- -----  0388H 038EH
  +--> _DETOBJ_COPYSAMPLINGBUFFER/DETECTOBJ
  +--> DETOBJ_RAWNOISEDATAANS/DETECTOBJ

_DETOBJ_COPYSAMPLINGBUFFER/DETECTOBJ          ----- -----  038FH 0395H

DETOBJ_RAWNOISEDATAANS/DETECTOBJ              ----- -----  038FH 0390H

DETOBJ_INITTHEEPD/DETECTOBJ                   ----- -----  ----- -----

DETOBJ_SENDTHE58KHZULTRASONIC/DETECTOBJ       ----- -----  0388H 0388H
  +--> CPU_DISABLEINTERRUPT/CPU
  +--> _DELAY1US/TIMER
  +--> CPU_ENABLEINTERRUPT/CPU

CPU_DISABLEINTERRUPT/CPU                      ----- -----  ----- -----

DETOBJ_RAWECHODATAANS/DETECTOBJ               ----- -----  0388H 038FH
  +--> DETOBJ_RAWFILTER/DETECTOBJ
  +--> _GETDISTANCE/DETECTOBJ

DETOBJ_RAWFILTER/DETECTOBJ                    ----- -----  0390H 0393H

_GETDISTANCE/DETECTOBJ                        ----- -----  0390H 0391H

DETOBJ_DIAGNOSTICTHERINGTIME/DETECTOBJ        ----- -----  ----- -----
  +--> DETOBJ_DIAGNOSTICTHESENSOR/DETECTOBJ

DETOBJ_DIAGNOSTICTHESENSOR/DETECTOBJ          ----- -----  ----- -----

DETOBJ_HOLDTHEOBSTACLESTATE/DETECTOBJ         ----- -----  ----- -----

DETOBJ_COMPARETHEDATA/DETECTOBJ               ----- -----  0388H 039EH

DETOBJ_PROCESSTHERINGTIME/DETECTOBJ           ----- -----  ----- -----

DETOBJ_GENERATETHENEARESTOBSTACLE/DETECT+     ----- -----  ----- -----
... OBJ

?C_INITSEG                                    ----- -----  ----- -----
  +--> _SRL_GETHEADER/SERIAL

*** NEW ROOT ********************************

PCA0_ISR/SERIAL                               ----- -----  ----- -----
  +--> STOP_PCA0_COMPARATOR/TIMER

STOP_PCA0_COMPARATOR/TIMER                    ----- -----  ----- -----

*** NEW ROOT ********************************

TIMER2_ISR/TIMER                              ----- -----  ----- -----
  +--> DETOBJ_REALTIMECLOCK/DETECTOBJ

DETOBJ_REALTIMECLOCK/DETECTOBJ                ----- -----  ----- -----

*** NEW ROOT ********************************

LX51 LINKER/LOCATER V4.66.30.0                                                        08/11/2020  17:20:48  PAGE 11


TIMER0_ISR/TIMER                              ----- -----  ----- -----

*** NEW ROOT ********************************

TIMER4_ISR/TIMER                              ----- -----  ----- -----

*** NEW ROOT ********************************

TIMER3_ISR/TIMER                              ----- -----  ----- -----

*** NEW ROOT ********************************

UART0_ISR/UART                                ----- -----  039FH 039FH
  +--> _UART0_RXDATA/UART

_UART0_RXDATA/UART                            ----- -----  03A0H 03A3H
  +--> _CALCBYTEEVEN/UARTCFG
  +--> _RECEIVEFRAMERECORRESPONDING/UARTCFG
  +--> INITUART0RECEIVEVAR/UARTCFG

_RECEIVEFRAMERECORRESPONDING/UARTCFG          ----- -----  03A4H 03A5H
  +--> INITUART0RECEIVEVAR/UARTCFG



PUBLIC SYMBOLS OF MODULE:  DFSK-F508-EFM8BB21F16G-C-QFN20.OMF.CRBUILD (ADC)


      VALUE       CLASS    TYPE      PUBLIC SYMBOL NAME
      =================================================
      0200038FH   XDATA    BYTE      ?_DetObj_CopySamplingBuffer?BYTE
      0200038AH   XDATA    BYTE      ?_Srl_SendData?BYTE
      010006CDH   CODE     ---       ?C?CILDOPTR
      010006A0H   CODE     ---       ?C?CLDOPTR
      00000000H   NUMBER   ---       ?C?CODESEG
      01000700H   CODE     ---       ?C?CSTOPTR
      010009FFH   CODE     ---       ?C?ICALL
      01000A03H   CODE     ---       ?C?ICALL2
      01000789H   CODE     ---       ?C?IILDX
      010007CAH   CODE     ---       ?C?ILDOPTR
      0100079FH   CODE     ---       ?C?ILDPTR
      01000722H   CODE     ---       ?C?IMUL
      01000821H   CODE     ---       ?C?ISTOPTR
      01000802H   CODE     ---       ?C?ISTPTR
      01000A05H   CODE     ---       ?C?LIMUL
      01000939H   CODE     ---       ?C?LSTKXDATA
      0100092DH   CODE     ---       ?C?LSTXDATA
      0100096AH   CODE     ---       ?C?OFFXADD
      01000A68H   CODE     ---       ?C?PLDCODE
      01000A32H   CODE     ---       ?C?PLDIDATA
      01000976H   CODE     ---       ?C?PLDOPTR
      01000A56H   CODE     ---       ?C?PLDPDATA
      01000A44H   CODE     ---       ?C?PLDXDATA
      01000A3BH   CODE     ---       ?C?PSTIDATA
      010009A6H   CODE     ---       ?C?PSTOPTR
      01000A5FH   CODE     ---       ?C?PSTPDATA
      01000A4DH   CODE     ---       ?C?PSTXDATA
      01000734H   CODE     ---       ?C?UIDIV
      0100091CH   CODE     ---       ?C?ULCMP
      0100088AH   CODE     ---       ?C?ULDIV
      00000000H   NUMBER   ---       ?C?XDATASEG
      01003073H   CODE     ---       ?C_START
LX51 LINKER/LOCATER V4.66.30.0                                                        08/11/2020  17:20:48  PAGE 12


      01000000H   CODE     NEAR LAB  ?C_STARTUP
      01003745H   CODE     ---       _CalcByteEVEN
      01002D96H   CODE     ---       _CalcFrameChecksum
      010034DBH   CODE     ---       _Cmd_ReleaseVechileCfgInfo
      0100392DH   CODE     ---       _CommunicationMode
      01003C25H   CODE     ---       _Cpu_WDG_Init
      0100002EH   CODE     ---       _Delay1ms
      010037FEH   CODE     ---       _Delay1us
      01003702H   CODE     ---       _DetObj_CopySamplingBuffer
      0100005EH   CODE     ---       _FLASH_ByteRead
      01003A04H   CODE     ---       _FLASH_ByteWrite
      01003A2DH   CODE     ---       _FLASH_PageErase
      01003C5CH   CODE     ---       _Flash_WriteVechileMode
      010032E7H   CODE     ---       _GetDistance
      01001040H   CODE     ---       _ReceiveFramereCorresponding
      01002733H   CODE     ---       _Srl_GetData
      01002E42H   CODE     ---       _Srl_GetHeader
      01001E87H   CODE     ---       _Srl_SendData
      01003A7FH   CODE     ---       _Start_PCA0_Capture
      01003AA7H   CODE     ---       _Stop_PCA0_Capture
      010012ABH   CODE     ---       _UART0_RXData
      01003B1DH   CODE     ---       _UART0_WriteByte
*SFR* 000000E0H   DATA     BYTE      ACC
*SFR* 000000E0H   DATA     BIT       ACC_ACC0
*SFR* 000000E0H.1 DATA     BIT       ACC_ACC1
*SFR* 000000E0H.2 DATA     BIT       ACC_ACC2
*SFR* 000000E0H.3 DATA     BIT       ACC_ACC3
*SFR* 000000E0H.4 DATA     BIT       ACC_ACC4
*SFR* 000000E0H.5 DATA     BIT       ACC_ACC5
*SFR* 000000E0H.6 DATA     BIT       ACC_ACC6
*SFR* 000000E0H.7 DATA     BIT       ACC_ACC7
      0200034EH   XDATA    ---       ADC
*SFR* 000000BDH   DATA     WORD      ADC0
*SFR* 000000B3H   DATA     BYTE      ADC0AC
*SFR* 000000BCH   DATA     BYTE      ADC0CF
*SFR* 000000E8H   DATA     BYTE      ADC0CN0
*SFR* 000000E8H.6 DATA     BIT       ADC0CN0_ADBMEN
*SFR* 000000E8H.4 DATA     BIT       ADC0CN0_ADBUSY
*SFR* 000000E8H   DATA     BIT       ADC0CN0_ADCM0
*SFR* 000000E8H.1 DATA     BIT       ADC0CN0_ADCM1
*SFR* 000000E8H.2 DATA     BIT       ADC0CN0_ADCM2
*SFR* 000000E8H.7 DATA     BIT       ADC0CN0_ADEN
*SFR* 000000E8H.5 DATA     BIT       ADC0CN0_ADINT
*SFR* 000000E8H.3 DATA     BIT       ADC0CN0_ADWINT
*SFR* 000000B2H   DATA     BYTE      ADC0CN1
*SFR* 000000C3H   DATA     WORD      ADC0GT
*SFR* 000000C4H   DATA     BYTE      ADC0GTH
*SFR* 000000C3H   DATA     BYTE      ADC0GTL
*SFR* 000000BEH   DATA     BYTE      ADC0H
*SFR* 000000BDH   DATA     BYTE      ADC0L
*SFR* 000000C5H   DATA     WORD      ADC0LT
*SFR* 000000C6H   DATA     BYTE      ADC0LTH
*SFR* 000000C5H   DATA     BYTE      ADC0LTL
*SFR* 000000BBH   DATA     BYTE      ADC0MX
*SFR* 000000DFH   DATA     BYTE      ADC0PWR
*SFR* 000000B9H   DATA     BYTE      ADC0TK
      010036BEH   CODE     ---       ADC_CALUE
      010038CFH   CODE     ---       ADC_IDSamplingInit
      0100386DH   CODE     ---       ADC_InitDetect
*DEL*:00000000H   CODE     ---       ADC_InitVariable
      01002AB9H   CODE     ---       ADC_ISR
      010031B0H   CODE     ---       ADC_PowerSample
LX51 LINKER/LOCATER V4.66.30.0                                                        08/11/2020  17:20:48  PAGE 13


      010038A0H   CODE     ---       ADC_PowerSamplingInit
      010016E8H   CODE     ---       ADC_ReadID
      01003C6AH   CODE     ---       ADC_Start
      01003C9CH   CODE     ---       ADC_Stop
      0100004EH   CODE     ---       ADC_WINDOW_ISR
      0200006BH   XDATA    ---       AnsData
*SFR* 000000F0H   DATA     BYTE      B
      020003B3H   XDATA    BYTE      b50msFlag
*SFR* 000000F0H   DATA     BIT       B_B0
*SFR* 000000F0H.1 DATA     BIT       B_B1
*SFR* 000000F0H.2 DATA     BIT       B_B2
*SFR* 000000F0H.3 DATA     BIT       B_B3
*SFR* 000000F0H.4 DATA     BIT       B_B4
*SFR* 000000F0H.5 DATA     BIT       B_B5
*SFR* 000000F0H.6 DATA     BIT       B_B6
*SFR* 000000F0H.7 DATA     BIT       B_B7
      02000344H   XDATA    BYTE      bDetectFlag
      020003B5H   XDATA    BYTE      bLevel
      0200035DH   XDATA    BYTE      bRadar_PoweFlag
      020003B4H   XDATA    BYTE      bSensorCheckFlag
      020003BAH   XDATA    BYTE      bTimeFlag
      020003ACH   XDATA    ---       buffer
      02000339H   XDATA    BYTE      bWorkFlag
      0200034DH   XDATA    BYTE      bySampleTimes
*SFR* 0000008EH   DATA     BYTE      CKCON0
*SFR* 000000A6H   DATA     BYTE      CKCON1
*SFR* 000000A9H   DATA     BYTE      CLKSEL
      02000018H   XDATA    ---       ClrtData
      02000289H   XDATA    ---       Cmd
*DEL*:00000000H   CODE     ---       Cmd_ClearBuffer
      01002412H   CODE     ---       Cmd_DistancetoComInfo
      0100262DH   CODE     ---       Cmd_GetVechileMode
      01003219H   CODE     ---       Cmd_NextSensorDet
      01003785H   CODE     ---       Cmd_NextSensorSelf
      0100009EH   CODE     ---       Cmd_Process
      01002838H   CODE     ---       Cmd_RenewVechileCfg
      01003281H   CODE     ---       Cmd_SaveData
      01002938H   CODE     ---       Cmd_SendDistancetoBCM
      01003679H   CODE     ---       Cmd_SendReqVechiModetoBCM
      01002CEAH   CODE     ---       Cmd_SendSelfChecktoBCM
      010018E8H   CODE     ---       Cmd_UpdataDistance
*DEL*:00000000H   CODE     ---       Cmd_VechileCfgCheck
*SFR* 0000009BH   DATA     BYTE      CMP0CN0
*SFR* 00000099H   DATA     BYTE      CMP0CN1
*SFR* 0000009DH   DATA     BYTE      CMP0MD
*SFR* 0000009FH   DATA     BYTE      CMP0MX
*SFR* 000000BFH   DATA     BYTE      CMP1CN0
*SFR* 000000ACH   DATA     BYTE      CMP1CN1
*SFR* 000000ABH   DATA     BYTE      CMP1MD
*SFR* 000000AAH   DATA     BYTE      CMP1MX
      0200001EH   XDATA    ---       CmpData
      01003BB4H   CODE     ---       Cpu_Clk_Init
      01000070H   CODE     ---       Cpu_DisableInterrupt
      01000056H   CODE     ---       Cpu_EnableInterrupt
*DEL*:00000000H   CODE     ---       Cpu_Init_Vect
      01003B90H   CODE     ---       Cpu_InitHardwarePort
*SFR* 000000CEH   DATA     BYTE      CRC0CN0
*SFR* 00000086H   DATA     BYTE      CRC0CN1
*SFR* 000000D3H   DATA     BYTE      CRC0CNT
*SFR* 000000DEH   DATA     BYTE      CRC0DAT
*SFR* 000000CFH   DATA     BYTE      CRC0FLIP
*SFR* 000000DDH   DATA     BYTE      CRC0IN
LX51 LINKER/LOCATER V4.66.30.0                                                        08/11/2020  17:20:48  PAGE 14


*SFR* 000000D2H   DATA     BYTE      CRC0ST
      020003A6H   XDATA    BYTE      Debug_RD1
      020003A7H   XDATA    BYTE      Debug_RD2
*SFR* 000000ADH   DATA     BYTE      DERIVID
      02000076H   XDATA    ---       DetectInterval
      020001CBH   XDATA    ---       DetInfo
      01001ACEH   CODE     ---       DetObj_CalSampNoise
      0100313DH   CODE     ---       DetObj_ClearTheNoiseBuff
      010039DAH   CODE     ---       DetObj_ClearTheRawDataBuff
      01000DB8H   CODE     ---       DetObj_CompareTheData
      020001D4H   XDATA    ---       DetObj_DataPrcs
      010014D9H   CODE     ---       DetObj_DetTheObj
      01002526H   CODE     ---       DetObj_DiagnosticTheRingTime
      01003B44H   CODE     ---       DetObj_DiagnosticTheSensor
      0100200DH   CODE     ---       DetObj_GenerateTheNearestObstacle
      01003478H   CODE     ---       DetObj_HoldTheObstaclestate
      01003593H   CODE     ---       DetObj_InitAllChannelDistance
*DEL*:00000000H   CODE     ---       DetObj_InitSelfCheckVar
      01003CC7H   CODE     ---       DetObj_InitTheAnalysisData
      010035E4H   CODE     ---       DetObj_InitTheCCD
      010030B8H   CODE     ---       DetObj_InitTheEPD
*DEL*:00000000H   CODE     ---       DetObj_InitVariable
*DEL*:00000000H   CODE     ---       DetObj_PreEchoProcess
      01002EE9H   CODE     ---       DetObj_ProcessTheRingTime
      01000A74H   CODE     ---       DetObj_RawEchoDataAns
      01001CB1H   CODE     ---       DetObj_RawFilter
      010022CDH   CODE     ---       DetObj_RawNoiseDataAns
      010039B0H   CODE     ---       DetObj_RealTimeClock
      01003415H   CODE     ---       DetObj_SendThe58KhzUltraSonic
      01003CB0H   CODE     ---       DetObj_Start
      01003CC1H   CODE     ---       DetObj_Stop
*SFR* 000000B5H   DATA     BYTE      DEVICEID
      0200000CH   XDATA    ---       DiagInfo
      01003CA6H   CODE     ---       DisableInternalCommunicaiton
*DEL*:00000000H   CODE     ---       DisableThe32msTimerInterrupt
*SFR* 00000082H   DATA     WORD      DP
*SFR* 00000083H   DATA     BYTE      DPH
*SFR* 00000082H   DATA     BYTE      DPL
      02000221H   XDATA    ---       EachSNMaxDistance
*SFR* 000000E6H   DATA     BYTE      EIE1
*SFR* 000000CEH   DATA     BYTE      EIE2
*SFR* 000000F3H   DATA     BYTE      EIP1
*SFR* 000000F5H   DATA     BYTE      EIP1H
*SFR* 000000F4H   DATA     BYTE      EIP2
*SFR* 000000F6H   DATA     BYTE      EIP2H
*SFR* 000000E7H   DATA     BYTE      EMI0CN
      01003B6AH   CODE     ---       EnableInternalCommunicaiton
*DEL*:00000000H   CODE     ---       EnableThe32msTimerInterrupt
*DEL*:00000000H   CODE     ---       enter_DefaultMode_from_RESET
      020003A8H   XDATA    DWORD     errorCount
      02000342H   XDATA    WORD      FL_MAX_VALUE
      02000340H   XDATA    WORD      FL_MIN_VALUE
      01000003H   CODE     ---       Flash_ReadVechileMode
*SFR* 000000B7H   DATA     BYTE      FLKEY
      02000347H   XDATA    WORD      FR_MAX_VALUE
      02000345H   XDATA    WORD      FR_MIN_VALUE
      02000362H   XDATA    ---       gslinContext
      0200036BH   XDATA    ---       gUart0ReceivePduInfo
*SFR* 000000C7H   DATA     BYTE      HFO0CAL
*SFR* 000000D6H   DATA     BYTE      HFO1CAL
*SFR* 000000EFH   DATA     BYTE      HFOCN
*SFR* 000000BAH   DATA     BYTE      I2C0CN0
LX51 LINKER/LOCATER V4.66.30.0                                                        08/11/2020  17:20:48  PAGE 15


*SFR* 000000BCH   DATA     BYTE      I2C0DIN
*SFR* 000000BBH   DATA     BYTE      I2C0DOUT
*SFR* 000000ADH   DATA     BYTE      I2C0FCN0
*SFR* 000000ABH   DATA     BYTE      I2C0FCN1
*SFR* 000000F5H   DATA     BYTE      I2C0FCT
*SFR* 000000BDH   DATA     BYTE      I2C0SLAD
*SFR* 000000B9H   DATA     BYTE      I2C0STAT
*SFR* 000000A8H   DATA     BYTE      IE
*SFR* 000000A8H.7 DATA     BIT       IE_EA
*SFR* 000000A8H.4 DATA     BIT       IE_ES0
*SFR* 000000A8H.6 DATA     BIT       IE_ESPI0
*SFR* 000000A8H.1 DATA     BIT       IE_ET0
*SFR* 000000A8H.3 DATA     BIT       IE_ET1
*SFR* 000000A8H.5 DATA     BIT       IE_ET2
*SFR* 000000A8H   DATA     BIT       IE_EX0
*SFR* 000000A8H.2 DATA     BIT       IE_EX1
      010029F9H   CODE     ---       InitGlobalVariable
      010037C4H   CODE     ---       InitUart0AllVar
      0100362FH   CODE     ---       InitUart0ReceiveVar
*SFR* 000000B8H   DATA     BYTE      IP
*SFR* 000000B8H.4 DATA     BIT       IP_PS0
*SFR* 000000B8H.6 DATA     BIT       IP_PSPI0
*SFR* 000000B8H.1 DATA     BIT       IP_PT0
*SFR* 000000B8H.3 DATA     BIT       IP_PT1
*SFR* 000000B8H.5 DATA     BIT       IP_PT2
*SFR* 000000B8H   DATA     BIT       IP_PX0
*SFR* 000000B8H.2 DATA     BIT       IP_PX1
*SFR* 000000F2H   DATA     BYTE      IPH
*SFR* 000000E4H   DATA     BYTE      IT01CF
*SFR* 000000B1H   DATA     BYTE      LFO0CN
      01002F8AH   CODE     ---       main
      02000278H   XDATA    ---       MsgBCM_Info
      02000268H   XDATA    ---       MsgBCM_Info_Init
      02000270H   XDATA    ---       MsgBCM_Mode
      02000260H   XDATA    ---       MsgBCM_Mode_Init
      02000248H   XDATA    ---       MsgRadar_Distance
      02000230H   XDATA    ---       MsgRadar_Distance_Init
      02000258H   XDATA    ---       MsgRadar_ReqMode
      02000240H   XDATA    ---       MsgRadar_ReqMode_Init
      02000228H   XDATA    ---       MsgRadar_Self
      02000280H   XDATA    ---       MsgRadar_Self_Init
      020001EBH   XDATA    ---       NearestData
      02000000H   XDATA    ---       Noise
*DEL*:00000000H   CODE     ---       Null
*SFR* 00000080H   DATA     BYTE      P0
*SFR* 00000080H   DATA     BIT       P0_B0
*SFR* 00000080H.1 DATA     BIT       P0_B1
*SFR* 00000080H.2 DATA     BIT       P0_B2
*SFR* 00000080H.3 DATA     BIT       P0_B3
*SFR* 00000080H.4 DATA     BIT       P0_B4
*SFR* 00000080H.5 DATA     BIT       P0_B5
*SFR* 00000080H.6 DATA     BIT       P0_B6
*SFR* 00000080H.7 DATA     BIT       P0_B7
*SFR* 000000FEH   DATA     BYTE      P0MASK
*SFR* 000000FDH   DATA     BYTE      P0MAT
*SFR* 000000F1H   DATA     BYTE      P0MDIN
*SFR* 000000A4H   DATA     BYTE      P0MDOUT
*SFR* 000000D4H   DATA     BYTE      P0SKIP
*SFR* 00000090H   DATA     BYTE      P1
*SFR* 00000090H   DATA     BIT       P1_B0
*SFR* 00000090H.1 DATA     BIT       P1_B1
*SFR* 00000090H.2 DATA     BIT       P1_B2
LX51 LINKER/LOCATER V4.66.30.0                                                        08/11/2020  17:20:48  PAGE 16


*SFR* 00000090H.3 DATA     BIT       P1_B3
*SFR* 00000090H.4 DATA     BIT       P1_B4
*SFR* 00000090H.5 DATA     BIT       P1_B5
*SFR* 00000090H.6 DATA     BIT       P1_B6
*SFR* 00000090H.7 DATA     BIT       P1_B7
*SFR* 000000EEH   DATA     BYTE      P1MASK
*SFR* 000000EDH   DATA     BYTE      P1MAT
*SFR* 000000F2H   DATA     BYTE      P1MDIN
*SFR* 000000A5H   DATA     BYTE      P1MDOUT
*SFR* 000000D5H   DATA     BYTE      P1SKIP
*SFR* 000000A0H   DATA     BYTE      P2
*SFR* 000000A0H   DATA     BIT       P2_B0
*SFR* 000000A0H.1 DATA     BIT       P2_B1
*SFR* 000000A0H.2 DATA     BIT       P2_B2
*SFR* 000000A0H.3 DATA     BIT       P2_B3
*SFR* 000000FCH   DATA     BYTE      P2MASK
*SFR* 000000FBH   DATA     BYTE      P2MAT
*SFR* 000000F3H   DATA     BYTE      P2MDIN
*SFR* 000000A6H   DATA     BYTE      P2MDOUT
*SFR* 000000CCH   DATA     BYTE      P2SKIP
*SFR* 000000B0H   DATA     BYTE      P3
*SFR* 000000B0H   DATA     BIT       P3_B0
*SFR* 000000B0H.1 DATA     BIT       P3_B1
*SFR* 000000F4H   DATA     BYTE      P3MDIN
*SFR* 0000009CH   DATA     BYTE      P3MDOUT
*SFR* 000000F9H   DATA     WORD      PCA0
      01002174H   CODE     ---       PCA0_ISR
*SFR* 0000009EH   DATA     BYTE      PCA0CENT
*SFR* 0000009CH   DATA     BYTE      PCA0CLR
*SFR* 000000D8H   DATA     BYTE      PCA0CN0
*SFR* 000000D8H   DATA     BIT       PCA0CN0_CCF0
*SFR* 000000D8H.1 DATA     BIT       PCA0CN0_CCF1
*SFR* 000000D8H.2 DATA     BIT       PCA0CN0_CCF2
*SFR* 000000D8H.7 DATA     BIT       PCA0CN0_CF
*SFR* 000000D8H.6 DATA     BIT       PCA0CN0_CR
*SFR* 000000FBH   DATA     WORD      PCA0CP0
*SFR* 000000E9H   DATA     WORD      PCA0CP1
*SFR* 000000EBH   DATA     WORD      PCA0CP2
*SFR* 000000FCH   DATA     BYTE      PCA0CPH0
*SFR* 000000EAH   DATA     BYTE      PCA0CPH1
*SFR* 000000ECH   DATA     BYTE      PCA0CPH2
*SFR* 000000FBH   DATA     BYTE      PCA0CPL0
*SFR* 000000E9H   DATA     BYTE      PCA0CPL1
*SFR* 000000EBH   DATA     BYTE      PCA0CPL2
*SFR* 000000DAH   DATA     BYTE      PCA0CPM0
*SFR* 000000DBH   DATA     BYTE      PCA0CPM1
*SFR* 000000DCH   DATA     BYTE      PCA0CPM2
*SFR* 000000FAH   DATA     BYTE      PCA0H
*SFR* 000000F9H   DATA     BYTE      PCA0L
*SFR* 000000D9H   DATA     BYTE      PCA0MD
*SFR* 00000096H   DATA     BYTE      PCA0POL
*SFR* 000000F7H   DATA     BYTE      PCA0PWM
*SFR* 00000087H   DATA     BYTE      PCON0
*SFR* 0000009AH   DATA     BYTE      PCON1
*SFR* 000000C1H   DATA     BYTE      PFE0CN
*SFR* 000000A0H   DATA     BYTE      PPAGE_SFR
*SFR* 000000F6H   DATA     BYTE      PRTDRV
*SFR* 0000008FH   DATA     BYTE      PSCTL
*SFR* 000000D0H   DATA     BYTE      PSW
*SFR* 000000D0H.6 DATA     BIT       PSW_AC
*SFR* 000000D0H.7 DATA     BIT       PSW_CY
*SFR* 000000D0H.5 DATA     BIT       PSW_F0
LX51 LINKER/LOCATER V4.66.30.0                                                        08/11/2020  17:20:48  PAGE 17


*SFR* 000000D0H.1 DATA     BIT       PSW_F1
*SFR* 000000D0H.2 DATA     BIT       PSW_OV
*SFR* 000000D0H   DATA     BIT       PSW_PARITY
*SFR* 000000D0H.3 DATA     BIT       PSW_RS0
*SFR* 000000D0H.4 DATA     BIT       PSW_RS1
      0200007CH   XDATA    ---       RawData
*SFR* 000000D1H   DATA     BYTE      REF0CN
*SFR* 000000C9H   DATA     BYTE      REG0CN
*SFR* 000000C6H   DATA     BYTE      REG1CN
*SFR* 000000B6H   DATA     BYTE      REVID
      0200034BH   XDATA    WORD      RL_MAX_VALUE
      02000349H   XDATA    WORD      RL_MIN_VALUE
      0200033EH   XDATA    WORD      RML_MAX_VALUE
      0200033CH   XDATA    WORD      RML_MIN_VALUE
      0200035EH   XDATA    WORD      RR_MAX_VALUE
      0200035BH   XDATA    WORD      RR_MIN_VALUE
*SFR* 000000EFH   DATA     BYTE      RSTSRC
      01003538H   CODE     ---       RxDataParity
*SFR* 00000094H   DATA     BYTE      SBCON1
*SFR* 00000095H   DATA     WORD      SBRL1
*SFR* 00000096H   DATA     BYTE      SBRLH1
*SFR* 00000095H   DATA     BYTE      SBRLL1
*SFR* 00000099H   DATA     BYTE      SBUF0
*SFR* 00000092H   DATA     BYTE      SBUF1
*SFR* 00000098H   DATA     BYTE      SCON0
*SFR* 00000098H.5 DATA     BIT       SCON0_MCE
*SFR* 00000098H.2 DATA     BIT       SCON0_RB8
*SFR* 00000098H.4 DATA     BIT       SCON0_REN
*SFR* 00000098H   DATA     BIT       SCON0_RI
*SFR* 00000098H.7 DATA     BIT       SCON0_SMODE
*SFR* 00000098H.3 DATA     BIT       SCON0_TB8
*SFR* 00000098H.1 DATA     BIT       SCON0_TI
*SFR* 000000C8H   DATA     BYTE      SCON1
*SFR* 000000C8H.7 DATA     BIT       SCON1_OVR
*SFR* 000000C8H.6 DATA     BIT       SCON1_PERR
*SFR* 000000C8H.2 DATA     BIT       SCON1_RBX
*SFR* 000000C8H.4 DATA     BIT       SCON1_REN
*SFR* 000000C8H   DATA     BIT       SCON1_RI
*SFR* 000000C8H.3 DATA     BIT       SCON1_TBX
*SFR* 000000C8H.1 DATA     BIT       SCON1_TI
      020002E9H   XDATA    ---       Serial
      020002E2H   XDATA    ---       Serial_ISP
*SFR* 000000A7H   DATA     BYTE      SFRPAGE
      020003C1H   XDATA    BYTE      SFRPAGE_TEMP
*SFR* 000000CFH   DATA     BYTE      SFRPGCN
*SFR* 000000D7H   DATA     BYTE      SFRSTACK
      01000021H   CODE     ---       SiLabs_Startup
*SFR* 000000D6H   DATA     BYTE      SMB0ADM
*SFR* 000000D7H   DATA     BYTE      SMB0ADR
*SFR* 000000C1H   DATA     BYTE      SMB0CF
*SFR* 000000C0H   DATA     BYTE      SMB0CN0
*SFR* 000000C0H.1 DATA     BIT       SMB0CN0_ACK
*SFR* 000000C0H.3 DATA     BIT       SMB0CN0_ACKRQ
*SFR* 000000C0H.2 DATA     BIT       SMB0CN0_ARBLOST
*SFR* 000000C0H.7 DATA     BIT       SMB0CN0_MASTER
*SFR* 000000C0H   DATA     BIT       SMB0CN0_SI
*SFR* 000000C0H.5 DATA     BIT       SMB0CN0_STA
*SFR* 000000C0H.4 DATA     BIT       SMB0CN0_STO
*SFR* 000000C0H.6 DATA     BIT       SMB0CN0_TXMODE
*SFR* 000000C2H   DATA     BYTE      SMB0DAT
*SFR* 000000C3H   DATA     BYTE      SMB0FCN0
*SFR* 000000C4H   DATA     BYTE      SMB0FCN1
LX51 LINKER/LOCATER V4.66.30.0                                                        08/11/2020  17:20:48  PAGE 18


*SFR* 000000EFH   DATA     BYTE      SMB0FCT
*SFR* 000000C5H   DATA     BYTE      SMB0RXLN
*SFR* 000000ACH   DATA     BYTE      SMB0TC
*SFR* 00000093H   DATA     BYTE      SMOD1
      020002E1H   XDATA    ---       SnrCfgSta
*SFR* 00000081H   DATA     BYTE      SP
      020003BBH   XDATA    ---       Speaker
*SFR* 000000A1H   DATA     BYTE      SPI0CFG
*SFR* 000000A2H   DATA     BYTE      SPI0CKR
*SFR* 000000F8H   DATA     BYTE      SPI0CN0
*SFR* 000000F8H.5 DATA     BIT       SPI0CN0_MODF
*SFR* 000000F8H.2 DATA     BIT       SPI0CN0_NSSMD0
*SFR* 000000F8H.3 DATA     BIT       SPI0CN0_NSSMD1
*SFR* 000000F8H.4 DATA     BIT       SPI0CN0_RXOVRN
*SFR* 000000F8H   DATA     BIT       SPI0CN0_SPIEN
*SFR* 000000F8H.7 DATA     BIT       SPI0CN0_SPIF
*SFR* 000000F8H.1 DATA     BIT       SPI0CN0_TXNF
*SFR* 000000F8H.6 DATA     BIT       SPI0CN0_WCOL
*SFR* 000000A3H   DATA     BYTE      SPI0DAT
*SFR* 0000009AH   DATA     BYTE      SPI0FCN0
*SFR* 0000009BH   DATA     BYTE      SPI0FCN1
*SFR* 000000F7H   DATA     BYTE      SPI0FCT
*DEL*:00000000H   CODE     ---       Spk_DriveTheSpeaker
*DEL*:00000000H   CODE     ---       Spk_InitHardware
*DEL*:00000000H   CODE     ---       Spk_InitVariable
*DEL*:00000000H   CODE     ---       Srl_InitVariable
*DEL*:00000000H   CODE     ---       Start1msTimer
      01003C77H   CODE     ---       Start_PCA0_Comparator
*DEL*:00000000H   CODE     ---       StartThe32msTimer
      01000026H   CODE     ---       StartTheUart0Timer
*DEL*:00000000H   CODE     ---       Stop1msTimer
      01003CB9H   CODE     ---       Stop_PCA0_Comparator
*DEL*:00000000H   CODE     ---       StopThe32msTimer
*DEL*:00000000H   CODE     ---       StopTheUart0Timer
      020001D7H   XDATA    ---       TableHeight
      020001F9H   XDATA    ---       TableWidth
*SFR* 00000088H   DATA     BYTE      TCON
*SFR* 00000088H.1 DATA     BIT       TCON_IE0
*SFR* 00000088H.3 DATA     BIT       TCON_IE1
*SFR* 00000088H   DATA     BIT       TCON_IT0
*SFR* 00000088H.2 DATA     BIT       TCON_IT1
*SFR* 00000088H.5 DATA     BIT       TCON_TF0
*SFR* 00000088H.7 DATA     BIT       TCON_TF1
*SFR* 00000088H.4 DATA     BIT       TCON_TR0
*SFR* 00000088H.6 DATA     BIT       TCON_TR1
*SFR* 0000008CH   DATA     BYTE      TH0
*SFR* 0000008DH   DATA     BYTE      TH1
      0100395AH   CODE     ---       Time_Init1msTimer
      01003BD2H   CODE     ---       Time_Init32msTimer
      01003ACFH   CODE     ---       Time_InitAdcTriggerTimer
      01003836H   CODE     ---       Time_InitPCA0
      01003985H   CODE     ---       Time_InitTheDelayTimer
      01003A56H   CODE     ---       Time_InitUart0Timer
*DEL*:00000000H   CODE     ---       Time_InitVariable
      01003BEEH   CODE     ---       Time_StartAdcTrigger
      0100000EH   CODE     ---       Time_StopAdcTrigger
      01000022H   CODE     ---       TIMER0_ISR
      010033B1H   CODE     ---       TIMER2_ISR
      010038FEH   CODE     ---       TIMER3_ISR
      01003C0AH   CODE     ---       TIMER4_ISR
*SFR* 0000008AH   DATA     BYTE      TL0
*SFR* 0000008BH   DATA     BYTE      TL1
LX51 LINKER/LOCATER V4.66.30.0                                                        08/11/2020  17:20:48  PAGE 19


*SFR* 00000089H   DATA     BYTE      TMOD
*SFR* 000000CCH   DATA     WORD      TMR2
*SFR* 000000C8H   DATA     BYTE      TMR2CN0
*SFR* 000000C8H.3 DATA     BIT       TMR2CN0_T2SPLIT
*SFR* 000000C8H   DATA     BIT       TMR2CN0_T2XCLK0
*SFR* 000000C8H.1 DATA     BIT       TMR2CN0_T2XCLK1
*SFR* 000000C8H.4 DATA     BIT       TMR2CN0_TF2CEN
*SFR* 000000C8H.7 DATA     BIT       TMR2CN0_TF2H
*SFR* 000000C8H.6 DATA     BIT       TMR2CN0_TF2L
*SFR* 000000C8H.5 DATA     BIT       TMR2CN0_TF2LEN
*SFR* 000000C8H.2 DATA     BIT       TMR2CN0_TR2
*SFR* 000000FDH   DATA     BYTE      TMR2CN1
*SFR* 000000CDH   DATA     BYTE      TMR2H
*SFR* 000000CCH   DATA     BYTE      TMR2L
*SFR* 000000CAH   DATA     WORD      TMR2RL
*SFR* 000000CBH   DATA     BYTE      TMR2RLH
*SFR* 000000CAH   DATA     BYTE      TMR2RLL
*SFR* 00000094H   DATA     WORD      TMR3
*SFR* 00000091H   DATA     BYTE      TMR3CN0
*SFR* 000000FEH   DATA     BYTE      TMR3CN1
*SFR* 00000095H   DATA     BYTE      TMR3H
*SFR* 00000094H   DATA     BYTE      TMR3L
*SFR* 00000092H   DATA     WORD      TMR3RL
*SFR* 00000093H   DATA     BYTE      TMR3RLH
*SFR* 00000092H   DATA     BYTE      TMR3RLL
*SFR* 000000A4H   DATA     WORD      TMR4
*SFR* 00000098H   DATA     BYTE      TMR4CN0
*SFR* 00000098H.3 DATA     BIT       TMR4CN0_T4SPLIT
*SFR* 00000098H   DATA     BIT       TMR4CN0_T4XCLK0
*SFR* 00000098H.1 DATA     BIT       TMR4CN0_T4XCLK1
*SFR* 00000098H.4 DATA     BIT       TMR4CN0_TF4CEN
*SFR* 00000098H.7 DATA     BIT       TMR4CN0_TF4H
*SFR* 00000098H.6 DATA     BIT       TMR4CN0_TF4L
*SFR* 00000098H.5 DATA     BIT       TMR4CN0_TF4LEN
*SFR* 00000098H.2 DATA     BIT       TMR4CN0_TR4
*SFR* 000000FFH   DATA     BYTE      TMR4CN1
*SFR* 000000A5H   DATA     BYTE      TMR4H
*SFR* 000000A4H   DATA     BYTE      TMR4L
*SFR* 000000A2H   DATA     WORD      TMR4RL
*SFR* 000000A3H   DATA     BYTE      TMR4RLH
*SFR* 000000A2H   DATA     BYTE      TMR4RLL
      01002B78H   CODE     ---       UART0_DataInit
      01003AF6H   CODE     ---       Uart0_Init
      01003C84H   CODE     ---       UART0_INTRX_Dis
      01003C90H   CODE     ---       UART0_INTRX_En
      0100334CH   CODE     ---       UART0_ISR
      01003C4CH   CODE     ---       UART0_ModeDataH
      01003C3CH   CODE     ---       UART0_ModeDataL
      01000076H   CODE     ---       UART0_Moudle_Dis
      02000384H   XDATA    BYTE      Uart0RX_OK_Flag
      0200036AH   XDATA    BYTE      Uart0TX_ALL_Flag
      02000383H   XDATA    BYTE      Uart0TX_NOTOK_Flag
*SFR* 0000009DH   DATA     BYTE      UART1FCN0
*SFR* 000000D8H   DATA     BYTE      UART1FCN1
*SFR* 000000D8H.3 DATA     BIT       UART1FCN1_RFRQ
*SFR* 000000D8H   DATA     BIT       UART1FCN1_RIE
*SFR* 000000D8H.1 DATA     BIT       UART1FCN1_RXTO0
*SFR* 000000D8H.2 DATA     BIT       UART1FCN1_RXTO1
*SFR* 000000D8H.7 DATA     BIT       UART1FCN1_TFRQ
*SFR* 000000D8H.4 DATA     BIT       UART1FCN1_TIE
*SFR* 000000D8H.5 DATA     BIT       UART1FCN1_TXHOLD
*SFR* 000000D8H.6 DATA     BIT       UART1FCN1_TXNF
LX51 LINKER/LOCATER V4.66.30.0                                                        08/11/2020  17:20:48  PAGE 20


*SFR* 000000FAH   DATA     BYTE      UART1FCT
*SFR* 0000009EH   DATA     BYTE      UART1LIN
*SFR* 000000FFH   DATA     BYTE      VDM0CN
      020003B6H   XDATA    WORD      w50msCnt
*SFR* 00000097H   DATA     BYTE      WDTCN
      0200033AH   XDATA    WORD      wPowerValue
      02000360H   XDATA    WORD      wSampleValue
      020003B8H   XDATA    WORD      wSensorCheckTime
      020003B1H   XDATA    WORD      wTime
*SFR* 000000E1H   DATA     BYTE      XBR0
*SFR* 000000E2H   DATA     BYTE      XBR1
*SFR* 000000E3H   DATA     BYTE      XBR2



SYMBOL TABLE OF MODULE:  DFSK-F508-EFM8BB21F16G-C-QFN20.OMF.CRBUILD (ADC)

      VALUE       REP       CLASS    TYPE      SYMBOL NAME
      ====================================================
      ---         MODULE    ---      ---       ADC
      02000360H   PUBLIC    XDATA    WORD      wSampleValue
      0200035EH   PUBLIC    XDATA    WORD      RR_MAX_VALUE
      0200035DH   PUBLIC    XDATA    BYTE      bRadar_PoweFlag
      0200035BH   PUBLIC    XDATA    WORD      RR_MIN_VALUE
      0200034EH   PUBLIC    XDATA    ---       ADC
      0200034DH   PUBLIC    XDATA    BYTE      bySampleTimes
      0200034BH   PUBLIC    XDATA    WORD      RL_MAX_VALUE
      02000349H   PUBLIC    XDATA    WORD      RL_MIN_VALUE
      02000347H   PUBLIC    XDATA    WORD      FR_MAX_VALUE
      02000345H   PUBLIC    XDATA    WORD      FR_MIN_VALUE
      02000344H   PUBLIC    XDATA    BYTE      bDetectFlag
      02000342H   PUBLIC    XDATA    WORD      FL_MAX_VALUE
      02000340H   PUBLIC    XDATA    WORD      FL_MIN_VALUE
      0200033EH   PUBLIC    XDATA    WORD      RML_MAX_VALUE
      0200033CH   PUBLIC    XDATA    WORD      RML_MIN_VALUE
      0200033AH   PUBLIC    XDATA    WORD      wPowerValue
      02000339H   PUBLIC    XDATA    BYTE      bWorkFlag
      0100004EH   PUBLIC    CODE     ---       ADC_WINDOW_ISR
      01002AB9H   PUBLIC    CODE     ---       ADC_ISR
      0100386DH   PUBLIC    CODE     ---       ADC_InitDetect
      01003C9CH   PUBLIC    CODE     ---       ADC_Stop
      01003C6AH   PUBLIC    CODE     ---       ADC_Start
      010016E8H   PUBLIC    CODE     ---       ADC_ReadID
      010031B0H   PUBLIC    CODE     ---       ADC_PowerSample
      010036BEH   PUBLIC    CODE     ---       ADC_CALUE
      010038CFH   PUBLIC    CODE     ---       ADC_IDSamplingInit
      010038A0H   PUBLIC    CODE     ---       ADC_PowerSamplingInit
      000000A2H   SFRSYM    DATA     BYTE      SPI0CKR
      00000080H   SFRSYM    DATA     BYTE      P0
      000000C8H.6 SFRSYM    DATA     BIT       SCON1_PERR
      000000D0H.2 SFRSYM    DATA     BIT       PSW_OV
      00000090H   SFRSYM    DATA     BYTE      P1
      000000F8H.1 SFRSYM    DATA     BIT       SPI0CN0_TXNF
      00000097H   SFRSYM    DATA     BYTE      WDTCN
      000000A0H   SFRSYM    DATA     BYTE      P2
      000000B0H   SFRSYM    DATA     BYTE      P3
      000000BCH   SFRSYM    DATA     BYTE      ADC0CF
      000000C0H.7 SFRSYM    DATA     BIT       SMB0CN0_MASTER
      000000F9H   SFRSYM    DATA     WORD      PCA0
      000000E6H   SFRSYM    DATA     BYTE      EIE1
      000000C0H.1 SFRSYM    DATA     BIT       SMB0CN0_ACK
      000000CEH   SFRSYM    DATA     BYTE      EIE2
LX51 LINKER/LOCATER V4.66.30.0                                                        08/11/2020  17:20:48  PAGE 21


      0000008FH   SFRSYM    DATA     BYTE      PSCTL
      000000E4H   SFRSYM    DATA     BYTE      IT01CF
      000000C0H.6 SFRSYM    DATA     BIT       SMB0CN0_TXMODE
      000000ADH   SFRSYM    DATA     BYTE      DERIVID
      000000A7H   SFRSYM    DATA     BYTE      SFRPAGE
      000000A4H   SFRSYM    DATA     BYTE      P0MDOUT
      000000A5H   SFRSYM    DATA     BYTE      P1MDOUT
      000000E8H.5 SFRSYM    DATA     BIT       ADC0CN0_ADINT
      000000CBH   SFRSYM    DATA     BYTE      TMR2RLH
      000000A6H   SFRSYM    DATA     BYTE      P2MDOUT
      000000A8H   SFRSYM    DATA     BYTE      IE
      00000093H   SFRSYM    DATA     BYTE      TMR3RLH
      0000009CH   SFRSYM    DATA     BYTE      P3MDOUT
      000000A3H   SFRSYM    DATA     BYTE      TMR4RLH
      000000F3H   SFRSYM    DATA     BYTE      EIP1
      000000F4H   SFRSYM    DATA     BYTE      EIP2
      00000098H.2 SFRSYM    DATA     BIT       SCON0_RB8
      000000CAH   SFRSYM    DATA     BYTE      TMR2RLL
      000000FCH   SFRSYM    DATA     BYTE      PCA0CPH0
      00000092H   SFRSYM    DATA     BYTE      TMR3RLL
      000000EAH   SFRSYM    DATA     BYTE      PCA0CPH1
      00000098H.3 SFRSYM    DATA     BIT       SCON0_TB8
      000000F0H   SFRSYM    DATA     BIT       B_B0
      00000082H   SFRSYM    DATA     WORD      DP
      000000A2H   SFRSYM    DATA     BYTE      TMR4RLL
      000000ECH   SFRSYM    DATA     BYTE      PCA0CPH2
      000000F0H.1 SFRSYM    DATA     BIT       B_B1
      000000C3H   SFRSYM    DATA     WORD      ADC0GT
      000000BDH   SFRSYM    DATA     BYTE      I2C0SLAD
      000000D8H.3 SFRSYM    DATA     BIT       UART1FCN1_RFRQ
      000000F0H.2 SFRSYM    DATA     BIT       B_B2
      000000CFH   SFRSYM    DATA     BYTE      SFRPGCN
      000000FBH   SFRSYM    DATA     BYTE      PCA0CPL0
      000000F0H.3 SFRSYM    DATA     BIT       B_B3
      000000D9H   SFRSYM    DATA     BYTE      PCA0MD
      000000DAH   SFRSYM    DATA     BYTE      PCA0CPM0
      000000E9H   SFRSYM    DATA     BYTE      PCA0CPL1
      000000D8H.7 SFRSYM    DATA     BIT       UART1FCN1_TFRQ
      000000F0H.4 SFRSYM    DATA     BIT       B_B4
      000000DBH   SFRSYM    DATA     BYTE      PCA0CPM1
      000000EBH   SFRSYM    DATA     BYTE      PCA0CPL2
      000000F0H.5 SFRSYM    DATA     BIT       B_B5
      000000DCH   SFRSYM    DATA     BYTE      PCA0CPM2
      000000B8H   SFRSYM    DATA     BYTE      IP
      000000B9H   SFRSYM    DATA     BYTE      ADC0TK
      000000F0H.6 SFRSYM    DATA     BIT       B_B6
      000000C5H   SFRSYM    DATA     WORD      ADC0LT
      000000D8H.6 SFRSYM    DATA     BIT       UART1FCN1_TXNF
      00000098H.5 SFRSYM    DATA     BIT       SCON0_MCE
      000000F0H.7 SFRSYM    DATA     BIT       B_B7
      000000C3H   SFRSYM    DATA     BYTE      SMB0FCN0
      000000E1H   SFRSYM    DATA     BYTE      XBR0
      000000C4H   SFRSYM    DATA     BYTE      SMB0FCN1
      000000C1H   SFRSYM    DATA     BYTE      SMB0CF
      000000E2H   SFRSYM    DATA     BYTE      XBR1
      000000C1H   SFRSYM    DATA     BYTE      PFE0CN
      000000E7H   SFRSYM    DATA     BYTE      EMI0CN
      000000C0H.5 SFRSYM    DATA     BIT       SMB0CN0_STA
      000000E3H   SFRSYM    DATA     BYTE      XBR2
      000000BBH   SFRSYM    DATA     BYTE      ADC0MX
      000000E0H   SFRSYM    DATA     BIT       ACC_ACC0
      000000D1H   SFRSYM    DATA     BYTE      REF0CN
LX51 LINKER/LOCATER V4.66.30.0                                                        08/11/2020  17:20:48  PAGE 22


      0000008EH   SFRSYM    DATA     BYTE      CKCON0
      000000E0H.1 SFRSYM    DATA     BIT       ACC_ACC1
      000000C9H   SFRSYM    DATA     BYTE      REG0CN
      000000DDH   SFRSYM    DATA     BYTE      CRC0IN
      000000A6H   SFRSYM    DATA     BYTE      CKCON1
      000000C8H.2 SFRSYM    DATA     BIT       TMR2CN0_TR2
      000000E0H.2 SFRSYM    DATA     BIT       ACC_ACC2
      000000C6H   SFRSYM    DATA     BYTE      REG1CN
      000000E0H.3 SFRSYM    DATA     BIT       ACC_ACC3
      00000081H   SFRSYM    DATA     BYTE      SP
      0000009DH   SFRSYM    DATA     BYTE      CMP0MD
      000000E0H.4 SFRSYM    DATA     BIT       ACC_ACC4
      000000B1H   SFRSYM    DATA     BYTE      LFO0CN
      000000ABH   SFRSYM    DATA     BYTE      CMP1MD
      000000D8H   SFRSYM    DATA     BIT       PCA0CN0_CCF0
      000000E0H.5 SFRSYM    DATA     BIT       ACC_ACC5
      00000098H.2 SFRSYM    DATA     BIT       TMR4CN0_TR4
      000000D8H.1 SFRSYM    DATA     BIT       PCA0CN0_CCF1
      000000E0H.6 SFRSYM    DATA     BIT       ACC_ACC6
      000000CCH   SFRSYM    DATA     WORD      TMR2
      0000009AH   SFRSYM    DATA     BYTE      SPI0FCN0
      000000D8H.2 SFRSYM    DATA     BIT       PCA0CN0_CCF2
      000000E0H.7 SFRSYM    DATA     BIT       ACC_ACC7
      00000094H   SFRSYM    DATA     WORD      TMR3
      0000009BH   SFRSYM    DATA     BYTE      SPI0FCN1
      000000A4H   SFRSYM    DATA     WORD      TMR4
      00000094H   SFRSYM    DATA     BYTE      SBCON1
      000000C0H.3 SFRSYM    DATA     BIT       SMB0CN0_ACKRQ
      000000FFH   SFRSYM    DATA     BYTE      VDM0CN
      000000F1H   SFRSYM    DATA     BYTE      P0MDIN
      00000098H.4 SFRSYM    DATA     BIT       SCON0_REN
      000000ACH   SFRSYM    DATA     BYTE      SMB0TC
      000000F2H   SFRSYM    DATA     BYTE      P1MDIN
      000000C8H.4 SFRSYM    DATA     BIT       SCON1_REN
      000000F3H   SFRSYM    DATA     BYTE      P2MDIN
      000000C0H.4 SFRSYM    DATA     BIT       SMB0CN0_STO
      000000F4H   SFRSYM    DATA     BYTE      P3MDIN
      000000B9H   SFRSYM    DATA     BYTE      I2C0STAT
      000000BBH   SFRSYM    DATA     BYTE      I2C0DOUT
      00000096H   SFRSYM    DATA     BYTE      SBRLH1
      000000FEH   SFRSYM    DATA     BYTE      P0MASK
      000000D8H.5 SFRSYM    DATA     BIT       UART1FCN1_TXHOLD
      000000EEH   SFRSYM    DATA     BYTE      P1MASK
      000000FCH   SFRSYM    DATA     BYTE      P2MASK
      000000D0H.3 SFRSYM    DATA     BIT       PSW_RS0
      000000D8H.7 SFRSYM    DATA     BIT       PCA0CN0_CF
      0000009EH   SFRSYM    DATA     BYTE      PCA0CENT
      000000BAH   SFRSYM    DATA     BYTE      I2C0CN0
      000000D2H   SFRSYM    DATA     BYTE      CRC0ST
      000000F8H.4 SFRSYM    DATA     BIT       SPI0CN0_RXOVRN
      000000D0H.4 SFRSYM    DATA     BIT       PSW_RS1
      00000095H   SFRSYM    DATA     BYTE      SBRLL1
      000000C8H.2 SFRSYM    DATA     BIT       SCON1_RBX
      000000C8H   SFRSYM    DATA     BIT       TMR2CN0_T2XCLK0
      000000C8H.1 SFRSYM    DATA     BIT       TMR2CN0_T2XCLK1
      000000C8H.3 SFRSYM    DATA     BIT       SCON1_TBX
      000000E8H.7 SFRSYM    DATA     BIT       ADC0CN0_ADEN
      00000089H   SFRSYM    DATA     BYTE      TMOD
      00000088H   SFRSYM    DATA     BYTE      TCON
      000000CFH   SFRSYM    DATA     BYTE      CRC0FLIP
      000000D0H   SFRSYM    DATA     BIT       PSW_PARITY
      000000A8H.4 SFRSYM    DATA     BIT       IE_ES0
LX51 LINKER/LOCATER V4.66.30.0                                                        08/11/2020  17:20:48  PAGE 23


      0000009FH   SFRSYM    DATA     BYTE      CMP0MX
      00000098H   SFRSYM    DATA     BIT       TMR4CN0_T4XCLK0
      000000A8H.1 SFRSYM    DATA     BIT       IE_ET0
      000000AAH   SFRSYM    DATA     BYTE      CMP1MX
      00000098H.1 SFRSYM    DATA     BIT       TMR4CN0_T4XCLK1
      000000A8H.3 SFRSYM    DATA     BIT       IE_ET1
      000000D4H   SFRSYM    DATA     BYTE      P0SKIP
      000000D8H   SFRSYM    DATA     BIT       UART1FCN1_RIE
      000000A8H.5 SFRSYM    DATA     BIT       IE_ET2
      000000D5H   SFRSYM    DATA     BYTE      P1SKIP
      000000CCH   SFRSYM    DATA     BYTE      P2SKIP
      000000E8H   SFRSYM    DATA     BYTE      ADC0CN0
      000000D8H.4 SFRSYM    DATA     BIT       UART1FCN1_TIE
      000000A8H   SFRSYM    DATA     BIT       IE_EX0
      000000B2H   SFRSYM    DATA     BYTE      ADC0CN1
      000000D8H.6 SFRSYM    DATA     BIT       PCA0CN0_CR
      000000A8H.2 SFRSYM    DATA     BIT       IE_EX1
      000000C8H.7 SFRSYM    DATA     BIT       SCON1_OVR
      00000098H.7 SFRSYM    DATA     BIT       SCON0_SMODE
      000000B5H   SFRSYM    DATA     BYTE      DEVICEID
      000000A9H   SFRSYM    DATA     BYTE      CLKSEL
      000000F8H   SFRSYM    DATA     BIT       SPI0CN0_SPIEN
      000000F0H   SFRSYM    DATA     BYTE      B
      000000BEH   SFRSYM    DATA     BYTE      ADC0H
      000000E8H.6 SFRSYM    DATA     BIT       ADC0CN0_ADBMEN
      000000CAH   SFRSYM    DATA     WORD      TMR2RL
      000000BDH   SFRSYM    DATA     BYTE      ADC0L
      00000092H   SFRSYM    DATA     WORD      TMR3RL
      000000A2H   SFRSYM    DATA     WORD      TMR4RL
      000000D8H   SFRSYM    DATA     BYTE      PCA0CN0
      000000E0H   SFRSYM    DATA     BYTE      ACC
      000000FBH   SFRSYM    DATA     WORD      PCA0CP0
      000000E9H   SFRSYM    DATA     WORD      PCA0CP1
      000000EBH   SFRSYM    DATA     WORD      PCA0CP2
      000000BCH   SFRSYM    DATA     BYTE      I2C0DIN
      000000CEH   SFRSYM    DATA     BYTE      CRC0CN0
      0000008CH   SFRSYM    DATA     BYTE      TH0
      00000086H   SFRSYM    DATA     BYTE      CRC0CN1
      000000B8H.4 SFRSYM    DATA     BIT       IP_PS0
      000000FAH   SFRSYM    DATA     BYTE      UART1FCT
      0000008DH   SFRSYM    DATA     BYTE      TH1
      000000FAH   SFRSYM    DATA     BYTE      PCA0H
      000000F5H   SFRSYM    DATA     BYTE      I2C0FCT
      000000B8H.1 SFRSYM    DATA     BIT       IP_PT0
      000000B8H.3 SFRSYM    DATA     BIT       IP_PT1
      000000C0H.2 SFRSYM    DATA     BIT       SMB0CN0_ARBLOST
      000000B8H.5 SFRSYM    DATA     BIT       IP_PT2
      0000008AH   SFRSYM    DATA     BYTE      TL0
      000000D0H.5 SFRSYM    DATA     BIT       PSW_F0
      000000A8H.6 SFRSYM    DATA     BIT       IE_ESPI0
      0000008BH   SFRSYM    DATA     BYTE      TL1
      000000F9H   SFRSYM    DATA     BYTE      PCA0L
      000000C0H   SFRSYM    DATA     BIT       SMB0CN0_SI
      000000D0H.1 SFRSYM    DATA     BIT       PSW_F1
      00000080H   SFRSYM    DATA     BIT       P0_B0
      000000B8H   SFRSYM    DATA     BIT       IP_PX0
      00000090H   SFRSYM    DATA     BIT       P1_B0
      00000080H.1 SFRSYM    DATA     BIT       P0_B1
      000000B8H.2 SFRSYM    DATA     BIT       IP_PX1
      0000009EH   SFRSYM    DATA     BYTE      UART1LIN
      0000009BH   SFRSYM    DATA     BYTE      CMP0CN0
      00000088H.1 SFRSYM    DATA     BIT       TCON_IE0
LX51 LINKER/LOCATER V4.66.30.0                                                        08/11/2020  17:20:48  PAGE 24


      000000A0H   SFRSYM    DATA     BIT       P2_B0
      00000090H.1 SFRSYM    DATA     BIT       P1_B1
      00000080H.2 SFRSYM    DATA     BIT       P0_B2
      000000BFH   SFRSYM    DATA     BYTE      CMP1CN0
      00000099H   SFRSYM    DATA     BYTE      CMP0CN1
      00000088H.3 SFRSYM    DATA     BIT       TCON_IE1
      000000B0H   SFRSYM    DATA     BIT       P3_B0
      000000A0H.1 SFRSYM    DATA     BIT       P2_B1
      00000090H.2 SFRSYM    DATA     BIT       P1_B2
      00000080H.3 SFRSYM    DATA     BIT       P0_B3
      000000C0H   SFRSYM    DATA     BYTE      SMB0CN0
      000000ACH   SFRSYM    DATA     BYTE      CMP1CN1
      000000B0H.1 SFRSYM    DATA     BIT       P3_B1
      000000A0H.2 SFRSYM    DATA     BIT       P2_B2
      00000090H.3 SFRSYM    DATA     BIT       P1_B3
      00000080H.4 SFRSYM    DATA     BIT       P0_B4
      000000A0H.3 SFRSYM    DATA     BIT       P2_B3
      00000090H.4 SFRSYM    DATA     BIT       P1_B4
      00000080H.5 SFRSYM    DATA     BIT       P0_B5
      000000D8H.1 SFRSYM    DATA     BIT       UART1FCN1_RXTO0
      00000090H.5 SFRSYM    DATA     BIT       P1_B5
      00000080H.6 SFRSYM    DATA     BIT       P0_B6
      000000F5H   SFRSYM    DATA     BYTE      EIP1H
      000000D8H.2 SFRSYM    DATA     BIT       UART1FCN1_RXTO1
      00000090H.6 SFRSYM    DATA     BIT       P1_B6
      00000080H.7 SFRSYM    DATA     BIT       P0_B7
      000000C5H   SFRSYM    DATA     BYTE      SMB0RXLN
      000000F6H   SFRSYM    DATA     BYTE      EIP2H
      00000090H.7 SFRSYM    DATA     BIT       P1_B7
      00000083H   SFRSYM    DATA     BYTE      DPH
      000000C4H   SFRSYM    DATA     BYTE      ADC0GTH
      000000C8H.7 SFRSYM    DATA     BIT       TMR2CN0_TF2H
      000000C8H.3 SFRSYM    DATA     BIT       TMR2CN0_T2SPLIT
      000000D0H.6 SFRSYM    DATA     BIT       PSW_AC
      000000F8H   SFRSYM    DATA     BYTE      SPI0CN0
      000000C7H   SFRSYM    DATA     BYTE      HFO0CAL
      00000088H.5 SFRSYM    DATA     BIT       TCON_TF0
      00000098H   SFRSYM    DATA     BIT       SCON0_RI
      000000D6H   SFRSYM    DATA     BYTE      HFO1CAL
      00000082H   SFRSYM    DATA     BYTE      DPL
      00000088H.7 SFRSYM    DATA     BIT       TCON_TF1
      000000C8H   SFRSYM    DATA     BIT       SCON1_RI
      00000099H   SFRSYM    DATA     BYTE      SBUF0
      00000087H   SFRSYM    DATA     BYTE      PCON0
      000000F2H   SFRSYM    DATA     BYTE      IPH
      000000C3H   SFRSYM    DATA     BYTE      ADC0GTL
      00000098H.7 SFRSYM    DATA     BIT       TMR4CN0_TF4H
      00000098H.3 SFRSYM    DATA     BIT       TMR4CN0_T4SPLIT
      000000C8H.6 SFRSYM    DATA     BIT       TMR2CN0_TF2L
      00000098H.1 SFRSYM    DATA     BIT       SCON0_TI
      000000E8H   SFRSYM    DATA     BIT       ADC0CN0_ADCM0
      00000092H   SFRSYM    DATA     BYTE      SBUF1
      0000009AH   SFRSYM    DATA     BYTE      PCON1
      000000C6H   SFRSYM    DATA     BYTE      ADC0LTH
      00000088H   SFRSYM    DATA     BIT       TCON_IT0
      000000C8H.1 SFRSYM    DATA     BIT       SCON1_TI
      000000E8H.1 SFRSYM    DATA     BIT       ADC0CN0_ADCM1
      000000EFH   SFRSYM    DATA     BYTE      RSTSRC
      000000FDH   SFRSYM    DATA     BYTE      P0MAT
      000000DEH   SFRSYM    DATA     BYTE      CRC0DAT
      00000088H.2 SFRSYM    DATA     BIT       TCON_IT1
      000000E8H.2 SFRSYM    DATA     BIT       ADC0CN0_ADCM2
LX51 LINKER/LOCATER V4.66.30.0                                                        08/11/2020  17:20:48  PAGE 25


      000000D7H   SFRSYM    DATA     BYTE      SFRSTACK
      00000098H   SFRSYM    DATA     BYTE      SCON0
      000000F6H   SFRSYM    DATA     BYTE      PRTDRV
      000000EDH   SFRSYM    DATA     BYTE      P1MAT
      000000E8H.3 SFRSYM    DATA     BIT       ADC0CN0_ADWINT
      00000095H   SFRSYM    DATA     WORD      SBRL1
      00000093H   SFRSYM    DATA     BYTE      SMOD1
      000000C8H   SFRSYM    DATA     BYTE      SCON1
      000000FBH   SFRSYM    DATA     BYTE      P2MAT
      00000098H.6 SFRSYM    DATA     BIT       TMR4CN0_TF4L
      000000E8H.4 SFRSYM    DATA     BIT       ADC0CN0_ADBUSY
      000000D6H   SFRSYM    DATA     BYTE      SMB0ADM
      000000C5H   SFRSYM    DATA     BYTE      ADC0LTL
      000000F8H.5 SFRSYM    DATA     BIT       SPI0CN0_MODF
      000000B8H.6 SFRSYM    DATA     BIT       IP_PSPI0
      0000009CH   SFRSYM    DATA     BYTE      PCA0CLR
      000000C8H   SFRSYM    DATA     BYTE      TMR2CN0
      00000091H   SFRSYM    DATA     BYTE      TMR3CN0
      000000FDH   SFRSYM    DATA     BYTE      TMR2CN1
      00000098H   SFRSYM    DATA     BYTE      TMR4CN0
      000000FEH   SFRSYM    DATA     BYTE      TMR3CN1
      000000FFH   SFRSYM    DATA     BYTE      TMR4CN1
      000000D7H   SFRSYM    DATA     BYTE      SMB0ADR
      00000088H.4 SFRSYM    DATA     BIT       TCON_TR0
      000000C8H.4 SFRSYM    DATA     BIT       TMR2CN0_TF2CEN
      00000088H.6 SFRSYM    DATA     BIT       TCON_TR1
      000000C2H   SFRSYM    DATA     BYTE      SMB0DAT
      000000CDH   SFRSYM    DATA     BYTE      TMR2H
      000000A1H   SFRSYM    DATA     BYTE      SPI0CFG
      00000095H   SFRSYM    DATA     BYTE      TMR3H
      000000EFH   SFRSYM    DATA     BYTE      HFOCN
      000000D3H   SFRSYM    DATA     BYTE      CRC0CNT
      000000A5H   SFRSYM    DATA     BYTE      TMR4H
      00000098H.4 SFRSYM    DATA     BIT       TMR4CN0_TF4CEN
      000000EFH   SFRSYM    DATA     BYTE      SMB0FCT
      00000096H   SFRSYM    DATA     BYTE      PCA0POL
      000000CCH   SFRSYM    DATA     BYTE      TMR2L
      000000F8H.7 SFRSYM    DATA     BIT       SPI0CN0_SPIF
      00000094H   SFRSYM    DATA     BYTE      TMR3L
      000000DFH   SFRSYM    DATA     BYTE      ADC0PWR
      000000A8H.7 SFRSYM    DATA     BIT       IE_EA
      000000A4H   SFRSYM    DATA     BYTE      TMR4L
      000000C8H.5 SFRSYM    DATA     BIT       TMR2CN0_TF2LEN
      000000F8H.6 SFRSYM    DATA     BIT       SPI0CN0_WCOL
      000000F8H.2 SFRSYM    DATA     BIT       SPI0CN0_NSSMD0
      000000D0H.7 SFRSYM    DATA     BIT       PSW_CY
      0000009DH   SFRSYM    DATA     BYTE      UART1FCN0
      000000A3H   SFRSYM    DATA     BYTE      SPI0DAT
      000000ADH   SFRSYM    DATA     BYTE      I2C0FCN0
      000000F8H.3 SFRSYM    DATA     BIT       SPI0CN0_NSSMD1
      000000BDH   SFRSYM    DATA     WORD      ADC0
      000000D8H   SFRSYM    DATA     BYTE      UART1FCN1
      000000ABH   SFRSYM    DATA     BYTE      I2C0FCN1
      00000098H.5 SFRSYM    DATA     BIT       TMR4CN0_TF4LEN
      000000D0H   SFRSYM    DATA     BYTE      PSW
      000000F7H   SFRSYM    DATA     BYTE      PCA0PWM
      000000F7H   SFRSYM    DATA     BYTE      SPI0FCT
      000000B6H   SFRSYM    DATA     BYTE      REVID
      000000B7H   SFRSYM    DATA     BYTE      FLKEY
      000000B3H   SFRSYM    DATA     BYTE      ADC0AC

      010038A0H   BLOCK     CODE     ---       LVL=0
LX51 LINKER/LOCATER V4.66.30.0                                                        08/11/2020  17:20:48  PAGE 26


      010038A0H   LINE      CODE     ---       #52
      010038A0H   LINE      CODE     ---       #53
      010038A0H   LINE      CODE     ---       #54
      010038A2H   LINE      CODE     ---       #55
      010038A4H   LINE      CODE     ---       #56
      010038A6H   LINE      CODE     ---       #57
      010038A9H   LINE      CODE     ---       #58
      010038ACH   LINE      CODE     ---       #63
      010038AFH   LINE      CODE     ---       #68
      010038B2H   LINE      CODE     ---       #73
      010038B5H   LINE      CODE     ---       #74
      010038B8H   LINE      CODE     ---       #75
      010038BBH   LINE      CODE     ---       #76
      010038BDH   LINE      CODE     ---       #77
      010038BFH   LINE      CODE     ---       #78
      010038C2H   LINE      CODE     ---       #79
      010038C5H   LINE      CODE     ---       #86
      010038C9H   LINE      CODE     ---       #87
      010038CBH   LINE      CODE     ---       #88
      010038CEH   LINE      CODE     ---       #91
      ---         BLOCKEND  ---      ---       LVL=0

      010038CFH   BLOCK     CODE     ---       LVL=0
      010038CFH   LINE      CODE     ---       #93
      010038CFH   LINE      CODE     ---       #94
      010038CFH   LINE      CODE     ---       #95
      010038D1H   LINE      CODE     ---       #96
      010038D3H   LINE      CODE     ---       #97
      010038D5H   LINE      CODE     ---       #98
      010038D8H   LINE      CODE     ---       #99
      010038DBH   LINE      CODE     ---       #104
      010038DEH   LINE      CODE     ---       #109
      010038E1H   LINE      CODE     ---       #114
      010038E4H   LINE      CODE     ---       #115
      010038E7H   LINE      CODE     ---       #116
      010038EAH   LINE      CODE     ---       #117
      010038ECH   LINE      CODE     ---       #118
      010038EEH   LINE      CODE     ---       #119
      010038F1H   LINE      CODE     ---       #120
      010038F4H   LINE      CODE     ---       #127
      010038F8H   LINE      CODE     ---       #128
      010038FAH   LINE      CODE     ---       #129
      010038FDH   LINE      CODE     ---       #133
      ---         BLOCKEND  ---      ---       LVL=0

      010036BEH   BLOCK     CODE     ---       LVL=0
      010036BEH   LINE      CODE     ---       #135
      010036BEH   LINE      CODE     ---       #136
      010036BEH   LINE      CODE     ---       #137
      010036C3H   LINE      CODE     ---       #138
      010036C7H   LINE      CODE     ---       #139
      010036C7H   LINE      CODE     ---       #140
      010036C9H   LINE      CODE     ---       #141
      010036CBH   LINE      CODE     ---       #142
      010036D2H   LINE      CODE     ---       #143
      010036DEH   LINE      CODE     ---       #144
      010036E8H   LINE      CODE     ---       #145
      010036EBH   LINE      CODE     ---       #146
      01003701H   LINE      CODE     ---       #147
      ---         BLOCKEND  ---      ---       LVL=0

      010031B0H   BLOCK     CODE     ---       LVL=0
LX51 LINKER/LOCATER V4.66.30.0                                                        08/11/2020  17:20:48  PAGE 27


      010031B0H   LINE      CODE     ---       #149
      010031B0H   LINE      CODE     ---       #150
      010031B0H   LINE      CODE     ---       #151
      010031B3H   LINE      CODE     ---       #152
      010031B6H   LINE      CODE     ---       #153
      010031C5H   LINE      CODE     ---       #154
      010031C8H   LINE      CODE     ---       #155
      010031CBH   LINE      CODE     ---       #156
      010031DAH   LINE      CODE     ---       #159
      0100320CH   LINE      CODE     ---       #160
      0100320CH   LINE      CODE     ---       #161
      01003212H   LINE      CODE     ---       #162
      01003213H   LINE      CODE     ---       #164
      01003213H   LINE      CODE     ---       #165
      01003218H   LINE      CODE     ---       #166
      01003218H   LINE      CODE     ---       #172
      ---         BLOCKEND  ---      ---       LVL=0

      010016E8H   BLOCK     CODE     ---       LVL=0
      010016E8H   LINE      CODE     ---       #174
      010016E8H   LINE      CODE     ---       #175
      010016E8H   LINE      CODE     ---       #176
      010016EBH   LINE      CODE     ---       #179
      01001708H   LINE      CODE     ---       #180
      01001708H   LINE      CODE     ---       #181
      0100170EH   LINE      CODE     ---       #182
      01001716H   LINE      CODE     ---       #183
      01001718H   LINE      CODE     ---       #185
      01001718H   LINE      CODE     ---       #186
      0100171DH   LINE      CODE     ---       #187
      01001725H   LINE      CODE     ---       #188
      01001725H   LINE      CODE     ---       #190
      0100172CH   LINE      CODE     ---       #191
      01001732H   LINE      CODE     ---       #193
      01001752H   LINE      CODE     ---       #194
      01001772H   LINE      CODE     ---       #196
      0100177BH   LINE      CODE     ---       #197
      0100179BH   LINE      CODE     ---       #199
      010017A2H   LINE      CODE     ---       #200
      010017A8H   LINE      CODE     ---       #202
      010017B1H   LINE      CODE     ---       #203
      010017D1H   LINE      CODE     ---       #206
      010017DAH   LINE      CODE     ---       #207
      010017DAH   LINE      CODE     ---       #208
      010017FEH   LINE      CODE     ---       #209
      010017FEH   LINE      CODE     ---       #210
      01001803H   LINE      CODE     ---       #211
      01001803H   LINE      CODE     ---       #212
      01001824H   LINE      CODE     ---       #213
      01001824H   LINE      CODE     ---       #214
      0100182BH   LINE      CODE     ---       #215
      0100182DH   LINE      CODE     ---       #216
      01001834H   LINE      CODE     ---       #217
      01001837H   LINE      CODE     ---       #218
      01001839H   LINE      CODE     ---       #219
      0100185DH   LINE      CODE     ---       #220
      0100185DH   LINE      CODE     ---       #221
      01001863H   LINE      CODE     ---       #222
      01001865H   LINE      CODE     ---       #224
      01001865H   LINE      CODE     ---       #225
      0100186BH   LINE      CODE     ---       #226
      0100186BH   LINE      CODE     ---       #227
LX51 LINKER/LOCATER V4.66.30.0                                                        08/11/2020  17:20:48  PAGE 28


      0100186BH   LINE      CODE     ---       #228
      0100188FH   LINE      CODE     ---       #229
      0100188FH   LINE      CODE     ---       #230
      01001895H   LINE      CODE     ---       #231
      01001895H   LINE      CODE     ---       #232
      01001896H   LINE      CODE     ---       #234
      01001896H   LINE      CODE     ---       #235
      010018BAH   LINE      CODE     ---       #236
      010018BAH   LINE      CODE     ---       #237
      010018C0H   LINE      CODE     ---       #238
      010018C0H   LINE      CODE     ---       #239
      010018E1H   LINE      CODE     ---       #240
      010018E1H   LINE      CODE     ---       #241
      010018E7H   LINE      CODE     ---       #242
      010018E7H   LINE      CODE     ---       #243
      010018E7H   LINE      CODE     ---       #244
      ---         BLOCKEND  ---      ---       LVL=0

      01003C6AH   BLOCK     CODE     ---       LVL=0
      01003C6AH   LINE      CODE     ---       #249
      01003C6AH   LINE      CODE     ---       #250
      01003C6AH   LINE      CODE     ---       #251
      01003C6CH   LINE      CODE     ---       #252
      01003C6EH   LINE      CODE     ---       #253
      01003C70H   LINE      CODE     ---       #254
      01003C76H   LINE      CODE     ---       #255
      ---         BLOCKEND  ---      ---       LVL=0

      01003C9CH   BLOCK     CODE     ---       LVL=0
      01003C9CH   LINE      CODE     ---       #257
      01003C9CH   LINE      CODE     ---       #258
      01003C9CH   LINE      CODE     ---       #259
      01003C9EH   LINE      CODE     ---       #260
      01003CA0H   LINE      CODE     ---       #261
      01003CA5H   LINE      CODE     ---       #262
      ---         BLOCKEND  ---      ---       LVL=0

      0100386DH   BLOCK     CODE     ---       LVL=0
      0100386DH   LINE      CODE     ---       #265
      0100386DH   LINE      CODE     ---       #266
      0100386DH   LINE      CODE     ---       #267
      0100386FH   LINE      CODE     ---       #268
      01003871H   LINE      CODE     ---       #269
      01003873H   LINE      CODE     ---       #270
      01003876H   LINE      CODE     ---       #271
      01003879H   LINE      CODE     ---       #276
      0100387CH   LINE      CODE     ---       #281
      0100387FH   LINE      CODE     ---       #286
      01003882H   LINE      CODE     ---       #287
      01003885H   LINE      CODE     ---       #288
      01003888H   LINE      CODE     ---       #289
      0100388AH   LINE      CODE     ---       #290
      0100388CH   LINE      CODE     ---       #291
      0100388FH   LINE      CODE     ---       #292
      01003892H   LINE      CODE     ---       #299
      01003895H   LINE      CODE     ---       #300
      01003898H   LINE      CODE     ---       #301
      0100389BH   LINE      CODE     ---       #302
      0100389DH   LINE      CODE     ---       #303
      ---         BLOCKEND  ---      ---       LVL=0

      01002AB9H   BLOCK     CODE     ---       LVL=0
LX51 LINKER/LOCATER V4.66.30.0                                                        08/11/2020  17:20:48  PAGE 29


      01002AE8H   BLOCK     CODE     NEAR LAB  LVL=1
      02000385H   SYMBOL    XDATA    BYTE      i
      02000386H   SYMBOL    XDATA    BYTE      Max
      02000387H   SYMBOL    XDATA    BYTE      Min
      ---         BLOCKEND  ---      ---       LVL=1
      01002AB9H   LINE      CODE     ---       #309
      01002AC8H   LINE      CODE     ---       #311
      01002AD2H   LINE      CODE     ---       #312
      01002AD2H   LINE      CODE     ---       #313
      01002ADFH   LINE      CODE     ---       #314
      01002AE5H   LINE      CODE     ---       #315
      01002AE8H   LINE      CODE     ---       #317
      01002AE8H   LINE      CODE     ---       #319
      01002AEDH   LINE      CODE     ---       #320
      01002AF1H   LINE      CODE     ---       #321
      01002AFEH   LINE      CODE     ---       #322
      01002B03H   LINE      CODE     ---       #323
      01002B11H   LINE      CODE     ---       #324
      01002B11H   LINE      CODE     ---       #325
      01002B25H   LINE      CODE     ---       #326
      01002B27H   LINE      CODE     ---       #327
      01002B2FH   LINE      CODE     ---       #328
      01002B41H   LINE      CODE     ---       #329
      01002B49H   LINE      CODE     ---       #330
      01002B67H   LINE      CODE     ---       #331
      01002B67H   LINE      CODE     ---       #332
      01002B69H   LINE      CODE     ---       #333
      01002B6BH   LINE      CODE     ---       #334
      ---         BLOCKEND  ---      ---       LVL=0

      0100004EH   BLOCK     CODE     ---       LVL=0
      0100004EH   LINE      CODE     ---       #340
      0100004EH   LINE      CODE     ---       #342
      01000050H   LINE      CODE     ---       #343
      ---         BLOCKEND  ---      ---       LVL=0

      ---         MODULE    ---      ---       COMMAND
      020002E1H   PUBLIC    XDATA    ---       SnrCfgSta
      02000289H   PUBLIC    XDATA    ---       Cmd
      01002838H   PUBLIC    CODE     ---       Cmd_RenewVechileCfg
      01002938H   PUBLIC    CODE     ---       Cmd_SendDistancetoBCM
      01002CEAH   PUBLIC    CODE     ---       Cmd_SendSelfChecktoBCM
      01003679H   PUBLIC    CODE     ---       Cmd_SendReqVechiModetoBCM
      01003219H   PUBLIC    CODE     ---       Cmd_NextSensorDet
      01003785H   PUBLIC    CODE     ---       Cmd_NextSensorSelf
      01002412H   PUBLIC    CODE     ---       Cmd_DistancetoComInfo
      010018E8H   PUBLIC    CODE     ---       Cmd_UpdataDistance
      01003281H   PUBLIC    CODE     ---       Cmd_SaveData
      0100009EH   PUBLIC    CODE     ---       Cmd_Process
      0100262DH   PUBLIC    CODE     ---       Cmd_GetVechileMode
      010034DBH   PUBLIC    CODE     ---       _Cmd_ReleaseVechileCfgInfo
      000000A2H   SFRSYM    DATA     BYTE      SPI0CKR
      00000080H   SFRSYM    DATA     BYTE      P0
      000000C8H.6 SFRSYM    DATA     BIT       SCON1_PERR
      000000D0H.2 SFRSYM    DATA     BIT       PSW_OV
      00000090H   SFRSYM    DATA     BYTE      P1
      000000F8H.1 SFRSYM    DATA     BIT       SPI0CN0_TXNF
      00000097H   SFRSYM    DATA     BYTE      WDTCN
      000000A0H   SFRSYM    DATA     BYTE      P2
      000000B0H   SFRSYM    DATA     BYTE      P3
      000000BCH   SFRSYM    DATA     BYTE      ADC0CF
      000000C0H.7 SFRSYM    DATA     BIT       SMB0CN0_MASTER
LX51 LINKER/LOCATER V4.66.30.0                                                        08/11/2020  17:20:48  PAGE 30


      000000F9H   SFRSYM    DATA     WORD      PCA0
      000000E6H   SFRSYM    DATA     BYTE      EIE1
      000000C0H.1 SFRSYM    DATA     BIT       SMB0CN0_ACK
      000000CEH   SFRSYM    DATA     BYTE      EIE2
      0000008FH   SFRSYM    DATA     BYTE      PSCTL
      000000E4H   SFRSYM    DATA     BYTE      IT01CF
      000000C0H.6 SFRSYM    DATA     BIT       SMB0CN0_TXMODE
      000000ADH   SFRSYM    DATA     BYTE      DERIVID
      000000A7H   SFRSYM    DATA     BYTE      SFRPAGE
      000000A4H   SFRSYM    DATA     BYTE      P0MDOUT
      000000A5H   SFRSYM    DATA     BYTE      P1MDOUT
      000000E8H.5 SFRSYM    DATA     BIT       ADC0CN0_ADINT
      000000CBH   SFRSYM    DATA     BYTE      TMR2RLH
      000000A6H   SFRSYM    DATA     BYTE      P2MDOUT
      000000A8H   SFRSYM    DATA     BYTE      IE
      00000093H   SFRSYM    DATA     BYTE      TMR3RLH
      0000009CH   SFRSYM    DATA     BYTE      P3MDOUT
      000000A3H   SFRSYM    DATA     BYTE      TMR4RLH
      000000F3H   SFRSYM    DATA     BYTE      EIP1
      000000F4H   SFRSYM    DATA     BYTE      EIP2
      00000098H.2 SFRSYM    DATA     BIT       SCON0_RB8
      000000CAH   SFRSYM    DATA     BYTE      TMR2RLL
      000000FCH   SFRSYM    DATA     BYTE      PCA0CPH0
      00000092H   SFRSYM    DATA     BYTE      TMR3RLL
      000000EAH   SFRSYM    DATA     BYTE      PCA0CPH1
      00000098H.3 SFRSYM    DATA     BIT       SCON0_TB8
      000000F0H   SFRSYM    DATA     BIT       B_B0
      00000082H   SFRSYM    DATA     WORD      DP
      000000A2H   SFRSYM    DATA     BYTE      TMR4RLL
      000000ECH   SFRSYM    DATA     BYTE      PCA0CPH2
      000000F0H.1 SFRSYM    DATA     BIT       B_B1
      000000C3H   SFRSYM    DATA     WORD      ADC0GT
      000000BDH   SFRSYM    DATA     BYTE      I2C0SLAD
      000000D8H.3 SFRSYM    DATA     BIT       UART1FCN1_RFRQ
      000000F0H.2 SFRSYM    DATA     BIT       B_B2
      000000CFH   SFRSYM    DATA     BYTE      SFRPGCN
      000000FBH   SFRSYM    DATA     BYTE      PCA0CPL0
      000000F0H.3 SFRSYM    DATA     BIT       B_B3
      000000D9H   SFRSYM    DATA     BYTE      PCA0MD
      000000DAH   SFRSYM    DATA     BYTE      PCA0CPM0
      000000E9H   SFRSYM    DATA     BYTE      PCA0CPL1
      000000D8H.7 SFRSYM    DATA     BIT       UART1FCN1_TFRQ
      000000F0H.4 SFRSYM    DATA     BIT       B_B4
      000000DBH   SFRSYM    DATA     BYTE      PCA0CPM1
      000000EBH   SFRSYM    DATA     BYTE      PCA0CPL2
      000000F0H.5 SFRSYM    DATA     BIT       B_B5
      000000DCH   SFRSYM    DATA     BYTE      PCA0CPM2
      000000B8H   SFRSYM    DATA     BYTE      IP
      000000B9H   SFRSYM    DATA     BYTE      ADC0TK
      000000F0H.6 SFRSYM    DATA     BIT       B_B6
      000000C5H   SFRSYM    DATA     WORD      ADC0LT
      000000D8H.6 SFRSYM    DATA     BIT       UART1FCN1_TXNF
      00000098H.5 SFRSYM    DATA     BIT       SCON0_MCE
      000000F0H.7 SFRSYM    DATA     BIT       B_B7
      000000C3H   SFRSYM    DATA     BYTE      SMB0FCN0
      000000E1H   SFRSYM    DATA     BYTE      XBR0
      000000C4H   SFRSYM    DATA     BYTE      SMB0FCN1
      000000C1H   SFRSYM    DATA     BYTE      SMB0CF
      000000E2H   SFRSYM    DATA     BYTE      XBR1
      000000C1H   SFRSYM    DATA     BYTE      PFE0CN
      000000E7H   SFRSYM    DATA     BYTE      EMI0CN
      000000C0H.5 SFRSYM    DATA     BIT       SMB0CN0_STA
LX51 LINKER/LOCATER V4.66.30.0                                                        08/11/2020  17:20:48  PAGE 31


      000000E3H   SFRSYM    DATA     BYTE      XBR2
      000000BBH   SFRSYM    DATA     BYTE      ADC0MX
      000000E0H   SFRSYM    DATA     BIT       ACC_ACC0
      000000D1H   SFRSYM    DATA     BYTE      REF0CN
      0000008EH   SFRSYM    DATA     BYTE      CKCON0
      000000E0H.1 SFRSYM    DATA     BIT       ACC_ACC1
      000000C9H   SFRSYM    DATA     BYTE      REG0CN
      000000DDH   SFRSYM    DATA     BYTE      CRC0IN
      000000A6H   SFRSYM    DATA     BYTE      CKCON1
      000000C8H.2 SFRSYM    DATA     BIT       TMR2CN0_TR2
      000000E0H.2 SFRSYM    DATA     BIT       ACC_ACC2
      000000C6H   SFRSYM    DATA     BYTE      REG1CN
      000000E0H.3 SFRSYM    DATA     BIT       ACC_ACC3
      00000081H   SFRSYM    DATA     BYTE      SP
      0000009DH   SFRSYM    DATA     BYTE      CMP0MD
      000000E0H.4 SFRSYM    DATA     BIT       ACC_ACC4
      000000B1H   SFRSYM    DATA     BYTE      LFO0CN
      000000ABH   SFRSYM    DATA     BYTE      CMP1MD
      000000D8H   SFRSYM    DATA     BIT       PCA0CN0_CCF0
      000000E0H.5 SFRSYM    DATA     BIT       ACC_ACC5
      00000098H.2 SFRSYM    DATA     BIT       TMR4CN0_TR4
      000000D8H.1 SFRSYM    DATA     BIT       PCA0CN0_CCF1
      000000E0H.6 SFRSYM    DATA     BIT       ACC_ACC6
      000000CCH   SFRSYM    DATA     WORD      TMR2
      0000009AH   SFRSYM    DATA     BYTE      SPI0FCN0
      000000D8H.2 SFRSYM    DATA     BIT       PCA0CN0_CCF2
      000000E0H.7 SFRSYM    DATA     BIT       ACC_ACC7
      00000094H   SFRSYM    DATA     WORD      TMR3
      0000009BH   SFRSYM    DATA     BYTE      SPI0FCN1
      000000A4H   SFRSYM    DATA     WORD      TMR4
      00000094H   SFRSYM    DATA     BYTE      SBCON1
      000000C0H.3 SFRSYM    DATA     BIT       SMB0CN0_ACKRQ
      000000FFH   SFRSYM    DATA     BYTE      VDM0CN
      000000F1H   SFRSYM    DATA     BYTE      P0MDIN
      00000098H.4 SFRSYM    DATA     BIT       SCON0_REN
      000000ACH   SFRSYM    DATA     BYTE      SMB0TC
      000000F2H   SFRSYM    DATA     BYTE      P1MDIN
      000000C8H.4 SFRSYM    DATA     BIT       SCON1_REN
      000000F3H   SFRSYM    DATA     BYTE      P2MDIN
      000000C0H.4 SFRSYM    DATA     BIT       SMB0CN0_STO
      000000F4H   SFRSYM    DATA     BYTE      P3MDIN
      000000B9H   SFRSYM    DATA     BYTE      I2C0STAT
      000000BBH   SFRSYM    DATA     BYTE      I2C0DOUT
      00000096H   SFRSYM    DATA     BYTE      SBRLH1
      000000FEH   SFRSYM    DATA     BYTE      P0MASK
      000000D8H.5 SFRSYM    DATA     BIT       UART1FCN1_TXHOLD
      000000EEH   SFRSYM    DATA     BYTE      P1MASK
      000000FCH   SFRSYM    DATA     BYTE      P2MASK
      000000D0H.3 SFRSYM    DATA     BIT       PSW_RS0
      000000D8H.7 SFRSYM    DATA     BIT       PCA0CN0_CF
      0000009EH   SFRSYM    DATA     BYTE      PCA0CENT
      000000BAH   SFRSYM    DATA     BYTE      I2C0CN0
      000000D2H   SFRSYM    DATA     BYTE      CRC0ST
      000000F8H.4 SFRSYM    DATA     BIT       SPI0CN0_RXOVRN
      000000D0H.4 SFRSYM    DATA     BIT       PSW_RS1
      00000095H   SFRSYM    DATA     BYTE      SBRLL1
      000000C8H.2 SFRSYM    DATA     BIT       SCON1_RBX
      000000C8H   SFRSYM    DATA     BIT       TMR2CN0_T2XCLK0
      000000C8H.1 SFRSYM    DATA     BIT       TMR2CN0_T2XCLK1
      000000C8H.3 SFRSYM    DATA     BIT       SCON1_TBX
      000000E8H.7 SFRSYM    DATA     BIT       ADC0CN0_ADEN
      00000089H   SFRSYM    DATA     BYTE      TMOD
LX51 LINKER/LOCATER V4.66.30.0                                                        08/11/2020  17:20:48  PAGE 32


      00000088H   SFRSYM    DATA     BYTE      TCON
      000000CFH   SFRSYM    DATA     BYTE      CRC0FLIP
      000000D0H   SFRSYM    DATA     BIT       PSW_PARITY
      000000A8H.4 SFRSYM    DATA     BIT       IE_ES0
      0000009FH   SFRSYM    DATA     BYTE      CMP0MX
      00000098H   SFRSYM    DATA     BIT       TMR4CN0_T4XCLK0
      000000A8H.1 SFRSYM    DATA     BIT       IE_ET0
      000000AAH   SFRSYM    DATA     BYTE      CMP1MX
      00000098H.1 SFRSYM    DATA     BIT       TMR4CN0_T4XCLK1
      000000A8H.3 SFRSYM    DATA     BIT       IE_ET1
      000000D4H   SFRSYM    DATA     BYTE      P0SKIP
      000000D8H   SFRSYM    DATA     BIT       UART1FCN1_RIE
      000000A8H.5 SFRSYM    DATA     BIT       IE_ET2
      000000D5H   SFRSYM    DATA     BYTE      P1SKIP
      000000CCH   SFRSYM    DATA     BYTE      P2SKIP
      000000E8H   SFRSYM    DATA     BYTE      ADC0CN0
      000000D8H.4 SFRSYM    DATA     BIT       UART1FCN1_TIE
      000000A8H   SFRSYM    DATA     BIT       IE_EX0
      000000B2H   SFRSYM    DATA     BYTE      ADC0CN1
      000000D8H.6 SFRSYM    DATA     BIT       PCA0CN0_CR
      000000A8H.2 SFRSYM    DATA     BIT       IE_EX1
      000000C8H.7 SFRSYM    DATA     BIT       SCON1_OVR
      00000098H.7 SFRSYM    DATA     BIT       SCON0_SMODE
      000000B5H   SFRSYM    DATA     BYTE      DEVICEID
      000000A9H   SFRSYM    DATA     BYTE      CLKSEL
      000000F8H   SFRSYM    DATA     BIT       SPI0CN0_SPIEN
      000000F0H   SFRSYM    DATA     BYTE      B
      000000BEH   SFRSYM    DATA     BYTE      ADC0H
      000000E8H.6 SFRSYM    DATA     BIT       ADC0CN0_ADBMEN
      000000CAH   SFRSYM    DATA     WORD      TMR2RL
      000000BDH   SFRSYM    DATA     BYTE      ADC0L
      00000092H   SFRSYM    DATA     WORD      TMR3RL
      000000A2H   SFRSYM    DATA     WORD      TMR4RL
      000000D8H   SFRSYM    DATA     BYTE      PCA0CN0
      000000E0H   SFRSYM    DATA     BYTE      ACC
      000000FBH   SFRSYM    DATA     WORD      PCA0CP0
      000000E9H   SFRSYM    DATA     WORD      PCA0CP1
      000000EBH   SFRSYM    DATA     WORD      PCA0CP2
      000000BCH   SFRSYM    DATA     BYTE      I2C0DIN
      000000CEH   SFRSYM    DATA     BYTE      CRC0CN0
      0000008CH   SFRSYM    DATA     BYTE      TH0
      00000086H   SFRSYM    DATA     BYTE      CRC0CN1
      000000B8H.4 SFRSYM    DATA     BIT       IP_PS0
      000000FAH   SFRSYM    DATA     BYTE      UART1FCT
      0000008DH   SFRSYM    DATA     BYTE      TH1
      000000FAH   SFRSYM    DATA     BYTE      PCA0H
      000000F5H   SFRSYM    DATA     BYTE      I2C0FCT
      000000B8H.1 SFRSYM    DATA     BIT       IP_PT0
      000000B8H.3 SFRSYM    DATA     BIT       IP_PT1
      000000C0H.2 SFRSYM    DATA     BIT       SMB0CN0_ARBLOST
      000000B8H.5 SFRSYM    DATA     BIT       IP_PT2
      0000008AH   SFRSYM    DATA     BYTE      TL0
      000000D0H.5 SFRSYM    DATA     BIT       PSW_F0
      000000A8H.6 SFRSYM    DATA     BIT       IE_ESPI0
      0000008BH   SFRSYM    DATA     BYTE      TL1
      000000F9H   SFRSYM    DATA     BYTE      PCA0L
      000000C0H   SFRSYM    DATA     BIT       SMB0CN0_SI
      000000D0H.1 SFRSYM    DATA     BIT       PSW_F1
      00000080H   SFRSYM    DATA     BIT       P0_B0
      000000B8H   SFRSYM    DATA     BIT       IP_PX0
      00000090H   SFRSYM    DATA     BIT       P1_B0
      00000080H.1 SFRSYM    DATA     BIT       P0_B1
LX51 LINKER/LOCATER V4.66.30.0                                                        08/11/2020  17:20:48  PAGE 33


      000000B8H.2 SFRSYM    DATA     BIT       IP_PX1
      0000009EH   SFRSYM    DATA     BYTE      UART1LIN
      0000009BH   SFRSYM    DATA     BYTE      CMP0CN0
      00000088H.1 SFRSYM    DATA     BIT       TCON_IE0
      000000A0H   SFRSYM    DATA     BIT       P2_B0
      00000090H.1 SFRSYM    DATA     BIT       P1_B1
      00000080H.2 SFRSYM    DATA     BIT       P0_B2
      000000BFH   SFRSYM    DATA     BYTE      CMP1CN0
      00000099H   SFRSYM    DATA     BYTE      CMP0CN1
      00000088H.3 SFRSYM    DATA     BIT       TCON_IE1
      000000B0H   SFRSYM    DATA     BIT       P3_B0
      000000A0H.1 SFRSYM    DATA     BIT       P2_B1
      00000090H.2 SFRSYM    DATA     BIT       P1_B2
      00000080H.3 SFRSYM    DATA     BIT       P0_B3
      000000C0H   SFRSYM    DATA     BYTE      SMB0CN0
      000000ACH   SFRSYM    DATA     BYTE      CMP1CN1
      000000B0H.1 SFRSYM    DATA     BIT       P3_B1
      000000A0H.2 SFRSYM    DATA     BIT       P2_B2
      00000090H.3 SFRSYM    DATA     BIT       P1_B3
      00000080H.4 SFRSYM    DATA     BIT       P0_B4
      000000A0H.3 SFRSYM    DATA     BIT       P2_B3
      00000090H.4 SFRSYM    DATA     BIT       P1_B4
      00000080H.5 SFRSYM    DATA     BIT       P0_B5
      000000D8H.1 SFRSYM    DATA     BIT       UART1FCN1_RXTO0
      00000090H.5 SFRSYM    DATA     BIT       P1_B5
      00000080H.6 SFRSYM    DATA     BIT       P0_B6
      000000F5H   SFRSYM    DATA     BYTE      EIP1H
      000000D8H.2 SFRSYM    DATA     BIT       UART1FCN1_RXTO1
      00000090H.6 SFRSYM    DATA     BIT       P1_B6
      00000080H.7 SFRSYM    DATA     BIT       P0_B7
      000000C5H   SFRSYM    DATA     BYTE      SMB0RXLN
      000000F6H   SFRSYM    DATA     BYTE      EIP2H
      00000090H.7 SFRSYM    DATA     BIT       P1_B7
      00000083H   SFRSYM    DATA     BYTE      DPH
      000000C4H   SFRSYM    DATA     BYTE      ADC0GTH
      000000C8H.7 SFRSYM    DATA     BIT       TMR2CN0_TF2H
      000000C8H.3 SFRSYM    DATA     BIT       TMR2CN0_T2SPLIT
      000000D0H.6 SFRSYM    DATA     BIT       PSW_AC
      000000F8H   SFRSYM    DATA     BYTE      SPI0CN0
      000000C7H   SFRSYM    DATA     BYTE      HFO0CAL
      00000088H.5 SFRSYM    DATA     BIT       TCON_TF0
      00000098H   SFRSYM    DATA     BIT       SCON0_RI
      000000D6H   SFRSYM    DATA     BYTE      HFO1CAL
      00000082H   SFRSYM    DATA     BYTE      DPL
      00000088H.7 SFRSYM    DATA     BIT       TCON_TF1
      000000C8H   SFRSYM    DATA     BIT       SCON1_RI
      00000099H   SFRSYM    DATA     BYTE      SBUF0
      00000087H   SFRSYM    DATA     BYTE      PCON0
      000000F2H   SFRSYM    DATA     BYTE      IPH
      000000C3H   SFRSYM    DATA     BYTE      ADC0GTL
      00000098H.7 SFRSYM    DATA     BIT       TMR4CN0_TF4H
      00000098H.3 SFRSYM    DATA     BIT       TMR4CN0_T4SPLIT
      000000C8H.6 SFRSYM    DATA     BIT       TMR2CN0_TF2L
      00000098H.1 SFRSYM    DATA     BIT       SCON0_TI
      000000E8H   SFRSYM    DATA     BIT       ADC0CN0_ADCM0
      00000092H   SFRSYM    DATA     BYTE      SBUF1
      0000009AH   SFRSYM    DATA     BYTE      PCON1
      000000C6H   SFRSYM    DATA     BYTE      ADC0LTH
      00000088H   SFRSYM    DATA     BIT       TCON_IT0
      000000C8H.1 SFRSYM    DATA     BIT       SCON1_TI
      000000E8H.1 SFRSYM    DATA     BIT       ADC0CN0_ADCM1
      000000EFH   SFRSYM    DATA     BYTE      RSTSRC
LX51 LINKER/LOCATER V4.66.30.0                                                        08/11/2020  17:20:48  PAGE 34


      000000FDH   SFRSYM    DATA     BYTE      P0MAT
      000000DEH   SFRSYM    DATA     BYTE      CRC0DAT
      00000088H.2 SFRSYM    DATA     BIT       TCON_IT1
      000000E8H.2 SFRSYM    DATA     BIT       ADC0CN0_ADCM2
      000000D7H   SFRSYM    DATA     BYTE      SFRSTACK
      00000098H   SFRSYM    DATA     BYTE      SCON0
      000000F6H   SFRSYM    DATA     BYTE      PRTDRV
      000000EDH   SFRSYM    DATA     BYTE      P1MAT
      000000E8H.3 SFRSYM    DATA     BIT       ADC0CN0_ADWINT
      00000095H   SFRSYM    DATA     WORD      SBRL1
      00000093H   SFRSYM    DATA     BYTE      SMOD1
      000000C8H   SFRSYM    DATA     BYTE      SCON1
      000000FBH   SFRSYM    DATA     BYTE      P2MAT
      00000098H.6 SFRSYM    DATA     BIT       TMR4CN0_TF4L
      000000E8H.4 SFRSYM    DATA     BIT       ADC0CN0_ADBUSY
      000000D6H   SFRSYM    DATA     BYTE      SMB0ADM
      000000C5H   SFRSYM    DATA     BYTE      ADC0LTL
      000000F8H.5 SFRSYM    DATA     BIT       SPI0CN0_MODF
      000000B8H.6 SFRSYM    DATA     BIT       IP_PSPI0
      0000009CH   SFRSYM    DATA     BYTE      PCA0CLR
      000000C8H   SFRSYM    DATA     BYTE      TMR2CN0
      00000091H   SFRSYM    DATA     BYTE      TMR3CN0
      000000FDH   SFRSYM    DATA     BYTE      TMR2CN1
      00000098H   SFRSYM    DATA     BYTE      TMR4CN0
      000000FEH   SFRSYM    DATA     BYTE      TMR3CN1
      000000FFH   SFRSYM    DATA     BYTE      TMR4CN1
      000000D7H   SFRSYM    DATA     BYTE      SMB0ADR
      00000088H.4 SFRSYM    DATA     BIT       TCON_TR0
      000000C8H.4 SFRSYM    DATA     BIT       TMR2CN0_TF2CEN
      00000088H.6 SFRSYM    DATA     BIT       TCON_TR1
      000000C2H   SFRSYM    DATA     BYTE      SMB0DAT
      000000CDH   SFRSYM    DATA     BYTE      TMR2H
      000000A1H   SFRSYM    DATA     BYTE      SPI0CFG
      00000095H   SFRSYM    DATA     BYTE      TMR3H
      000000EFH   SFRSYM    DATA     BYTE      HFOCN
      000000D3H   SFRSYM    DATA     BYTE      CRC0CNT
      000000A5H   SFRSYM    DATA     BYTE      TMR4H
      00000098H.4 SFRSYM    DATA     BIT       TMR4CN0_TF4CEN
      000000EFH   SFRSYM    DATA     BYTE      SMB0FCT
      00000096H   SFRSYM    DATA     BYTE      PCA0POL
      000000CCH   SFRSYM    DATA     BYTE      TMR2L
      000000F8H.7 SFRSYM    DATA     BIT       SPI0CN0_SPIF
      00000094H   SFRSYM    DATA     BYTE      TMR3L
      000000DFH   SFRSYM    DATA     BYTE      ADC0PWR
      000000A8H.7 SFRSYM    DATA     BIT       IE_EA
      000000A4H   SFRSYM    DATA     BYTE      TMR4L
      000000C8H.5 SFRSYM    DATA     BIT       TMR2CN0_TF2LEN
      000000F8H.6 SFRSYM    DATA     BIT       SPI0CN0_WCOL
      000000F8H.2 SFRSYM    DATA     BIT       SPI0CN0_NSSMD0
      000000D0H.7 SFRSYM    DATA     BIT       PSW_CY
      0000009DH   SFRSYM    DATA     BYTE      UART1FCN0
      000000A3H   SFRSYM    DATA     BYTE      SPI0DAT
      000000ADH   SFRSYM    DATA     BYTE      I2C0FCN0
      000000F8H.3 SFRSYM    DATA     BIT       SPI0CN0_NSSMD1
      000000BDH   SFRSYM    DATA     WORD      ADC0
      000000D8H   SFRSYM    DATA     BYTE      UART1FCN1
      000000ABH   SFRSYM    DATA     BYTE      I2C0FCN1
      00000098H.5 SFRSYM    DATA     BIT       TMR4CN0_TF4LEN
      000000D0H   SFRSYM    DATA     BYTE      PSW
      000000F7H   SFRSYM    DATA     BYTE      PCA0PWM
      000000F7H   SFRSYM    DATA     BYTE      SPI0FCT
      000000B6H   SFRSYM    DATA     BYTE      REVID
LX51 LINKER/LOCATER V4.66.30.0                                                        08/11/2020  17:20:48  PAGE 35


      000000B7H   SFRSYM    DATA     BYTE      FLKEY
      000000B3H   SFRSYM    DATA     BYTE      ADC0AC

      010034DBH   BLOCK     CODE     ---       LVL=0
      00000007H   SYMBOL    DATA     BYTE      VhCcfg
      010034DBH   LINE      CODE     ---       #25
      010034DBH   LINE      CODE     ---       #26
      010034DBH   LINE      CODE     ---       #27
      010034EDH   LINE      CODE     ---       #28
      010034EDH   LINE      CODE     ---       #29
      010034EDH   LINE      CODE     ---       #30
      010034F2H   LINE      CODE     ---       #31
      010034F2H   LINE      CODE     ---       #32
      010034F2H   LINE      CODE     ---       #33
      010034F2H   LINE      CODE     ---       #34
      010034F2H   LINE      CODE     ---       #35
      010034F2H   LINE      CODE     ---       #36
      010034F2H   LINE      CODE     ---       #37
      010034F4H   LINE      CODE     ---       #38
      010034F4H   LINE      CODE     ---       #39
      010034F9H   LINE      CODE     ---       #40
      010034F9H   LINE      CODE     ---       #41
      010034F9H   LINE      CODE     ---       #42
      010034F9H   LINE      CODE     ---       #43
      010034F9H   LINE      CODE     ---       #44
      010034F9H   LINE      CODE     ---       #45
      010034F9H   LINE      CODE     ---       #46
      010034FBH   LINE      CODE     ---       #47
      010034FBH   LINE      CODE     ---       #48
      01003500H   LINE      CODE     ---       #49
      01003500H   LINE      CODE     ---       #50
      01003500H   LINE      CODE     ---       #51
      01003500H   LINE      CODE     ---       #52
      01003500H   LINE      CODE     ---       #53
      01003500H   LINE      CODE     ---       #54
      01003500H   LINE      CODE     ---       #55
      01003502H   LINE      CODE     ---       #56
      01003502H   LINE      CODE     ---       #57
      01003508H   LINE      CODE     ---       #58
      0100350EH   LINE      CODE     ---       #59
      01003512H   LINE      CODE     ---       #60
      01003514H   LINE      CODE     ---       #61
      01003518H   LINE      CODE     ---       #62
      01003519H   LINE      CODE     ---       #63
      01003519H   LINE      CODE     ---       #64
      0100351BH   LINE      CODE     ---       #65
      0100351BH   LINE      CODE     ---       #66
      01003521H   LINE      CODE     ---       #67
      01003527H   LINE      CODE     ---       #68
      0100352BH   LINE      CODE     ---       #69
      0100352DH   LINE      CODE     ---       #70
      01003531H   LINE      CODE     ---       #71
      01003535H   LINE      CODE     ---       #72
      01003537H   LINE      CODE     ---       #73
      01003537H   LINE      CODE     ---       #74
      01003537H   LINE      CODE     ---       #76
      01003537H   LINE      CODE     ---       #78
      ---         BLOCKEND  ---      ---       LVL=0

      0100262DH   BLOCK     CODE     ---       LVL=0
      0100262DH   BLOCK     CODE     NEAR LAB  LVL=1
      02000388H   SYMBOL    XDATA    BYTE      mode_temp
LX51 LINKER/LOCATER V4.66.30.0                                                        08/11/2020  17:20:48  PAGE 36


      ---         BLOCKEND  ---      ---       LVL=1
      0100262DH   LINE      CODE     ---       #80
      0100262DH   LINE      CODE     ---       #81
      0100262DH   LINE      CODE     ---       #83
      01002632H   LINE      CODE     ---       #84
      0100263AH   LINE      CODE     ---       #86
      0100263FH   LINE      CODE     ---       #88
      01002646H   LINE      CODE     ---       #89
      01002653H   LINE      CODE     ---       #90
      01002653H   LINE      CODE     ---       #91
      0100265CH   LINE      CODE     ---       #92
      0100265CH   LINE      CODE     ---       #93
      0100265EH   LINE      CODE     ---       #94
      0100266CH   LINE      CODE     ---       #95
      0100267CH   LINE      CODE     ---       #96
      0100267CH   LINE      CODE     ---       #97
      0100267FH   LINE      CODE     ---       #98
      0100267FH   LINE      CODE     ---       #99
      01002687H   LINE      CODE     ---       #100
      01002687H   LINE      CODE     ---       #101
      01002691H   LINE      CODE     ---       #102
      01002691H   LINE      CODE     ---       #103
      01002697H   LINE      CODE     ---       #104
      01002699H   LINE      CODE     ---       #105
      010026A3H   LINE      CODE     ---       #106
      010026A3H   LINE      CODE     ---       #107
      010026A9H   LINE      CODE     ---       #108
      010026ABH   LINE      CODE     ---       #109
      010026B5H   LINE      CODE     ---       #110
      010026B5H   LINE      CODE     ---       #111
      010026BBH   LINE      CODE     ---       #112
      010026BDH   LINE      CODE     ---       #113
      010026C7H   LINE      CODE     ---       #114
      010026C7H   LINE      CODE     ---       #115
      010026CDH   LINE      CODE     ---       #116
      010026CFH   LINE      CODE     ---       #117
      010026D9H   LINE      CODE     ---       #118
      010026D9H   LINE      CODE     ---       #119
      010026DFH   LINE      CODE     ---       #120
      010026DFH   LINE      CODE     ---       #121
      010026E7H   LINE      CODE     ---       #122
      010026ECH   LINE      CODE     ---       #123
      010026F3H   LINE      CODE     ---       #124
      010026F5H   LINE      CODE     ---       #125
      010026F5H   LINE      CODE     ---       #126
      010026F5H   LINE      CODE     ---       #127
      010026F8H   LINE      CODE     ---       #128
      010026FBH   LINE      CODE     ---       #130
      01002705H   LINE      CODE     ---       #131
      01002705H   LINE      CODE     ---       #132
      0100270DH   LINE      CODE     ---       #133
      01002715H   LINE      CODE     ---       #134
      01002720H   LINE      CODE     ---       #135
      01002720H   LINE      CODE     ---       #136
      01002726H   LINE      CODE     ---       #137
      01002726H   LINE      CODE     ---       #138
      0100272EH   LINE      CODE     ---       #139
      0100272EH   LINE      CODE     ---       #140
      ---         BLOCKEND  ---      ---       LVL=0

      0100009EH   BLOCK     CODE     ---       LVL=0
      0100009EH   BLOCK     CODE     NEAR LAB  LVL=1
LX51 LINKER/LOCATER V4.66.30.0                                                        08/11/2020  17:20:48  PAGE 37


      02000388H   SYMBOL    XDATA    BYTE      i
      00000007H   SYMBOL    DATA     BYTE      self_temp
      02000389H   SYMBOL    XDATA    BYTE      cnt
      ---         BLOCKEND  ---      ---       LVL=1
      0100009EH   LINE      CODE     ---       #145
      0100009EH   LINE      CODE     ---       #146
      0100009EH   LINE      CODE     ---       #149
      010000A5H   LINE      CODE     ---       #150
      010000A5H   LINE      CODE     ---       #151
      010000AAH   LINE      CODE     ---       #153
      010000AAH   LINE      CODE     ---       #155
      010000E4H   LINE      CODE     ---       #156
      010000E4H   LINE      CODE     ---       #157
      010000E4H   LINE      CODE     ---       #158
      010000E4H   LINE      CODE     ---       #159
      010000FBH   LINE      CODE     ---       #160
      01000104H   LINE      CODE     ---       #161
      0100010AH   LINE      CODE     ---       #162
      0100010BH   LINE      CODE     ---       #163
      0100010BH   LINE      CODE     ---       #164
      0100010BH   LINE      CODE     ---       #165
      0100010BH   LINE      CODE     ---       #166
      0100011AH   LINE      CODE     ---       #167
      0100011AH   LINE      CODE     ---       #168
      01000125H   LINE      CODE     ---       #169
      01000125H   LINE      CODE     ---       #170
      0100012CH   LINE      CODE     ---       #171
      0100012CH   LINE      CODE     ---       #172
      0100012EH   LINE      CODE     ---       #173
      0100013EH   LINE      CODE     ---       #174
      01000148H   LINE      CODE     ---       #175
      01000148H   LINE      CODE     ---       #176
      0100014BH   LINE      CODE     ---       #177
      0100014EH   LINE      CODE     ---       #178
      0100014EH   LINE      CODE     ---       #179
      0100014EH   LINE      CODE     ---       #180
      0100014EH   LINE      CODE     ---       #181
      0100014EH   LINE      CODE     ---       #182
      01000151H   LINE      CODE     ---       #184
      01000151H   LINE      CODE     ---       #185
      01000156H   LINE      CODE     ---       #186
      0100016EH   LINE      CODE     ---       #187
      0100016EH   LINE      CODE     ---       #188
      0100017EH   LINE      CODE     ---       #189
      0100018BH   LINE      CODE     ---       #190
      0100018EH   LINE      CODE     ---       #191
      0100018EH   LINE      CODE     ---       #192
      0100018EH   LINE      CODE     ---       #194
      0100018EH   LINE      CODE     ---       #195
      0100018EH   LINE      CODE     ---       #197
      0100018EH   LINE      CODE     ---       #198
      0100018EH   LINE      CODE     ---       #199
      01000190H   LINE      CODE     ---       #200
      0100019EH   LINE      CODE     ---       #201
      0100019EH   LINE      CODE     ---       #202
      010001AFH   LINE      CODE     ---       #203
      010001AFH   LINE      CODE     ---       #204
      010001B9H   LINE      CODE     ---       #205
      010001B9H   LINE      CODE     ---       #206
      010001C8H   LINE      CODE     ---       #207
      010001C8H   LINE      CODE     ---       #208
      010001DDH   LINE      CODE     ---       #209
LX51 LINKER/LOCATER V4.66.30.0                                                        08/11/2020  17:20:48  PAGE 38


      010001DDH   LINE      CODE     ---       #210
      010001DFH   LINE      CODE     ---       #212
      010001F1H   LINE      CODE     ---       #213
      010001F1H   LINE      CODE     ---       #214
      01000203H   LINE      CODE     ---       #215
      01000203H   LINE      CODE     ---       #216
      01000203H   LINE      CODE     ---       #217
      01000203H   LINE      CODE     ---       #218
      0100020BH   LINE      CODE     ---       #221
      01000213H   LINE      CODE     ---       #223
      01000219H   LINE      CODE     ---       #224
      01000272H   LINE      CODE     ---       #230
      01000272H   LINE      CODE     ---       #231
      01000278H   LINE      CODE     ---       #232
      01000278H   LINE      CODE     ---       #233
      0100027DH   LINE      CODE     ---       #234
      0100028FH   LINE      CODE     ---       #235
      0100028FH   LINE      CODE     ---       #236
      01000292H   LINE      CODE     ---       #237
      01000299H   LINE      CODE     ---       #238
      010002A1H   LINE      CODE     ---       #239
      010002A7H   LINE      CODE     ---       #240
      010002ACH   LINE      CODE     ---       #241
      010002B1H   LINE      CODE     ---       #242
      010002B1H   LINE      CODE     ---       #243
      010002B1H   LINE      CODE     ---       #245
      010002B1H   LINE      CODE     ---       #246
      010002B1H   LINE      CODE     ---       #247
      010002B8H   LINE      CODE     ---       #248
      010002CFH   LINE      CODE     ---       #249
      010002D8H   LINE      CODE     ---       #250
      010002DEH   LINE      CODE     ---       #251
      010002DFH   LINE      CODE     ---       #252
      010002DFH   LINE      CODE     ---       #254
      010002DFH   LINE      CODE     ---       #255
      010002DFH   LINE      CODE     ---       #256
      010002EEH   LINE      CODE     ---       #257
      010002EEH   LINE      CODE     ---       #258
      010002F6H   LINE      CODE     ---       #259
      010002F6H   LINE      CODE     ---       #260
      010002FEH   LINE      CODE     ---       #261
      010002FEH   LINE      CODE     ---       #262
      010002FFH   LINE      CODE     ---       #263
      0100030EH   LINE      CODE     ---       #264
      0100030EH   LINE      CODE     ---       #265
      0100031AH   LINE      CODE     ---       #266
      0100031DH   LINE      CODE     ---       #267
      01000356H   LINE      CODE     ---       #268
      0100035CH   LINE      CODE     ---       #269
      0100035CH   LINE      CODE     ---       #270
      0100035CH   LINE      CODE     ---       #271
      0100035CH   LINE      CODE     ---       #272
      0100035CH   LINE      CODE     ---       #273
      0100035FH   LINE      CODE     ---       #275
      0100035FH   LINE      CODE     ---       #276
      01000398H   LINE      CODE     ---       #277
      010003ADH   LINE      CODE     ---       #278
      010003ADH   LINE      CODE     ---       #279
      010003BEH   LINE      CODE     ---       #280
      010003CBH   LINE      CODE     ---       #281
      010003D8H   LINE      CODE     ---       #282
      010003D8H   LINE      CODE     ---       #283
LX51 LINKER/LOCATER V4.66.30.0                                                        08/11/2020  17:20:48  PAGE 39


      010003DEH   LINE      CODE     ---       #284
      010003DEH   LINE      CODE     ---       #285
      010003DFH   LINE      CODE     ---       #286
      010003DFH   LINE      CODE     ---       #288
      010003DFH   LINE      CODE     ---       #289
      010003DFH   LINE      CODE     ---       #290
      010003EEH   LINE      CODE     ---       #291
      010003EEH   LINE      CODE     ---       #292
      010003F1H   LINE      CODE     ---       #293
      010003F6H   LINE      CODE     ---       #294
      010003F9H   LINE      CODE     ---       #295
      010003FCH   LINE      CODE     ---       #296
      01000405H   LINE      CODE     ---       #297
      01000406H   LINE      CODE     ---       #298
      01000415H   LINE      CODE     ---       #299
      01000415H   LINE      CODE     ---       #307
      0100041BH   LINE      CODE     ---       #308
      0100041BH   LINE      CODE     ---       #309
      01000421H   LINE      CODE     ---       #310
      0100042AH   LINE      CODE     ---       #311
      0100042AH   LINE      CODE     ---       #312
      0100042AH   LINE      CODE     ---       #313
      0100042DH   LINE      CODE     ---       #315
      0100042DH   LINE      CODE     ---       #316
      01000438H   LINE      CODE     ---       #317
      01000438H   LINE      CODE     ---       #318
      0100043BH   LINE      CODE     ---       #319
      0100043EH   LINE      CODE     ---       #320
      01000441H   LINE      CODE     ---       #321
      01000446H   LINE      CODE     ---       #322
      01000446H   LINE      CODE     ---       #323
      0100044CH   LINE      CODE     ---       #324
      01000455H   LINE      CODE     ---       #325
      01000455H   LINE      CODE     ---       #326
      01000456H   LINE      CODE     ---       #327
      01000456H   LINE      CODE     ---       #329
      01000456H   LINE      CODE     ---       #330
      01000456H   LINE      CODE     ---       #337
      01000465H   LINE      CODE     ---       #338
      01000465H   LINE      CODE     ---       #339
      0100046BH   LINE      CODE     ---       #340
      0100046BH   LINE      CODE     ---       #341
      0100046EH   LINE      CODE     ---       #342
      01000474H   LINE      CODE     ---       #343
      01000474H   LINE      CODE     ---       #344
      01000474H   LINE      CODE     ---       #345
      01000477H   LINE      CODE     ---       #347
      01000477H   LINE      CODE     ---       #348
      0100047AH   LINE      CODE     ---       #349
      01000488H   LINE      CODE     ---       #350
      01000488H   LINE      CODE     ---       #351
      0100048BH   LINE      CODE     ---       #352
      0100048EH   LINE      CODE     ---       #353
      01000491H   LINE      CODE     ---       #354
      01000496H   LINE      CODE     ---       #355
      0100049CH   LINE      CODE     ---       #356
      0100049CH   LINE      CODE     ---       #357
      0100049CH   LINE      CODE     ---       #358
      0100049DH   LINE      CODE     ---       #359
      0100049DH   LINE      CODE     ---       #361
      0100049DH   LINE      CODE     ---       #362
      0100049DH   LINE      CODE     ---       #369
LX51 LINKER/LOCATER V4.66.30.0                                                        08/11/2020  17:20:48  PAGE 40


      010004A0H   LINE      CODE     ---       #371
      010004A0H   LINE      CODE     ---       #372
      010004A0H   LINE      CODE     ---       #374
      010004A0H   LINE      CODE     ---       #375
      010004A0H   LINE      CODE     ---       #376
      010004A8H   LINE      CODE     ---       #377
      010004A8H   LINE      CODE     ---       #378
      010004AFH   LINE      CODE     ---       #379
      010004AFH   LINE      CODE     ---       #380
      010004B1H   LINE      CODE     ---       #381
      010004C0H   LINE      CODE     ---       #382
      010004C0H   LINE      CODE     ---       #383
      010004C8H   LINE      CODE     ---       #384
      010004CEH   LINE      CODE     ---       #385
      010004D3H   LINE      CODE     ---       #386
      010004D9H   LINE      CODE     ---       #387
      010004D9H   LINE      CODE     ---       #388
      010004D9H   LINE      CODE     ---       #389
      010004D9H   LINE      CODE     ---       #391
      010004E0H   LINE      CODE     ---       #392
      010004E0H   LINE      CODE     ---       #393
      010004E7H   LINE      CODE     ---       #394
      010004E7H   LINE      CODE     ---       #395
      010004E9H   LINE      CODE     ---       #396
      010004EEH   LINE      CODE     ---       #397
      010004F4H   LINE      CODE     ---       #398
      010004F4H   LINE      CODE     ---       #399
      010004F4H   LINE      CODE     ---       #401
      010004FFH   LINE      CODE     ---       #402
      010004FFH   LINE      CODE     ---       #403
      0100050AH   LINE      CODE     ---       #404
      0100050AH   LINE      CODE     ---       #405
      0100050BH   LINE      CODE     ---       #406
      0100051FH   LINE      CODE     ---       #407
      0100051FH   LINE      CODE     ---       #408
      01000527H   LINE      CODE     ---       #409
      0100052CH   LINE      CODE     ---       #410
      01000531H   LINE      CODE     ---       #411
      01000537H   LINE      CODE     ---       #412
      01000537H   LINE      CODE     ---       #413
      01000537H   LINE      CODE     ---       #414
      01000537H   LINE      CODE     ---       #416
      01000538H   LINE      CODE     ---       #417
      01000538H   LINE      CODE     ---       #419
      01000538H   LINE      CODE     ---       #420
      01000538H   LINE      CODE     ---       #431
      01000560H   LINE      CODE     ---       #432
      0100057CH   LINE      CODE     ---       #433
      01000581H   LINE      CODE     ---       #434
      01000587H   LINE      CODE     ---       #435
      01000588H   LINE      CODE     ---       #436
      01000588H   LINE      CODE     ---       #438
      01000588H   LINE      CODE     ---       #439
      01000588H   LINE      CODE     ---       #440
      01000593H   LINE      CODE     ---       #441
      01000593H   LINE      CODE     ---       #442
      0100059EH   LINE      CODE     ---       #443
      0100059EH   LINE      CODE     ---       #444
      0100059FH   LINE      CODE     ---       #445
      010005AAH   LINE      CODE     ---       #446
      010005B0H   LINE      CODE     ---       #447
      010005B5H   LINE      CODE     ---       #448
LX51 LINKER/LOCATER V4.66.30.0                                                        08/11/2020  17:20:48  PAGE 41


      010005BBH   LINE      CODE     ---       #449
      010005BBH   LINE      CODE     ---       #450
      010005BBH   LINE      CODE     ---       #451
      010005BCH   LINE      CODE     ---       #452
      010005BCH   LINE      CODE     ---       #454
      010005BCH   LINE      CODE     ---       #455
      010005BCH   LINE      CODE     ---       #456
      010005D7H   LINE      CODE     ---       #457
      010005D7H   LINE      CODE     ---       #458
      010005DCH   LINE      CODE     ---       #459
      010005F1H   LINE      CODE     ---       #460
      010005FEH   LINE      CODE     ---       #461
      01000609H   LINE      CODE     ---       #462
      01000609H   LINE      CODE     ---       #463
      01000613H   LINE      CODE     ---       #464
      01000613H   LINE      CODE     ---       #465
      01000620H   LINE      CODE     ---       #466
      01000622H   LINE      CODE     ---       #467
      01000622H   LINE      CODE     ---       #468
      01000629H   LINE      CODE     ---       #469
      01000629H   LINE      CODE     ---       #470
      0100064AH   LINE      CODE     ---       #471
      0100064FH   LINE      CODE     ---       #472
      01000655H   LINE      CODE     ---       #473
      01000656H   LINE      CODE     ---       #474
      01000656H   LINE      CODE     ---       #476
      01000656H   LINE      CODE     ---       #477
      01000656H   LINE      CODE     ---       #484
      01000665H   LINE      CODE     ---       #485
      01000665H   LINE      CODE     ---       #486
      0100066BH   LINE      CODE     ---       #487
      0100066BH   LINE      CODE     ---       #488
      01000671H   LINE      CODE     ---       #489
      01000679H   LINE      CODE     ---       #490
      01000679H   LINE      CODE     ---       #491
      01000687H   LINE      CODE     ---       #492
      01000688H   LINE      CODE     ---       #494
      01000688H   LINE      CODE     ---       #495
      0100068BH   LINE      CODE     ---       #496
      0100068EH   LINE      CODE     ---       #497
      01000693H   LINE      CODE     ---       #498
      01000696H   LINE      CODE     ---       #499
      0100069FH   LINE      CODE     ---       #500
      0100069FH   LINE      CODE     ---       #501
      0100069FH   LINE      CODE     ---       #502
      0100069FH   LINE      CODE     ---       #505
      0100069FH   LINE      CODE     ---       #507
      0100069FH   LINE      CODE     ---       #512
      ---         BLOCKEND  ---      ---       LVL=0

      01003281H   BLOCK     CODE     ---       LVL=0
      01003281H   LINE      CODE     ---       #514
      01003281H   LINE      CODE     ---       #515
      01003281H   LINE      CODE     ---       #516
      0100328AH   LINE      CODE     ---       #517
      0100328AH   LINE      CODE     ---       #518
      0100329BH   LINE      CODE     ---       #519
      0100329BH   LINE      CODE     ---       #521
      010032A7H   LINE      CODE     ---       #522
      010032C0H   LINE      CODE     ---       #523
      010032C2H   LINE      CODE     ---       #525
      010032C2H   LINE      CODE     ---       #526
LX51 LINKER/LOCATER V4.66.30.0                                                        08/11/2020  17:20:48  PAGE 42


      010032D2H   LINE      CODE     ---       #527
      010032DFH   LINE      CODE     ---       #528
      010032DFH   LINE      CODE     ---       #529
      010032DFH   LINE      CODE     ---       #530
      010032E6H   LINE      CODE     ---       #531
      ---         BLOCKEND  ---      ---       LVL=0

      010018E8H   BLOCK     CODE     ---       LVL=0
      010018E8H   LINE      CODE     ---       #533
      010018E8H   LINE      CODE     ---       #534
      010018E8H   LINE      CODE     ---       #535
      010018EBH   LINE      CODE     ---       #537
      01001916H   LINE      CODE     ---       #538
      01001934H   LINE      CODE     ---       #539
      0100195FH   LINE      CODE     ---       #540
      0100197DH   LINE      CODE     ---       #541
      010019A8H   LINE      CODE     ---       #542
      010019C6H   LINE      CODE     ---       #544
      010019F0H   LINE      CODE     ---       #545
      01001A1AH   LINE      CODE     ---       #546
      01001A3EH   LINE      CODE     ---       #547
      01001A5CH   LINE      CODE     ---       #548
      01001A86H   LINE      CODE     ---       #549
      01001AB1H   LINE      CODE     ---       #550
      01001ABBH   LINE      CODE     ---       #552
      01001ACDH   LINE      CODE     ---       #553
      ---         BLOCKEND  ---      ---       LVL=0

      01002412H   BLOCK     CODE     ---       LVL=0
      01002412H   BLOCK     CODE     NEAR LAB  LVL=1
      00000002H   SYMBOL    DATA     BYTE      i
      00000003H   SYMBOL    DATA     BYTE      NearestDis
      ---         BLOCKEND  ---      ---       LVL=1
      01002412H   LINE      CODE     ---       #555
      01002412H   LINE      CODE     ---       #556
      01002412H   LINE      CODE     ---       #559
      01002414H   LINE      CODE     ---       #561
      01002416H   LINE      CODE     ---       #562
      01002416H   LINE      CODE     ---       #563
      01002431H   LINE      CODE     ---       #564
      01002431H   LINE      CODE     ---       #565
      0100243EH   LINE      CODE     ---       #566
      0100243EH   LINE      CODE     ---       #567
      0100244FH   LINE      CODE     ---       #568
      0100244FH   LINE      CODE     ---       #569
      01002451H   LINE      CODE     ---       #570
      01002451H   LINE      CODE     ---       #572
      0100245CH   LINE      CODE     ---       #574
      0100245CH   LINE      CODE     ---       #575
      01002469H   LINE      CODE     ---       #576
      0100246BH   LINE      CODE     ---       #577
      0100247CH   LINE      CODE     ---       #578
      0100247CH   LINE      CODE     ---       #579
      01002497H   LINE      CODE     ---       #580
      01002499H   LINE      CODE     ---       #581
      010024A7H   LINE      CODE     ---       #582
      010024A7H   LINE      CODE     ---       #583
      010024B4H   LINE      CODE     ---       #584
      010024B6H   LINE      CODE     ---       #586
      010024B6H   LINE      CODE     ---       #587
      010024C2H   LINE      CODE     ---       #588
      010024C2H   LINE      CODE     ---       #590
LX51 LINKER/LOCATER V4.66.30.0                                                        08/11/2020  17:20:48  PAGE 43


      010024CFH   LINE      CODE     ---       #591
      010024CFH   LINE      CODE     ---       #592
      010024DBH   LINE      CODE     ---       #593
      010024DDH   LINE      CODE     ---       #595
      010024DDH   LINE      CODE     ---       #596
      010024EAH   LINE      CODE     ---       #597
      010024EAH   LINE      CODE     ---       #599
      010024F3H   LINE      CODE     ---       #601
      010024F9H   LINE      CODE     ---       #602
      010024F9H   LINE      CODE     ---       #603
      010024FEH   LINE      CODE     ---       #604
      010024FFH   LINE      CODE     ---       #605
      01002505H   LINE      CODE     ---       #606
      01002505H   LINE      CODE     ---       #607
      0100250BH   LINE      CODE     ---       #608
      0100250CH   LINE      CODE     ---       #609
      01002512H   LINE      CODE     ---       #610
      01002512H   LINE      CODE     ---       #611
      01002518H   LINE      CODE     ---       #612
      01002519H   LINE      CODE     ---       #613
      0100251FH   LINE      CODE     ---       #614
      0100251FH   LINE      CODE     ---       #615
      01002525H   LINE      CODE     ---       #616
      01002525H   LINE      CODE     ---       #617
      ---         BLOCKEND  ---      ---       LVL=0

      01003785H   BLOCK     CODE     ---       LVL=0
      01003785H   LINE      CODE     ---       #619
      01003785H   LINE      CODE     ---       #620
      01003785H   LINE      CODE     ---       #621
      0100378AH   LINE      CODE     ---       #623
      01003793H   LINE      CODE     ---       #624
      01003793H   LINE      CODE     ---       #625
      01003796H   LINE      CODE     ---       #626
      0100379CH   LINE      CODE     ---       #628
      010037B2H   LINE      CODE     ---       #629
      010037B2H   LINE      CODE     ---       #630
      010037B2H   LINE      CODE     ---       #631
      010037B2H   LINE      CODE     ---       #634
      010037BBH   LINE      CODE     ---       #635
      010037BBH   LINE      CODE     ---       #636
      010037BDH   LINE      CODE     ---       #637
      010037C3H   LINE      CODE     ---       #638
      010037C3H   LINE      CODE     ---       #639
      ---         BLOCKEND  ---      ---       LVL=0

      01003219H   BLOCK     CODE     ---       LVL=0
      01003219H   BLOCK     CODE     NEAR LAB  LVL=1
      02000288H   SYMBOL    XDATA    BYTE      SendToBcmFlag
      ---         BLOCKEND  ---      ---       LVL=1
      01003219H   LINE      CODE     ---       #641
      01003219H   LINE      CODE     ---       #642
      01003219H   LINE      CODE     ---       #654
      0100322AH   LINE      CODE     ---       #657
      0100322AH   LINE      CODE     ---       #658
      01003230H   LINE      CODE     ---       #659
      01003239H   LINE      CODE     ---       #660
      0100323EH   LINE      CODE     ---       #661
      01003244H   LINE      CODE     ---       #662
      01003245H   LINE      CODE     ---       #664
      01003245H   LINE      CODE     ---       #665
      0100324AH   LINE      CODE     ---       #666
LX51 LINKER/LOCATER V4.66.30.0                                                        08/11/2020  17:20:48  PAGE 44


      0100325BH   LINE      CODE     ---       #667
      0100326AH   LINE      CODE     ---       #668
      0100326AH   LINE      CODE     ---       #669
      0100326EH   LINE      CODE     ---       #670
      0100326EH   LINE      CODE     ---       #671
      01003274H   LINE      CODE     ---       #672
      01003275H   LINE      CODE     ---       #673
      01003275H   LINE      CODE     ---       #674
      0100327AH   LINE      CODE     ---       #675
      01003280H   LINE      CODE     ---       #676
      01003280H   LINE      CODE     ---       #677
      01003280H   LINE      CODE     ---       #678
      01003280H   LINE      CODE     ---       #679
      ---         BLOCKEND  ---      ---       LVL=0
      00000007H   SYMBOL    DATA     BYTE      i

      01003679H   BLOCK     CODE     ---       LVL=0
      01003679H   BLOCK     CODE     NEAR LAB  LVL=1
      02000389H   SYMBOL    XDATA    BYTE      i
      ---         BLOCKEND  ---      ---       LVL=1
      01003679H   LINE      CODE     ---       #690
      01003679H   LINE      CODE     ---       #691
      01003679H   LINE      CODE     ---       #694
      0100367CH   LINE      CODE     ---       #695
      0100367FH   LINE      CODE     ---       #696
      01003686H   LINE      CODE     ---       #698
      01003695H   LINE      CODE     ---       #699
      01003695H   LINE      CODE     ---       #700
      010036A9H   LINE      CODE     ---       #701
      010036B1H   LINE      CODE     ---       #702
      010036B8H   LINE      CODE     ---       #703
      010036BBH   LINE      CODE     ---       #704
      ---         BLOCKEND  ---      ---       LVL=0

      01002CEAH   BLOCK     CODE     ---       LVL=0
      01002CEAH   BLOCK     CODE     NEAR LAB  LVL=1
      0200038AH   SYMBOL    XDATA    BYTE      i
      0200038BH   SYMBOL    XDATA    BYTE      eve_temp
      00000006H   SYMBOL    DATA     WORD      checksum_temp
      ---         BLOCKEND  ---      ---       LVL=1
      01002CEAH   LINE      CODE     ---       #707
      01002CEAH   LINE      CODE     ---       #708
      01002CEAH   LINE      CODE     ---       #713
      01002CF1H   LINE      CODE     ---       #714
      01002CF9H   LINE      CODE     ---       #715
      01002D08H   LINE      CODE     ---       #716
      01002D08H   LINE      CODE     ---       #717
      01002D20H   LINE      CODE     ---       #718
      01002D4CH   LINE      CODE     ---       #719
      01002D54H   LINE      CODE     ---       #721
      01002D57H   LINE      CODE     ---       #722
      01002D5AH   LINE      CODE     ---       #723
      01002D61H   LINE      CODE     ---       #725
      01002D70H   LINE      CODE     ---       #726
      01002D70H   LINE      CODE     ---       #727
      01002D84H   LINE      CODE     ---       #728
      01002D8CH   LINE      CODE     ---       #730
      01002D93H   LINE      CODE     ---       #731
      ---         BLOCKEND  ---      ---       LVL=0

      01002938H   BLOCK     CODE     ---       LVL=0
      01002938H   BLOCK     CODE     NEAR LAB  LVL=1
LX51 LINKER/LOCATER V4.66.30.0                                                        08/11/2020  17:20:48  PAGE 45


      0200038AH   SYMBOL    XDATA    BYTE      i
      0200038BH   SYMBOL    XDATA    BYTE      eve_temp
      00000006H   SYMBOL    DATA     WORD      checksum_temp
      ---         BLOCKEND  ---      ---       LVL=1
      01002938H   LINE      CODE     ---       #734
      01002938H   LINE      CODE     ---       #735
      01002938H   LINE      CODE     ---       #739
      0100293FH   LINE      CODE     ---       #740
      01002947H   LINE      CODE     ---       #741
      0100294CH   LINE      CODE     ---       #742
      0100294CH   LINE      CODE     ---       #743
      0100295FH   LINE      CODE     ---       #744
      01002977H   LINE      CODE     ---       #745
      010029A3H   LINE      CODE     ---       #746
      010029AFH   LINE      CODE     ---       #748
      010029B4H   LINE      CODE     ---       #749
      010029B7H   LINE      CODE     ---       #750
      010029BAH   LINE      CODE     ---       #752
      010029C1H   LINE      CODE     ---       #753
      010029D0H   LINE      CODE     ---       #754
      010029D0H   LINE      CODE     ---       #755
      010029E4H   LINE      CODE     ---       #756
      010029ECH   LINE      CODE     ---       #757
      010029F3H   LINE      CODE     ---       #758
      010029F6H   LINE      CODE     ---       #759
      ---         BLOCKEND  ---      ---       LVL=0

      01002838H   BLOCK     CODE     ---       LVL=0
      01002838H   LINE      CODE     ---       #772
      01002838H   LINE      CODE     ---       #773
      01002838H   LINE      CODE     ---       #778
      01002843H   LINE      CODE     ---       #779
      01002843H   LINE      CODE     ---       #780
      01002847H   LINE      CODE     ---       #781
      0100284BH   LINE      CODE     ---       #783
      01002852H   LINE      CODE     ---       #784
      01002852H   LINE      CODE     ---       #785
      0100285FH   LINE      CODE     ---       #786
      0100286CH   LINE      CODE     ---       #787
      01002879H   LINE      CODE     ---       #788
      01002886H   LINE      CODE     ---       #789
      01002893H   LINE      CODE     ---       #790
      010028A0H   LINE      CODE     ---       #791
      010028A3H   LINE      CODE     ---       #792
      010028A3H   LINE      CODE     ---       #793
      010028AAH   LINE      CODE     ---       #794
      010028AAH   LINE      CODE     ---       #795
      010028AAH   LINE      CODE     ---       #796
      010028AAH   LINE      CODE     ---       #797
      010028AAH   LINE      CODE     ---       #798
      010028AAH   LINE      CODE     ---       #799
      010028AAH   LINE      CODE     ---       #800
      010028AAH   LINE      CODE     ---       #802
      010028AAH   LINE      CODE     ---       #803
      010028AAH   LINE      CODE     ---       #804
      010028AAH   LINE      CODE     ---       #805
      010028AAH   LINE      CODE     ---       #806
      010028AAH   LINE      CODE     ---       #807
      010028AAH   LINE      CODE     ---       #809
      010028ACH   LINE      CODE     ---       #810
      010028C5H   LINE      CODE     ---       #813
      010028C5H   LINE      CODE     ---       #814
LX51 LINKER/LOCATER V4.66.30.0                                                        08/11/2020  17:20:48  PAGE 46


      010028D2H   LINE      CODE     ---       #815
      010028DFH   LINE      CODE     ---       #816
      010028ECH   LINE      CODE     ---       #817
      010028F9H   LINE      CODE     ---       #818
      01002906H   LINE      CODE     ---       #819
      01002913H   LINE      CODE     ---       #820
      01002916H   LINE      CODE     ---       #822
      01002916H   LINE      CODE     ---       #824
      01002916H   LINE      CODE     ---       #825
      0100291BH   LINE      CODE     ---       #826
      0100291DH   LINE      CODE     ---       #827
      0100291FH   LINE      CODE     ---       #828
      01002921H   LINE      CODE     ---       #829
      01002923H   LINE      CODE     ---       #830
      01002925H   LINE      CODE     ---       #832
      0100292BH   LINE      CODE     ---       #833
      0100292DH   LINE      CODE     ---       #834
      0100292FH   LINE      CODE     ---       #835
      01002931H   LINE      CODE     ---       #836
      01002933H   LINE      CODE     ---       #837
      01002935H   LINE      CODE     ---       #838
      01002935H   LINE      CODE     ---       #839
      01002935H   LINE      CODE     ---       #840
      01002937H   LINE      CODE     ---       #842
      ---         BLOCKEND  ---      ---       LVL=0

      ---         MODULE    ---      ---       CPU
      020003C1H   PUBLIC    XDATA    BYTE      SFRPAGE_TEMP
      01003B90H   PUBLIC    CODE     ---       Cpu_InitHardwarePort
      01000070H   PUBLIC    CODE     ---       Cpu_DisableInterrupt
      01000056H   PUBLIC    CODE     ---       Cpu_EnableInterrupt
      01003C25H   PUBLIC    CODE     ---       _Cpu_WDG_Init
      01003BB4H   PUBLIC    CODE     ---       Cpu_Clk_Init
      000000A2H   SFRSYM    DATA     BYTE      SPI0CKR
      00000080H   SFRSYM    DATA     BYTE      P0
      000000C8H.6 SFRSYM    DATA     BIT       SCON1_PERR
      000000D0H.2 SFRSYM    DATA     BIT       PSW_OV
      00000090H   SFRSYM    DATA     BYTE      P1
      000000F8H.1 SFRSYM    DATA     BIT       SPI0CN0_TXNF
      00000097H   SFRSYM    DATA     BYTE      WDTCN
      000000A0H   SFRSYM    DATA     BYTE      P2
      000000B0H   SFRSYM    DATA     BYTE      P3
      000000BCH   SFRSYM    DATA     BYTE      ADC0CF
      000000C0H.7 SFRSYM    DATA     BIT       SMB0CN0_MASTER
      000000F9H   SFRSYM    DATA     WORD      PCA0
      000000E6H   SFRSYM    DATA     BYTE      EIE1
      000000C0H.1 SFRSYM    DATA     BIT       SMB0CN0_ACK
      000000CEH   SFRSYM    DATA     BYTE      EIE2
      0000008FH   SFRSYM    DATA     BYTE      PSCTL
      000000E4H   SFRSYM    DATA     BYTE      IT01CF
      000000C0H.6 SFRSYM    DATA     BIT       SMB0CN0_TXMODE
      000000ADH   SFRSYM    DATA     BYTE      DERIVID
      000000A7H   SFRSYM    DATA     BYTE      SFRPAGE
      000000A4H   SFRSYM    DATA     BYTE      P0MDOUT
      000000A5H   SFRSYM    DATA     BYTE      P1MDOUT
      000000E8H.5 SFRSYM    DATA     BIT       ADC0CN0_ADINT
      000000CBH   SFRSYM    DATA     BYTE      TMR2RLH
      000000A6H   SFRSYM    DATA     BYTE      P2MDOUT
      000000A8H   SFRSYM    DATA     BYTE      IE
      00000093H   SFRSYM    DATA     BYTE      TMR3RLH
      0000009CH   SFRSYM    DATA     BYTE      P3MDOUT
      000000A3H   SFRSYM    DATA     BYTE      TMR4RLH
LX51 LINKER/LOCATER V4.66.30.0                                                        08/11/2020  17:20:48  PAGE 47


      000000F3H   SFRSYM    DATA     BYTE      EIP1
      000000F4H   SFRSYM    DATA     BYTE      EIP2
      00000098H.2 SFRSYM    DATA     BIT       SCON0_RB8
      000000CAH   SFRSYM    DATA     BYTE      TMR2RLL
      000000FCH   SFRSYM    DATA     BYTE      PCA0CPH0
      00000092H   SFRSYM    DATA     BYTE      TMR3RLL
      000000EAH   SFRSYM    DATA     BYTE      PCA0CPH1
      00000098H.3 SFRSYM    DATA     BIT       SCON0_TB8
      000000F0H   SFRSYM    DATA     BIT       B_B0
      00000082H   SFRSYM    DATA     WORD      DP
      000000A2H   SFRSYM    DATA     BYTE      TMR4RLL
      000000ECH   SFRSYM    DATA     BYTE      PCA0CPH2
      000000F0H.1 SFRSYM    DATA     BIT       B_B1
      000000C3H   SFRSYM    DATA     WORD      ADC0GT
      000000BDH   SFRSYM    DATA     BYTE      I2C0SLAD
      000000D8H.3 SFRSYM    DATA     BIT       UART1FCN1_RFRQ
      000000F0H.2 SFRSYM    DATA     BIT       B_B2
      000000CFH   SFRSYM    DATA     BYTE      SFRPGCN
      000000FBH   SFRSYM    DATA     BYTE      PCA0CPL0
      000000F0H.3 SFRSYM    DATA     BIT       B_B3
      000000D9H   SFRSYM    DATA     BYTE      PCA0MD
      000000DAH   SFRSYM    DATA     BYTE      PCA0CPM0
      000000E9H   SFRSYM    DATA     BYTE      PCA0CPL1
      000000D8H.7 SFRSYM    DATA     BIT       UART1FCN1_TFRQ
      000000F0H.4 SFRSYM    DATA     BIT       B_B4
      000000DBH   SFRSYM    DATA     BYTE      PCA0CPM1
      000000EBH   SFRSYM    DATA     BYTE      PCA0CPL2
      000000F0H.5 SFRSYM    DATA     BIT       B_B5
      000000DCH   SFRSYM    DATA     BYTE      PCA0CPM2
      000000B8H   SFRSYM    DATA     BYTE      IP
      000000B9H   SFRSYM    DATA     BYTE      ADC0TK
      000000F0H.6 SFRSYM    DATA     BIT       B_B6
      000000C5H   SFRSYM    DATA     WORD      ADC0LT
      000000D8H.6 SFRSYM    DATA     BIT       UART1FCN1_TXNF
      00000098H.5 SFRSYM    DATA     BIT       SCON0_MCE
      000000F0H.7 SFRSYM    DATA     BIT       B_B7
      000000C3H   SFRSYM    DATA     BYTE      SMB0FCN0
      000000E1H   SFRSYM    DATA     BYTE      XBR0
      000000C4H   SFRSYM    DATA     BYTE      SMB0FCN1
      000000C1H   SFRSYM    DATA     BYTE      SMB0CF
      000000E2H   SFRSYM    DATA     BYTE      XBR1
      000000C1H   SFRSYM    DATA     BYTE      PFE0CN
      000000E7H   SFRSYM    DATA     BYTE      EMI0CN
      000000C0H.5 SFRSYM    DATA     BIT       SMB0CN0_STA
      000000E3H   SFRSYM    DATA     BYTE      XBR2
      000000BBH   SFRSYM    DATA     BYTE      ADC0MX
      000000E0H   SFRSYM    DATA     BIT       ACC_ACC0
      000000D1H   SFRSYM    DATA     BYTE      REF0CN
      0000008EH   SFRSYM    DATA     BYTE      CKCON0
      000000E0H.1 SFRSYM    DATA     BIT       ACC_ACC1
      000000C9H   SFRSYM    DATA     BYTE      REG0CN
      000000DDH   SFRSYM    DATA     BYTE      CRC0IN
      000000A6H   SFRSYM    DATA     BYTE      CKCON1
      000000C8H.2 SFRSYM    DATA     BIT       TMR2CN0_TR2
      000000E0H.2 SFRSYM    DATA     BIT       ACC_ACC2
      000000C6H   SFRSYM    DATA     BYTE      REG1CN
      000000E0H.3 SFRSYM    DATA     BIT       ACC_ACC3
      00000081H   SFRSYM    DATA     BYTE      SP
      0000009DH   SFRSYM    DATA     BYTE      CMP0MD
      000000E0H.4 SFRSYM    DATA     BIT       ACC_ACC4
      000000B1H   SFRSYM    DATA     BYTE      LFO0CN
      000000ABH   SFRSYM    DATA     BYTE      CMP1MD
LX51 LINKER/LOCATER V4.66.30.0                                                        08/11/2020  17:20:48  PAGE 48


      000000D8H   SFRSYM    DATA     BIT       PCA0CN0_CCF0
      000000E0H.5 SFRSYM    DATA     BIT       ACC_ACC5
      00000098H.2 SFRSYM    DATA     BIT       TMR4CN0_TR4
      000000D8H.1 SFRSYM    DATA     BIT       PCA0CN0_CCF1
      000000E0H.6 SFRSYM    DATA     BIT       ACC_ACC6
      000000CCH   SFRSYM    DATA     WORD      TMR2
      0000009AH   SFRSYM    DATA     BYTE      SPI0FCN0
      000000D8H.2 SFRSYM    DATA     BIT       PCA0CN0_CCF2
      000000E0H.7 SFRSYM    DATA     BIT       ACC_ACC7
      00000094H   SFRSYM    DATA     WORD      TMR3
      0000009BH   SFRSYM    DATA     BYTE      SPI0FCN1
      000000A4H   SFRSYM    DATA     WORD      TMR4
      00000094H   SFRSYM    DATA     BYTE      SBCON1
      000000C0H.3 SFRSYM    DATA     BIT       SMB0CN0_ACKRQ
      000000FFH   SFRSYM    DATA     BYTE      VDM0CN
      000000F1H   SFRSYM    DATA     BYTE      P0MDIN
      00000098H.4 SFRSYM    DATA     BIT       SCON0_REN
      000000ACH   SFRSYM    DATA     BYTE      SMB0TC
      000000F2H   SFRSYM    DATA     BYTE      P1MDIN
      000000C8H.4 SFRSYM    DATA     BIT       SCON1_REN
      000000F3H   SFRSYM    DATA     BYTE      P2MDIN
      000000C0H.4 SFRSYM    DATA     BIT       SMB0CN0_STO
      000000F4H   SFRSYM    DATA     BYTE      P3MDIN
      000000B9H   SFRSYM    DATA     BYTE      I2C0STAT
      000000BBH   SFRSYM    DATA     BYTE      I2C0DOUT
      00000096H   SFRSYM    DATA     BYTE      SBRLH1
      000000FEH   SFRSYM    DATA     BYTE      P0MASK
      000000D8H.5 SFRSYM    DATA     BIT       UART1FCN1_TXHOLD
      000000EEH   SFRSYM    DATA     BYTE      P1MASK
      000000FCH   SFRSYM    DATA     BYTE      P2MASK
      000000D0H.3 SFRSYM    DATA     BIT       PSW_RS0
      000000D8H.7 SFRSYM    DATA     BIT       PCA0CN0_CF
      0000009EH   SFRSYM    DATA     BYTE      PCA0CENT
      000000BAH   SFRSYM    DATA     BYTE      I2C0CN0
      000000D2H   SFRSYM    DATA     BYTE      CRC0ST
      000000F8H.4 SFRSYM    DATA     BIT       SPI0CN0_RXOVRN
      000000D0H.4 SFRSYM    DATA     BIT       PSW_RS1
      00000095H   SFRSYM    DATA     BYTE      SBRLL1
      000000C8H.2 SFRSYM    DATA     BIT       SCON1_RBX
      000000C8H   SFRSYM    DATA     BIT       TMR2CN0_T2XCLK0
      000000C8H.1 SFRSYM    DATA     BIT       TMR2CN0_T2XCLK1
      000000C8H.3 SFRSYM    DATA     BIT       SCON1_TBX
      000000E8H.7 SFRSYM    DATA     BIT       ADC0CN0_ADEN
      00000089H   SFRSYM    DATA     BYTE      TMOD
      00000088H   SFRSYM    DATA     BYTE      TCON
      000000CFH   SFRSYM    DATA     BYTE      CRC0FLIP
      000000D0H   SFRSYM    DATA     BIT       PSW_PARITY
      000000A8H.4 SFRSYM    DATA     BIT       IE_ES0
      0000009FH   SFRSYM    DATA     BYTE      CMP0MX
      00000098H   SFRSYM    DATA     BIT       TMR4CN0_T4XCLK0
      000000A8H.1 SFRSYM    DATA     BIT       IE_ET0
      000000AAH   SFRSYM    DATA     BYTE      CMP1MX
      00000098H.1 SFRSYM    DATA     BIT       TMR4CN0_T4XCLK1
      000000A8H.3 SFRSYM    DATA     BIT       IE_ET1
      000000D4H   SFRSYM    DATA     BYTE      P0SKIP
      000000D8H   SFRSYM    DATA     BIT       UART1FCN1_RIE
      000000A8H.5 SFRSYM    DATA     BIT       IE_ET2
      000000D5H   SFRSYM    DATA     BYTE      P1SKIP
      000000CCH   SFRSYM    DATA     BYTE      P2SKIP
      000000E8H   SFRSYM    DATA     BYTE      ADC0CN0
      000000D8H.4 SFRSYM    DATA     BIT       UART1FCN1_TIE
      000000A8H   SFRSYM    DATA     BIT       IE_EX0
LX51 LINKER/LOCATER V4.66.30.0                                                        08/11/2020  17:20:48  PAGE 49


      000000B2H   SFRSYM    DATA     BYTE      ADC0CN1
      000000D8H.6 SFRSYM    DATA     BIT       PCA0CN0_CR
      000000A8H.2 SFRSYM    DATA     BIT       IE_EX1
      000000C8H.7 SFRSYM    DATA     BIT       SCON1_OVR
      00000098H.7 SFRSYM    DATA     BIT       SCON0_SMODE
      000000B5H   SFRSYM    DATA     BYTE      DEVICEID
      000000A9H   SFRSYM    DATA     BYTE      CLKSEL
      000000F8H   SFRSYM    DATA     BIT       SPI0CN0_SPIEN
      000000F0H   SFRSYM    DATA     BYTE      B
      000000BEH   SFRSYM    DATA     BYTE      ADC0H
      000000E8H.6 SFRSYM    DATA     BIT       ADC0CN0_ADBMEN
      000000CAH   SFRSYM    DATA     WORD      TMR2RL
      000000BDH   SFRSYM    DATA     BYTE      ADC0L
      00000092H   SFRSYM    DATA     WORD      TMR3RL
      000000A2H   SFRSYM    DATA     WORD      TMR4RL
      000000D8H   SFRSYM    DATA     BYTE      PCA0CN0
      000000E0H   SFRSYM    DATA     BYTE      ACC
      000000FBH   SFRSYM    DATA     WORD      PCA0CP0
      000000E9H   SFRSYM    DATA     WORD      PCA0CP1
      000000EBH   SFRSYM    DATA     WORD      PCA0CP2
      000000BCH   SFRSYM    DATA     BYTE      I2C0DIN
      000000CEH   SFRSYM    DATA     BYTE      CRC0CN0
      0000008CH   SFRSYM    DATA     BYTE      TH0
      00000086H   SFRSYM    DATA     BYTE      CRC0CN1
      000000B8H.4 SFRSYM    DATA     BIT       IP_PS0
      000000FAH   SFRSYM    DATA     BYTE      UART1FCT
      0000008DH   SFRSYM    DATA     BYTE      TH1
      000000FAH   SFRSYM    DATA     BYTE      PCA0H
      000000F5H   SFRSYM    DATA     BYTE      I2C0FCT
      000000B8H.1 SFRSYM    DATA     BIT       IP_PT0
      000000B8H.3 SFRSYM    DATA     BIT       IP_PT1
      000000C0H.2 SFRSYM    DATA     BIT       SMB0CN0_ARBLOST
      000000B8H.5 SFRSYM    DATA     BIT       IP_PT2
      0000008AH   SFRSYM    DATA     BYTE      TL0
      000000D0H.5 SFRSYM    DATA     BIT       PSW_F0
      000000A8H.6 SFRSYM    DATA     BIT       IE_ESPI0
      0000008BH   SFRSYM    DATA     BYTE      TL1
      000000F9H   SFRSYM    DATA     BYTE      PCA0L
      000000C0H   SFRSYM    DATA     BIT       SMB0CN0_SI
      000000D0H.1 SFRSYM    DATA     BIT       PSW_F1
      00000080H   SFRSYM    DATA     BIT       P0_B0
      000000B8H   SFRSYM    DATA     BIT       IP_PX0
      00000090H   SFRSYM    DATA     BIT       P1_B0
      00000080H.1 SFRSYM    DATA     BIT       P0_B1
      000000B8H.2 SFRSYM    DATA     BIT       IP_PX1
      0000009EH   SFRSYM    DATA     BYTE      UART1LIN
      0000009BH   SFRSYM    DATA     BYTE      CMP0CN0
      00000088H.1 SFRSYM    DATA     BIT       TCON_IE0
      000000A0H   SFRSYM    DATA     BIT       P2_B0
      00000090H.1 SFRSYM    DATA     BIT       P1_B1
      00000080H.2 SFRSYM    DATA     BIT       P0_B2
      000000BFH   SFRSYM    DATA     BYTE      CMP1CN0
      00000099H   SFRSYM    DATA     BYTE      CMP0CN1
      00000088H.3 SFRSYM    DATA     BIT       TCON_IE1
      000000B0H   SFRSYM    DATA     BIT       P3_B0
      000000A0H.1 SFRSYM    DATA     BIT       P2_B1
      00000090H.2 SFRSYM    DATA     BIT       P1_B2
      00000080H.3 SFRSYM    DATA     BIT       P0_B3
      000000C0H   SFRSYM    DATA     BYTE      SMB0CN0
      000000ACH   SFRSYM    DATA     BYTE      CMP1CN1
      000000B0H.1 SFRSYM    DATA     BIT       P3_B1
      000000A0H.2 SFRSYM    DATA     BIT       P2_B2
LX51 LINKER/LOCATER V4.66.30.0                                                        08/11/2020  17:20:48  PAGE 50


      00000090H.3 SFRSYM    DATA     BIT       P1_B3
      00000080H.4 SFRSYM    DATA     BIT       P0_B4
      000000A0H.3 SFRSYM    DATA     BIT       P2_B3
      00000090H.4 SFRSYM    DATA     BIT       P1_B4
      00000080H.5 SFRSYM    DATA     BIT       P0_B5
      000000D8H.1 SFRSYM    DATA     BIT       UART1FCN1_RXTO0
      00000090H.5 SFRSYM    DATA     BIT       P1_B5
      00000080H.6 SFRSYM    DATA     BIT       P0_B6
      000000F5H   SFRSYM    DATA     BYTE      EIP1H
      000000D8H.2 SFRSYM    DATA     BIT       UART1FCN1_RXTO1
      00000090H.6 SFRSYM    DATA     BIT       P1_B6
      00000080H.7 SFRSYM    DATA     BIT       P0_B7
      000000C5H   SFRSYM    DATA     BYTE      SMB0RXLN
      000000F6H   SFRSYM    DATA     BYTE      EIP2H
      00000090H.7 SFRSYM    DATA     BIT       P1_B7
      00000083H   SFRSYM    DATA     BYTE      DPH
      000000C4H   SFRSYM    DATA     BYTE      ADC0GTH
      000000C8H.7 SFRSYM    DATA     BIT       TMR2CN0_TF2H
      000000C8H.3 SFRSYM    DATA     BIT       TMR2CN0_T2SPLIT
      000000D0H.6 SFRSYM    DATA     BIT       PSW_AC
      000000F8H   SFRSYM    DATA     BYTE      SPI0CN0
      000000C7H   SFRSYM    DATA     BYTE      HFO0CAL
      00000088H.5 SFRSYM    DATA     BIT       TCON_TF0
      00000098H   SFRSYM    DATA     BIT       SCON0_RI
      000000D6H   SFRSYM    DATA     BYTE      HFO1CAL
      00000082H   SFRSYM    DATA     BYTE      DPL
      00000088H.7 SFRSYM    DATA     BIT       TCON_TF1
      000000C8H   SFRSYM    DATA     BIT       SCON1_RI
      00000099H   SFRSYM    DATA     BYTE      SBUF0
      00000087H   SFRSYM    DATA     BYTE      PCON0
      000000F2H   SFRSYM    DATA     BYTE      IPH
      000000C3H   SFRSYM    DATA     BYTE      ADC0GTL
      00000098H.7 SFRSYM    DATA     BIT       TMR4CN0_TF4H
      00000098H.3 SFRSYM    DATA     BIT       TMR4CN0_T4SPLIT
      000000C8H.6 SFRSYM    DATA     BIT       TMR2CN0_TF2L
      00000098H.1 SFRSYM    DATA     BIT       SCON0_TI
      000000E8H   SFRSYM    DATA     BIT       ADC0CN0_ADCM0
      00000092H   SFRSYM    DATA     BYTE      SBUF1
      0000009AH   SFRSYM    DATA     BYTE      PCON1
      000000C6H   SFRSYM    DATA     BYTE      ADC0LTH
      00000088H   SFRSYM    DATA     BIT       TCON_IT0
      000000C8H.1 SFRSYM    DATA     BIT       SCON1_TI
      000000E8H.1 SFRSYM    DATA     BIT       ADC0CN0_ADCM1
      000000EFH   SFRSYM    DATA     BYTE      RSTSRC
      000000FDH   SFRSYM    DATA     BYTE      P0MAT
      000000DEH   SFRSYM    DATA     BYTE      CRC0DAT
      00000088H.2 SFRSYM    DATA     BIT       TCON_IT1
      000000E8H.2 SFRSYM    DATA     BIT       ADC0CN0_ADCM2
      000000D7H   SFRSYM    DATA     BYTE      SFRSTACK
      00000098H   SFRSYM    DATA     BYTE      SCON0
      000000F6H   SFRSYM    DATA     BYTE      PRTDRV
      000000EDH   SFRSYM    DATA     BYTE      P1MAT
      000000E8H.3 SFRSYM    DATA     BIT       ADC0CN0_ADWINT
      00000095H   SFRSYM    DATA     WORD      SBRL1
      00000093H   SFRSYM    DATA     BYTE      SMOD1
      000000C8H   SFRSYM    DATA     BYTE      SCON1
      000000FBH   SFRSYM    DATA     BYTE      P2MAT
      00000098H.6 SFRSYM    DATA     BIT       TMR4CN0_TF4L
      000000E8H.4 SFRSYM    DATA     BIT       ADC0CN0_ADBUSY
      000000D6H   SFRSYM    DATA     BYTE      SMB0ADM
      000000C5H   SFRSYM    DATA     BYTE      ADC0LTL
      000000F8H.5 SFRSYM    DATA     BIT       SPI0CN0_MODF
LX51 LINKER/LOCATER V4.66.30.0                                                        08/11/2020  17:20:48  PAGE 51


      000000B8H.6 SFRSYM    DATA     BIT       IP_PSPI0
      0000009CH   SFRSYM    DATA     BYTE      PCA0CLR
      000000C8H   SFRSYM    DATA     BYTE      TMR2CN0
      00000091H   SFRSYM    DATA     BYTE      TMR3CN0
      000000FDH   SFRSYM    DATA     BYTE      TMR2CN1
      00000098H   SFRSYM    DATA     BYTE      TMR4CN0
      000000FEH   SFRSYM    DATA     BYTE      TMR3CN1
      000000FFH   SFRSYM    DATA     BYTE      TMR4CN1
      000000D7H   SFRSYM    DATA     BYTE      SMB0ADR
      00000088H.4 SFRSYM    DATA     BIT       TCON_TR0
      000000C8H.4 SFRSYM    DATA     BIT       TMR2CN0_TF2CEN
      00000088H.6 SFRSYM    DATA     BIT       TCON_TR1
      000000C2H   SFRSYM    DATA     BYTE      SMB0DAT
      000000CDH   SFRSYM    DATA     BYTE      TMR2H
      000000A1H   SFRSYM    DATA     BYTE      SPI0CFG
      00000095H   SFRSYM    DATA     BYTE      TMR3H
      000000EFH   SFRSYM    DATA     BYTE      HFOCN
      000000D3H   SFRSYM    DATA     BYTE      CRC0CNT
      000000A5H   SFRSYM    DATA     BYTE      TMR4H
      00000098H.4 SFRSYM    DATA     BIT       TMR4CN0_TF4CEN
      000000EFH   SFRSYM    DATA     BYTE      SMB0FCT
      00000096H   SFRSYM    DATA     BYTE      PCA0POL
      000000CCH   SFRSYM    DATA     BYTE      TMR2L
      000000F8H.7 SFRSYM    DATA     BIT       SPI0CN0_SPIF
      00000094H   SFRSYM    DATA     BYTE      TMR3L
      000000DFH   SFRSYM    DATA     BYTE      ADC0PWR
      000000A8H.7 SFRSYM    DATA     BIT       IE_EA
      000000A4H   SFRSYM    DATA     BYTE      TMR4L
      000000C8H.5 SFRSYM    DATA     BIT       TMR2CN0_TF2LEN
      000000F8H.6 SFRSYM    DATA     BIT       SPI0CN0_WCOL
      000000F8H.2 SFRSYM    DATA     BIT       SPI0CN0_NSSMD0
      000000D0H.7 SFRSYM    DATA     BIT       PSW_CY
      0000009DH   SFRSYM    DATA     BYTE      UART1FCN0
      000000A3H   SFRSYM    DATA     BYTE      SPI0DAT
      000000ADH   SFRSYM    DATA     BYTE      I2C0FCN0
      000000F8H.3 SFRSYM    DATA     BIT       SPI0CN0_NSSMD1
      000000BDH   SFRSYM    DATA     WORD      ADC0
      000000D8H   SFRSYM    DATA     BYTE      UART1FCN1
      000000ABH   SFRSYM    DATA     BYTE      I2C0FCN1
      00000098H.5 SFRSYM    DATA     BIT       TMR4CN0_TF4LEN
      000000D0H   SFRSYM    DATA     BYTE      PSW
      000000F7H   SFRSYM    DATA     BYTE      PCA0PWM
      000000F7H   SFRSYM    DATA     BYTE      SPI0FCT
      000000B6H   SFRSYM    DATA     BYTE      REVID
      000000B7H   SFRSYM    DATA     BYTE      FLKEY
      000000B3H   SFRSYM    DATA     BYTE      ADC0AC

      01003BB4H   BLOCK     CODE     ---       LVL=0
      01003BB4H   LINE      CODE     ---       #18
      01003BB4H   LINE      CODE     ---       #19
      01003BB4H   LINE      CODE     ---       #20
      01003BB7H   LINE      CODE     ---       #21
      01003BBAH   LINE      CODE     ---       #23
      01003BBDH   LINE      CODE     ---       #24
      01003BBFH   LINE      CODE     ---       #25
      01003BC1H   LINE      CODE     ---       #26
      01003BC6H   LINE      CODE     ---       #27
      01003BC9H   LINE      CODE     ---       #28
      01003BCCH   LINE      CODE     ---       #29
      01003BD1H   LINE      CODE     ---       #31
      ---         BLOCKEND  ---      ---       LVL=0

LX51 LINKER/LOCATER V4.66.30.0                                                        08/11/2020  17:20:48  PAGE 52


      01003C25H   BLOCK     CODE     ---       LVL=0
      00000007H   SYMBOL    DATA     BYTE      Switch
      01003C25H   LINE      CODE     ---       #34
      01003C25H   LINE      CODE     ---       #35
      01003C25H   LINE      CODE     ---       #36
      01003C28H   LINE      CODE     ---       #37
      01003C2CH   LINE      CODE     ---       #38
      01003C2CH   LINE      CODE     ---       #39
      01003C2FH   LINE      CODE     ---       #40
      01003C32H   LINE      CODE     ---       #41
      01003C32H   LINE      CODE     ---       #42
      01003C35H   LINE      CODE     ---       #43
      01003C35H   LINE      CODE     ---       #44
      01003C38H   LINE      CODE     ---       #45
      01003C3BH   LINE      CODE     ---       #46
      01003C3BH   LINE      CODE     ---       #47
      ---         BLOCKEND  ---      ---       LVL=0

      01000056H   BLOCK     CODE     ---       LVL=0
      01000056H   LINE      CODE     ---       #49
      01000056H   LINE      CODE     ---       #50
      01000056H   LINE      CODE     ---       #51
      01000058H   LINE      CODE     ---       #52
      ---         BLOCKEND  ---      ---       LVL=0

      01000070H   BLOCK     CODE     ---       LVL=0
      01000070H   LINE      CODE     ---       #54
      01000070H   LINE      CODE     ---       #55
      01000070H   LINE      CODE     ---       #56
      01000072H   LINE      CODE     ---       #57
      ---         BLOCKEND  ---      ---       LVL=0

      01003B90H   BLOCK     CODE     ---       LVL=0
      01003B90H   LINE      CODE     ---       #59
      01003B90H   LINE      CODE     ---       #60
      01003B90H   LINE      CODE     ---       #61
      01003B93H   LINE      CODE     ---       #63
      01003B96H   LINE      CODE     ---       #65
      01003B99H   LINE      CODE     ---       #67
      01003B9CH   LINE      CODE     ---       #69
      01003B9FH   LINE      CODE     ---       #73
      01003BA2H   LINE      CODE     ---       #75
      01003BA5H   LINE      CODE     ---       #77
      01003BA8H   LINE      CODE     ---       #79
      01003BABH   LINE      CODE     ---       #84
      01003BAEH   LINE      CODE     ---       #87
      01003BB0H   LINE      CODE     ---       #90
      01003BB3H   LINE      CODE     ---       #92
      ---         BLOCKEND  ---      ---       LVL=0

      ---         MODULE    ---      ---       DETECTOBJ
      02000221H   PUBLIC    XDATA    ---       EachSNMaxDistance
      020001F9H   PUBLIC    XDATA    ---       TableWidth
      020001EBH   PUBLIC    XDATA    ---       NearestData
      020001D7H   PUBLIC    XDATA    ---       TableHeight
      020001D4H   PUBLIC    XDATA    ---       DetObj_DataPrcs
      020001CBH   PUBLIC    XDATA    ---       DetInfo
      0200007CH   PUBLIC    XDATA    ---       RawData
      02000076H   PUBLIC    XDATA    ---       DetectInterval
      0200006BH   PUBLIC    XDATA    ---       AnsData
      0200001EH   PUBLIC    XDATA    ---       CmpData
      02000018H   PUBLIC    XDATA    ---       ClrtData
LX51 LINKER/LOCATER V4.66.30.0                                                        08/11/2020  17:20:48  PAGE 53


      0200000CH   PUBLIC    XDATA    ---       DiagInfo
      02000000H   PUBLIC    XDATA    ---       Noise
      01000DB8H   PUBLIC    CODE     ---       DetObj_CompareTheData
      01002EE9H   PUBLIC    CODE     ---       DetObj_ProcessTheRingTime
      0100200DH   PUBLIC    CODE     ---       DetObj_GenerateTheNearestObstacle
      01003478H   PUBLIC    CODE     ---       DetObj_HoldTheObstaclestate
      010014D9H   PUBLIC    CODE     ---       DetObj_DetTheObj
      010022CDH   PUBLIC    CODE     ---       DetObj_RawNoiseDataAns
      01000A74H   PUBLIC    CODE     ---       DetObj_RawEchoDataAns
      01001CB1H   PUBLIC    CODE     ---       DetObj_RawFilter
      01001ACEH   PUBLIC    CODE     ---       DetObj_CalSampNoise
      0200038FH   PUBLIC    XDATA    BYTE      ?_DetObj_CopySamplingBuffer?BYTE
      01003702H   PUBLIC    CODE     ---       _DetObj_CopySamplingBuffer
      0100313DH   PUBLIC    CODE     ---       DetObj_ClearTheNoiseBuff
      010032E7H   PUBLIC    CODE     ---       _GetDistance
      010039DAH   PUBLIC    CODE     ---       DetObj_ClearTheRawDataBuff
      010035E4H   PUBLIC    CODE     ---       DetObj_InitTheCCD
      010030B8H   PUBLIC    CODE     ---       DetObj_InitTheEPD
      01003CC7H   PUBLIC    CODE     ---       DetObj_InitTheAnalysisData
      01003CC1H   PUBLIC    CODE     ---       DetObj_Stop
      01003CB0H   PUBLIC    CODE     ---       DetObj_Start
      01002526H   PUBLIC    CODE     ---       DetObj_DiagnosticTheRingTime
      01003B44H   PUBLIC    CODE     ---       DetObj_DiagnosticTheSensor
      01003415H   PUBLIC    CODE     ---       DetObj_SendThe58KhzUltraSonic
      010039B0H   PUBLIC    CODE     ---       DetObj_RealTimeClock
      01003593H   PUBLIC    CODE     ---       DetObj_InitAllChannelDistance
      000000A2H   SFRSYM    DATA     BYTE      SPI0CKR
      00000080H   SFRSYM    DATA     BYTE      P0
      000000C8H.6 SFRSYM    DATA     BIT       SCON1_PERR
      000000D0H.2 SFRSYM    DATA     BIT       PSW_OV
      00000090H   SFRSYM    DATA     BYTE      P1
      000000F8H.1 SFRSYM    DATA     BIT       SPI0CN0_TXNF
      00000097H   SFRSYM    DATA     BYTE      WDTCN
      000000A0H   SFRSYM    DATA     BYTE      P2
      000000B0H   SFRSYM    DATA     BYTE      P3
      000000BCH   SFRSYM    DATA     BYTE      ADC0CF
      000000C0H.7 SFRSYM    DATA     BIT       SMB0CN0_MASTER
      000000F9H   SFRSYM    DATA     WORD      PCA0
      000000E6H   SFRSYM    DATA     BYTE      EIE1
      000000C0H.1 SFRSYM    DATA     BIT       SMB0CN0_ACK
      000000CEH   SFRSYM    DATA     BYTE      EIE2
      0000008FH   SFRSYM    DATA     BYTE      PSCTL
      000000E4H   SFRSYM    DATA     BYTE      IT01CF
      000000C0H.6 SFRSYM    DATA     BIT       SMB0CN0_TXMODE
      000000ADH   SFRSYM    DATA     BYTE      DERIVID
      000000A7H   SFRSYM    DATA     BYTE      SFRPAGE
      000000A4H   SFRSYM    DATA     BYTE      P0MDOUT
      000000A5H   SFRSYM    DATA     BYTE      P1MDOUT
      000000E8H.5 SFRSYM    DATA     BIT       ADC0CN0_ADINT
      000000CBH   SFRSYM    DATA     BYTE      TMR2RLH
      000000A6H   SFRSYM    DATA     BYTE      P2MDOUT
      000000A8H   SFRSYM    DATA     BYTE      IE
      00000093H   SFRSYM    DATA     BYTE      TMR3RLH
      0000009CH   SFRSYM    DATA     BYTE      P3MDOUT
      000000A3H   SFRSYM    DATA     BYTE      TMR4RLH
      000000F3H   SFRSYM    DATA     BYTE      EIP1
      000000F4H   SFRSYM    DATA     BYTE      EIP2
      00000098H.2 SFRSYM    DATA     BIT       SCON0_RB8
      000000CAH   SFRSYM    DATA     BYTE      TMR2RLL
      000000FCH   SFRSYM    DATA     BYTE      PCA0CPH0
      00000092H   SFRSYM    DATA     BYTE      TMR3RLL
      000000EAH   SFRSYM    DATA     BYTE      PCA0CPH1
LX51 LINKER/LOCATER V4.66.30.0                                                        08/11/2020  17:20:48  PAGE 54


      00000098H.3 SFRSYM    DATA     BIT       SCON0_TB8
      000000F0H   SFRSYM    DATA     BIT       B_B0
      00000082H   SFRSYM    DATA     WORD      DP
      000000A2H   SFRSYM    DATA     BYTE      TMR4RLL
      000000ECH   SFRSYM    DATA     BYTE      PCA0CPH2
      000000F0H.1 SFRSYM    DATA     BIT       B_B1
      000000C3H   SFRSYM    DATA     WORD      ADC0GT
      000000BDH   SFRSYM    DATA     BYTE      I2C0SLAD
      000000D8H.3 SFRSYM    DATA     BIT       UART1FCN1_RFRQ
      000000F0H.2 SFRSYM    DATA     BIT       B_B2
      000000CFH   SFRSYM    DATA     BYTE      SFRPGCN
      000000FBH   SFRSYM    DATA     BYTE      PCA0CPL0
      000000F0H.3 SFRSYM    DATA     BIT       B_B3
      000000D9H   SFRSYM    DATA     BYTE      PCA0MD
      000000DAH   SFRSYM    DATA     BYTE      PCA0CPM0
      000000E9H   SFRSYM    DATA     BYTE      PCA0CPL1
      000000D8H.7 SFRSYM    DATA     BIT       UART1FCN1_TFRQ
      000000F0H.4 SFRSYM    DATA     BIT       B_B4
      000000DBH   SFRSYM    DATA     BYTE      PCA0CPM1
      000000EBH   SFRSYM    DATA     BYTE      PCA0CPL2
      000000F0H.5 SFRSYM    DATA     BIT       B_B5
      000000DCH   SFRSYM    DATA     BYTE      PCA0CPM2
      000000B8H   SFRSYM    DATA     BYTE      IP
      000000B9H   SFRSYM    DATA     BYTE      ADC0TK
      000000F0H.6 SFRSYM    DATA     BIT       B_B6
      000000C5H   SFRSYM    DATA     WORD      ADC0LT
      000000D8H.6 SFRSYM    DATA     BIT       UART1FCN1_TXNF
      00000098H.5 SFRSYM    DATA     BIT       SCON0_MCE
      000000F0H.7 SFRSYM    DATA     BIT       B_B7
      000000C3H   SFRSYM    DATA     BYTE      SMB0FCN0
      000000E1H   SFRSYM    DATA     BYTE      XBR0
      000000C4H   SFRSYM    DATA     BYTE      SMB0FCN1
      000000C1H   SFRSYM    DATA     BYTE      SMB0CF
      000000E2H   SFRSYM    DATA     BYTE      XBR1
      000000C1H   SFRSYM    DATA     BYTE      PFE0CN
      000000E7H   SFRSYM    DATA     BYTE      EMI0CN
      000000C0H.5 SFRSYM    DATA     BIT       SMB0CN0_STA
      000000E3H   SFRSYM    DATA     BYTE      XBR2
      000000BBH   SFRSYM    DATA     BYTE      ADC0MX
      000000E0H   SFRSYM    DATA     BIT       ACC_ACC0
      000000D1H   SFRSYM    DATA     BYTE      REF0CN
      0000008EH   SFRSYM    DATA     BYTE      CKCON0
      000000E0H.1 SFRSYM    DATA     BIT       ACC_ACC1
      000000C9H   SFRSYM    DATA     BYTE      REG0CN
      000000DDH   SFRSYM    DATA     BYTE      CRC0IN
      000000A6H   SFRSYM    DATA     BYTE      CKCON1
      000000C8H.2 SFRSYM    DATA     BIT       TMR2CN0_TR2
      000000E0H.2 SFRSYM    DATA     BIT       ACC_ACC2
      000000C6H   SFRSYM    DATA     BYTE      REG1CN
      000000E0H.3 SFRSYM    DATA     BIT       ACC_ACC3
      00000081H   SFRSYM    DATA     BYTE      SP
      0000009DH   SFRSYM    DATA     BYTE      CMP0MD
      000000E0H.4 SFRSYM    DATA     BIT       ACC_ACC4
      000000B1H   SFRSYM    DATA     BYTE      LFO0CN
      000000ABH   SFRSYM    DATA     BYTE      CMP1MD
      000000D8H   SFRSYM    DATA     BIT       PCA0CN0_CCF0
      000000E0H.5 SFRSYM    DATA     BIT       ACC_ACC5
      00000098H.2 SFRSYM    DATA     BIT       TMR4CN0_TR4
      000000D8H.1 SFRSYM    DATA     BIT       PCA0CN0_CCF1
      000000E0H.6 SFRSYM    DATA     BIT       ACC_ACC6
      000000CCH   SFRSYM    DATA     WORD      TMR2
      0000009AH   SFRSYM    DATA     BYTE      SPI0FCN0
LX51 LINKER/LOCATER V4.66.30.0                                                        08/11/2020  17:20:48  PAGE 55


      000000D8H.2 SFRSYM    DATA     BIT       PCA0CN0_CCF2
      000000E0H.7 SFRSYM    DATA     BIT       ACC_ACC7
      00000094H   SFRSYM    DATA     WORD      TMR3
      0000009BH   SFRSYM    DATA     BYTE      SPI0FCN1
      000000A4H   SFRSYM    DATA     WORD      TMR4
      00000094H   SFRSYM    DATA     BYTE      SBCON1
      000000C0H.3 SFRSYM    DATA     BIT       SMB0CN0_ACKRQ
      000000FFH   SFRSYM    DATA     BYTE      VDM0CN
      000000F1H   SFRSYM    DATA     BYTE      P0MDIN
      00000098H.4 SFRSYM    DATA     BIT       SCON0_REN
      000000ACH   SFRSYM    DATA     BYTE      SMB0TC
      000000F2H   SFRSYM    DATA     BYTE      P1MDIN
      000000C8H.4 SFRSYM    DATA     BIT       SCON1_REN
      000000F3H   SFRSYM    DATA     BYTE      P2MDIN
      000000C0H.4 SFRSYM    DATA     BIT       SMB0CN0_STO
      000000F4H   SFRSYM    DATA     BYTE      P3MDIN
      000000B9H   SFRSYM    DATA     BYTE      I2C0STAT
      000000BBH   SFRSYM    DATA     BYTE      I2C0DOUT
      00000096H   SFRSYM    DATA     BYTE      SBRLH1
      000000FEH   SFRSYM    DATA     BYTE      P0MASK
      000000D8H.5 SFRSYM    DATA     BIT       UART1FCN1_TXHOLD
      000000EEH   SFRSYM    DATA     BYTE      P1MASK
      000000FCH   SFRSYM    DATA     BYTE      P2MASK
      000000D0H.3 SFRSYM    DATA     BIT       PSW_RS0
      000000D8H.7 SFRSYM    DATA     BIT       PCA0CN0_CF
      0000009EH   SFRSYM    DATA     BYTE      PCA0CENT
      000000BAH   SFRSYM    DATA     BYTE      I2C0CN0
      000000D2H   SFRSYM    DATA     BYTE      CRC0ST
      000000F8H.4 SFRSYM    DATA     BIT       SPI0CN0_RXOVRN
      000000D0H.4 SFRSYM    DATA     BIT       PSW_RS1
      00000095H   SFRSYM    DATA     BYTE      SBRLL1
      000000C8H.2 SFRSYM    DATA     BIT       SCON1_RBX
      000000C8H   SFRSYM    DATA     BIT       TMR2CN0_T2XCLK0
      000000C8H.1 SFRSYM    DATA     BIT       TMR2CN0_T2XCLK1
      000000C8H.3 SFRSYM    DATA     BIT       SCON1_TBX
      000000E8H.7 SFRSYM    DATA     BIT       ADC0CN0_ADEN
      00000089H   SFRSYM    DATA     BYTE      TMOD
      00000088H   SFRSYM    DATA     BYTE      TCON
      000000CFH   SFRSYM    DATA     BYTE      CRC0FLIP
      000000D0H   SFRSYM    DATA     BIT       PSW_PARITY
      000000A8H.4 SFRSYM    DATA     BIT       IE_ES0
      0000009FH   SFRSYM    DATA     BYTE      CMP0MX
      00000098H   SFRSYM    DATA     BIT       TMR4CN0_T4XCLK0
      000000A8H.1 SFRSYM    DATA     BIT       IE_ET0
      000000AAH   SFRSYM    DATA     BYTE      CMP1MX
      00000098H.1 SFRSYM    DATA     BIT       TMR4CN0_T4XCLK1
      000000A8H.3 SFRSYM    DATA     BIT       IE_ET1
      000000D4H   SFRSYM    DATA     BYTE      P0SKIP
      000000D8H   SFRSYM    DATA     BIT       UART1FCN1_RIE
      000000A8H.5 SFRSYM    DATA     BIT       IE_ET2
      000000D5H   SFRSYM    DATA     BYTE      P1SKIP
      000000CCH   SFRSYM    DATA     BYTE      P2SKIP
      000000E8H   SFRSYM    DATA     BYTE      ADC0CN0
      000000D8H.4 SFRSYM    DATA     BIT       UART1FCN1_TIE
      000000A8H   SFRSYM    DATA     BIT       IE_EX0
      000000B2H   SFRSYM    DATA     BYTE      ADC0CN1
      000000D8H.6 SFRSYM    DATA     BIT       PCA0CN0_CR
      000000A8H.2 SFRSYM    DATA     BIT       IE_EX1
      000000C8H.7 SFRSYM    DATA     BIT       SCON1_OVR
      00000098H.7 SFRSYM    DATA     BIT       SCON0_SMODE
      000000B5H   SFRSYM    DATA     BYTE      DEVICEID
      000000A9H   SFRSYM    DATA     BYTE      CLKSEL
LX51 LINKER/LOCATER V4.66.30.0                                                        08/11/2020  17:20:48  PAGE 56


      000000F8H   SFRSYM    DATA     BIT       SPI0CN0_SPIEN
      000000F0H   SFRSYM    DATA     BYTE      B
      000000BEH   SFRSYM    DATA     BYTE      ADC0H
      000000E8H.6 SFRSYM    DATA     BIT       ADC0CN0_ADBMEN
      000000CAH   SFRSYM    DATA     WORD      TMR2RL
      000000BDH   SFRSYM    DATA     BYTE      ADC0L
      00000092H   SFRSYM    DATA     WORD      TMR3RL
      000000A2H   SFRSYM    DATA     WORD      TMR4RL
      000000D8H   SFRSYM    DATA     BYTE      PCA0CN0
      000000E0H   SFRSYM    DATA     BYTE      ACC
      000000FBH   SFRSYM    DATA     WORD      PCA0CP0
      000000E9H   SFRSYM    DATA     WORD      PCA0CP1
      000000EBH   SFRSYM    DATA     WORD      PCA0CP2
      000000BCH   SFRSYM    DATA     BYTE      I2C0DIN
      000000CEH   SFRSYM    DATA     BYTE      CRC0CN0
      0000008CH   SFRSYM    DATA     BYTE      TH0
      00000086H   SFRSYM    DATA     BYTE      CRC0CN1
      000000B8H.4 SFRSYM    DATA     BIT       IP_PS0
      000000FAH   SFRSYM    DATA     BYTE      UART1FCT
      0000008DH   SFRSYM    DATA     BYTE      TH1
      000000FAH   SFRSYM    DATA     BYTE      PCA0H
      000000F5H   SFRSYM    DATA     BYTE      I2C0FCT
      000000B8H.1 SFRSYM    DATA     BIT       IP_PT0
      000000B8H.3 SFRSYM    DATA     BIT       IP_PT1
      000000C0H.2 SFRSYM    DATA     BIT       SMB0CN0_ARBLOST
      000000B8H.5 SFRSYM    DATA     BIT       IP_PT2
      0000008AH   SFRSYM    DATA     BYTE      TL0
      000000D0H.5 SFRSYM    DATA     BIT       PSW_F0
      000000A8H.6 SFRSYM    DATA     BIT       IE_ESPI0
      0000008BH   SFRSYM    DATA     BYTE      TL1
      000000F9H   SFRSYM    DATA     BYTE      PCA0L
      000000C0H   SFRSYM    DATA     BIT       SMB0CN0_SI
      000000D0H.1 SFRSYM    DATA     BIT       PSW_F1
      00000080H   SFRSYM    DATA     BIT       P0_B0
      000000B8H   SFRSYM    DATA     BIT       IP_PX0
      00000090H   SFRSYM    DATA     BIT       P1_B0
      00000080H.1 SFRSYM    DATA     BIT       P0_B1
      000000B8H.2 SFRSYM    DATA     BIT       IP_PX1
      0000009EH   SFRSYM    DATA     BYTE      UART1LIN
      0000009BH   SFRSYM    DATA     BYTE      CMP0CN0
      00000088H.1 SFRSYM    DATA     BIT       TCON_IE0
      000000A0H   SFRSYM    DATA     BIT       P2_B0
      00000090H.1 SFRSYM    DATA     BIT       P1_B1
      00000080H.2 SFRSYM    DATA     BIT       P0_B2
      000000BFH   SFRSYM    DATA     BYTE      CMP1CN0
      00000099H   SFRSYM    DATA     BYTE      CMP0CN1
      00000088H.3 SFRSYM    DATA     BIT       TCON_IE1
      000000B0H   SFRSYM    DATA     BIT       P3_B0
      000000A0H.1 SFRSYM    DATA     BIT       P2_B1
      00000090H.2 SFRSYM    DATA     BIT       P1_B2
      00000080H.3 SFRSYM    DATA     BIT       P0_B3
      000000C0H   SFRSYM    DATA     BYTE      SMB0CN0
      000000ACH   SFRSYM    DATA     BYTE      CMP1CN1
      000000B0H.1 SFRSYM    DATA     BIT       P3_B1
      000000A0H.2 SFRSYM    DATA     BIT       P2_B2
      00000090H.3 SFRSYM    DATA     BIT       P1_B3
      00000080H.4 SFRSYM    DATA     BIT       P0_B4
      000000A0H.3 SFRSYM    DATA     BIT       P2_B3
      00000090H.4 SFRSYM    DATA     BIT       P1_B4
      00000080H.5 SFRSYM    DATA     BIT       P0_B5
      000000D8H.1 SFRSYM    DATA     BIT       UART1FCN1_RXTO0
      00000090H.5 SFRSYM    DATA     BIT       P1_B5
LX51 LINKER/LOCATER V4.66.30.0                                                        08/11/2020  17:20:48  PAGE 57


      00000080H.6 SFRSYM    DATA     BIT       P0_B6
      000000F5H   SFRSYM    DATA     BYTE      EIP1H
      000000D8H.2 SFRSYM    DATA     BIT       UART1FCN1_RXTO1
      00000090H.6 SFRSYM    DATA     BIT       P1_B6
      00000080H.7 SFRSYM    DATA     BIT       P0_B7
      000000C5H   SFRSYM    DATA     BYTE      SMB0RXLN
      000000F6H   SFRSYM    DATA     BYTE      EIP2H
      00000090H.7 SFRSYM    DATA     BIT       P1_B7
      00000083H   SFRSYM    DATA     BYTE      DPH
      000000C4H   SFRSYM    DATA     BYTE      ADC0GTH
      000000C8H.7 SFRSYM    DATA     BIT       TMR2CN0_TF2H
      000000C8H.3 SFRSYM    DATA     BIT       TMR2CN0_T2SPLIT
      000000D0H.6 SFRSYM    DATA     BIT       PSW_AC
      000000F8H   SFRSYM    DATA     BYTE      SPI0CN0
      000000C7H   SFRSYM    DATA     BYTE      HFO0CAL
      00000088H.5 SFRSYM    DATA     BIT       TCON_TF0
      00000098H   SFRSYM    DATA     BIT       SCON0_RI
      000000D6H   SFRSYM    DATA     BYTE      HFO1CAL
      00000082H   SFRSYM    DATA     BYTE      DPL
      00000088H.7 SFRSYM    DATA     BIT       TCON_TF1
      000000C8H   SFRSYM    DATA     BIT       SCON1_RI
      00000099H   SFRSYM    DATA     BYTE      SBUF0
      00000087H   SFRSYM    DATA     BYTE      PCON0
      000000F2H   SFRSYM    DATA     BYTE      IPH
      000000C3H   SFRSYM    DATA     BYTE      ADC0GTL
      00000098H.7 SFRSYM    DATA     BIT       TMR4CN0_TF4H
      00000098H.3 SFRSYM    DATA     BIT       TMR4CN0_T4SPLIT
      000000C8H.6 SFRSYM    DATA     BIT       TMR2CN0_TF2L
      00000098H.1 SFRSYM    DATA     BIT       SCON0_TI
      000000E8H   SFRSYM    DATA     BIT       ADC0CN0_ADCM0
      00000092H   SFRSYM    DATA     BYTE      SBUF1
      0000009AH   SFRSYM    DATA     BYTE      PCON1
      000000C6H   SFRSYM    DATA     BYTE      ADC0LTH
      00000088H   SFRSYM    DATA     BIT       TCON_IT0
      000000C8H.1 SFRSYM    DATA     BIT       SCON1_TI
      000000E8H.1 SFRSYM    DATA     BIT       ADC0CN0_ADCM1
      000000EFH   SFRSYM    DATA     BYTE      RSTSRC
      000000FDH   SFRSYM    DATA     BYTE      P0MAT
      000000DEH   SFRSYM    DATA     BYTE      CRC0DAT
      00000088H.2 SFRSYM    DATA     BIT       TCON_IT1
      000000E8H.2 SFRSYM    DATA     BIT       ADC0CN0_ADCM2
      000000D7H   SFRSYM    DATA     BYTE      SFRSTACK
      00000098H   SFRSYM    DATA     BYTE      SCON0
      000000F6H   SFRSYM    DATA     BYTE      PRTDRV
      000000EDH   SFRSYM    DATA     BYTE      P1MAT
      000000E8H.3 SFRSYM    DATA     BIT       ADC0CN0_ADWINT
      00000095H   SFRSYM    DATA     WORD      SBRL1
      00000093H   SFRSYM    DATA     BYTE      SMOD1
      000000C8H   SFRSYM    DATA     BYTE      SCON1
      000000FBH   SFRSYM    DATA     BYTE      P2MAT
      00000098H.6 SFRSYM    DATA     BIT       TMR4CN0_TF4L
      000000E8H.4 SFRSYM    DATA     BIT       ADC0CN0_ADBUSY
      000000D6H   SFRSYM    DATA     BYTE      SMB0ADM
      000000C5H   SFRSYM    DATA     BYTE      ADC0LTL
      000000F8H.5 SFRSYM    DATA     BIT       SPI0CN0_MODF
      000000B8H.6 SFRSYM    DATA     BIT       IP_PSPI0
      0000009CH   SFRSYM    DATA     BYTE      PCA0CLR
      000000C8H   SFRSYM    DATA     BYTE      TMR2CN0
      00000091H   SFRSYM    DATA     BYTE      TMR3CN0
      000000FDH   SFRSYM    DATA     BYTE      TMR2CN1
      00000098H   SFRSYM    DATA     BYTE      TMR4CN0
      000000FEH   SFRSYM    DATA     BYTE      TMR3CN1
LX51 LINKER/LOCATER V4.66.30.0                                                        08/11/2020  17:20:48  PAGE 58


      000000FFH   SFRSYM    DATA     BYTE      TMR4CN1
      000000D7H   SFRSYM    DATA     BYTE      SMB0ADR
      00000088H.4 SFRSYM    DATA     BIT       TCON_TR0
      000000C8H.4 SFRSYM    DATA     BIT       TMR2CN0_TF2CEN
      00000088H.6 SFRSYM    DATA     BIT       TCON_TR1
      000000C2H   SFRSYM    DATA     BYTE      SMB0DAT
      000000CDH   SFRSYM    DATA     BYTE      TMR2H
      000000A1H   SFRSYM    DATA     BYTE      SPI0CFG
      00000095H   SFRSYM    DATA     BYTE      TMR3H
      000000EFH   SFRSYM    DATA     BYTE      HFOCN
      000000D3H   SFRSYM    DATA     BYTE      CRC0CNT
      000000A5H   SFRSYM    DATA     BYTE      TMR4H
      00000098H.4 SFRSYM    DATA     BIT       TMR4CN0_TF4CEN
      000000EFH   SFRSYM    DATA     BYTE      SMB0FCT
      00000096H   SFRSYM    DATA     BYTE      PCA0POL
      000000CCH   SFRSYM    DATA     BYTE      TMR2L
      000000F8H.7 SFRSYM    DATA     BIT       SPI0CN0_SPIF
      00000094H   SFRSYM    DATA     BYTE      TMR3L
      000000DFH   SFRSYM    DATA     BYTE      ADC0PWR
      000000A8H.7 SFRSYM    DATA     BIT       IE_EA
      000000A4H   SFRSYM    DATA     BYTE      TMR4L
      000000C8H.5 SFRSYM    DATA     BIT       TMR2CN0_TF2LEN
      000000F8H.6 SFRSYM    DATA     BIT       SPI0CN0_WCOL
      000000F8H.2 SFRSYM    DATA     BIT       SPI0CN0_NSSMD0
      000000D0H.7 SFRSYM    DATA     BIT       PSW_CY
      0000009DH   SFRSYM    DATA     BYTE      UART1FCN0
      000000A3H   SFRSYM    DATA     BYTE      SPI0DAT
      000000ADH   SFRSYM    DATA     BYTE      I2C0FCN0
      000000F8H.3 SFRSYM    DATA     BIT       SPI0CN0_NSSMD1
      000000BDH   SFRSYM    DATA     WORD      ADC0
      000000D8H   SFRSYM    DATA     BYTE      UART1FCN1
      000000ABH   SFRSYM    DATA     BYTE      I2C0FCN1
      00000098H.5 SFRSYM    DATA     BIT       TMR4CN0_TF4LEN
      000000D0H   SFRSYM    DATA     BYTE      PSW
      000000F7H   SFRSYM    DATA     BYTE      PCA0PWM
      000000F7H   SFRSYM    DATA     BYTE      SPI0FCT
      000000B6H   SFRSYM    DATA     BYTE      REVID
      000000B7H   SFRSYM    DATA     BYTE      FLKEY
      000000B3H   SFRSYM    DATA     BYTE      ADC0AC
      00000007H   SYMBOL    DATA     BYTE      i
      00000002H   SYMBOL    DATA     WORD      i

      01003593H   BLOCK     CODE     ---       LVL=0
      01003593H   BLOCK     CODE     NEAR LAB  LVL=1
      00000007H   SYMBOL    DATA     BYTE      i
      ---         BLOCKEND  ---      ---       LVL=1
      01003593H   LINE      CODE     ---       #206
      01003593H   LINE      CODE     ---       #207
      01003593H   LINE      CODE     ---       #209
      01003599H   LINE      CODE     ---       #210
      0100359EH   LINE      CODE     ---       #211
      010035A4H   LINE      CODE     ---       #212
      010035A6H   LINE      CODE     ---       #213
      010035A6H   LINE      CODE     ---       #214
      010035B3H   LINE      CODE     ---       #215
      010035C0H   LINE      CODE     ---       #216
      010035CCH   LINE      CODE     ---       #217
      010035D1H   LINE      CODE     ---       #218
      010035D6H   LINE      CODE     ---       #219
      010035DCH   LINE      CODE     ---       #220
      010035E1H   LINE      CODE     ---       #221
      ---         BLOCKEND  ---      ---       LVL=0
LX51 LINKER/LOCATER V4.66.30.0                                                        08/11/2020  17:20:48  PAGE 59



      010039B0H   BLOCK     CODE     ---       LVL=0
      010039B0H   LINE      CODE     ---       #224
      010039B0H   LINE      CODE     ---       #225
      010039B0H   LINE      CODE     ---       #226
      010039BEH   LINE      CODE     ---       #227
      010039CDH   LINE      CODE     ---       #228
      010039CDH   LINE      CODE     ---       #229
      010039D9H   LINE      CODE     ---       #230
      010039D9H   LINE      CODE     ---       #231
      ---         BLOCKEND  ---      ---       LVL=0

      01003415H   BLOCK     CODE     ---       LVL=0
      01003415H   BLOCK     CODE     NEAR LAB  LVL=1
      02000388H   SYMBOL    XDATA    BYTE      i
      ---         BLOCKEND  ---      ---       LVL=1
      01003415H   LINE      CODE     ---       #308
      01003415H   LINE      CODE     ---       #309
      01003415H   LINE      CODE     ---       #312
      01003418H   LINE      CODE     ---       #313
      0100341EH   LINE      CODE     ---       #314
      0100341EH   LINE      CODE     ---       #315
      01003420H   LINE      CODE     ---       #316
      01003422H   LINE      CODE     ---       #317
      01003429H   LINE      CODE     ---       #318
      01003439H   LINE      CODE     ---       #319
      01003444H   LINE      CODE     ---       #320
      01003446H   LINE      CODE     ---       #321
      01003448H   LINE      CODE     ---       #322
      0100344FH   LINE      CODE     ---       #323
      0100345BH   LINE      CODE     ---       #324
      01003467H   LINE      CODE     ---       #325
      01003469H   LINE      CODE     ---       #326
      0100346BH   LINE      CODE     ---       #327
      01003475H   LINE      CODE     ---       #328
      ---         BLOCKEND  ---      ---       LVL=0

      01003B44H   BLOCK     CODE     ---       LVL=0
      01003B44H   LINE      CODE     ---       #335
      01003B44H   LINE      CODE     ---       #336
      01003B44H   LINE      CODE     ---       #337
      01003B51H   LINE      CODE     ---       #338
      01003B51H   LINE      CODE     ---       #339
      01003B5DH   LINE      CODE     ---       #340
      01003B5EH   LINE      CODE     ---       #342
      01003B5EH   LINE      CODE     ---       #343
      01003B69H   LINE      CODE     ---       #344
      01003B69H   LINE      CODE     ---       #345
      ---         BLOCKEND  ---      ---       LVL=0

      01002526H   BLOCK     CODE     ---       LVL=0
      01002526H   LINE      CODE     ---       #357
      01002526H   LINE      CODE     ---       #358
      01002526H   LINE      CODE     ---       #359
      01002533H   LINE      CODE     ---       #360
      01002533H   LINE      CODE     ---       #361
      01002559H   LINE      CODE     ---       #363
      01002559H   LINE      CODE     ---       #364
      01002560H   LINE      CODE     ---       #365
      0100257DH   LINE      CODE     ---       #366
      01002586H   LINE      CODE     ---       #367
      01002586H   LINE      CODE     ---       #368
LX51 LINKER/LOCATER V4.66.30.0                                                        08/11/2020  17:20:48  PAGE 60


      01002589H   LINE      CODE     ---       #369
      01002589H   LINE      CODE     ---       #370
      0100258BH   LINE      CODE     ---       #371
      010025B1H   LINE      CODE     ---       #373
      010025B1H   LINE      CODE     ---       #374
      010025B9H   LINE      CODE     ---       #375
      010025C3H   LINE      CODE     ---       #376
      010025C5H   LINE      CODE     ---       #378
      010025C5H   LINE      CODE     ---       #379
      010025CEH   LINE      CODE     ---       #380
      010025CEH   LINE      CODE     ---       #381
      010025D1H   LINE      CODE     ---       #382
      010025D1H   LINE      CODE     ---       #383
      010025D1H   LINE      CODE     ---       #384
      010025E0H   LINE      CODE     ---       #385
      010025E0H   LINE      CODE     ---       #386
      010025E7H   LINE      CODE     ---       #387
      010025E7H   LINE      CODE     ---       #388
      010025E9H   LINE      CODE     ---       #390
      010025E9H   LINE      CODE     ---       #392
      01002610H   LINE      CODE     ---       #394
      01002610H   LINE      CODE     ---       #395
      01002619H   LINE      CODE     ---       #396
      01002619H   LINE      CODE     ---       #397
      0100261CH   LINE      CODE     ---       #398
      0100261CH   LINE      CODE     ---       #399
      0100261EH   LINE      CODE     ---       #401
      0100261EH   LINE      CODE     ---       #403
      01002627H   LINE      CODE     ---       #404
      01002627H   LINE      CODE     ---       #405
      0100262AH   LINE      CODE     ---       #406
      0100262AH   LINE      CODE     ---       #407
      0100262AH   LINE      CODE     ---       #408
      0100262AH   LINE      CODE     ---       #409
      ---         BLOCKEND  ---      ---       LVL=0

      01003CB0H   BLOCK     CODE     ---       LVL=0
      01003CB0H   LINE      CODE     ---       #416
      01003CB0H   LINE      CODE     ---       #417
      01003CB0H   LINE      CODE     ---       #418
      01003CB3H   LINE      CODE     ---       #419
      01003CB6H   LINE      CODE     ---       #420
      ---         BLOCKEND  ---      ---       LVL=0

      01003CC1H   BLOCK     CODE     ---       LVL=0
      01003CC1H   LINE      CODE     ---       #423
      01003CC1H   LINE      CODE     ---       #424
      01003CC1H   LINE      CODE     ---       #425
      01003CC4H   LINE      CODE     ---       #426
      ---         BLOCKEND  ---      ---       LVL=0

      01003CC7H   BLOCK     CODE     ---       LVL=0
      01003CC7H   LINE      CODE     ---       #429
      01003CC7H   LINE      CODE     ---       #430
      01003CC7H   LINE      CODE     ---       #431
      01003CCCH   LINE      CODE     ---       #432
      ---         BLOCKEND  ---      ---       LVL=0

      010030B8H   BLOCK     CODE     ---       LVL=0
      010030B8H   BLOCK     CODE     NEAR LAB  LVL=1
      00000007H   SYMBOL    DATA     BYTE      i
      ---         BLOCKEND  ---      ---       LVL=1
LX51 LINKER/LOCATER V4.66.30.0                                                        08/11/2020  17:20:48  PAGE 61


      010030B8H   LINE      CODE     ---       #437
      010030B8H   LINE      CODE     ---       #438
      010030B8H   LINE      CODE     ---       #440
      010030CCH   LINE      CODE     ---       #441
      010030DEH   LINE      CODE     ---       #442
      010030F1H   LINE      CODE     ---       #443
      01003101H   LINE      CODE     ---       #445
      01003107H   LINE      CODE     ---       #446
      0100310CH   LINE      CODE     ---       #447
      01003112H   LINE      CODE     ---       #448
      01003118H   LINE      CODE     ---       #450
      01003119H   LINE      CODE     ---       #451
      01003119H   LINE      CODE     ---       #452
      01003137H   LINE      CODE     ---       #453
      0100313CH   LINE      CODE     ---       #454
      ---         BLOCKEND  ---      ---       LVL=0

      010035E4H   BLOCK     CODE     ---       LVL=0
      010035E4H   BLOCK     CODE     NEAR LAB  LVL=1
      00000007H   SYMBOL    DATA     BYTE      i
      ---         BLOCKEND  ---      ---       LVL=1
      010035E4H   LINE      CODE     ---       #459
      010035E4H   LINE      CODE     ---       #460
      010035E4H   LINE      CODE     ---       #462
      010035E9H   LINE      CODE     ---       #463
      010035EDH   LINE      CODE     ---       #464
      010035F3H   LINE      CODE     ---       #465
      010035F6H   LINE      CODE     ---       #466
      010035FAH   LINE      CODE     ---       #468
      010035FEH   LINE      CODE     ---       #469
      01003603H   LINE      CODE     ---       #470
      01003605H   LINE      CODE     ---       #471
      01003605H   LINE      CODE     ---       #472
      01003615H   LINE      CODE     ---       #473
      0100361AH   LINE      CODE     ---       #474
      0100361CH   LINE      CODE     ---       #475
      0100361CH   LINE      CODE     ---       #476
      01003629H   LINE      CODE     ---       #477
      0100362EH   LINE      CODE     ---       #478
      ---         BLOCKEND  ---      ---       LVL=0

      010039DAH   BLOCK     CODE     ---       LVL=0
      010039DAH   BLOCK     CODE     NEAR LAB  LVL=1
      00000006H   SYMBOL    DATA     WORD      i
      ---         BLOCKEND  ---      ---       LVL=1
      010039DAH   LINE      CODE     ---       #483
      010039DAH   LINE      CODE     ---       #484
      010039DAH   LINE      CODE     ---       #486
      010039DDH   LINE      CODE     ---       #487
      010039DDH   LINE      CODE     ---       #488
      010039E9H   LINE      CODE     ---       #489
      010039F4H   LINE      CODE     ---       #490
      010039FBH   LINE      CODE     ---       #491
      01003A01H   LINE      CODE     ---       #492
      ---         BLOCKEND  ---      ---       LVL=0

      010032E7H   BLOCK     CODE     ---       LVL=0
      02000390H   SYMBOL    XDATA    WORD      ObsTime
      00000004H   SYMBOL    DATA     WORD      EchoWidth
      00000001H   SYMBOL    DATA     BYTE      VolHeight
      010032F1H   BLOCK     CODE     NEAR LAB  LVL=1
      00000003H   SYMBOL    DATA     BYTE      ret
LX51 LINKER/LOCATER V4.66.30.0                                                        08/11/2020  17:20:48  PAGE 62


      00000007H   SYMBOL    DATA     BYTE      Index
      ---         BLOCKEND  ---      ---       LVL=1
      010032E7H   LINE      CODE     ---       #495
      010032F1H   LINE      CODE     ---       #496
      010032F1H   LINE      CODE     ---       #497
      010032F3H   LINE      CODE     ---       #500
      010032FAH   LINE      CODE     ---       #501
      01003325H   LINE      CODE     ---       #502
      01003325H   LINE      CODE     ---       #503
      0100333BH   LINE      CODE     ---       #504
      01003349H   LINE      CODE     ---       #505
      01003349H   LINE      CODE     ---       #506
      0100334BH   LINE      CODE     ---       #507
      ---         BLOCKEND  ---      ---       LVL=0

      0100313DH   BLOCK     CODE     ---       LVL=0
      0100313DH   LINE      CODE     ---       #512
      0100313DH   LINE      CODE     ---       #513
      0100313DH   LINE      CODE     ---       #514
      01003151H   LINE      CODE     ---       #515
      01003161H   LINE      CODE     ---       #516
      01003171H   LINE      CODE     ---       #517
      01003186H   LINE      CODE     ---       #518
      0100319FH   LINE      CODE     ---       #519
      010031AFH   LINE      CODE     ---       #520
      ---         BLOCKEND  ---      ---       LVL=0

      01003702H   BLOCK     CODE     ---       LVL=0
      0200038FH   SYMBOL    XDATA    ---       SP
      02000392H   SYMBOL    XDATA    ---       EP
      02000395H   SYMBOL    XDATA    BYTE      Len
      0100370DH   BLOCK     CODE     NEAR LAB  LVL=1
      00000007H   SYMBOL    DATA     BYTE      i
      ---         BLOCKEND  ---      ---       LVL=1
      01003702H   LINE      CODE     ---       #522
      0100370DH   LINE      CODE     ---       #523
      0100370DH   LINE      CODE     ---       #525
      01003719H   LINE      CODE     ---       #526
      01003719H   LINE      CODE     ---       #527
      01003741H   LINE      CODE     ---       #528
      01003744H   LINE      CODE     ---       #529
      ---         BLOCKEND  ---      ---       LVL=0

      01001ACEH   BLOCK     CODE     ---       LVL=0
      01001ACEH   BLOCK     CODE     NEAR LAB  LVL=1
      00000007H   SYMBOL    DATA     BYTE      i
      00000006H   SYMBOL    DATA     BYTE      j
      02000388H   SYMBOL    XDATA    BYTE      temp
      00000001H   SYMBOL    DATA     BYTE      add
      02000389H   SYMBOL    XDATA    WORD      AdLow
      0200038BH   SYMBOL    XDATA    WORD      AdMid
      0200038DH   SYMBOL    XDATA    WORD      AdHigh
      ---         BLOCKEND  ---      ---       LVL=1
      01001ACEH   LINE      CODE     ---       #532
      01001ACEH   LINE      CODE     ---       #533
      01001ACEH   LINE      CODE     ---       #539
      01001AF5H   LINE      CODE     ---       #541
      01001AFDH   LINE      CODE     ---       #543
      01001B11H   LINE      CODE     ---       #544
      01001B11H   LINE      CODE     ---       #545
      01001B26H   LINE      CODE     ---       #546
      01001B26H   LINE      CODE     ---       #547
LX51 LINKER/LOCATER V4.66.30.0                                                        08/11/2020  17:20:48  PAGE 63


      01001B42H   LINE      CODE     ---       #548
      01001B42H   LINE      CODE     ---       #549
      01001B47H   LINE      CODE     ---       #550
      01001B53H   LINE      CODE     ---       #551
      01001B5FH   LINE      CODE     ---       #552
      01001B5FH   LINE      CODE     ---       #553
      01001B62H   LINE      CODE     ---       #554
      01001B65H   LINE      CODE     ---       #555
      01001B6CH   LINE      CODE     ---       #556
      01001B70H   LINE      CODE     ---       #557
      01001B74H   LINE      CODE     ---       #558
      01001B89H   LINE      CODE     ---       #559
      01001B89H   LINE      CODE     ---       #560
      01001BA2H   LINE      CODE     ---       #561
      01001BBBH   LINE      CODE     ---       #562
      01001BD4H   LINE      CODE     ---       #563
      01001BD7H   LINE      CODE     ---       #564
      01001BE9H   LINE      CODE     ---       #565
      01001BF9H   LINE      CODE     ---       #566
      01001C11H   LINE      CODE     ---       #568
      01001C2FH   LINE      CODE     ---       #570
      01001C34H   LINE      CODE     ---       #571
      01001C34H   LINE      CODE     ---       #572
      01001C3BH   LINE      CODE     ---       #573
      01001C41H   LINE      CODE     ---       #574
      01001C4BH   LINE      CODE     ---       #575
      01001C4BH   LINE      CODE     ---       #581
      01001C55H   LINE      CODE     ---       #582
      01001C55H   LINE      CODE     ---       #583
      01001C58H   LINE      CODE     ---       #584
      01001C6CH   LINE      CODE     ---       #585
      01001C6EH   LINE      CODE     ---       #586
      01001C7BH   LINE      CODE     ---       #587
      01001C7BH   LINE      CODE     ---       #588
      01001C88H   LINE      CODE     ---       #589
      01001C8AH   LINE      CODE     ---       #591
      01001C8AH   LINE      CODE     ---       #592
      01001C96H   LINE      CODE     ---       #593
      01001C96H   LINE      CODE     ---       #594
      01001CAEH   LINE      CODE     ---       #596
      ---         BLOCKEND  ---      ---       LVL=0

      01001CB1H   BLOCK     CODE     ---       LVL=0
      01001CB1H   BLOCK     CODE     NEAR LAB  LVL=1
      00000002H   SYMBOL    DATA     WORD      i
      02000390H   SYMBOL    XDATA    WORD      j
      02000392H   SYMBOL    XDATA    WORD      k
      00000007H   SYMBOL    DATA     BYTE      Temp
      ---         BLOCKEND  ---      ---       LVL=1
      01001CB1H   LINE      CODE     ---       #601
      01001CB1H   LINE      CODE     ---       #602
      01001CB1H   LINE      CODE     ---       #603
      01001CB4H   LINE      CODE     ---       #604
      01001CBAH   LINE      CODE     ---       #605
      01001CBEH   LINE      CODE     ---       #606
      01001CBFH   LINE      CODE     ---       #609
      01001CCCH   LINE      CODE     ---       #610
      01001CCCH   LINE      CODE     ---       #611
      01001CD9H   LINE      CODE     ---       #612
      01001CD9H   LINE      CODE     ---       #613
      01001CDAH   LINE      CODE     ---       #614
      01001CE3H   LINE      CODE     ---       #615
LX51 LINKER/LOCATER V4.66.30.0                                                        08/11/2020  17:20:48  PAGE 64


      01001CEBH   LINE      CODE     ---       #616
      01001CEBH   LINE      CODE     ---       #617
      01001CF1H   LINE      CODE     ---       #618
      01001CF1H   LINE      CODE     ---       #619
      01001CF3H   LINE      CODE     ---       #620
      01001CF3H   LINE      CODE     ---       #621
      01001CFAH   LINE      CODE     ---       #622
      01001D0AH   LINE      CODE     ---       #623
      01001D0AH   LINE      CODE     ---       #624
      01001D16H   LINE      CODE     ---       #625
      01001D1DH   LINE      CODE     ---       #629
      01001D36H   LINE      CODE     ---       #630
      01001D36H   LINE      CODE     ---       #631
      01001D43H   LINE      CODE     ---       #632
      01001D43H   LINE      CODE     ---       #635
      01001D43H   LINE      CODE     ---       #636
      01001D5BH   LINE      CODE     ---       #637
      01001D5BH   LINE      CODE     ---       #638
      01001D5BH   LINE      CODE     ---       #639
      01001D62H   LINE      CODE     ---       #643
      01001D7EH   LINE      CODE     ---       #644
      01001D7EH   LINE      CODE     ---       #645
      01001DC9H   LINE      CODE     ---       #647
      01001DC9H   LINE      CODE     ---       #648
      01001DEEH   LINE      CODE     ---       #649
      01001DEEH   LINE      CODE     ---       #650
      01001E15H   LINE      CODE     ---       #651
      01001E15H   LINE      CODE     ---       #652
      01001E29H   LINE      CODE     ---       #653
      01001E45H   LINE      CODE     ---       #654
      01001E45H   LINE      CODE     ---       #655
      01001E5DH   LINE      CODE     ---       #656
      01001E6DH   LINE      CODE     ---       #657
      01001E6DH   LINE      CODE     ---       #658
      01001E6DH   LINE      CODE     ---       #659
      01001E7EH   LINE      CODE     ---       #660
      01001E7EH   LINE      CODE     ---       #661
      01001E86H   LINE      CODE     ---       #663
      ---         BLOCKEND  ---      ---       LVL=0

      01000A74H   BLOCK     CODE     ---       LVL=0
      01000A74H   BLOCK     CODE     NEAR LAB  LVL=1
      02000388H   SYMBOL    XDATA    WORD      i
      00000007H   SYMBOL    DATA     BYTE      Distc
      0200038AH   SYMBOL    XDATA    WORD      EchoWidth
      0200038CH   SYMBOL    XDATA    WORD      ObsStartThre
      0200038EH   SYMBOL    XDATA    WORD      ObsExitThreFixed
      ---         BLOCKEND  ---      ---       LVL=1
      01000A74H   LINE      CODE     ---       #665
      01000A74H   LINE      CODE     ---       #666
      01000A74H   LINE      CODE     ---       #675
      01000A96H   LINE      CODE     ---       #677
      01000AA8H   LINE      CODE     ---       #680
      01000AABH   LINE      CODE     ---       #682
      01000ABDH   LINE      CODE     ---       #685
      01000ADBH   LINE      CODE     ---       #686
      01000ADBH   LINE      CODE     ---       #687
      01000B24H   LINE      CODE     ---       #688
      01000B46H   LINE      CODE     ---       #689
      01000B46H   LINE      CODE     ---       #690
      01000B4CH   LINE      CODE     ---       #691
      01000B4CH   LINE      CODE     ---       #694
LX51 LINKER/LOCATER V4.66.30.0                                                        08/11/2020  17:20:48  PAGE 65


      01000B4CH   LINE      CODE     ---       #695
      01000B4EH   LINE      CODE     ---       #696
      01000B53H   LINE      CODE     ---       #697
      01000B6CH   LINE      CODE     ---       #698
      01000B71H   LINE      CODE     ---       #699
      01000B73H   LINE      CODE     ---       #700
      01000B79H   LINE      CODE     ---       #701
      01000B79H   LINE      CODE     ---       #702
      01000B79H   LINE      CODE     ---       #703
      01000B79H   LINE      CODE     ---       #705
      01000BAAH   LINE      CODE     ---       #706
      01000BAAH   LINE      CODE     ---       #707
      01000BB5H   LINE      CODE     ---       #708
      01000BB5H   LINE      CODE     ---       #711
      01000BB5H   LINE      CODE     ---       #712
      01000BB6H   LINE      CODE     ---       #713
      01000BCDH   LINE      CODE     ---       #715
      01000BCDH   LINE      CODE     ---       #716
      01000BE1H   LINE      CODE     ---       #717
      01000BE1H   LINE      CODE     ---       #718
      01000BF0H   LINE      CODE     ---       #720
      01000C05H   LINE      CODE     ---       #721
      01000C05H   LINE      CODE     ---       #722
      01000C3CH   LINE      CODE     ---       #723
      01000C56H   LINE      CODE     ---       #724
      01000C67H   LINE      CODE     ---       #725
      01000C6AH   LINE      CODE     ---       #726
      01000C6AH   LINE      CODE     ---       #729
      01000C8AH   LINE      CODE     ---       #733
      01000C93H   LINE      CODE     ---       #734
      01000C93H   LINE      CODE     ---       #735
      01000CABH   LINE      CODE     ---       #736
      01000CAFH   LINE      CODE     ---       #737
      01000CAFH   LINE      CODE     ---       #738
      01000CDDH   LINE      CODE     ---       #739
      01000CF2H   LINE      CODE     ---       #740
      01000CF2H   LINE      CODE     ---       #741
      01000D01H   LINE      CODE     ---       #742
      01000D09H   LINE      CODE     ---       #744
      01000D09H   LINE      CODE     ---       #745
      01000D1DH   LINE      CODE     ---       #746
      01000D1DH   LINE      CODE     ---       #747
      01000D1DH   LINE      CODE     ---       #748
      01000D1DH   LINE      CODE     ---       #749
      01000D1DH   LINE      CODE     ---       #750
      01000D1DH   LINE      CODE     ---       #752
      01000D25H   LINE      CODE     ---       #753
      01000D25H   LINE      CODE     ---       #754
      01000D33H   LINE      CODE     ---       #755
      01000D4DH   LINE      CODE     ---       #756
      01000D4DH   LINE      CODE     ---       #757
      01000D4FH   LINE      CODE     ---       #758
      01000D4FH   LINE      CODE     ---       #761
      01000D75H   LINE      CODE     ---       #762
      01000D75H   LINE      CODE     ---       #763
      01000D8AH   LINE      CODE     ---       #764
      01000D8AH   LINE      CODE     ---       #765
      01000D8FH   LINE      CODE     ---       #766
      01000D8FH   LINE      CODE     ---       #767
      01000D8FH   LINE      CODE     ---       #768
      01000D8FH   LINE      CODE     ---       #769
      01000DA3H   LINE      CODE     ---       #771
LX51 LINKER/LOCATER V4.66.30.0                                                        08/11/2020  17:20:48  PAGE 66


      01000DB7H   LINE      CODE     ---       #773
      ---         BLOCKEND  ---      ---       LVL=0

      010022CDH   BLOCK     CODE     ---       LVL=0
      010022CDH   BLOCK     CODE     NEAR LAB  LVL=1
      0200038FH   SYMBOL    XDATA    WORD      i
      ---         BLOCKEND  ---      ---       LVL=1
      010022CDH   LINE      CODE     ---       #775
      010022CDH   LINE      CODE     ---       #776
      010022CDH   LINE      CODE     ---       #777
      010022D4H   LINE      CODE     ---       #779
      010022E6H   LINE      CODE     ---       #782
      01002304H   LINE      CODE     ---       #783
      01002304H   LINE      CODE     ---       #784
      0100234DH   LINE      CODE     ---       #785
      01002374H   LINE      CODE     ---       #786
      01002374H   LINE      CODE     ---       #787
      0100237AH   LINE      CODE     ---       #788
      0100237AH   LINE      CODE     ---       #791
      0100237AH   LINE      CODE     ---       #792
      0100237CH   LINE      CODE     ---       #793
      01002381H   LINE      CODE     ---       #794
      01002387H   LINE      CODE     ---       #795
      01002387H   LINE      CODE     ---       #796
      01002387H   LINE      CODE     ---       #797
      01002389H   LINE      CODE     ---       #798
      01002397H   LINE      CODE     ---       #799
      01002397H   LINE      CODE     ---       #800
      0100239EH   LINE      CODE     ---       #801
      0100239EH   LINE      CODE     ---       #804
      0100239EH   LINE      CODE     ---       #805
      010023A0H   LINE      CODE     ---       #806
      010023B8H   LINE      CODE     ---       #808
      010023B8H   LINE      CODE     ---       #809
      010023CCH   LINE      CODE     ---       #810
      010023CCH   LINE      CODE     ---       #811
      010023CCH   LINE      CODE     ---       #812
      010023CCH   LINE      CODE     ---       #813
      010023CCH   LINE      CODE     ---       #815
      010023D3H   LINE      CODE     ---       #816
      010023D3H   LINE      CODE     ---       #817
      010023E1H   LINE      CODE     ---       #818
      010023FBH   LINE      CODE     ---       #819
      010023FBH   LINE      CODE     ---       #820
      010023FDH   LINE      CODE     ---       #821
      010023FDH   LINE      CODE     ---       #822
      010023FDH   LINE      CODE     ---       #823
      01002411H   LINE      CODE     ---       #824
      ---         BLOCKEND  ---      ---       LVL=0

      010014D9H   BLOCK     CODE     ---       LVL=0
      010014D9H   LINE      CODE     ---       #829
      010014D9H   LINE      CODE     ---       #830
      010014D9H   LINE      CODE     ---       #831
      01001504H   LINE      CODE     ---       #832
      01001504H   LINE      CODE     ---       #833
      01001504H   LINE      CODE     ---       #835
      01001507H   LINE      CODE     ---       #837
      01001512H   LINE      CODE     ---       #838
      01001512H   LINE      CODE     ---       #839
      01001513H   LINE      CODE     ---       #840
      01001516H   LINE      CODE     ---       #841
LX51 LINKER/LOCATER V4.66.30.0                                                        08/11/2020  17:20:48  PAGE 67


      0100151BH   LINE      CODE     ---       #842
      01001521H   LINE      CODE     ---       #843
      01001526H   LINE      CODE     ---       #844
      01001526H   LINE      CODE     ---       #846
      01001527H   LINE      CODE     ---       #847
      01001527H   LINE      CODE     ---       #848
      01001532H   LINE      CODE     ---       #850
      01001532H   LINE      CODE     ---       #851
      01001538H   LINE      CODE     ---       #852
      01001538H   LINE      CODE     ---       #853
      01001539H   LINE      CODE     ---       #854
      01001539H   LINE      CODE     ---       #855
      0100153FH   LINE      CODE     ---       #856
      01001542H   LINE      CODE     ---       #857
      01001545H   LINE      CODE     ---       #858
      01001548H   LINE      CODE     ---       #859
      0100154BH   LINE      CODE     ---       #860
      01001551H   LINE      CODE     ---       #861
      01001552H   LINE      CODE     ---       #862
      01001552H   LINE      CODE     ---       #863
      0100155DH   LINE      CODE     ---       #865
      0100155DH   LINE      CODE     ---       #866
      01001560H   LINE      CODE     ---       #867
      01001563H   LINE      CODE     ---       #868
      01001569H   LINE      CODE     ---       #869
      01001569H   LINE      CODE     ---       #870
      0100156AH   LINE      CODE     ---       #871
      0100156AH   LINE      CODE     ---       #872
      0100156DH   LINE      CODE     ---       #873
      01001570H   LINE      CODE     ---       #874
      01001573H   LINE      CODE     ---       #875
      01001576H   LINE      CODE     ---       #876
      01001579H   LINE      CODE     ---       #877
      0100157FH   LINE      CODE     ---       #878
      0100159DH   LINE      CODE     ---       #880
      010015A3H   LINE      CODE     ---       #881
      010015A4H   LINE      CODE     ---       #882
      010015A4H   LINE      CODE     ---       #883
      010015B1H   LINE      CODE     ---       #885
      010015B1H   LINE      CODE     ---       #886
      010015B4H   LINE      CODE     ---       #887
      010015B7H   LINE      CODE     ---       #888
      010015BDH   LINE      CODE     ---       #889
      010015BDH   LINE      CODE     ---       #890
      010015BEH   LINE      CODE     ---       #891
      010015BEH   LINE      CODE     ---       #892
      010015C1H   LINE      CODE     ---       #900
      01001651H   LINE      CODE     ---       #903
      01001651H   LINE      CODE     ---       #904
      01001656H   LINE      CODE     ---       #905
      01001659H   LINE      CODE     ---       #906
      0100166DH   LINE      CODE     ---       #907
      0100166FH   LINE      CODE     ---       #909
      0100166FH   LINE      CODE     ---       #910
      01001672H   LINE      CODE     ---       #911
      01001672H   LINE      CODE     ---       #912
      01001675H   LINE      CODE     ---       #913
      01001677H   LINE      CODE     ---       #914
      01001677H   LINE      CODE     ---       #915
      0100167AH   LINE      CODE     ---       #916
      01001687H   LINE      CODE     ---       #917
      01001690H   LINE      CODE     ---       #918
LX51 LINKER/LOCATER V4.66.30.0                                                        08/11/2020  17:20:48  PAGE 68


      01001690H   LINE      CODE     ---       #919
      01001693H   LINE      CODE     ---       #920
      010016B1H   LINE      CODE     ---       #921
      010016B9H   LINE      CODE     ---       #922
      010016B9H   LINE      CODE     ---       #923
      010016BBH   LINE      CODE     ---       #925
      010016BBH   LINE      CODE     ---       #926
      010016BEH   LINE      CODE     ---       #927
      010016C3H   LINE      CODE     ---       #928
      010016C8H   LINE      CODE     ---       #929
      010016C8H   LINE      CODE     ---       #930
      010016CEH   LINE      CODE     ---       #931
      010016CFH   LINE      CODE     ---       #933
      010016CFH   LINE      CODE     ---       #934
      010016D6H   LINE      CODE     ---       #935
      010016D6H   LINE      CODE     ---       #936
      010016D9H   LINE      CODE     ---       #937
      010016DAH   LINE      CODE     ---       #939
      010016DAH   LINE      CODE     ---       #940
      010016E0H   LINE      CODE     ---       #941
      010016E0H   LINE      CODE     ---       #942
      010016E0H   LINE      CODE     ---       #943
      010016E0H   LINE      CODE     ---       #944
      010016E1H   LINE      CODE     ---       #945
      010016E1H   LINE      CODE     ---       #946
      010016E7H   LINE      CODE     ---       #947
      010016E7H   LINE      CODE     ---       #948
      010016E7H   LINE      CODE     ---       #949
      ---         BLOCKEND  ---      ---       LVL=0

      01003478H   BLOCK     CODE     ---       LVL=0
      01003478H   BLOCK     CODE     NEAR LAB  LVL=1
      00000007H   SYMBOL    DATA     BYTE      i
      ---         BLOCKEND  ---      ---       LVL=1
      01003478H   LINE      CODE     ---       #951
      01003478H   LINE      CODE     ---       #952
      01003478H   LINE      CODE     ---       #954
      0100347DH   LINE      CODE     ---       #955
      01003481H   LINE      CODE     ---       #956
      01003495H   LINE      CODE     ---       #957
      0100349FH   LINE      CODE     ---       #958
      010034AEH   LINE      CODE     ---       #959
      010034B4H   LINE      CODE     ---       #960
      010034C6H   LINE      CODE     ---       #961
      010034C8H   LINE      CODE     ---       #962
      010034C8H   LINE      CODE     ---       #963
      010034D5H   LINE      CODE     ---       #964
      010034DAH   LINE      CODE     ---       #965
      ---         BLOCKEND  ---      ---       LVL=0

      0100200DH   BLOCK     CODE     ---       LVL=0
      0100200DH   BLOCK     CODE     NEAR LAB  LVL=1
      00000005H   SYMBOL    DATA     BYTE      i
      00000006H   SYMBOL    DATA     BYTE      bDis
      00000007H   SYMBOL    DATA     BYTE      bDiff
      00000006H   SYMBOL    DATA     BYTE      bFrockDis
      ---         BLOCKEND  ---      ---       LVL=1
      0100200DH   LINE      CODE     ---       #970
      0100200DH   LINE      CODE     ---       #971
      0100200DH   LINE      CODE     ---       #976
      0100200FH   LINE      CODE     ---       #977
      0100201BH   LINE      CODE     ---       #978
LX51 LINKER/LOCATER V4.66.30.0                                                        08/11/2020  17:20:48  PAGE 69


      0100201BH   LINE      CODE     ---       #979
      0100202CH   LINE      CODE     ---       #980
      0100202CH   LINE      CODE     ---       #981
      0100202EH   LINE      CODE     ---       #982
      0100202EH   LINE      CODE     ---       #983
      01002031H   LINE      CODE     ---       #984
      01002036H   LINE      CODE     ---       #988
      01002038H   LINE      CODE     ---       #989
      01002044H   LINE      CODE     ---       #990
      01002044H   LINE      CODE     ---       #991
      01002062H   LINE      CODE     ---       #992
      01002062H   LINE      CODE     ---       #993
      0100206FH   LINE      CODE     ---       #994
      0100206FH   LINE      CODE     ---       #995
      01002072H   LINE      CODE     ---       #997
      0100207EH   LINE      CODE     ---       #998
      0100207EH   LINE      CODE     ---       #999
      0100208FH   LINE      CODE     ---       #1000
      0100208FH   LINE      CODE     ---       #1001
      01002091H   LINE      CODE     ---       #1002
      01002091H   LINE      CODE     ---       #1003
      01002094H   LINE      CODE     ---       #1005
      0100209AH   LINE      CODE     ---       #1006
      0100209AH   LINE      CODE     ---       #1007
      0100209FH   LINE      CODE     ---       #1008
      0100209FH   LINE      CODE     ---       #1009
      010020A2H   LINE      CODE     ---       #1010
      010020A4H   LINE      CODE     ---       #1012
      010020A4H   LINE      CODE     ---       #1013
      010020B3H   LINE      CODE     ---       #1016
      010020B3H   LINE      CODE     ---       #1018
      010020C2H   LINE      CODE     ---       #1019
      010020C2H   LINE      CODE     ---       #1020
      010020C2H   LINE      CODE     ---       #1021
      010020C2H   LINE      CODE     ---       #1023
      010020C8H   LINE      CODE     ---       #1024
      010020C8H   LINE      CODE     ---       #1025
      010020D2H   LINE      CODE     ---       #1026
      010020D2H   LINE      CODE     ---       #1027
      010020E2H   LINE      CODE     ---       #1028
      010020E2H   LINE      CODE     ---       #1029
      010020E4H   LINE      CODE     ---       #1031
      010020E4H   LINE      CODE     ---       #1032
      010020EAH   LINE      CODE     ---       #1033
      010020EAH   LINE      CODE     ---       #1034
      010020F4H   LINE      CODE     ---       #1035
      01002102H   LINE      CODE     ---       #1037
      0100210DH   LINE      CODE     ---       #1038
      01002117H   LINE      CODE     ---       #1039
      01002119H   LINE      CODE     ---       #1040
      0100211DH   LINE      CODE     ---       #1041
      0100211DH   LINE      CODE     ---       #1042
      0100211DH   LINE      CODE     ---       #1043
      0100211DH   LINE      CODE     ---       #1044
      0100211DH   LINE      CODE     ---       #1046
      0100211DH   LINE      CODE     ---       #1047
      0100212CH   LINE      CODE     ---       #1048
      01002136H   LINE      CODE     ---       #1049
      01002136H   LINE      CODE     ---       #1050
      01002136H   LINE      CODE     ---       #1053
      01002138H   LINE      CODE     ---       #1054
      0100213AH   LINE      CODE     ---       #1055
LX51 LINKER/LOCATER V4.66.30.0                                                        08/11/2020  17:20:48  PAGE 70


      0100213AH   LINE      CODE     ---       #1056
      0100214BH   LINE      CODE     ---       #1057
      0100214BH   LINE      CODE     ---       #1058
      0100214DH   LINE      CODE     ---       #1059
      0100214DH   LINE      CODE     ---       #1060
      01002152H   LINE      CODE     ---       #1062
      0100215CH   LINE      CODE     ---       #1063
      0100215CH   LINE      CODE     ---       #1066
      0100215EH   LINE      CODE     ---       #1067
      01002163H   LINE      CODE     ---       #1068
      01002163H   LINE      CODE     ---       #1070
      01002165H   LINE      CODE     ---       #1071
      01002165H   LINE      CODE     ---       #1072
      01002166H   LINE      CODE     ---       #1074
      01002166H   LINE      CODE     ---       #1076
      0100216CH   LINE      CODE     ---       #1077
      01002171H   LINE      CODE     ---       #1078
      01002171H   LINE      CODE     ---       #1080
      01002173H   LINE      CODE     ---       #1081
      01002173H   LINE      CODE     ---       #1082
      01002173H   LINE      CODE     ---       #1085
      ---         BLOCKEND  ---      ---       LVL=0

      01002EE9H   BLOCK     CODE     ---       LVL=0
      01002EE9H   BLOCK     CODE     NEAR LAB  LVL=1
      00000004H   SYMBOL    DATA     WORD      wRingTimeDiff
      ---         BLOCKEND  ---      ---       LVL=1
      01002EE9H   LINE      CODE     ---       #1091
      01002EE9H   LINE      CODE     ---       #1092
      01002EE9H   LINE      CODE     ---       #1095
      01002F02H   LINE      CODE     ---       #1096
      01002F11H   LINE      CODE     ---       #1098
      01002F17H   LINE      CODE     ---       #1099
      01002F17H   LINE      CODE     ---       #1100
      01002F26H   LINE      CODE     ---       #1101
      01002F26H   LINE      CODE     ---       #1103
      01002F33H   LINE      CODE     ---       #1104
      01002F3CH   LINE      CODE     ---       #1105
      01002F3CH   LINE      CODE     ---       #1106
      01002F45H   LINE      CODE     ---       #1107
      01002F45H   LINE      CODE     ---       #1108
      01002F4BH   LINE      CODE     ---       #1109
      01002F53H   LINE      CODE     ---       #1110
      01002F53H   LINE      CODE     ---       #1111
      01002F53H   LINE      CODE     ---       #1112
      01002F53H   LINE      CODE     ---       #1113
      01002F55H   LINE      CODE     ---       #1115
      01002F55H   LINE      CODE     ---       #1116
      01002F5EH   LINE      CODE     ---       #1117
      01002F5EH   LINE      CODE     ---       #1118
      01002F64H   LINE      CODE     ---       #1119
      01002F6CH   LINE      CODE     ---       #1120
      01002F6CH   LINE      CODE     ---       #1121
      01002F6CH   LINE      CODE     ---       #1122
      01002F6CH   LINE      CODE     ---       #1123
      01002F6EH   LINE      CODE     ---       #1125
      01002F6EH   LINE      CODE     ---       #1126
      01002F80H   LINE      CODE     ---       #1127
      01002F86H   LINE      CODE     ---       #1128
      01002F86H   LINE      CODE     ---       #1129
      01002F89H   LINE      CODE     ---       #1130
      01002F89H   LINE      CODE     ---       #1131
LX51 LINKER/LOCATER V4.66.30.0                                                        08/11/2020  17:20:48  PAGE 71


      01002F89H   LINE      CODE     ---       #1132
      01002F89H   LINE      CODE     ---       #1133
      01002F89H   LINE      CODE     ---       #1134
      01002F89H   LINE      CODE     ---       #1136
      01002F89H   LINE      CODE     ---       #1137
      01002F89H   LINE      CODE     ---       #1138
      01002F89H   LINE      CODE     ---       #1139
      ---         BLOCKEND  ---      ---       LVL=0

      01000DB8H   BLOCK     CODE     ---       LVL=0
      01000DB8H   BLOCK     CODE     NEAR LAB  LVL=1
      02000388H   SYMBOL    XDATA    WORD      RingTimeDiff
      0200038AH   SYMBOL    XDATA    BYTE      DistanceDiff
      0200038BH   SYMBOL    XDATA    ---       bObsDistance
      02000395H   SYMBOL    XDATA    ---       bEPDObsDistance
      00000001H   SYMBOL    DATA     BYTE      k
      00000003H   SYMBOL    DATA     BYTE      i
      00000002H   SYMBOL    DATA     BYTE      j
      ---         BLOCKEND  ---      ---       LVL=1
      01000DB8H   LINE      CODE     ---       #1145
      01000DB8H   LINE      CODE     ---       #1146
      01000DB8H   LINE      CODE     ---       #1151
      01000DBAH   LINE      CODE     ---       #1154
      01000DC5H   LINE      CODE     ---       #1155
      01000DC5H   LINE      CODE     ---       #1156
      01000DC6H   LINE      CODE     ---       #1158
      01000DC7H   LINE      CODE     ---       #1159
      01000DE1H   LINE      CODE     ---       #1160
      01000DE1H   LINE      CODE     ---       #1161
      01000DFEH   LINE      CODE     ---       #1162
      01000DFEH   LINE      CODE     ---       #1163
      01000E0AH   LINE      CODE     ---       #1164
      01000E0BH   LINE      CODE     ---       #1165
      01000E0BH   LINE      CODE     ---       #1166
      01000E0EH   LINE      CODE     ---       #1167
      01000E13H   LINE      CODE     ---       #1168
      01000E30H   LINE      CODE     ---       #1170
      01000E39H   LINE      CODE     ---       #1171
      01000E39H   LINE      CODE     ---       #1172
      01000E42H   LINE      CODE     ---       #1173
      01000E42H   LINE      CODE     ---       #1174
      01000E6DH   LINE      CODE     ---       #1175
      01000E6DH   LINE      CODE     ---       #1176
      01000E6DH   LINE      CODE     ---       #1177
      01000E6DH   LINE      CODE     ---       #1178
      01000E6DH   LINE      CODE     ---       #1179
      01000E6DH   LINE      CODE     ---       #1180
      01000E70H   LINE      CODE     ---       #1182
      01000E70H   LINE      CODE     ---       #1184
      01000E9CH   LINE      CODE     ---       #1185
      01000E9CH   LINE      CODE     ---       #1186
      01000EAFH   LINE      CODE     ---       #1187
      01000EB1H   LINE      CODE     ---       #1189
      01000EB1H   LINE      CODE     ---       #1190
      01000ECDH   LINE      CODE     ---       #1191
      01000ECDH   LINE      CODE     ---       #1192
      01000EDCH   LINE      CODE     ---       #1193
      01000EDCH   LINE      CODE     ---       #1194
      01000EE1H   LINE      CODE     ---       #1195
      01000EFEH   LINE      CODE     ---       #1196
      01000F00H   LINE      CODE     ---       #1198
      01000F00H   LINE      CODE     ---       #1200
LX51 LINKER/LOCATER V4.66.30.0                                                        08/11/2020  17:20:48  PAGE 72


      01000F12H   LINE      CODE     ---       #1201
      01000F1BH   LINE      CODE     ---       #1202
      01000F1BH   LINE      CODE     ---       #1203
      01000F1EH   LINE      CODE     ---       #1204
      01000F1EH   LINE      CODE     ---       #1205
      01000F25H   LINE      CODE     ---       #1207
      01000F25H   LINE      CODE     ---       #1209
      01000F27H   LINE      CODE     ---       #1210
      01000F27H   LINE      CODE     ---       #1211
      01000F50H   LINE      CODE     ---       #1212
      01000F55H   LINE      CODE     ---       #1213
      01000F57H   LINE      CODE     ---       #1214
      01000F65H   LINE      CODE     ---       #1215
      01000F65H   LINE      CODE     ---       #1216
      01000F7FH   LINE      CODE     ---       #1217
      01000F7FH   LINE      CODE     ---       #1218
      01000F8EH   LINE      CODE     ---       #1219
      01000F8EH   LINE      CODE     ---       #1221
      01000F9EH   LINE      CODE     ---       #1222
      01000F9EH   LINE      CODE     ---       #1223
      01000F9FH   LINE      CODE     ---       #1224
      01000FA1H   LINE      CODE     ---       #1225
      01000FBEH   LINE      CODE     ---       #1226
      01000FBEH   LINE      CODE     ---       #1227
      01000FC7H   LINE      CODE     ---       #1228
      01000FC7H   LINE      CODE     ---       #1230
      01000FDFH   LINE      CODE     ---       #1231
      01000FECH   LINE      CODE     ---       #1232
      01000FEDH   LINE      CODE     ---       #1233
      01000FEDH   LINE      CODE     ---       #1234
      01000FEDH   LINE      CODE     ---       #1235
      01000FF1H   LINE      CODE     ---       #1236
      01000FF5H   LINE      CODE     ---       #1239
      01000FFCH   LINE      CODE     ---       #1240
      01000FFCH   LINE      CODE     ---       #1241
      01001014H   LINE      CODE     ---       #1242
      01001017H   LINE      CODE     ---       #1243
      0100101EH   LINE      CODE     ---       #1245
      0100103AH   LINE      CODE     ---       #1247
      0100103AH   LINE      CODE     ---       #1249
      0100103FH   LINE      CODE     ---       #1250
      0100103FH   LINE      CODE     ---       #1251
      0100103FH   LINE      CODE     ---       #1272
      ---         BLOCKEND  ---      ---       LVL=0

      ---         MODULE    ---      ---       EFM8BB2_FLASHPRIMITIVES
      01000003H   PUBLIC    CODE     ---       Flash_ReadVechileMode
      01003C5CH   PUBLIC    CODE     ---       _Flash_WriteVechileMode
      01003A2DH   PUBLIC    CODE     ---       _FLASH_PageErase
      0100005EH   PUBLIC    CODE     ---       _FLASH_ByteRead
      01003A04H   PUBLIC    CODE     ---       _FLASH_ByteWrite
      000000A2H   SFRSYM    DATA     BYTE      SPI0CKR
      00000080H   SFRSYM    DATA     BYTE      P0
      000000C8H.6 SFRSYM    DATA     BIT       SCON1_PERR
      000000D0H.2 SFRSYM    DATA     BIT       PSW_OV
      00000090H   SFRSYM    DATA     BYTE      P1
      000000F8H.1 SFRSYM    DATA     BIT       SPI0CN0_TXNF
      00000097H   SFRSYM    DATA     BYTE      WDTCN
      000000A0H   SFRSYM    DATA     BYTE      P2
      000000B0H   SFRSYM    DATA     BYTE      P3
      000000BCH   SFRSYM    DATA     BYTE      ADC0CF
      000000C0H.7 SFRSYM    DATA     BIT       SMB0CN0_MASTER
LX51 LINKER/LOCATER V4.66.30.0                                                        08/11/2020  17:20:48  PAGE 73


      000000F9H   SFRSYM    DATA     WORD      PCA0
      000000E6H   SFRSYM    DATA     BYTE      EIE1
      000000C0H.1 SFRSYM    DATA     BIT       SMB0CN0_ACK
      000000CEH   SFRSYM    DATA     BYTE      EIE2
      0000008FH   SFRSYM    DATA     BYTE      PSCTL
      000000E4H   SFRSYM    DATA     BYTE      IT01CF
      000000C0H.6 SFRSYM    DATA     BIT       SMB0CN0_TXMODE
      000000ADH   SFRSYM    DATA     BYTE      DERIVID
      000000A7H   SFRSYM    DATA     BYTE      SFRPAGE
      000000A4H   SFRSYM    DATA     BYTE      P0MDOUT
      000000A5H   SFRSYM    DATA     BYTE      P1MDOUT
      000000E8H.5 SFRSYM    DATA     BIT       ADC0CN0_ADINT
      000000CBH   SFRSYM    DATA     BYTE      TMR2RLH
      000000A6H   SFRSYM    DATA     BYTE      P2MDOUT
      000000A8H   SFRSYM    DATA     BYTE      IE
      00000093H   SFRSYM    DATA     BYTE      TMR3RLH
      0000009CH   SFRSYM    DATA     BYTE      P3MDOUT
      000000A3H   SFRSYM    DATA     BYTE      TMR4RLH
      000000F3H   SFRSYM    DATA     BYTE      EIP1
      000000F4H   SFRSYM    DATA     BYTE      EIP2
      00000098H.2 SFRSYM    DATA     BIT       SCON0_RB8
      000000CAH   SFRSYM    DATA     BYTE      TMR2RLL
      000000FCH   SFRSYM    DATA     BYTE      PCA0CPH0
      00000092H   SFRSYM    DATA     BYTE      TMR3RLL
      000000EAH   SFRSYM    DATA     BYTE      PCA0CPH1
      00000098H.3 SFRSYM    DATA     BIT       SCON0_TB8
      000000F0H   SFRSYM    DATA     BIT       B_B0
      00000082H   SFRSYM    DATA     WORD      DP
      000000A2H   SFRSYM    DATA     BYTE      TMR4RLL
      000000ECH   SFRSYM    DATA     BYTE      PCA0CPH2
      000000F0H.1 SFRSYM    DATA     BIT       B_B1
      000000C3H   SFRSYM    DATA     WORD      ADC0GT
      000000BDH   SFRSYM    DATA     BYTE      I2C0SLAD
      000000D8H.3 SFRSYM    DATA     BIT       UART1FCN1_RFRQ
      000000F0H.2 SFRSYM    DATA     BIT       B_B2
      000000CFH   SFRSYM    DATA     BYTE      SFRPGCN
      000000FBH   SFRSYM    DATA     BYTE      PCA0CPL0
      000000F0H.3 SFRSYM    DATA     BIT       B_B3
      000000D9H   SFRSYM    DATA     BYTE      PCA0MD
      000000DAH   SFRSYM    DATA     BYTE      PCA0CPM0
      000000E9H   SFRSYM    DATA     BYTE      PCA0CPL1
      000000D8H.7 SFRSYM    DATA     BIT       UART1FCN1_TFRQ
      000000F0H.4 SFRSYM    DATA     BIT       B_B4
      000000DBH   SFRSYM    DATA     BYTE      PCA0CPM1
      000000EBH   SFRSYM    DATA     BYTE      PCA0CPL2
      000000F0H.5 SFRSYM    DATA     BIT       B_B5
      000000DCH   SFRSYM    DATA     BYTE      PCA0CPM2
      000000B8H   SFRSYM    DATA     BYTE      IP
      000000B9H   SFRSYM    DATA     BYTE      ADC0TK
      000000F0H.6 SFRSYM    DATA     BIT       B_B6
      000000C5H   SFRSYM    DATA     WORD      ADC0LT
      000000D8H.6 SFRSYM    DATA     BIT       UART1FCN1_TXNF
      00000098H.5 SFRSYM    DATA     BIT       SCON0_MCE
      000000F0H.7 SFRSYM    DATA     BIT       B_B7
      000000C3H   SFRSYM    DATA     BYTE      SMB0FCN0
      000000E1H   SFRSYM    DATA     BYTE      XBR0
      000000C4H   SFRSYM    DATA     BYTE      SMB0FCN1
      000000C1H   SFRSYM    DATA     BYTE      SMB0CF
      000000E2H   SFRSYM    DATA     BYTE      XBR1
      000000C1H   SFRSYM    DATA     BYTE      PFE0CN
      000000E7H   SFRSYM    DATA     BYTE      EMI0CN
      000000C0H.5 SFRSYM    DATA     BIT       SMB0CN0_STA
LX51 LINKER/LOCATER V4.66.30.0                                                        08/11/2020  17:20:48  PAGE 74


      000000E3H   SFRSYM    DATA     BYTE      XBR2
      000000BBH   SFRSYM    DATA     BYTE      ADC0MX
      000000E0H   SFRSYM    DATA     BIT       ACC_ACC0
      000000D1H   SFRSYM    DATA     BYTE      REF0CN
      0000008EH   SFRSYM    DATA     BYTE      CKCON0
      000000E0H.1 SFRSYM    DATA     BIT       ACC_ACC1
      000000C9H   SFRSYM    DATA     BYTE      REG0CN
      000000DDH   SFRSYM    DATA     BYTE      CRC0IN
      000000A6H   SFRSYM    DATA     BYTE      CKCON1
      000000C8H.2 SFRSYM    DATA     BIT       TMR2CN0_TR2
      000000E0H.2 SFRSYM    DATA     BIT       ACC_ACC2
      000000C6H   SFRSYM    DATA     BYTE      REG1CN
      000000E0H.3 SFRSYM    DATA     BIT       ACC_ACC3
      00000081H   SFRSYM    DATA     BYTE      SP
      0000009DH   SFRSYM    DATA     BYTE      CMP0MD
      000000E0H.4 SFRSYM    DATA     BIT       ACC_ACC4
      000000B1H   SFRSYM    DATA     BYTE      LFO0CN
      000000ABH   SFRSYM    DATA     BYTE      CMP1MD
      000000D8H   SFRSYM    DATA     BIT       PCA0CN0_CCF0
      000000E0H.5 SFRSYM    DATA     BIT       ACC_ACC5
      00000098H.2 SFRSYM    DATA     BIT       TMR4CN0_TR4
      000000D8H.1 SFRSYM    DATA     BIT       PCA0CN0_CCF1
      000000E0H.6 SFRSYM    DATA     BIT       ACC_ACC6
      000000CCH   SFRSYM    DATA     WORD      TMR2
      0000009AH   SFRSYM    DATA     BYTE      SPI0FCN0
      000000D8H.2 SFRSYM    DATA     BIT       PCA0CN0_CCF2
      000000E0H.7 SFRSYM    DATA     BIT       ACC_ACC7
      00000094H   SFRSYM    DATA     WORD      TMR3
      0000009BH   SFRSYM    DATA     BYTE      SPI0FCN1
      000000A4H   SFRSYM    DATA     WORD      TMR4
      00000094H   SFRSYM    DATA     BYTE      SBCON1
      000000C0H.3 SFRSYM    DATA     BIT       SMB0CN0_ACKRQ
      000000FFH   SFRSYM    DATA     BYTE      VDM0CN
      000000F1H   SFRSYM    DATA     BYTE      P0MDIN
      00000098H.4 SFRSYM    DATA     BIT       SCON0_REN
      000000ACH   SFRSYM    DATA     BYTE      SMB0TC
      000000F2H   SFRSYM    DATA     BYTE      P1MDIN
      000000C8H.4 SFRSYM    DATA     BIT       SCON1_REN
      000000F3H   SFRSYM    DATA     BYTE      P2MDIN
      000000C0H.4 SFRSYM    DATA     BIT       SMB0CN0_STO
      000000F4H   SFRSYM    DATA     BYTE      P3MDIN
      000000B9H   SFRSYM    DATA     BYTE      I2C0STAT
      000000BBH   SFRSYM    DATA     BYTE      I2C0DOUT
      00000096H   SFRSYM    DATA     BYTE      SBRLH1
      000000FEH   SFRSYM    DATA     BYTE      P0MASK
      000000D8H.5 SFRSYM    DATA     BIT       UART1FCN1_TXHOLD
      000000EEH   SFRSYM    DATA     BYTE      P1MASK
      000000FCH   SFRSYM    DATA     BYTE      P2MASK
      000000D0H.3 SFRSYM    DATA     BIT       PSW_RS0
      000000D8H.7 SFRSYM    DATA     BIT       PCA0CN0_CF
      0000009EH   SFRSYM    DATA     BYTE      PCA0CENT
      000000BAH   SFRSYM    DATA     BYTE      I2C0CN0
      000000D2H   SFRSYM    DATA     BYTE      CRC0ST
      000000F8H.4 SFRSYM    DATA     BIT       SPI0CN0_RXOVRN
      000000D0H.4 SFRSYM    DATA     BIT       PSW_RS1
      00000095H   SFRSYM    DATA     BYTE      SBRLL1
      000000C8H.2 SFRSYM    DATA     BIT       SCON1_RBX
      000000C8H   SFRSYM    DATA     BIT       TMR2CN0_T2XCLK0
      000000C8H.1 SFRSYM    DATA     BIT       TMR2CN0_T2XCLK1
      000000C8H.3 SFRSYM    DATA     BIT       SCON1_TBX
      000000E8H.7 SFRSYM    DATA     BIT       ADC0CN0_ADEN
      00000089H   SFRSYM    DATA     BYTE      TMOD
LX51 LINKER/LOCATER V4.66.30.0                                                        08/11/2020  17:20:48  PAGE 75


      00000088H   SFRSYM    DATA     BYTE      TCON
      000000CFH   SFRSYM    DATA     BYTE      CRC0FLIP
      000000D0H   SFRSYM    DATA     BIT       PSW_PARITY
      000000A8H.4 SFRSYM    DATA     BIT       IE_ES0
      0000009FH   SFRSYM    DATA     BYTE      CMP0MX
      00000098H   SFRSYM    DATA     BIT       TMR4CN0_T4XCLK0
      000000A8H.1 SFRSYM    DATA     BIT       IE_ET0
      000000AAH   SFRSYM    DATA     BYTE      CMP1MX
      00000098H.1 SFRSYM    DATA     BIT       TMR4CN0_T4XCLK1
      000000A8H.3 SFRSYM    DATA     BIT       IE_ET1
      000000D4H   SFRSYM    DATA     BYTE      P0SKIP
      000000D8H   SFRSYM    DATA     BIT       UART1FCN1_RIE
      000000A8H.5 SFRSYM    DATA     BIT       IE_ET2
      000000D5H   SFRSYM    DATA     BYTE      P1SKIP
      000000CCH   SFRSYM    DATA     BYTE      P2SKIP
      000000E8H   SFRSYM    DATA     BYTE      ADC0CN0
      000000D8H.4 SFRSYM    DATA     BIT       UART1FCN1_TIE
      000000A8H   SFRSYM    DATA     BIT       IE_EX0
      000000B2H   SFRSYM    DATA     BYTE      ADC0CN1
      000000D8H.6 SFRSYM    DATA     BIT       PCA0CN0_CR
      000000A8H.2 SFRSYM    DATA     BIT       IE_EX1
      000000C8H.7 SFRSYM    DATA     BIT       SCON1_OVR
      00000098H.7 SFRSYM    DATA     BIT       SCON0_SMODE
      000000B5H   SFRSYM    DATA     BYTE      DEVICEID
      000000A9H   SFRSYM    DATA     BYTE      CLKSEL
      000000F8H   SFRSYM    DATA     BIT       SPI0CN0_SPIEN
      000000F0H   SFRSYM    DATA     BYTE      B
      000000BEH   SFRSYM    DATA     BYTE      ADC0H
      000000E8H.6 SFRSYM    DATA     BIT       ADC0CN0_ADBMEN
      000000CAH   SFRSYM    DATA     WORD      TMR2RL
      000000BDH   SFRSYM    DATA     BYTE      ADC0L
      00000092H   SFRSYM    DATA     WORD      TMR3RL
      000000A2H   SFRSYM    DATA     WORD      TMR4RL
      000000D8H   SFRSYM    DATA     BYTE      PCA0CN0
      000000E0H   SFRSYM    DATA     BYTE      ACC
      000000FBH   SFRSYM    DATA     WORD      PCA0CP0
      000000E9H   SFRSYM    DATA     WORD      PCA0CP1
      000000EBH   SFRSYM    DATA     WORD      PCA0CP2
      000000BCH   SFRSYM    DATA     BYTE      I2C0DIN
      000000CEH   SFRSYM    DATA     BYTE      CRC0CN0
      0000008CH   SFRSYM    DATA     BYTE      TH0
      00000086H   SFRSYM    DATA     BYTE      CRC0CN1
      000000B8H.4 SFRSYM    DATA     BIT       IP_PS0
      000000FAH   SFRSYM    DATA     BYTE      UART1FCT
      0000008DH   SFRSYM    DATA     BYTE      TH1
      000000FAH   SFRSYM    DATA     BYTE      PCA0H
      000000F5H   SFRSYM    DATA     BYTE      I2C0FCT
      000000B8H.1 SFRSYM    DATA     BIT       IP_PT0
      000000B8H.3 SFRSYM    DATA     BIT       IP_PT1
      000000C0H.2 SFRSYM    DATA     BIT       SMB0CN0_ARBLOST
      000000B8H.5 SFRSYM    DATA     BIT       IP_PT2
      0000008AH   SFRSYM    DATA     BYTE      TL0
      000000D0H.5 SFRSYM    DATA     BIT       PSW_F0
      000000A8H.6 SFRSYM    DATA     BIT       IE_ESPI0
      0000008BH   SFRSYM    DATA     BYTE      TL1
      000000F9H   SFRSYM    DATA     BYTE      PCA0L
      000000C0H   SFRSYM    DATA     BIT       SMB0CN0_SI
      000000D0H.1 SFRSYM    DATA     BIT       PSW_F1
      00000080H   SFRSYM    DATA     BIT       P0_B0
      000000B8H   SFRSYM    DATA     BIT       IP_PX0
      00000090H   SFRSYM    DATA     BIT       P1_B0
      00000080H.1 SFRSYM    DATA     BIT       P0_B1
LX51 LINKER/LOCATER V4.66.30.0                                                        08/11/2020  17:20:48  PAGE 76


      000000B8H.2 SFRSYM    DATA     BIT       IP_PX1
      0000009EH   SFRSYM    DATA     BYTE      UART1LIN
      0000009BH   SFRSYM    DATA     BYTE      CMP0CN0
      00000088H.1 SFRSYM    DATA     BIT       TCON_IE0
      000000A0H   SFRSYM    DATA     BIT       P2_B0
      00000090H.1 SFRSYM    DATA     BIT       P1_B1
      00000080H.2 SFRSYM    DATA     BIT       P0_B2
      000000BFH   SFRSYM    DATA     BYTE      CMP1CN0
      00000099H   SFRSYM    DATA     BYTE      CMP0CN1
      00000088H.3 SFRSYM    DATA     BIT       TCON_IE1
      000000B0H   SFRSYM    DATA     BIT       P3_B0
      000000A0H.1 SFRSYM    DATA     BIT       P2_B1
      00000090H.2 SFRSYM    DATA     BIT       P1_B2
      00000080H.3 SFRSYM    DATA     BIT       P0_B3
      000000C0H   SFRSYM    DATA     BYTE      SMB0CN0
      000000ACH   SFRSYM    DATA     BYTE      CMP1CN1
      000000B0H.1 SFRSYM    DATA     BIT       P3_B1
      000000A0H.2 SFRSYM    DATA     BIT       P2_B2
      00000090H.3 SFRSYM    DATA     BIT       P1_B3
      00000080H.4 SFRSYM    DATA     BIT       P0_B4
      000000A0H.3 SFRSYM    DATA     BIT       P2_B3
      00000090H.4 SFRSYM    DATA     BIT       P1_B4
      00000080H.5 SFRSYM    DATA     BIT       P0_B5
      000000D8H.1 SFRSYM    DATA     BIT       UART1FCN1_RXTO0
      00000090H.5 SFRSYM    DATA     BIT       P1_B5
      00000080H.6 SFRSYM    DATA     BIT       P0_B6
      000000F5H   SFRSYM    DATA     BYTE      EIP1H
      000000D8H.2 SFRSYM    DATA     BIT       UART1FCN1_RXTO1
      00000090H.6 SFRSYM    DATA     BIT       P1_B6
      00000080H.7 SFRSYM    DATA     BIT       P0_B7
      000000C5H   SFRSYM    DATA     BYTE      SMB0RXLN
      000000F6H   SFRSYM    DATA     BYTE      EIP2H
      00000090H.7 SFRSYM    DATA     BIT       P1_B7
      00000083H   SFRSYM    DATA     BYTE      DPH
      000000C4H   SFRSYM    DATA     BYTE      ADC0GTH
      000000C8H.7 SFRSYM    DATA     BIT       TMR2CN0_TF2H
      000000C8H.3 SFRSYM    DATA     BIT       TMR2CN0_T2SPLIT
      000000D0H.6 SFRSYM    DATA     BIT       PSW_AC
      000000F8H   SFRSYM    DATA     BYTE      SPI0CN0
      000000C7H   SFRSYM    DATA     BYTE      HFO0CAL
      00000088H.5 SFRSYM    DATA     BIT       TCON_TF0
      00000098H   SFRSYM    DATA     BIT       SCON0_RI
      000000D6H   SFRSYM    DATA     BYTE      HFO1CAL
      00000082H   SFRSYM    DATA     BYTE      DPL
      00000088H.7 SFRSYM    DATA     BIT       TCON_TF1
      000000C8H   SFRSYM    DATA     BIT       SCON1_RI
      00000099H   SFRSYM    DATA     BYTE      SBUF0
      00000087H   SFRSYM    DATA     BYTE      PCON0
      000000F2H   SFRSYM    DATA     BYTE      IPH
      000000C3H   SFRSYM    DATA     BYTE      ADC0GTL
      00000098H.7 SFRSYM    DATA     BIT       TMR4CN0_TF4H
      00000098H.3 SFRSYM    DATA     BIT       TMR4CN0_T4SPLIT
      000000C8H.6 SFRSYM    DATA     BIT       TMR2CN0_TF2L
      00000098H.1 SFRSYM    DATA     BIT       SCON0_TI
      000000E8H   SFRSYM    DATA     BIT       ADC0CN0_ADCM0
      00000092H   SFRSYM    DATA     BYTE      SBUF1
      0000009AH   SFRSYM    DATA     BYTE      PCON1
      000000C6H   SFRSYM    DATA     BYTE      ADC0LTH
      00000088H   SFRSYM    DATA     BIT       TCON_IT0
      000000C8H.1 SFRSYM    DATA     BIT       SCON1_TI
      000000E8H.1 SFRSYM    DATA     BIT       ADC0CN0_ADCM1
      000000EFH   SFRSYM    DATA     BYTE      RSTSRC
LX51 LINKER/LOCATER V4.66.30.0                                                        08/11/2020  17:20:48  PAGE 77


      000000FDH   SFRSYM    DATA     BYTE      P0MAT
      000000DEH   SFRSYM    DATA     BYTE      CRC0DAT
      00000088H.2 SFRSYM    DATA     BIT       TCON_IT1
      000000E8H.2 SFRSYM    DATA     BIT       ADC0CN0_ADCM2
      000000D7H   SFRSYM    DATA     BYTE      SFRSTACK
      00000098H   SFRSYM    DATA     BYTE      SCON0
      000000F6H   SFRSYM    DATA     BYTE      PRTDRV
      000000EDH   SFRSYM    DATA     BYTE      P1MAT
      000000E8H.3 SFRSYM    DATA     BIT       ADC0CN0_ADWINT
      00000095H   SFRSYM    DATA     WORD      SBRL1
      00000093H   SFRSYM    DATA     BYTE      SMOD1
      000000C8H   SFRSYM    DATA     BYTE      SCON1
      000000FBH   SFRSYM    DATA     BYTE      P2MAT
      00000098H.6 SFRSYM    DATA     BIT       TMR4CN0_TF4L
      000000E8H.4 SFRSYM    DATA     BIT       ADC0CN0_ADBUSY
      000000D6H   SFRSYM    DATA     BYTE      SMB0ADM
      000000C5H   SFRSYM    DATA     BYTE      ADC0LTL
      000000F8H.5 SFRSYM    DATA     BIT       SPI0CN0_MODF
      000000B8H.6 SFRSYM    DATA     BIT       IP_PSPI0
      0000009CH   SFRSYM    DATA     BYTE      PCA0CLR
      000000C8H   SFRSYM    DATA     BYTE      TMR2CN0
      00000091H   SFRSYM    DATA     BYTE      TMR3CN0
      000000FDH   SFRSYM    DATA     BYTE      TMR2CN1
      00000098H   SFRSYM    DATA     BYTE      TMR4CN0
      000000FEH   SFRSYM    DATA     BYTE      TMR3CN1
      000000FFH   SFRSYM    DATA     BYTE      TMR4CN1
      000000D7H   SFRSYM    DATA     BYTE      SMB0ADR
      00000088H.4 SFRSYM    DATA     BIT       TCON_TR0
      000000C8H.4 SFRSYM    DATA     BIT       TMR2CN0_TF2CEN
      00000088H.6 SFRSYM    DATA     BIT       TCON_TR1
      000000C2H   SFRSYM    DATA     BYTE      SMB0DAT
      000000CDH   SFRSYM    DATA     BYTE      TMR2H
      000000A1H   SFRSYM    DATA     BYTE      SPI0CFG
      00000095H   SFRSYM    DATA     BYTE      TMR3H
      000000EFH   SFRSYM    DATA     BYTE      HFOCN
      000000D3H   SFRSYM    DATA     BYTE      CRC0CNT
      000000A5H   SFRSYM    DATA     BYTE      TMR4H
      00000098H.4 SFRSYM    DATA     BIT       TMR4CN0_TF4CEN
      000000EFH   SFRSYM    DATA     BYTE      SMB0FCT
      00000096H   SFRSYM    DATA     BYTE      PCA0POL
      000000CCH   SFRSYM    DATA     BYTE      TMR2L
      000000F8H.7 SFRSYM    DATA     BIT       SPI0CN0_SPIF
      00000094H   SFRSYM    DATA     BYTE      TMR3L
      000000DFH   SFRSYM    DATA     BYTE      ADC0PWR
      000000A8H.7 SFRSYM    DATA     BIT       IE_EA
      000000A4H   SFRSYM    DATA     BYTE      TMR4L
      000000C8H.5 SFRSYM    DATA     BIT       TMR2CN0_TF2LEN
      000000F8H.6 SFRSYM    DATA     BIT       SPI0CN0_WCOL
      000000F8H.2 SFRSYM    DATA     BIT       SPI0CN0_NSSMD0
      000000D0H.7 SFRSYM    DATA     BIT       PSW_CY
      0000009DH   SFRSYM    DATA     BYTE      UART1FCN0
      000000A3H   SFRSYM    DATA     BYTE      SPI0DAT
      000000ADH   SFRSYM    DATA     BYTE      I2C0FCN0
      000000F8H.3 SFRSYM    DATA     BIT       SPI0CN0_NSSMD1
      000000BDH   SFRSYM    DATA     WORD      ADC0
      000000D8H   SFRSYM    DATA     BYTE      UART1FCN1
      000000ABH   SFRSYM    DATA     BYTE      I2C0FCN1
      00000098H.5 SFRSYM    DATA     BIT       TMR4CN0_TF4LEN
      000000D0H   SFRSYM    DATA     BYTE      PSW
      000000F7H   SFRSYM    DATA     BYTE      PCA0PWM
      000000F7H   SFRSYM    DATA     BYTE      SPI0FCT
      000000B6H   SFRSYM    DATA     BYTE      REVID
LX51 LINKER/LOCATER V4.66.30.0                                                        08/11/2020  17:20:48  PAGE 78


      000000B7H   SFRSYM    DATA     BYTE      FLKEY
      000000B3H   SFRSYM    DATA     BYTE      ADC0AC

      01003A04H   BLOCK     CODE     ---       LVL=0
      00000006H   SYMBOL    DATA     WORD      addr
      00000005H   SYMBOL    DATA     BYTE      byte
      01003A04H   BLOCK     CODE     NEAR LAB  LVL=1
      00000020H.0 SYMBOL    BIT      BIT       EA_SAVE
      00000082H   SYMBOL    DATA     ---       pwrite
      ---         BLOCKEND  ---      ---       LVL=1
      01003A04H   LINE      CODE     ---       #41
      01003A04H   LINE      CODE     ---       #42
      01003A04H   LINE      CODE     ---       #43
      01003A08H   LINE      CODE     ---       #46
      01003A0AH   LINE      CODE     ---       #48
      01003A0DH   LINE      CODE     ---       #50
      01003A10H   LINE      CODE     ---       #52
      01003A14H   LINE      CODE     ---       #54
      01003A17H   LINE      CODE     ---       #55
      01003A1AH   LINE      CODE     ---       #56
      01003A1DH   LINE      CODE     ---       #58
      01003A20H   LINE      CODE     ---       #60
      01003A23H   LINE      CODE     ---       #61
      01003A25H   LINE      CODE     ---       #63
      01003A28H   LINE      CODE     ---       #65
      01003A2CH   LINE      CODE     ---       #66
      ---         BLOCKEND  ---      ---       LVL=0

      0100005EH   BLOCK     CODE     ---       LVL=0
      00000006H   SYMBOL    DATA     WORD      addr
      0100005EH   BLOCK     CODE     NEAR LAB  LVL=1
      00000020H.0 SYMBOL    BIT      BIT       EA_SAVE
      00000082H   SYMBOL    DATA     ---       pread
      00000007H   SYMBOL    DATA     BYTE      byte
      ---         BLOCKEND  ---      ---       LVL=1
      0100005EH   LINE      CODE     ---       #83
      0100005EH   LINE      CODE     ---       #84
      0100005EH   LINE      CODE     ---       #85
      01000062H   LINE      CODE     ---       #89
      01000064H   LINE      CODE     ---       #91
      01000068H   LINE      CODE     ---       #93
      0100006BH   LINE      CODE     ---       #95
      0100006FH   LINE      CODE     ---       #97
      0100006FH   LINE      CODE     ---       #98
      ---         BLOCKEND  ---      ---       LVL=0

      01003A2DH   BLOCK     CODE     ---       LVL=0
      00000006H   SYMBOL    DATA     WORD      addr
      01003A2DH   BLOCK     CODE     NEAR LAB  LVL=1
      00000020H.0 SYMBOL    BIT      BIT       EA_SAVE
      00000082H   SYMBOL    DATA     ---       pwrite
      ---         BLOCKEND  ---      ---       LVL=1
      01003A2DH   LINE      CODE     ---       #116
      01003A2DH   LINE      CODE     ---       #117
      01003A2DH   LINE      CODE     ---       #118
      01003A31H   LINE      CODE     ---       #121
      01003A33H   LINE      CODE     ---       #123
      01003A36H   LINE      CODE     ---       #125
      01003A39H   LINE      CODE     ---       #127
      01003A3DH   LINE      CODE     ---       #129
      01003A40H   LINE      CODE     ---       #130
      01003A43H   LINE      CODE     ---       #131
LX51 LINKER/LOCATER V4.66.30.0                                                        08/11/2020  17:20:48  PAGE 79


      01003A46H   LINE      CODE     ---       #133
      01003A49H   LINE      CODE     ---       #135
      01003A4CH   LINE      CODE     ---       #136
      01003A4EH   LINE      CODE     ---       #138
      01003A51H   LINE      CODE     ---       #140
      01003A55H   LINE      CODE     ---       #141
      ---         BLOCKEND  ---      ---       LVL=0

      01003C5CH   BLOCK     CODE     ---       LVL=0
      00000005H   SYMBOL    DATA     BYTE      mode
      01003C5CH   LINE      CODE     ---       #145
      01003C5EH   LINE      CODE     ---       #146
      01003C5EH   LINE      CODE     ---       #147
      01003C65H   LINE      CODE     ---       #148
      ---         BLOCKEND  ---      ---       LVL=0

      01000003H   BLOCK     CODE     ---       LVL=0
      01000003H   BLOCK     CODE     NEAR LAB  LVL=1
      00000007H   SYMBOL    DATA     BYTE      temp_byte
      ---         BLOCKEND  ---      ---       LVL=1
      01000003H   LINE      CODE     ---       #151
      01000003H   LINE      CODE     ---       #152
      01000003H   LINE      CODE     ---       #154
      0100000AH   LINE      CODE     ---       #156
      0100000AH   LINE      CODE     ---       #157
      ---         BLOCKEND  ---      ---       LVL=0

      ---         MODULE    ---      ---       INITDEVICE
      000000A2H   SFRSYM    DATA     BYTE      SPI0CKR
      00000080H   SFRSYM    DATA     BYTE      P0
      000000C8H.6 SFRSYM    DATA     BIT       SCON1_PERR
      000000D0H.2 SFRSYM    DATA     BIT       PSW_OV
      00000090H   SFRSYM    DATA     BYTE      P1
      000000F8H.1 SFRSYM    DATA     BIT       SPI0CN0_TXNF
      00000097H   SFRSYM    DATA     BYTE      WDTCN
      000000A0H   SFRSYM    DATA     BYTE      P2
      000000B0H   SFRSYM    DATA     BYTE      P3
      000000BCH   SFRSYM    DATA     BYTE      ADC0CF
      000000C0H.7 SFRSYM    DATA     BIT       SMB0CN0_MASTER
      000000F9H   SFRSYM    DATA     WORD      PCA0
      000000E6H   SFRSYM    DATA     BYTE      EIE1
      000000C0H.1 SFRSYM    DATA     BIT       SMB0CN0_ACK
      000000CEH   SFRSYM    DATA     BYTE      EIE2
      0000008FH   SFRSYM    DATA     BYTE      PSCTL
      000000E4H   SFRSYM    DATA     BYTE      IT01CF
      000000C0H.6 SFRSYM    DATA     BIT       SMB0CN0_TXMODE
      000000ADH   SFRSYM    DATA     BYTE      DERIVID
      000000A7H   SFRSYM    DATA     BYTE      SFRPAGE
      000000A4H   SFRSYM    DATA     BYTE      P0MDOUT
      000000A5H   SFRSYM    DATA     BYTE      P1MDOUT
      000000E8H.5 SFRSYM    DATA     BIT       ADC0CN0_ADINT
      000000CBH   SFRSYM    DATA     BYTE      TMR2RLH
      000000A6H   SFRSYM    DATA     BYTE      P2MDOUT
      000000A8H   SFRSYM    DATA     BYTE      IE
      00000093H   SFRSYM    DATA     BYTE      TMR3RLH
      0000009CH   SFRSYM    DATA     BYTE      P3MDOUT
      000000A3H   SFRSYM    DATA     BYTE      TMR4RLH
      000000F3H   SFRSYM    DATA     BYTE      EIP1
      000000F4H   SFRSYM    DATA     BYTE      EIP2
      00000098H.2 SFRSYM    DATA     BIT       SCON0_RB8
      000000CAH   SFRSYM    DATA     BYTE      TMR2RLL
      000000FCH   SFRSYM    DATA     BYTE      PCA0CPH0
LX51 LINKER/LOCATER V4.66.30.0                                                        08/11/2020  17:20:48  PAGE 80


      00000092H   SFRSYM    DATA     BYTE      TMR3RLL
      000000EAH   SFRSYM    DATA     BYTE      PCA0CPH1
      00000098H.3 SFRSYM    DATA     BIT       SCON0_TB8
      000000F0H   SFRSYM    DATA     BIT       B_B0
      00000082H   SFRSYM    DATA     WORD      DP
      000000A2H   SFRSYM    DATA     BYTE      TMR4RLL
      000000ECH   SFRSYM    DATA     BYTE      PCA0CPH2
      000000F0H.1 SFRSYM    DATA     BIT       B_B1
      000000C3H   SFRSYM    DATA     WORD      ADC0GT
      000000BDH   SFRSYM    DATA     BYTE      I2C0SLAD
      000000D8H.3 SFRSYM    DATA     BIT       UART1FCN1_RFRQ
      000000F0H.2 SFRSYM    DATA     BIT       B_B2
      000000CFH   SFRSYM    DATA     BYTE      SFRPGCN
      000000FBH   SFRSYM    DATA     BYTE      PCA0CPL0
      000000F0H.3 SFRSYM    DATA     BIT       B_B3
      000000D9H   SFRSYM    DATA     BYTE      PCA0MD
      000000DAH   SFRSYM    DATA     BYTE      PCA0CPM0
      000000E9H   SFRSYM    DATA     BYTE      PCA0CPL1
      000000D8H.7 SFRSYM    DATA     BIT       UART1FCN1_TFRQ
      000000F0H.4 SFRSYM    DATA     BIT       B_B4
      000000DBH   SFRSYM    DATA     BYTE      PCA0CPM1
      000000EBH   SFRSYM    DATA     BYTE      PCA0CPL2
      000000F0H.5 SFRSYM    DATA     BIT       B_B5
      000000DCH   SFRSYM    DATA     BYTE      PCA0CPM2
      000000B8H   SFRSYM    DATA     BYTE      IP
      000000B9H   SFRSYM    DATA     BYTE      ADC0TK
      000000F0H.6 SFRSYM    DATA     BIT       B_B6
      000000C5H   SFRSYM    DATA     WORD      ADC0LT
      000000D8H.6 SFRSYM    DATA     BIT       UART1FCN1_TXNF
      00000098H.5 SFRSYM    DATA     BIT       SCON0_MCE
      000000F0H.7 SFRSYM    DATA     BIT       B_B7
      000000C3H   SFRSYM    DATA     BYTE      SMB0FCN0
      000000E1H   SFRSYM    DATA     BYTE      XBR0
      000000C4H   SFRSYM    DATA     BYTE      SMB0FCN1
      000000C1H   SFRSYM    DATA     BYTE      SMB0CF
      000000E2H   SFRSYM    DATA     BYTE      XBR1
      000000C1H   SFRSYM    DATA     BYTE      PFE0CN
      000000E7H   SFRSYM    DATA     BYTE      EMI0CN
      000000C0H.5 SFRSYM    DATA     BIT       SMB0CN0_STA
      000000E3H   SFRSYM    DATA     BYTE      XBR2
      000000BBH   SFRSYM    DATA     BYTE      ADC0MX
      000000E0H   SFRSYM    DATA     BIT       ACC_ACC0
      000000D1H   SFRSYM    DATA     BYTE      REF0CN
      0000008EH   SFRSYM    DATA     BYTE      CKCON0
      000000E0H.1 SFRSYM    DATA     BIT       ACC_ACC1
      000000C9H   SFRSYM    DATA     BYTE      REG0CN
      000000DDH   SFRSYM    DATA     BYTE      CRC0IN
      000000A6H   SFRSYM    DATA     BYTE      CKCON1
      000000C8H.2 SFRSYM    DATA     BIT       TMR2CN0_TR2
      000000E0H.2 SFRSYM    DATA     BIT       ACC_ACC2
      000000C6H   SFRSYM    DATA     BYTE      REG1CN
      000000E0H.3 SFRSYM    DATA     BIT       ACC_ACC3
      00000081H   SFRSYM    DATA     BYTE      SP
      0000009DH   SFRSYM    DATA     BYTE      CMP0MD
      000000E0H.4 SFRSYM    DATA     BIT       ACC_ACC4
      000000B1H   SFRSYM    DATA     BYTE      LFO0CN
      000000ABH   SFRSYM    DATA     BYTE      CMP1MD
      000000D8H   SFRSYM    DATA     BIT       PCA0CN0_CCF0
      000000E0H.5 SFRSYM    DATA     BIT       ACC_ACC5
      00000098H.2 SFRSYM    DATA     BIT       TMR4CN0_TR4
      000000D8H.1 SFRSYM    DATA     BIT       PCA0CN0_CCF1
      000000E0H.6 SFRSYM    DATA     BIT       ACC_ACC6
LX51 LINKER/LOCATER V4.66.30.0                                                        08/11/2020  17:20:48  PAGE 81


      000000CCH   SFRSYM    DATA     WORD      TMR2
      0000009AH   SFRSYM    DATA     BYTE      SPI0FCN0
      000000D8H.2 SFRSYM    DATA     BIT       PCA0CN0_CCF2
      000000E0H.7 SFRSYM    DATA     BIT       ACC_ACC7
      00000094H   SFRSYM    DATA     WORD      TMR3
      0000009BH   SFRSYM    DATA     BYTE      SPI0FCN1
      000000A4H   SFRSYM    DATA     WORD      TMR4
      00000094H   SFRSYM    DATA     BYTE      SBCON1
      000000C0H.3 SFRSYM    DATA     BIT       SMB0CN0_ACKRQ
      000000FFH   SFRSYM    DATA     BYTE      VDM0CN
      000000F1H   SFRSYM    DATA     BYTE      P0MDIN
      00000098H.4 SFRSYM    DATA     BIT       SCON0_REN
      000000ACH   SFRSYM    DATA     BYTE      SMB0TC
      000000F2H   SFRSYM    DATA     BYTE      P1MDIN
      000000C8H.4 SFRSYM    DATA     BIT       SCON1_REN
      000000F3H   SFRSYM    DATA     BYTE      P2MDIN
      000000C0H.4 SFRSYM    DATA     BIT       SMB0CN0_STO
      000000F4H   SFRSYM    DATA     BYTE      P3MDIN
      000000B9H   SFRSYM    DATA     BYTE      I2C0STAT
      000000BBH   SFRSYM    DATA     BYTE      I2C0DOUT
      00000096H   SFRSYM    DATA     BYTE      SBRLH1
      000000FEH   SFRSYM    DATA     BYTE      P0MASK
      000000D8H.5 SFRSYM    DATA     BIT       UART1FCN1_TXHOLD
      000000EEH   SFRSYM    DATA     BYTE      P1MASK
      000000FCH   SFRSYM    DATA     BYTE      P2MASK
      000000D0H.3 SFRSYM    DATA     BIT       PSW_RS0
      000000D8H.7 SFRSYM    DATA     BIT       PCA0CN0_CF
      0000009EH   SFRSYM    DATA     BYTE      PCA0CENT
      000000BAH   SFRSYM    DATA     BYTE      I2C0CN0
      000000D2H   SFRSYM    DATA     BYTE      CRC0ST
      000000F8H.4 SFRSYM    DATA     BIT       SPI0CN0_RXOVRN
      000000D0H.4 SFRSYM    DATA     BIT       PSW_RS1
      00000095H   SFRSYM    DATA     BYTE      SBRLL1
      000000C8H.2 SFRSYM    DATA     BIT       SCON1_RBX
      000000C8H   SFRSYM    DATA     BIT       TMR2CN0_T2XCLK0
      000000C8H.1 SFRSYM    DATA     BIT       TMR2CN0_T2XCLK1
      000000C8H.3 SFRSYM    DATA     BIT       SCON1_TBX
      000000E8H.7 SFRSYM    DATA     BIT       ADC0CN0_ADEN
      00000089H   SFRSYM    DATA     BYTE      TMOD
      00000088H   SFRSYM    DATA     BYTE      TCON
      000000CFH   SFRSYM    DATA     BYTE      CRC0FLIP
      000000D0H   SFRSYM    DATA     BIT       PSW_PARITY
      000000A8H.4 SFRSYM    DATA     BIT       IE_ES0
      0000009FH   SFRSYM    DATA     BYTE      CMP0MX
      00000098H   SFRSYM    DATA     BIT       TMR4CN0_T4XCLK0
      000000A8H.1 SFRSYM    DATA     BIT       IE_ET0
      000000AAH   SFRSYM    DATA     BYTE      CMP1MX
      00000098H.1 SFRSYM    DATA     BIT       TMR4CN0_T4XCLK1
      000000A8H.3 SFRSYM    DATA     BIT       IE_ET1
      000000D4H   SFRSYM    DATA     BYTE      P0SKIP
      000000D8H   SFRSYM    DATA     BIT       UART1FCN1_RIE
      000000A8H.5 SFRSYM    DATA     BIT       IE_ET2
      000000D5H   SFRSYM    DATA     BYTE      P1SKIP
      000000CCH   SFRSYM    DATA     BYTE      P2SKIP
      000000E8H   SFRSYM    DATA     BYTE      ADC0CN0
      000000D8H.4 SFRSYM    DATA     BIT       UART1FCN1_TIE
      000000A8H   SFRSYM    DATA     BIT       IE_EX0
      000000B2H   SFRSYM    DATA     BYTE      ADC0CN1
      000000D8H.6 SFRSYM    DATA     BIT       PCA0CN0_CR
      000000A8H.2 SFRSYM    DATA     BIT       IE_EX1
      000000C8H.7 SFRSYM    DATA     BIT       SCON1_OVR
      00000098H.7 SFRSYM    DATA     BIT       SCON0_SMODE
LX51 LINKER/LOCATER V4.66.30.0                                                        08/11/2020  17:20:48  PAGE 82


      000000B5H   SFRSYM    DATA     BYTE      DEVICEID
      000000A9H   SFRSYM    DATA     BYTE      CLKSEL
      000000F8H   SFRSYM    DATA     BIT       SPI0CN0_SPIEN
      000000F0H   SFRSYM    DATA     BYTE      B
      000000BEH   SFRSYM    DATA     BYTE      ADC0H
      000000E8H.6 SFRSYM    DATA     BIT       ADC0CN0_ADBMEN
      000000CAH   SFRSYM    DATA     WORD      TMR2RL
      000000BDH   SFRSYM    DATA     BYTE      ADC0L
      00000092H   SFRSYM    DATA     WORD      TMR3RL
      000000A2H   SFRSYM    DATA     WORD      TMR4RL
      000000D8H   SFRSYM    DATA     BYTE      PCA0CN0
      000000E0H   SFRSYM    DATA     BYTE      ACC
      000000FBH   SFRSYM    DATA     WORD      PCA0CP0
      000000E9H   SFRSYM    DATA     WORD      PCA0CP1
      000000EBH   SFRSYM    DATA     WORD      PCA0CP2
      000000BCH   SFRSYM    DATA     BYTE      I2C0DIN
      000000CEH   SFRSYM    DATA     BYTE      CRC0CN0
      0000008CH   SFRSYM    DATA     BYTE      TH0
      00000086H   SFRSYM    DATA     BYTE      CRC0CN1
      000000B8H.4 SFRSYM    DATA     BIT       IP_PS0
      000000FAH   SFRSYM    DATA     BYTE      UART1FCT
      0000008DH   SFRSYM    DATA     BYTE      TH1
      000000FAH   SFRSYM    DATA     BYTE      PCA0H
      000000F5H   SFRSYM    DATA     BYTE      I2C0FCT
      000000B8H.1 SFRSYM    DATA     BIT       IP_PT0
      000000B8H.3 SFRSYM    DATA     BIT       IP_PT1
      000000C0H.2 SFRSYM    DATA     BIT       SMB0CN0_ARBLOST
      000000B8H.5 SFRSYM    DATA     BIT       IP_PT2
      0000008AH   SFRSYM    DATA     BYTE      TL0
      000000D0H.5 SFRSYM    DATA     BIT       PSW_F0
      000000A8H.6 SFRSYM    DATA     BIT       IE_ESPI0
      0000008BH   SFRSYM    DATA     BYTE      TL1
      000000F9H   SFRSYM    DATA     BYTE      PCA0L
      000000C0H   SFRSYM    DATA     BIT       SMB0CN0_SI
      000000D0H.1 SFRSYM    DATA     BIT       PSW_F1
      00000080H   SFRSYM    DATA     BIT       P0_B0
      000000B8H   SFRSYM    DATA     BIT       IP_PX0
      00000090H   SFRSYM    DATA     BIT       P1_B0
      00000080H.1 SFRSYM    DATA     BIT       P0_B1
      000000B8H.2 SFRSYM    DATA     BIT       IP_PX1
      0000009EH   SFRSYM    DATA     BYTE      UART1LIN
      0000009BH   SFRSYM    DATA     BYTE      CMP0CN0
      00000088H.1 SFRSYM    DATA     BIT       TCON_IE0
      000000A0H   SFRSYM    DATA     BIT       P2_B0
      00000090H.1 SFRSYM    DATA     BIT       P1_B1
      00000080H.2 SFRSYM    DATA     BIT       P0_B2
      000000BFH   SFRSYM    DATA     BYTE      CMP1CN0
      00000099H   SFRSYM    DATA     BYTE      CMP0CN1
      00000088H.3 SFRSYM    DATA     BIT       TCON_IE1
      000000B0H   SFRSYM    DATA     BIT       P3_B0
      000000A0H.1 SFRSYM    DATA     BIT       P2_B1
      00000090H.2 SFRSYM    DATA     BIT       P1_B2
      00000080H.3 SFRSYM    DATA     BIT       P0_B3
      000000C0H   SFRSYM    DATA     BYTE      SMB0CN0
      000000ACH   SFRSYM    DATA     BYTE      CMP1CN1
      000000B0H.1 SFRSYM    DATA     BIT       P3_B1
      000000A0H.2 SFRSYM    DATA     BIT       P2_B2
      00000090H.3 SFRSYM    DATA     BIT       P1_B3
      00000080H.4 SFRSYM    DATA     BIT       P0_B4
      000000A0H.3 SFRSYM    DATA     BIT       P2_B3
      00000090H.4 SFRSYM    DATA     BIT       P1_B4
      00000080H.5 SFRSYM    DATA     BIT       P0_B5
LX51 LINKER/LOCATER V4.66.30.0                                                        08/11/2020  17:20:48  PAGE 83


      000000D8H.1 SFRSYM    DATA     BIT       UART1FCN1_RXTO0
      00000090H.5 SFRSYM    DATA     BIT       P1_B5
      00000080H.6 SFRSYM    DATA     BIT       P0_B6
      000000F5H   SFRSYM    DATA     BYTE      EIP1H
      000000D8H.2 SFRSYM    DATA     BIT       UART1FCN1_RXTO1
      00000090H.6 SFRSYM    DATA     BIT       P1_B6
      00000080H.7 SFRSYM    DATA     BIT       P0_B7
      000000C5H   SFRSYM    DATA     BYTE      SMB0RXLN
      000000F6H   SFRSYM    DATA     BYTE      EIP2H
      00000090H.7 SFRSYM    DATA     BIT       P1_B7
      00000083H   SFRSYM    DATA     BYTE      DPH
      000000C4H   SFRSYM    DATA     BYTE      ADC0GTH
      000000C8H.7 SFRSYM    DATA     BIT       TMR2CN0_TF2H
      000000C8H.3 SFRSYM    DATA     BIT       TMR2CN0_T2SPLIT
      000000D0H.6 SFRSYM    DATA     BIT       PSW_AC
      000000F8H   SFRSYM    DATA     BYTE      SPI0CN0
      000000C7H   SFRSYM    DATA     BYTE      HFO0CAL
      00000088H.5 SFRSYM    DATA     BIT       TCON_TF0
      00000098H   SFRSYM    DATA     BIT       SCON0_RI
      000000D6H   SFRSYM    DATA     BYTE      HFO1CAL
      00000082H   SFRSYM    DATA     BYTE      DPL
      00000088H.7 SFRSYM    DATA     BIT       TCON_TF1
      000000C8H   SFRSYM    DATA     BIT       SCON1_RI
      00000099H   SFRSYM    DATA     BYTE      SBUF0
      00000087H   SFRSYM    DATA     BYTE      PCON0
      000000F2H   SFRSYM    DATA     BYTE      IPH
      000000C3H   SFRSYM    DATA     BYTE      ADC0GTL
      00000098H.7 SFRSYM    DATA     BIT       TMR4CN0_TF4H
      00000098H.3 SFRSYM    DATA     BIT       TMR4CN0_T4SPLIT
      000000C8H.6 SFRSYM    DATA     BIT       TMR2CN0_TF2L
      00000098H.1 SFRSYM    DATA     BIT       SCON0_TI
      000000E8H   SFRSYM    DATA     BIT       ADC0CN0_ADCM0
      00000092H   SFRSYM    DATA     BYTE      SBUF1
      0000009AH   SFRSYM    DATA     BYTE      PCON1
      000000C6H   SFRSYM    DATA     BYTE      ADC0LTH
      00000088H   SFRSYM    DATA     BIT       TCON_IT0
      000000C8H.1 SFRSYM    DATA     BIT       SCON1_TI
      000000E8H.1 SFRSYM    DATA     BIT       ADC0CN0_ADCM1
      000000EFH   SFRSYM    DATA     BYTE      RSTSRC
      000000FDH   SFRSYM    DATA     BYTE      P0MAT
      000000DEH   SFRSYM    DATA     BYTE      CRC0DAT
      00000088H.2 SFRSYM    DATA     BIT       TCON_IT1
      000000E8H.2 SFRSYM    DATA     BIT       ADC0CN0_ADCM2
      000000D7H   SFRSYM    DATA     BYTE      SFRSTACK
      00000098H   SFRSYM    DATA     BYTE      SCON0
      000000F6H   SFRSYM    DATA     BYTE      PRTDRV
      000000EDH   SFRSYM    DATA     BYTE      P1MAT
      000000E8H.3 SFRSYM    DATA     BIT       ADC0CN0_ADWINT
      00000095H   SFRSYM    DATA     WORD      SBRL1
      00000093H   SFRSYM    DATA     BYTE      SMOD1
      000000C8H   SFRSYM    DATA     BYTE      SCON1
      000000FBH   SFRSYM    DATA     BYTE      P2MAT
      00000098H.6 SFRSYM    DATA     BIT       TMR4CN0_TF4L
      000000E8H.4 SFRSYM    DATA     BIT       ADC0CN0_ADBUSY
      000000D6H   SFRSYM    DATA     BYTE      SMB0ADM
      000000C5H   SFRSYM    DATA     BYTE      ADC0LTL
      000000F8H.5 SFRSYM    DATA     BIT       SPI0CN0_MODF
      000000B8H.6 SFRSYM    DATA     BIT       IP_PSPI0
      0000009CH   SFRSYM    DATA     BYTE      PCA0CLR
      000000C8H   SFRSYM    DATA     BYTE      TMR2CN0
      00000091H   SFRSYM    DATA     BYTE      TMR3CN0
      000000FDH   SFRSYM    DATA     BYTE      TMR2CN1
LX51 LINKER/LOCATER V4.66.30.0                                                        08/11/2020  17:20:48  PAGE 84


      00000098H   SFRSYM    DATA     BYTE      TMR4CN0
      000000FEH   SFRSYM    DATA     BYTE      TMR3CN1
      000000FFH   SFRSYM    DATA     BYTE      TMR4CN1
      000000D7H   SFRSYM    DATA     BYTE      SMB0ADR
      00000088H.4 SFRSYM    DATA     BIT       TCON_TR0
      000000C8H.4 SFRSYM    DATA     BIT       TMR2CN0_TF2CEN
      00000088H.6 SFRSYM    DATA     BIT       TCON_TR1
      000000C2H   SFRSYM    DATA     BYTE      SMB0DAT
      000000CDH   SFRSYM    DATA     BYTE      TMR2H
      000000A1H   SFRSYM    DATA     BYTE      SPI0CFG
      00000095H   SFRSYM    DATA     BYTE      TMR3H
      000000EFH   SFRSYM    DATA     BYTE      HFOCN
      000000D3H   SFRSYM    DATA     BYTE      CRC0CNT
      000000A5H   SFRSYM    DATA     BYTE      TMR4H
      00000098H.4 SFRSYM    DATA     BIT       TMR4CN0_TF4CEN
      000000EFH   SFRSYM    DATA     BYTE      SMB0FCT
      00000096H   SFRSYM    DATA     BYTE      PCA0POL
      000000CCH   SFRSYM    DATA     BYTE      TMR2L
      000000F8H.7 SFRSYM    DATA     BIT       SPI0CN0_SPIF
      00000094H   SFRSYM    DATA     BYTE      TMR3L
      000000DFH   SFRSYM    DATA     BYTE      ADC0PWR
      000000A8H.7 SFRSYM    DATA     BIT       IE_EA
      000000A4H   SFRSYM    DATA     BYTE      TMR4L
      000000C8H.5 SFRSYM    DATA     BIT       TMR2CN0_TF2LEN
      000000F8H.6 SFRSYM    DATA     BIT       SPI0CN0_WCOL
      000000F8H.2 SFRSYM    DATA     BIT       SPI0CN0_NSSMD0
      000000D0H.7 SFRSYM    DATA     BIT       PSW_CY
      0000009DH   SFRSYM    DATA     BYTE      UART1FCN0
      000000A3H   SFRSYM    DATA     BYTE      SPI0DAT
      000000ADH   SFRSYM    DATA     BYTE      I2C0FCN0
      000000F8H.3 SFRSYM    DATA     BIT       SPI0CN0_NSSMD1
      000000BDH   SFRSYM    DATA     WORD      ADC0
      000000D8H   SFRSYM    DATA     BYTE      UART1FCN1
      000000ABH   SFRSYM    DATA     BYTE      I2C0FCN1
      00000098H.5 SFRSYM    DATA     BIT       TMR4CN0_TF4LEN
      000000D0H   SFRSYM    DATA     BYTE      PSW
      000000F7H   SFRSYM    DATA     BYTE      PCA0PWM
      000000F7H   SFRSYM    DATA     BYTE      SPI0FCT
      000000B6H   SFRSYM    DATA     BYTE      REVID
      000000B7H   SFRSYM    DATA     BYTE      FLKEY
      000000B3H   SFRSYM    DATA     BYTE      ADC0AC
      00000007H   SYMBOL    DATA     BYTE      SFRPAGE_save

      ---         MODULE    ---      ---       MAIN
      020003ACH   PUBLIC    XDATA    ---       buffer
      020003A8H   PUBLIC    XDATA    DWORD     errorCount
      020003A7H   PUBLIC    XDATA    BYTE      Debug_RD2
      020003A6H   PUBLIC    XDATA    BYTE      Debug_RD1
      01002F8AH   PUBLIC    CODE     ---       main
      010029F9H   PUBLIC    CODE     ---       InitGlobalVariable
      01000021H   PUBLIC    CODE     ---       SiLabs_Startup
      000000A2H   SFRSYM    DATA     BYTE      SPI0CKR
      00000080H   SFRSYM    DATA     BYTE      P0
      000000C8H.6 SFRSYM    DATA     BIT       SCON1_PERR
      000000D0H.2 SFRSYM    DATA     BIT       PSW_OV
      00000090H   SFRSYM    DATA     BYTE      P1
      000000F8H.1 SFRSYM    DATA     BIT       SPI0CN0_TXNF
      00000097H   SFRSYM    DATA     BYTE      WDTCN
      000000A0H   SFRSYM    DATA     BYTE      P2
      000000B0H   SFRSYM    DATA     BYTE      P3
      000000BCH   SFRSYM    DATA     BYTE      ADC0CF
      000000C0H.7 SFRSYM    DATA     BIT       SMB0CN0_MASTER
LX51 LINKER/LOCATER V4.66.30.0                                                        08/11/2020  17:20:48  PAGE 85


      000000F9H   SFRSYM    DATA     WORD      PCA0
      000000E6H   SFRSYM    DATA     BYTE      EIE1
      000000C0H.1 SFRSYM    DATA     BIT       SMB0CN0_ACK
      000000CEH   SFRSYM    DATA     BYTE      EIE2
      0000008FH   SFRSYM    DATA     BYTE      PSCTL
      000000E4H   SFRSYM    DATA     BYTE      IT01CF
      000000C0H.6 SFRSYM    DATA     BIT       SMB0CN0_TXMODE
      000000ADH   SFRSYM    DATA     BYTE      DERIVID
      000000A7H   SFRSYM    DATA     BYTE      SFRPAGE
      000000A4H   SFRSYM    DATA     BYTE      P0MDOUT
      000000A5H   SFRSYM    DATA     BYTE      P1MDOUT
      000000E8H.5 SFRSYM    DATA     BIT       ADC0CN0_ADINT
      000000CBH   SFRSYM    DATA     BYTE      TMR2RLH
      000000A6H   SFRSYM    DATA     BYTE      P2MDOUT
      000000A8H   SFRSYM    DATA     BYTE      IE
      00000093H   SFRSYM    DATA     BYTE      TMR3RLH
      0000009CH   SFRSYM    DATA     BYTE      P3MDOUT
      000000A3H   SFRSYM    DATA     BYTE      TMR4RLH
      000000F3H   SFRSYM    DATA     BYTE      EIP1
      000000F4H   SFRSYM    DATA     BYTE      EIP2
      00000098H.2 SFRSYM    DATA     BIT       SCON0_RB8
      000000CAH   SFRSYM    DATA     BYTE      TMR2RLL
      000000FCH   SFRSYM    DATA     BYTE      PCA0CPH0
      00000092H   SFRSYM    DATA     BYTE      TMR3RLL
      000000EAH   SFRSYM    DATA     BYTE      PCA0CPH1
      00000098H.3 SFRSYM    DATA     BIT       SCON0_TB8
      000000F0H   SFRSYM    DATA     BIT       B_B0
      00000082H   SFRSYM    DATA     WORD      DP
      000000A2H   SFRSYM    DATA     BYTE      TMR4RLL
      000000ECH   SFRSYM    DATA     BYTE      PCA0CPH2
      000000F0H.1 SFRSYM    DATA     BIT       B_B1
      000000C3H   SFRSYM    DATA     WORD      ADC0GT
      000000BDH   SFRSYM    DATA     BYTE      I2C0SLAD
      000000D8H.3 SFRSYM    DATA     BIT       UART1FCN1_RFRQ
      000000F0H.2 SFRSYM    DATA     BIT       B_B2
      000000CFH   SFRSYM    DATA     BYTE      SFRPGCN
      000000FBH   SFRSYM    DATA     BYTE      PCA0CPL0
      000000F0H.3 SFRSYM    DATA     BIT       B_B3
      000000D9H   SFRSYM    DATA     BYTE      PCA0MD
      000000DAH   SFRSYM    DATA     BYTE      PCA0CPM0
      000000E9H   SFRSYM    DATA     BYTE      PCA0CPL1
      000000D8H.7 SFRSYM    DATA     BIT       UART1FCN1_TFRQ
      000000F0H.4 SFRSYM    DATA     BIT       B_B4
      000000DBH   SFRSYM    DATA     BYTE      PCA0CPM1
      000000EBH   SFRSYM    DATA     BYTE      PCA0CPL2
      000000F0H.5 SFRSYM    DATA     BIT       B_B5
      000000DCH   SFRSYM    DATA     BYTE      PCA0CPM2
      000000B8H   SFRSYM    DATA     BYTE      IP
      000000B9H   SFRSYM    DATA     BYTE      ADC0TK
      000000F0H.6 SFRSYM    DATA     BIT       B_B6
      000000C5H   SFRSYM    DATA     WORD      ADC0LT
      000000D8H.6 SFRSYM    DATA     BIT       UART1FCN1_TXNF
      00000098H.5 SFRSYM    DATA     BIT       SCON0_MCE
      000000F0H.7 SFRSYM    DATA     BIT       B_B7
      000000C3H   SFRSYM    DATA     BYTE      SMB0FCN0
      000000E1H   SFRSYM    DATA     BYTE      XBR0
      000000C4H   SFRSYM    DATA     BYTE      SMB0FCN1
      000000C1H   SFRSYM    DATA     BYTE      SMB0CF
      000000E2H   SFRSYM    DATA     BYTE      XBR1
      000000C1H   SFRSYM    DATA     BYTE      PFE0CN
      000000E7H   SFRSYM    DATA     BYTE      EMI0CN
      000000C0H.5 SFRSYM    DATA     BIT       SMB0CN0_STA
LX51 LINKER/LOCATER V4.66.30.0                                                        08/11/2020  17:20:48  PAGE 86


      000000E3H   SFRSYM    DATA     BYTE      XBR2
      000000BBH   SFRSYM    DATA     BYTE      ADC0MX
      000000E0H   SFRSYM    DATA     BIT       ACC_ACC0
      000000D1H   SFRSYM    DATA     BYTE      REF0CN
      0000008EH   SFRSYM    DATA     BYTE      CKCON0
      000000E0H.1 SFRSYM    DATA     BIT       ACC_ACC1
      000000C9H   SFRSYM    DATA     BYTE      REG0CN
      000000DDH   SFRSYM    DATA     BYTE      CRC0IN
      000000A6H   SFRSYM    DATA     BYTE      CKCON1
      000000C8H.2 SFRSYM    DATA     BIT       TMR2CN0_TR2
      000000E0H.2 SFRSYM    DATA     BIT       ACC_ACC2
      000000C6H   SFRSYM    DATA     BYTE      REG1CN
      000000E0H.3 SFRSYM    DATA     BIT       ACC_ACC3
      00000081H   SFRSYM    DATA     BYTE      SP
      0000009DH   SFRSYM    DATA     BYTE      CMP0MD
      000000E0H.4 SFRSYM    DATA     BIT       ACC_ACC4
      000000B1H   SFRSYM    DATA     BYTE      LFO0CN
      000000ABH   SFRSYM    DATA     BYTE      CMP1MD
      000000D8H   SFRSYM    DATA     BIT       PCA0CN0_CCF0
      000000E0H.5 SFRSYM    DATA     BIT       ACC_ACC5
      00000098H.2 SFRSYM    DATA     BIT       TMR4CN0_TR4
      000000D8H.1 SFRSYM    DATA     BIT       PCA0CN0_CCF1
      000000E0H.6 SFRSYM    DATA     BIT       ACC_ACC6
      000000CCH   SFRSYM    DATA     WORD      TMR2
      0000009AH   SFRSYM    DATA     BYTE      SPI0FCN0
      000000D8H.2 SFRSYM    DATA     BIT       PCA0CN0_CCF2
      000000E0H.7 SFRSYM    DATA     BIT       ACC_ACC7
      00000094H   SFRSYM    DATA     WORD      TMR3
      0000009BH   SFRSYM    DATA     BYTE      SPI0FCN1
      000000A4H   SFRSYM    DATA     WORD      TMR4
      00000094H   SFRSYM    DATA     BYTE      SBCON1
      000000C0H.3 SFRSYM    DATA     BIT       SMB0CN0_ACKRQ
      000000FFH   SFRSYM    DATA     BYTE      VDM0CN
      000000F1H   SFRSYM    DATA     BYTE      P0MDIN
      00000098H.4 SFRSYM    DATA     BIT       SCON0_REN
      000000ACH   SFRSYM    DATA     BYTE      SMB0TC
      000000F2H   SFRSYM    DATA     BYTE      P1MDIN
      000000C8H.4 SFRSYM    DATA     BIT       SCON1_REN
      000000F3H   SFRSYM    DATA     BYTE      P2MDIN
      000000C0H.4 SFRSYM    DATA     BIT       SMB0CN0_STO
      000000F4H   SFRSYM    DATA     BYTE      P3MDIN
      000000B9H   SFRSYM    DATA     BYTE      I2C0STAT
      000000BBH   SFRSYM    DATA     BYTE      I2C0DOUT
      00000096H   SFRSYM    DATA     BYTE      SBRLH1
      000000FEH   SFRSYM    DATA     BYTE      P0MASK
      000000D8H.5 SFRSYM    DATA     BIT       UART1FCN1_TXHOLD
      000000EEH   SFRSYM    DATA     BYTE      P1MASK
      000000FCH   SFRSYM    DATA     BYTE      P2MASK
      000000D0H.3 SFRSYM    DATA     BIT       PSW_RS0
      000000D8H.7 SFRSYM    DATA     BIT       PCA0CN0_CF
      0000009EH   SFRSYM    DATA     BYTE      PCA0CENT
      000000BAH   SFRSYM    DATA     BYTE      I2C0CN0
      000000D2H   SFRSYM    DATA     BYTE      CRC0ST
      000000F8H.4 SFRSYM    DATA     BIT       SPI0CN0_RXOVRN
      000000D0H.4 SFRSYM    DATA     BIT       PSW_RS1
      00000095H   SFRSYM    DATA     BYTE      SBRLL1
      000000C8H.2 SFRSYM    DATA     BIT       SCON1_RBX
      000000C8H   SFRSYM    DATA     BIT       TMR2CN0_T2XCLK0
      000000C8H.1 SFRSYM    DATA     BIT       TMR2CN0_T2XCLK1
      000000C8H.3 SFRSYM    DATA     BIT       SCON1_TBX
      000000E8H.7 SFRSYM    DATA     BIT       ADC0CN0_ADEN
      00000089H   SFRSYM    DATA     BYTE      TMOD
LX51 LINKER/LOCATER V4.66.30.0                                                        08/11/2020  17:20:48  PAGE 87


      00000088H   SFRSYM    DATA     BYTE      TCON
      000000CFH   SFRSYM    DATA     BYTE      CRC0FLIP
      000000D0H   SFRSYM    DATA     BIT       PSW_PARITY
      000000A8H.4 SFRSYM    DATA     BIT       IE_ES0
      0000009FH   SFRSYM    DATA     BYTE      CMP0MX
      00000098H   SFRSYM    DATA     BIT       TMR4CN0_T4XCLK0
      000000A8H.1 SFRSYM    DATA     BIT       IE_ET0
      000000AAH   SFRSYM    DATA     BYTE      CMP1MX
      00000098H.1 SFRSYM    DATA     BIT       TMR4CN0_T4XCLK1
      000000A8H.3 SFRSYM    DATA     BIT       IE_ET1
      000000D4H   SFRSYM    DATA     BYTE      P0SKIP
      000000D8H   SFRSYM    DATA     BIT       UART1FCN1_RIE
      000000A8H.5 SFRSYM    DATA     BIT       IE_ET2
      000000D5H   SFRSYM    DATA     BYTE      P1SKIP
      000000CCH   SFRSYM    DATA     BYTE      P2SKIP
      000000E8H   SFRSYM    DATA     BYTE      ADC0CN0
      000000D8H.4 SFRSYM    DATA     BIT       UART1FCN1_TIE
      000000A8H   SFRSYM    DATA     BIT       IE_EX0
      000000B2H   SFRSYM    DATA     BYTE      ADC0CN1
      000000D8H.6 SFRSYM    DATA     BIT       PCA0CN0_CR
      000000A8H.2 SFRSYM    DATA     BIT       IE_EX1
      000000C8H.7 SFRSYM    DATA     BIT       SCON1_OVR
      00000098H.7 SFRSYM    DATA     BIT       SCON0_SMODE
      000000B5H   SFRSYM    DATA     BYTE      DEVICEID
      000000A9H   SFRSYM    DATA     BYTE      CLKSEL
      000000F8H   SFRSYM    DATA     BIT       SPI0CN0_SPIEN
      000000F0H   SFRSYM    DATA     BYTE      B
      000000BEH   SFRSYM    DATA     BYTE      ADC0H
      000000E8H.6 SFRSYM    DATA     BIT       ADC0CN0_ADBMEN
      000000CAH   SFRSYM    DATA     WORD      TMR2RL
      000000BDH   SFRSYM    DATA     BYTE      ADC0L
      00000092H   SFRSYM    DATA     WORD      TMR3RL
      000000A2H   SFRSYM    DATA     WORD      TMR4RL
      000000D8H   SFRSYM    DATA     BYTE      PCA0CN0
      000000E0H   SFRSYM    DATA     BYTE      ACC
      000000FBH   SFRSYM    DATA     WORD      PCA0CP0
      000000E9H   SFRSYM    DATA     WORD      PCA0CP1
      000000EBH   SFRSYM    DATA     WORD      PCA0CP2
      000000BCH   SFRSYM    DATA     BYTE      I2C0DIN
      000000CEH   SFRSYM    DATA     BYTE      CRC0CN0
      0000008CH   SFRSYM    DATA     BYTE      TH0
      00000086H   SFRSYM    DATA     BYTE      CRC0CN1
      000000B8H.4 SFRSYM    DATA     BIT       IP_PS0
      000000FAH   SFRSYM    DATA     BYTE      UART1FCT
      0000008DH   SFRSYM    DATA     BYTE      TH1
      000000FAH   SFRSYM    DATA     BYTE      PCA0H
      000000F5H   SFRSYM    DATA     BYTE      I2C0FCT
      000000B8H.1 SFRSYM    DATA     BIT       IP_PT0
      000000B8H.3 SFRSYM    DATA     BIT       IP_PT1
      000000C0H.2 SFRSYM    DATA     BIT       SMB0CN0_ARBLOST
      000000B8H.5 SFRSYM    DATA     BIT       IP_PT2
      0000008AH   SFRSYM    DATA     BYTE      TL0
      000000D0H.5 SFRSYM    DATA     BIT       PSW_F0
      000000A8H.6 SFRSYM    DATA     BIT       IE_ESPI0
      0000008BH   SFRSYM    DATA     BYTE      TL1
      000000F9H   SFRSYM    DATA     BYTE      PCA0L
      000000C0H   SFRSYM    DATA     BIT       SMB0CN0_SI
      000000D0H.1 SFRSYM    DATA     BIT       PSW_F1
      00000080H   SFRSYM    DATA     BIT       P0_B0
      000000B8H   SFRSYM    DATA     BIT       IP_PX0
      00000090H   SFRSYM    DATA     BIT       P1_B0
      00000080H.1 SFRSYM    DATA     BIT       P0_B1
LX51 LINKER/LOCATER V4.66.30.0                                                        08/11/2020  17:20:48  PAGE 88


      000000B8H.2 SFRSYM    DATA     BIT       IP_PX1
      0000009EH   SFRSYM    DATA     BYTE      UART1LIN
      0000009BH   SFRSYM    DATA     BYTE      CMP0CN0
      00000088H.1 SFRSYM    DATA     BIT       TCON_IE0
      000000A0H   SFRSYM    DATA     BIT       P2_B0
      00000090H.1 SFRSYM    DATA     BIT       P1_B1
      00000080H.2 SFRSYM    DATA     BIT       P0_B2
      000000BFH   SFRSYM    DATA     BYTE      CMP1CN0
      00000099H   SFRSYM    DATA     BYTE      CMP0CN1
      00000088H.3 SFRSYM    DATA     BIT       TCON_IE1
      000000B0H   SFRSYM    DATA     BIT       P3_B0
      000000A0H.1 SFRSYM    DATA     BIT       P2_B1
      00000090H.2 SFRSYM    DATA     BIT       P1_B2
      00000080H.3 SFRSYM    DATA     BIT       P0_B3
      000000C0H   SFRSYM    DATA     BYTE      SMB0CN0
      000000ACH   SFRSYM    DATA     BYTE      CMP1CN1
      000000B0H.1 SFRSYM    DATA     BIT       P3_B1
      000000A0H.2 SFRSYM    DATA     BIT       P2_B2
      00000090H.3 SFRSYM    DATA     BIT       P1_B3
      00000080H.4 SFRSYM    DATA     BIT       P0_B4
      000000A0H.3 SFRSYM    DATA     BIT       P2_B3
      00000090H.4 SFRSYM    DATA     BIT       P1_B4
      00000080H.5 SFRSYM    DATA     BIT       P0_B5
      000000D8H.1 SFRSYM    DATA     BIT       UART1FCN1_RXTO0
      00000090H.5 SFRSYM    DATA     BIT       P1_B5
      00000080H.6 SFRSYM    DATA     BIT       P0_B6
      000000F5H   SFRSYM    DATA     BYTE      EIP1H
      000000D8H.2 SFRSYM    DATA     BIT       UART1FCN1_RXTO1
      00000090H.6 SFRSYM    DATA     BIT       P1_B6
      00000080H.7 SFRSYM    DATA     BIT       P0_B7
      000000C5H   SFRSYM    DATA     BYTE      SMB0RXLN
      000000F6H   SFRSYM    DATA     BYTE      EIP2H
      00000090H.7 SFRSYM    DATA     BIT       P1_B7
      00000083H   SFRSYM    DATA     BYTE      DPH
      000000C4H   SFRSYM    DATA     BYTE      ADC0GTH
      000000C8H.7 SFRSYM    DATA     BIT       TMR2CN0_TF2H
      000000C8H.3 SFRSYM    DATA     BIT       TMR2CN0_T2SPLIT
      000000D0H.6 SFRSYM    DATA     BIT       PSW_AC
      000000F8H   SFRSYM    DATA     BYTE      SPI0CN0
      000000C7H   SFRSYM    DATA     BYTE      HFO0CAL
      00000088H.5 SFRSYM    DATA     BIT       TCON_TF0
      00000098H   SFRSYM    DATA     BIT       SCON0_RI
      000000D6H   SFRSYM    DATA     BYTE      HFO1CAL
      00000082H   SFRSYM    DATA     BYTE      DPL
      00000088H.7 SFRSYM    DATA     BIT       TCON_TF1
      000000C8H   SFRSYM    DATA     BIT       SCON1_RI
      00000099H   SFRSYM    DATA     BYTE      SBUF0
      00000087H   SFRSYM    DATA     BYTE      PCON0
      000000F2H   SFRSYM    DATA     BYTE      IPH
      000000C3H   SFRSYM    DATA     BYTE      ADC0GTL
      00000098H.7 SFRSYM    DATA     BIT       TMR4CN0_TF4H
      00000098H.3 SFRSYM    DATA     BIT       TMR4CN0_T4SPLIT
      000000C8H.6 SFRSYM    DATA     BIT       TMR2CN0_TF2L
      00000098H.1 SFRSYM    DATA     BIT       SCON0_TI
      000000E8H   SFRSYM    DATA     BIT       ADC0CN0_ADCM0
      00000092H   SFRSYM    DATA     BYTE      SBUF1
      0000009AH   SFRSYM    DATA     BYTE      PCON1
      000000C6H   SFRSYM    DATA     BYTE      ADC0LTH
      00000088H   SFRSYM    DATA     BIT       TCON_IT0
      000000C8H.1 SFRSYM    DATA     BIT       SCON1_TI
      000000E8H.1 SFRSYM    DATA     BIT       ADC0CN0_ADCM1
      000000EFH   SFRSYM    DATA     BYTE      RSTSRC
LX51 LINKER/LOCATER V4.66.30.0                                                        08/11/2020  17:20:48  PAGE 89


      000000FDH   SFRSYM    DATA     BYTE      P0MAT
      000000DEH   SFRSYM    DATA     BYTE      CRC0DAT
      00000088H.2 SFRSYM    DATA     BIT       TCON_IT1
      000000E8H.2 SFRSYM    DATA     BIT       ADC0CN0_ADCM2
      000000D7H   SFRSYM    DATA     BYTE      SFRSTACK
      00000098H   SFRSYM    DATA     BYTE      SCON0
      000000F6H   SFRSYM    DATA     BYTE      PRTDRV
      000000EDH   SFRSYM    DATA     BYTE      P1MAT
      000000E8H.3 SFRSYM    DATA     BIT       ADC0CN0_ADWINT
      00000095H   SFRSYM    DATA     WORD      SBRL1
      00000093H   SFRSYM    DATA     BYTE      SMOD1
      000000C8H   SFRSYM    DATA     BYTE      SCON1
      000000FBH   SFRSYM    DATA     BYTE      P2MAT
      00000098H.6 SFRSYM    DATA     BIT       TMR4CN0_TF4L
      000000E8H.4 SFRSYM    DATA     BIT       ADC0CN0_ADBUSY
      000000D6H   SFRSYM    DATA     BYTE      SMB0ADM
      000000C5H   SFRSYM    DATA     BYTE      ADC0LTL
      000000F8H.5 SFRSYM    DATA     BIT       SPI0CN0_MODF
      000000B8H.6 SFRSYM    DATA     BIT       IP_PSPI0
      0000009CH   SFRSYM    DATA     BYTE      PCA0CLR
      000000C8H   SFRSYM    DATA     BYTE      TMR2CN0
      00000091H   SFRSYM    DATA     BYTE      TMR3CN0
      000000FDH   SFRSYM    DATA     BYTE      TMR2CN1
      00000098H   SFRSYM    DATA     BYTE      TMR4CN0
      000000FEH   SFRSYM    DATA     BYTE      TMR3CN1
      000000FFH   SFRSYM    DATA     BYTE      TMR4CN1
      000000D7H   SFRSYM    DATA     BYTE      SMB0ADR
      00000088H.4 SFRSYM    DATA     BIT       TCON_TR0
      000000C8H.4 SFRSYM    DATA     BIT       TMR2CN0_TF2CEN
      00000088H.6 SFRSYM    DATA     BIT       TCON_TR1
      000000C2H   SFRSYM    DATA     BYTE      SMB0DAT
      000000CDH   SFRSYM    DATA     BYTE      TMR2H
      000000A1H   SFRSYM    DATA     BYTE      SPI0CFG
      00000095H   SFRSYM    DATA     BYTE      TMR3H
      000000EFH   SFRSYM    DATA     BYTE      HFOCN
      000000D3H   SFRSYM    DATA     BYTE      CRC0CNT
      000000A5H   SFRSYM    DATA     BYTE      TMR4H
      00000098H.4 SFRSYM    DATA     BIT       TMR4CN0_TF4CEN
      000000EFH   SFRSYM    DATA     BYTE      SMB0FCT
      00000096H   SFRSYM    DATA     BYTE      PCA0POL
      000000CCH   SFRSYM    DATA     BYTE      TMR2L
      000000F8H.7 SFRSYM    DATA     BIT       SPI0CN0_SPIF
      00000094H   SFRSYM    DATA     BYTE      TMR3L
      000000DFH   SFRSYM    DATA     BYTE      ADC0PWR
      000000A8H.7 SFRSYM    DATA     BIT       IE_EA
      000000A4H   SFRSYM    DATA     BYTE      TMR4L
      000000C8H.5 SFRSYM    DATA     BIT       TMR2CN0_TF2LEN
      000000F8H.6 SFRSYM    DATA     BIT       SPI0CN0_WCOL
      000000F8H.2 SFRSYM    DATA     BIT       SPI0CN0_NSSMD0
      000000D0H.7 SFRSYM    DATA     BIT       PSW_CY
      0000009DH   SFRSYM    DATA     BYTE      UART1FCN0
      000000A3H   SFRSYM    DATA     BYTE      SPI0DAT
      000000ADH   SFRSYM    DATA     BYTE      I2C0FCN0
      000000F8H.3 SFRSYM    DATA     BIT       SPI0CN0_NSSMD1
      000000BDH   SFRSYM    DATA     WORD      ADC0
      000000D8H   SFRSYM    DATA     BYTE      UART1FCN1
      000000ABH   SFRSYM    DATA     BYTE      I2C0FCN1
      00000098H.5 SFRSYM    DATA     BIT       TMR4CN0_TF4LEN
      000000D0H   SFRSYM    DATA     BYTE      PSW
      000000F7H   SFRSYM    DATA     BYTE      PCA0PWM
      000000F7H   SFRSYM    DATA     BYTE      SPI0FCT
      000000B6H   SFRSYM    DATA     BYTE      REVID
LX51 LINKER/LOCATER V4.66.30.0                                                        08/11/2020  17:20:48  PAGE 90


      000000B7H   SFRSYM    DATA     BYTE      FLKEY
      000000B3H   SFRSYM    DATA     BYTE      ADC0AC

      01000021H   BLOCK     CODE     ---       LVL=0
      01000021H   LINE      CODE     ---       #38
      01000021H   LINE      CODE     ---       #39
      01000021H   LINE      CODE     ---       #40
      ---         BLOCKEND  ---      ---       LVL=0

      010029F9H   BLOCK     CODE     ---       LVL=0
      010029F9H   BLOCK     CODE     NEAR LAB  LVL=1
      00000003H   SYMBOL    DATA     BYTE      i
      ---         BLOCKEND  ---      ---       LVL=1
      010029F9H   LINE      CODE     ---       #42
      010029F9H   LINE      CODE     ---       #43
      010029F9H   LINE      CODE     ---       #45
      010029FCH   LINE      CODE     ---       #48
      010029FFH   LINE      CODE     ---       #49
      01002A01H   LINE      CODE     ---       #50
      01002A01H   LINE      CODE     ---       #51
      01002A0DH   LINE      CODE     ---       #52
      01002A19H   LINE      CODE     ---       #53
      01002A25H   LINE      CODE     ---       #54
      01002A32H   LINE      CODE     ---       #55
      01002A37H   LINE      CODE     ---       #56
      01002A3CH   LINE      CODE     ---       #57
      01002A40H   LINE      CODE     ---       #58
      01002A44H   LINE      CODE     ---       #59
      01002A48H   LINE      CODE     ---       #60
      01002A4CH   LINE      CODE     ---       #61
      01002A50H   LINE      CODE     ---       #62
      01002A54H   LINE      CODE     ---       #63
      01002A5AH   LINE      CODE     ---       #64
      01002A5EH   LINE      CODE     ---       #65
      01002A62H   LINE      CODE     ---       #66
      01002A64H   LINE      CODE     ---       #67
      01002A66H   LINE      CODE     ---       #68
      01002A68H   LINE      CODE     ---       #69
      01002A6AH   LINE      CODE     ---       #70
      01002A78H   LINE      CODE     ---       #72
      01002A7EH   LINE      CODE     ---       #73
      01002A87H   LINE      CODE     ---       #76
      01002A89H   LINE      CODE     ---       #77
      01002A89H   LINE      CODE     ---       #78
      01002A9EH   LINE      CODE     ---       #79
      01002AB3H   LINE      CODE     ---       #80
      01002AB8H   LINE      CODE     ---       #82
      ---         BLOCKEND  ---      ---       LVL=0

      01002F8AH   BLOCK     CODE     ---       LVL=0
      01002F8AH   LINE      CODE     ---       #85
      01002F8AH   LINE      CODE     ---       #86
      01002F8AH   LINE      CODE     ---       #87
      01002F8DH   LINE      CODE     ---       #88
      01002F90H   LINE      CODE     ---       #89
      01002F95H   LINE      CODE     ---       #90
      01002F98H   LINE      CODE     ---       #91
      01002F9BH   LINE      CODE     ---       #92
      01002F9EH   LINE      CODE     ---       #93
      01002FA1H   LINE      CODE     ---       #94
      01002FA4H   LINE      CODE     ---       #95
      01002FA7H   LINE      CODE     ---       #96
LX51 LINKER/LOCATER V4.66.30.0                                                        08/11/2020  17:20:48  PAGE 91


      01002FAAH   LINE      CODE     ---       #97
      01002FB1H   LINE      CODE     ---       #99
      01002FB1H   LINE      CODE     ---       #100
      01002FB4H   LINE      CODE     ---       #101
      01002FB4H   LINE      CODE     ---       #109
      01002FBBH   LINE      CODE     ---       #110
      01002FBBH   LINE      CODE     ---       #111
      01002FBEH   LINE      CODE     ---       #112
      01002FBEH   LINE      CODE     ---       #115
      01002FC8H   LINE      CODE     ---       #116
      01002FC8H   LINE      CODE     ---       #117
      01002FCEH   LINE      CODE     ---       #118
      01002FCEH   LINE      CODE     ---       #119
      01002FD0H   LINE      CODE     ---       #120
      01002FD3H   LINE      CODE     ---       #121
      01002FE1H   LINE      CODE     ---       #122
      01002FE4H   LINE      CODE     ---       #123
      01002FE4H   LINE      CODE     ---       #124
      01002FE6H   LINE      CODE     ---       #125
      01002FEBH   LINE      CODE     ---       #128
      01002FF2H   LINE      CODE     ---       #129
      01002FF2H   LINE      CODE     ---       #130
      01002FF7H   LINE      CODE     ---       #131
      01003000H   LINE      CODE     ---       #132
      01003005H   LINE      CODE     ---       #133
      01003009H   LINE      CODE     ---       #139
      0100300BH   LINE      CODE     ---       #141
      0100300BH   LINE      CODE     ---       #142
      01003011H   LINE      CODE     ---       #143
      01003016H   LINE      CODE     ---       #144
      01003016H   LINE      CODE     ---       #145
      01003019H   LINE      CODE     ---       #146
      01003019H   LINE      CODE     ---       #147
      01003019H   LINE      CODE     ---       #148
      0100301FH   LINE      CODE     ---       #149
      0100301FH   LINE      CODE     ---       #150
      01003021H   LINE      CODE     ---       #151
      01003024H   LINE      CODE     ---       #152
      01003024H   LINE      CODE     ---       #153
      01003024H   LINE      CODE     ---       #157
      01003024H   LINE      CODE     ---       #158
      01003024H   LINE      CODE     ---       #159
      01003027H   LINE      CODE     ---       #160
      ---         BLOCKEND  ---      ---       LVL=0

      ---         MODULE    ---      ---       ?C_STARTUP
      01000000H   PUBLIC    CODE     NEAR LAB  ?C_STARTUP
      000000E0H   SFRSYM    DATA     BYTE      ACC
      000000F0H   SFRSYM    DATA     BYTE      B
      00000083H   SFRSYM    DATA     BYTE      DPH
      00000082H   SFRSYM    DATA     BYTE      DPL
      000000A0H   SFRSYM    DATA     BYTE      PPAGE_SFR
      00000081H   SFRSYM    DATA     BYTE      SP
      00000000H   SYMBOL    NUMBER   ---       IBPSTACK
      00000100H   SYMBOL    NUMBER   ---       IBPSTACKTOP
      00000080H   SYMBOL    NUMBER   ---       IDATALEN
      0100302FH   SYMBOL    CODE     NEAR LAB  IDATALOOP
      00000000H   SYMBOL    NUMBER   ---       PBPSTACK
      00000100H   SYMBOL    NUMBER   ---       PBPSTACKTOP
      00000000H   SYMBOL    NUMBER   ---       PDATALEN
      00000000H   SYMBOL    NUMBER   ---       PDATASTART
      00000000H   SYMBOL    NUMBER   ---       PPAGE
LX51 LINKER/LOCATER V4.66.30.0                                                        08/11/2020  17:20:48  PAGE 92


      00000000H   SYMBOL    NUMBER   ---       PPAGEENABLE
      01003029H   SYMBOL    CODE     NEAR LAB  STARTUP1
      00000000H   SYMBOL    NUMBER   ---       XBPSTACK
      00010000H   SYMBOL    NUMBER   ---       XBPSTACKTOP
      00000000H   SYMBOL    NUMBER   ---       XDATALEN
      00000000H   SYMBOL    NUMBER   ---       XDATASTART

      01000000H   BLOCK     CODE     NEAR LAB  LVL=0
      01000000H   LINE      CODE     ---       #126
      ---         BLOCKEND  ---      ---       LVL=0

      01003029H   BLOCK     CODE     NEAR LAB  LVL=0
      01003029H   LINE      CODE     ---       #134
      0100302CH   LINE      CODE     ---       #138
      0100302EH   LINE      CODE     ---       #139
      0100302FH   LINE      CODE     ---       #140
      01003030H   LINE      CODE     ---       #141
      01003032H   LINE      CODE     ---       #190
      01003035H   LINE      CODE     ---       #201
      ---         BLOCKEND  ---      ---       LVL=0

      ---         MODULE    ---      ---       SERIAL
      020002E9H   PUBLIC    XDATA    ---       Serial
      020002E2H   PUBLIC    XDATA    ---       Serial_ISP
      01003538H   PUBLIC    CODE     ---       RxDataParity
      01002733H   PUBLIC    CODE     ---       _Srl_GetData
      01002E42H   PUBLIC    CODE     ---       _Srl_GetHeader
      01002174H   PUBLIC    CODE     ---       PCA0_ISR
      0200038AH   PUBLIC    XDATA    BYTE      ?_Srl_SendData?BYTE
      01001E87H   PUBLIC    CODE     ---       _Srl_SendData
      01003CA6H   PUBLIC    CODE     ---       DisableInternalCommunicaiton
      01003B6AH   PUBLIC    CODE     ---       EnableInternalCommunicaiton
      0100392DH   PUBLIC    CODE     ---       _CommunicationMode
      000000A2H   SFRSYM    DATA     BYTE      SPI0CKR
      00000080H   SFRSYM    DATA     BYTE      P0
      000000C8H.6 SFRSYM    DATA     BIT       SCON1_PERR
      000000D0H.2 SFRSYM    DATA     BIT       PSW_OV
      00000090H   SFRSYM    DATA     BYTE      P1
      000000F8H.1 SFRSYM    DATA     BIT       SPI0CN0_TXNF
      00000097H   SFRSYM    DATA     BYTE      WDTCN
      000000A0H   SFRSYM    DATA     BYTE      P2
      000000B0H   SFRSYM    DATA     BYTE      P3
      000000BCH   SFRSYM    DATA     BYTE      ADC0CF
      000000C0H.7 SFRSYM    DATA     BIT       SMB0CN0_MASTER
      000000F9H   SFRSYM    DATA     WORD      PCA0
      000000E6H   SFRSYM    DATA     BYTE      EIE1
      000000C0H.1 SFRSYM    DATA     BIT       SMB0CN0_ACK
      000000CEH   SFRSYM    DATA     BYTE      EIE2
      0000008FH   SFRSYM    DATA     BYTE      PSCTL
      000000E4H   SFRSYM    DATA     BYTE      IT01CF
      000000C0H.6 SFRSYM    DATA     BIT       SMB0CN0_TXMODE
      000000ADH   SFRSYM    DATA     BYTE      DERIVID
      000000A7H   SFRSYM    DATA     BYTE      SFRPAGE
      000000A4H   SFRSYM    DATA     BYTE      P0MDOUT
      000000A5H   SFRSYM    DATA     BYTE      P1MDOUT
      000000E8H.5 SFRSYM    DATA     BIT       ADC0CN0_ADINT
      000000CBH   SFRSYM    DATA     BYTE      TMR2RLH
      000000A6H   SFRSYM    DATA     BYTE      P2MDOUT
      000000A8H   SFRSYM    DATA     BYTE      IE
      00000093H   SFRSYM    DATA     BYTE      TMR3RLH
      0000009CH   SFRSYM    DATA     BYTE      P3MDOUT
      000000A3H   SFRSYM    DATA     BYTE      TMR4RLH
LX51 LINKER/LOCATER V4.66.30.0                                                        08/11/2020  17:20:48  PAGE 93


      000000F3H   SFRSYM    DATA     BYTE      EIP1
      000000F4H   SFRSYM    DATA     BYTE      EIP2
      00000098H.2 SFRSYM    DATA     BIT       SCON0_RB8
      000000CAH   SFRSYM    DATA     BYTE      TMR2RLL
      000000FCH   SFRSYM    DATA     BYTE      PCA0CPH0
      00000092H   SFRSYM    DATA     BYTE      TMR3RLL
      000000EAH   SFRSYM    DATA     BYTE      PCA0CPH1
      00000098H.3 SFRSYM    DATA     BIT       SCON0_TB8
      000000F0H   SFRSYM    DATA     BIT       B_B0
      00000082H   SFRSYM    DATA     WORD      DP
      000000A2H   SFRSYM    DATA     BYTE      TMR4RLL
      000000ECH   SFRSYM    DATA     BYTE      PCA0CPH2
      000000F0H.1 SFRSYM    DATA     BIT       B_B1
      000000C3H   SFRSYM    DATA     WORD      ADC0GT
      000000BDH   SFRSYM    DATA     BYTE      I2C0SLAD
      000000D8H.3 SFRSYM    DATA     BIT       UART1FCN1_RFRQ
      000000F0H.2 SFRSYM    DATA     BIT       B_B2
      000000CFH   SFRSYM    DATA     BYTE      SFRPGCN
      000000FBH   SFRSYM    DATA     BYTE      PCA0CPL0
      000000F0H.3 SFRSYM    DATA     BIT       B_B3
      000000D9H   SFRSYM    DATA     BYTE      PCA0MD
      000000DAH   SFRSYM    DATA     BYTE      PCA0CPM0
      000000E9H   SFRSYM    DATA     BYTE      PCA0CPL1
      000000D8H.7 SFRSYM    DATA     BIT       UART1FCN1_TFRQ
      000000F0H.4 SFRSYM    DATA     BIT       B_B4
      000000DBH   SFRSYM    DATA     BYTE      PCA0CPM1
      000000EBH   SFRSYM    DATA     BYTE      PCA0CPL2
      000000F0H.5 SFRSYM    DATA     BIT       B_B5
      000000DCH   SFRSYM    DATA     BYTE      PCA0CPM2
      000000B8H   SFRSYM    DATA     BYTE      IP
      000000B9H   SFRSYM    DATA     BYTE      ADC0TK
      000000F0H.6 SFRSYM    DATA     BIT       B_B6
      000000C5H   SFRSYM    DATA     WORD      ADC0LT
      000000D8H.6 SFRSYM    DATA     BIT       UART1FCN1_TXNF
      00000098H.5 SFRSYM    DATA     BIT       SCON0_MCE
      000000F0H.7 SFRSYM    DATA     BIT       B_B7
      000000C3H   SFRSYM    DATA     BYTE      SMB0FCN0
      000000E1H   SFRSYM    DATA     BYTE      XBR0
      000000C4H   SFRSYM    DATA     BYTE      SMB0FCN1
      000000C1H   SFRSYM    DATA     BYTE      SMB0CF
      000000E2H   SFRSYM    DATA     BYTE      XBR1
      000000C1H   SFRSYM    DATA     BYTE      PFE0CN
      000000E7H   SFRSYM    DATA     BYTE      EMI0CN
      000000C0H.5 SFRSYM    DATA     BIT       SMB0CN0_STA
      000000E3H   SFRSYM    DATA     BYTE      XBR2
      000000BBH   SFRSYM    DATA     BYTE      ADC0MX
      000000E0H   SFRSYM    DATA     BIT       ACC_ACC0
      000000D1H   SFRSYM    DATA     BYTE      REF0CN
      0000008EH   SFRSYM    DATA     BYTE      CKCON0
      000000E0H.1 SFRSYM    DATA     BIT       ACC_ACC1
      000000C9H   SFRSYM    DATA     BYTE      REG0CN
      000000DDH   SFRSYM    DATA     BYTE      CRC0IN
      000000A6H   SFRSYM    DATA     BYTE      CKCON1
      000000C8H.2 SFRSYM    DATA     BIT       TMR2CN0_TR2
      000000E0H.2 SFRSYM    DATA     BIT       ACC_ACC2
      000000C6H   SFRSYM    DATA     BYTE      REG1CN
      000000E0H.3 SFRSYM    DATA     BIT       ACC_ACC3
      00000081H   SFRSYM    DATA     BYTE      SP
      0000009DH   SFRSYM    DATA     BYTE      CMP0MD
      000000E0H.4 SFRSYM    DATA     BIT       ACC_ACC4
      000000B1H   SFRSYM    DATA     BYTE      LFO0CN
      000000ABH   SFRSYM    DATA     BYTE      CMP1MD
LX51 LINKER/LOCATER V4.66.30.0                                                        08/11/2020  17:20:48  PAGE 94


      000000D8H   SFRSYM    DATA     BIT       PCA0CN0_CCF0
      000000E0H.5 SFRSYM    DATA     BIT       ACC_ACC5
      00000098H.2 SFRSYM    DATA     BIT       TMR4CN0_TR4
      000000D8H.1 SFRSYM    DATA     BIT       PCA0CN0_CCF1
      000000E0H.6 SFRSYM    DATA     BIT       ACC_ACC6
      000000CCH   SFRSYM    DATA     WORD      TMR2
      0000009AH   SFRSYM    DATA     BYTE      SPI0FCN0
      000000D8H.2 SFRSYM    DATA     BIT       PCA0CN0_CCF2
      000000E0H.7 SFRSYM    DATA     BIT       ACC_ACC7
      00000094H   SFRSYM    DATA     WORD      TMR3
      0000009BH   SFRSYM    DATA     BYTE      SPI0FCN1
      000000A4H   SFRSYM    DATA     WORD      TMR4
      00000094H   SFRSYM    DATA     BYTE      SBCON1
      000000C0H.3 SFRSYM    DATA     BIT       SMB0CN0_ACKRQ
      000000FFH   SFRSYM    DATA     BYTE      VDM0CN
      000000F1H   SFRSYM    DATA     BYTE      P0MDIN
      00000098H.4 SFRSYM    DATA     BIT       SCON0_REN
      000000ACH   SFRSYM    DATA     BYTE      SMB0TC
      000000F2H   SFRSYM    DATA     BYTE      P1MDIN
      000000C8H.4 SFRSYM    DATA     BIT       SCON1_REN
      000000F3H   SFRSYM    DATA     BYTE      P2MDIN
      000000C0H.4 SFRSYM    DATA     BIT       SMB0CN0_STO
      000000F4H   SFRSYM    DATA     BYTE      P3MDIN
      000000B9H   SFRSYM    DATA     BYTE      I2C0STAT
      000000BBH   SFRSYM    DATA     BYTE      I2C0DOUT
      00000096H   SFRSYM    DATA     BYTE      SBRLH1
      000000FEH   SFRSYM    DATA     BYTE      P0MASK
      000000D8H.5 SFRSYM    DATA     BIT       UART1FCN1_TXHOLD
      000000EEH   SFRSYM    DATA     BYTE      P1MASK
      000000FCH   SFRSYM    DATA     BYTE      P2MASK
      000000D0H.3 SFRSYM    DATA     BIT       PSW_RS0
      000000D8H.7 SFRSYM    DATA     BIT       PCA0CN0_CF
      0000009EH   SFRSYM    DATA     BYTE      PCA0CENT
      000000BAH   SFRSYM    DATA     BYTE      I2C0CN0
      000000D2H   SFRSYM    DATA     BYTE      CRC0ST
      000000F8H.4 SFRSYM    DATA     BIT       SPI0CN0_RXOVRN
      000000D0H.4 SFRSYM    DATA     BIT       PSW_RS1
      00000095H   SFRSYM    DATA     BYTE      SBRLL1
      000000C8H.2 SFRSYM    DATA     BIT       SCON1_RBX
      000000C8H   SFRSYM    DATA     BIT       TMR2CN0_T2XCLK0
      000000C8H.1 SFRSYM    DATA     BIT       TMR2CN0_T2XCLK1
      000000C8H.3 SFRSYM    DATA     BIT       SCON1_TBX
      000000E8H.7 SFRSYM    DATA     BIT       ADC0CN0_ADEN
      00000089H   SFRSYM    DATA     BYTE      TMOD
      00000088H   SFRSYM    DATA     BYTE      TCON
      000000CFH   SFRSYM    DATA     BYTE      CRC0FLIP
      000000D0H   SFRSYM    DATA     BIT       PSW_PARITY
      000000A8H.4 SFRSYM    DATA     BIT       IE_ES0
      0000009FH   SFRSYM    DATA     BYTE      CMP0MX
      00000098H   SFRSYM    DATA     BIT       TMR4CN0_T4XCLK0
      000000A8H.1 SFRSYM    DATA     BIT       IE_ET0
      000000AAH   SFRSYM    DATA     BYTE      CMP1MX
      00000098H.1 SFRSYM    DATA     BIT       TMR4CN0_T4XCLK1
      000000A8H.3 SFRSYM    DATA     BIT       IE_ET1
      000000D4H   SFRSYM    DATA     BYTE      P0SKIP
      000000D8H   SFRSYM    DATA     BIT       UART1FCN1_RIE
      000000A8H.5 SFRSYM    DATA     BIT       IE_ET2
      000000D5H   SFRSYM    DATA     BYTE      P1SKIP
      000000CCH   SFRSYM    DATA     BYTE      P2SKIP
      000000E8H   SFRSYM    DATA     BYTE      ADC0CN0
      000000D8H.4 SFRSYM    DATA     BIT       UART1FCN1_TIE
      000000A8H   SFRSYM    DATA     BIT       IE_EX0
LX51 LINKER/LOCATER V4.66.30.0                                                        08/11/2020  17:20:48  PAGE 95


      000000B2H   SFRSYM    DATA     BYTE      ADC0CN1
      000000D8H.6 SFRSYM    DATA     BIT       PCA0CN0_CR
      000000A8H.2 SFRSYM    DATA     BIT       IE_EX1
      000000C8H.7 SFRSYM    DATA     BIT       SCON1_OVR
      00000098H.7 SFRSYM    DATA     BIT       SCON0_SMODE
      000000B5H   SFRSYM    DATA     BYTE      DEVICEID
      000000A9H   SFRSYM    DATA     BYTE      CLKSEL
      000000F8H   SFRSYM    DATA     BIT       SPI0CN0_SPIEN
      000000F0H   SFRSYM    DATA     BYTE      B
      000000BEH   SFRSYM    DATA     BYTE      ADC0H
      000000E8H.6 SFRSYM    DATA     BIT       ADC0CN0_ADBMEN
      000000CAH   SFRSYM    DATA     WORD      TMR2RL
      000000BDH   SFRSYM    DATA     BYTE      ADC0L
      00000092H   SFRSYM    DATA     WORD      TMR3RL
      000000A2H   SFRSYM    DATA     WORD      TMR4RL
      000000D8H   SFRSYM    DATA     BYTE      PCA0CN0
      000000E0H   SFRSYM    DATA     BYTE      ACC
      000000FBH   SFRSYM    DATA     WORD      PCA0CP0
      000000E9H   SFRSYM    DATA     WORD      PCA0CP1
      000000EBH   SFRSYM    DATA     WORD      PCA0CP2
      000000BCH   SFRSYM    DATA     BYTE      I2C0DIN
      000000CEH   SFRSYM    DATA     BYTE      CRC0CN0
      0000008CH   SFRSYM    DATA     BYTE      TH0
      00000086H   SFRSYM    DATA     BYTE      CRC0CN1
      000000B8H.4 SFRSYM    DATA     BIT       IP_PS0
      000000FAH   SFRSYM    DATA     BYTE      UART1FCT
      0000008DH   SFRSYM    DATA     BYTE      TH1
      000000FAH   SFRSYM    DATA     BYTE      PCA0H
      000000F5H   SFRSYM    DATA     BYTE      I2C0FCT
      000000B8H.1 SFRSYM    DATA     BIT       IP_PT0
      000000B8H.3 SFRSYM    DATA     BIT       IP_PT1
      000000C0H.2 SFRSYM    DATA     BIT       SMB0CN0_ARBLOST
      000000B8H.5 SFRSYM    DATA     BIT       IP_PT2
      0000008AH   SFRSYM    DATA     BYTE      TL0
      000000D0H.5 SFRSYM    DATA     BIT       PSW_F0
      000000A8H.6 SFRSYM    DATA     BIT       IE_ESPI0
      0000008BH   SFRSYM    DATA     BYTE      TL1
      000000F9H   SFRSYM    DATA     BYTE      PCA0L
      000000C0H   SFRSYM    DATA     BIT       SMB0CN0_SI
      000000D0H.1 SFRSYM    DATA     BIT       PSW_F1
      00000080H   SFRSYM    DATA     BIT       P0_B0
      000000B8H   SFRSYM    DATA     BIT       IP_PX0
      00000090H   SFRSYM    DATA     BIT       P1_B0
      00000080H.1 SFRSYM    DATA     BIT       P0_B1
      000000B8H.2 SFRSYM    DATA     BIT       IP_PX1
      0000009EH   SFRSYM    DATA     BYTE      UART1LIN
      0000009BH   SFRSYM    DATA     BYTE      CMP0CN0
      00000088H.1 SFRSYM    DATA     BIT       TCON_IE0
      000000A0H   SFRSYM    DATA     BIT       P2_B0
      00000090H.1 SFRSYM    DATA     BIT       P1_B1
      00000080H.2 SFRSYM    DATA     BIT       P0_B2
      000000BFH   SFRSYM    DATA     BYTE      CMP1CN0
      00000099H   SFRSYM    DATA     BYTE      CMP0CN1
      00000088H.3 SFRSYM    DATA     BIT       TCON_IE1
      000000B0H   SFRSYM    DATA     BIT       P3_B0
      000000A0H.1 SFRSYM    DATA     BIT       P2_B1
      00000090H.2 SFRSYM    DATA     BIT       P1_B2
      00000080H.3 SFRSYM    DATA     BIT       P0_B3
      000000C0H   SFRSYM    DATA     BYTE      SMB0CN0
      000000ACH   SFRSYM    DATA     BYTE      CMP1CN1
      000000B0H.1 SFRSYM    DATA     BIT       P3_B1
      000000A0H.2 SFRSYM    DATA     BIT       P2_B2
LX51 LINKER/LOCATER V4.66.30.0                                                        08/11/2020  17:20:48  PAGE 96


      00000090H.3 SFRSYM    DATA     BIT       P1_B3
      00000080H.4 SFRSYM    DATA     BIT       P0_B4
      000000A0H.3 SFRSYM    DATA     BIT       P2_B3
      00000090H.4 SFRSYM    DATA     BIT       P1_B4
      00000080H.5 SFRSYM    DATA     BIT       P0_B5
      000000D8H.1 SFRSYM    DATA     BIT       UART1FCN1_RXTO0
      00000090H.5 SFRSYM    DATA     BIT       P1_B5
      00000080H.6 SFRSYM    DATA     BIT       P0_B6
      000000F5H   SFRSYM    DATA     BYTE      EIP1H
      000000D8H.2 SFRSYM    DATA     BIT       UART1FCN1_RXTO1
      00000090H.6 SFRSYM    DATA     BIT       P1_B6
      00000080H.7 SFRSYM    DATA     BIT       P0_B7
      000000C5H   SFRSYM    DATA     BYTE      SMB0RXLN
      000000F6H   SFRSYM    DATA     BYTE      EIP2H
      00000090H.7 SFRSYM    DATA     BIT       P1_B7
      00000083H   SFRSYM    DATA     BYTE      DPH
      000000C4H   SFRSYM    DATA     BYTE      ADC0GTH
      000000C8H.7 SFRSYM    DATA     BIT       TMR2CN0_TF2H
      000000C8H.3 SFRSYM    DATA     BIT       TMR2CN0_T2SPLIT
      000000D0H.6 SFRSYM    DATA     BIT       PSW_AC
      000000F8H   SFRSYM    DATA     BYTE      SPI0CN0
      000000C7H   SFRSYM    DATA     BYTE      HFO0CAL
      00000088H.5 SFRSYM    DATA     BIT       TCON_TF0
      00000098H   SFRSYM    DATA     BIT       SCON0_RI
      000000D6H   SFRSYM    DATA     BYTE      HFO1CAL
      00000082H   SFRSYM    DATA     BYTE      DPL
      00000088H.7 SFRSYM    DATA     BIT       TCON_TF1
      000000C8H   SFRSYM    DATA     BIT       SCON1_RI
      00000099H   SFRSYM    DATA     BYTE      SBUF0
      00000087H   SFRSYM    DATA     BYTE      PCON0
      000000F2H   SFRSYM    DATA     BYTE      IPH
      000000C3H   SFRSYM    DATA     BYTE      ADC0GTL
      00000098H.7 SFRSYM    DATA     BIT       TMR4CN0_TF4H
      00000098H.3 SFRSYM    DATA     BIT       TMR4CN0_T4SPLIT
      000000C8H.6 SFRSYM    DATA     BIT       TMR2CN0_TF2L
      00000098H.1 SFRSYM    DATA     BIT       SCON0_TI
      000000E8H   SFRSYM    DATA     BIT       ADC0CN0_ADCM0
      00000092H   SFRSYM    DATA     BYTE      SBUF1
      0000009AH   SFRSYM    DATA     BYTE      PCON1
      000000C6H   SFRSYM    DATA     BYTE      ADC0LTH
      00000088H   SFRSYM    DATA     BIT       TCON_IT0
      000000C8H.1 SFRSYM    DATA     BIT       SCON1_TI
      000000E8H.1 SFRSYM    DATA     BIT       ADC0CN0_ADCM1
      000000EFH   SFRSYM    DATA     BYTE      RSTSRC
      000000FDH   SFRSYM    DATA     BYTE      P0MAT
      000000DEH   SFRSYM    DATA     BYTE      CRC0DAT
      00000088H.2 SFRSYM    DATA     BIT       TCON_IT1
      000000E8H.2 SFRSYM    DATA     BIT       ADC0CN0_ADCM2
      000000D7H   SFRSYM    DATA     BYTE      SFRSTACK
      00000098H   SFRSYM    DATA     BYTE      SCON0
      000000F6H   SFRSYM    DATA     BYTE      PRTDRV
      000000EDH   SFRSYM    DATA     BYTE      P1MAT
      000000E8H.3 SFRSYM    DATA     BIT       ADC0CN0_ADWINT
      00000095H   SFRSYM    DATA     WORD      SBRL1
      00000093H   SFRSYM    DATA     BYTE      SMOD1
      000000C8H   SFRSYM    DATA     BYTE      SCON1
      000000FBH   SFRSYM    DATA     BYTE      P2MAT
      00000098H.6 SFRSYM    DATA     BIT       TMR4CN0_TF4L
      000000E8H.4 SFRSYM    DATA     BIT       ADC0CN0_ADBUSY
      000000D6H   SFRSYM    DATA     BYTE      SMB0ADM
      000000C5H   SFRSYM    DATA     BYTE      ADC0LTL
      000000F8H.5 SFRSYM    DATA     BIT       SPI0CN0_MODF
LX51 LINKER/LOCATER V4.66.30.0                                                        08/11/2020  17:20:48  PAGE 97


      000000B8H.6 SFRSYM    DATA     BIT       IP_PSPI0
      0000009CH   SFRSYM    DATA     BYTE      PCA0CLR
      000000C8H   SFRSYM    DATA     BYTE      TMR2CN0
      00000091H   SFRSYM    DATA     BYTE      TMR3CN0
      000000FDH   SFRSYM    DATA     BYTE      TMR2CN1
      00000098H   SFRSYM    DATA     BYTE      TMR4CN0
      000000FEH   SFRSYM    DATA     BYTE      TMR3CN1
      000000FFH   SFRSYM    DATA     BYTE      TMR4CN1
      000000D7H   SFRSYM    DATA     BYTE      SMB0ADR
      00000088H.4 SFRSYM    DATA     BIT       TCON_TR0
      000000C8H.4 SFRSYM    DATA     BIT       TMR2CN0_TF2CEN
      00000088H.6 SFRSYM    DATA     BIT       TCON_TR1
      000000C2H   SFRSYM    DATA     BYTE      SMB0DAT
      000000CDH   SFRSYM    DATA     BYTE      TMR2H
      000000A1H   SFRSYM    DATA     BYTE      SPI0CFG
      00000095H   SFRSYM    DATA     BYTE      TMR3H
      000000EFH   SFRSYM    DATA     BYTE      HFOCN
      000000D3H   SFRSYM    DATA     BYTE      CRC0CNT
      000000A5H   SFRSYM    DATA     BYTE      TMR4H
      00000098H.4 SFRSYM    DATA     BIT       TMR4CN0_TF4CEN
      000000EFH   SFRSYM    DATA     BYTE      SMB0FCT
      00000096H   SFRSYM    DATA     BYTE      PCA0POL
      000000CCH   SFRSYM    DATA     BYTE      TMR2L
      000000F8H.7 SFRSYM    DATA     BIT       SPI0CN0_SPIF
      00000094H   SFRSYM    DATA     BYTE      TMR3L
      000000DFH   SFRSYM    DATA     BYTE      ADC0PWR
      000000A8H.7 SFRSYM    DATA     BIT       IE_EA
      000000A4H   SFRSYM    DATA     BYTE      TMR4L
      000000C8H.5 SFRSYM    DATA     BIT       TMR2CN0_TF2LEN
      000000F8H.6 SFRSYM    DATA     BIT       SPI0CN0_WCOL
      000000F8H.2 SFRSYM    DATA     BIT       SPI0CN0_NSSMD0
      000000D0H.7 SFRSYM    DATA     BIT       PSW_CY
      0000009DH   SFRSYM    DATA     BYTE      UART1FCN0
      000000A3H   SFRSYM    DATA     BYTE      SPI0DAT
      000000ADH   SFRSYM    DATA     BYTE      I2C0FCN0
      000000F8H.3 SFRSYM    DATA     BIT       SPI0CN0_NSSMD1
      000000BDH   SFRSYM    DATA     WORD      ADC0
      000000D8H   SFRSYM    DATA     BYTE      UART1FCN1
      000000ABH   SFRSYM    DATA     BYTE      I2C0FCN1
      00000098H.5 SFRSYM    DATA     BIT       TMR4CN0_TF4LEN
      000000D0H   SFRSYM    DATA     BYTE      PSW
      000000F7H   SFRSYM    DATA     BYTE      PCA0PWM
      000000F7H   SFRSYM    DATA     BYTE      SPI0FCT
      000000B6H   SFRSYM    DATA     BYTE      REVID
      000000B7H   SFRSYM    DATA     BYTE      FLKEY
      000000B3H   SFRSYM    DATA     BYTE      ADC0AC
      020002E5H   SYMBOL    XDATA    WORD      CapTime0
      020002E7H   SYMBOL    XDATA    WORD      CapTime1

      0100392DH   BLOCK     CODE     ---       LVL=0
      0200038AH   SYMBOL    XDATA    BYTE      commode
      0100392DH   LINE      CODE     ---       #23
      01003932H   LINE      CODE     ---       #24
      01003932H   LINE      CODE     ---       #25
      01003935H   LINE      CODE     ---       #26
      01003935H   LINE      CODE     ---       #27
      01003938H   LINE      CODE     ---       #28
      0100393BH   LINE      CODE     ---       #29
      0100393BH   LINE      CODE     ---       #30
      01003942H   LINE      CODE     ---       #31
      01003942H   LINE      CODE     ---       #32
      01003947H   LINE      CODE     ---       #33
LX51 LINKER/LOCATER V4.66.30.0                                                        08/11/2020  17:20:48  PAGE 98


      0100394AH   LINE      CODE     ---       #34
      0100394FH   LINE      CODE     ---       #35
      01003950H   LINE      CODE     ---       #37
      01003950H   LINE      CODE     ---       #38
      01003953H   LINE      CODE     ---       #39
      01003956H   LINE      CODE     ---       #40
      01003959H   LINE      CODE     ---       #41
      01003959H   LINE      CODE     ---       #42
      ---         BLOCKEND  ---      ---       LVL=0

      01003B6AH   BLOCK     CODE     ---       LVL=0
      01003B6AH   LINE      CODE     ---       #47
      01003B6AH   LINE      CODE     ---       #48
      01003B6AH   LINE      CODE     ---       #49
      01003B70H   LINE      CODE     ---       #50
      01003B73H   LINE      CODE     ---       #51
      01003B76H   LINE      CODE     ---       #52
      01003B79H   LINE      CODE     ---       #53
      01003B7CH   LINE      CODE     ---       #59
      01003B7FH   LINE      CODE     ---       #60
      01003B82H   LINE      CODE     ---       #61
      01003B85H   LINE      CODE     ---       #62
      01003B88H   LINE      CODE     ---       #63
      01003B8BH   LINE      CODE     ---       #65
      ---         BLOCKEND  ---      ---       LVL=0

      01003CA6H   BLOCK     CODE     ---       LVL=0
      01003CA6H   LINE      CODE     ---       #67
      01003CA6H   LINE      CODE     ---       #68
      01003CA6H   LINE      CODE     ---       #69
      01003CABH   LINE      CODE     ---       #70
      ---         BLOCKEND  ---      ---       LVL=0

      01001E87H   BLOCK     CODE     ---       LVL=0
      0200038AH   SYMBOL    XDATA    WORD      Head
      00000005H   SYMBOL    DATA     BYTE      byId
      00000003H   SYMBOL    DATA     BYTE      byIdLen
      0200038EH   SYMBOL    XDATA    WORD      byData
      02000390H   SYMBOL    XDATA    BYTE      byDataLen
      01001E8FH   BLOCK     CODE     NEAR LAB  LVL=1
      00000005H   SYMBOL    DATA     BYTE      i
      02000391H   SYMBOL    XDATA    WORD      Data
      00000001H   SYMBOL    DATA     BYTE      CheckSum
      ---         BLOCKEND  ---      ---       LVL=1
      01001E87H   LINE      CODE     ---       #93
      01001E8FH   LINE      CODE     ---       #94
      01001E8FH   LINE      CODE     ---       #97
      01001E91H   LINE      CODE     ---       #99
      01001EB0H   LINE      CODE     ---       #101
      01001EBEH   LINE      CODE     ---       #102
      01001EBEH   LINE      CODE     ---       #103
      01001EC4H   LINE      CODE     ---       #104
      01001EC6H   LINE      CODE     ---       #106
      01001EC6H   LINE      CODE     ---       #107
      01001ECBH   LINE      CODE     ---       #108
      01001ECBH   LINE      CODE     ---       #109
      01001ED9H   LINE      CODE     ---       #110
      01001EF2H   LINE      CODE     ---       #111
      01001EF2H   LINE      CODE     ---       #112
      01001F0FH   LINE      CODE     ---       #113
      01001F0FH   LINE      CODE     ---       #114
      01001F24H   LINE      CODE     ---       #115
LX51 LINKER/LOCATER V4.66.30.0                                                        08/11/2020  17:20:48  PAGE 99


      01001F39H   LINE      CODE     ---       #116
      01001F3AH   LINE      CODE     ---       #117
      01001F3CH   LINE      CODE     ---       #119
      01001F3CH   LINE      CODE     ---       #120
      01001F51H   LINE      CODE     ---       #121
      01001F66H   LINE      CODE     ---       #122
      01001F66H   LINE      CODE     ---       #123
      01001F6AH   LINE      CODE     ---       #124
      01001F6EH   LINE      CODE     ---       #125
      01001F73H   LINE      CODE     ---       #126
      01001F73H   LINE      CODE     ---       #127
      01001F8AH   LINE      CODE     ---       #128
      01001F9FH   LINE      CODE     ---       #129
      01001FA1H   LINE      CODE     ---       #131
      01001FA1H   LINE      CODE     ---       #132
      01001FB8H   LINE      CODE     ---       #133
      01001FCDH   LINE      CODE     ---       #134
      01001FCDH   LINE      CODE     ---       #135
      01001FE7H   LINE      CODE     ---       #136
      01001FFCH   LINE      CODE     ---       #138
      01002001H   LINE      CODE     ---       #139
      0100200AH   LINE      CODE     ---       #140
      ---         BLOCKEND  ---      ---       LVL=0

      01002174H   BLOCK     CODE     ---       LVL=0
      01002174H   LINE      CODE     ---       #148
      01002191H   LINE      CODE     ---       #150
      01002194H   LINE      CODE     ---       #151
      01002194H   LINE      CODE     ---       #152
      0100219CH   LINE      CODE     ---       #153
      010021ABH   LINE      CODE     ---       #154
      010021B3H   LINE      CODE     ---       #155
      010021C7H   LINE      CODE     ---       #156
      010021C7H   LINE      CODE     ---       #157
      010021CCH   LINE      CODE     ---       #158
      010021CEH   LINE      CODE     ---       #160
      010021CEH   LINE      CODE     ---       #161
      010021E9H   LINE      CODE     ---       #162
      010021E9H   LINE      CODE     ---       #165
      01002205H   LINE      CODE     ---       #166
      01002207H   LINE      CODE     ---       #167
      01002207H   LINE      CODE     ---       #168
      0100220AH   LINE      CODE     ---       #169
      0100220AH   LINE      CODE     ---       #171
      01002219H   LINE      CODE     ---       #172
      01002221H   LINE      CODE     ---       #173
      01002235H   LINE      CODE     ---       #174
      01002235H   LINE      CODE     ---       #175
      0100223AH   LINE      CODE     ---       #176
      0100223CH   LINE      CODE     ---       #178
      0100223CH   LINE      CODE     ---       #179
      01002257H   LINE      CODE     ---       #180
      01002257H   LINE      CODE     ---       #183
      01002273H   LINE      CODE     ---       #184
      01002275H   LINE      CODE     ---       #185
      01002275H   LINE      CODE     ---       #186
      01002278H   LINE      CODE     ---       #187
      01002278H   LINE      CODE     ---       #189
      0100227AH   LINE      CODE     ---       #190
      0100227AH   LINE      CODE     ---       #191
      0100227DH   LINE      CODE     ---       #192
      0100227DH   LINE      CODE     ---       #193
LX51 LINKER/LOCATER V4.66.30.0                                                        08/11/2020  17:20:48  PAGE 100


      01002284H   LINE      CODE     ---       #194
      01002284H   LINE      CODE     ---       #203
      01002286H   LINE      CODE     ---       #204
      0100229DH   LINE      CODE     ---       #205
      010022A3H   LINE      CODE     ---       #206
      010022ADH   LINE      CODE     ---       #207
      010022ADH   LINE      CODE     ---       #208
      010022B0H   LINE      CODE     ---       #209
      010022B0H   LINE      CODE     ---       #210
      010022B0H   LINE      CODE     ---       #211
      010022B2H   LINE      CODE     ---       #212
      010022B2H   LINE      CODE     ---       #213
      ---         BLOCKEND  ---      ---       LVL=0

      01002E42H   BLOCK     CODE     ---       LVL=0
      00000007H   SYMBOL    DATA     BYTE      bLevel
      00000004H   SYMBOL    DATA     WORD      wTime
      01002E42H   LINE      CODE     ---       #215
      01002E42H   LINE      CODE     ---       #216
      01002E42H   LINE      CODE     ---       #217
      01002E48H   LINE      CODE     ---       #218
      01002E48H   LINE      CODE     ---       #219
      01002E57H   LINE      CODE     ---       #220
      01002E68H   LINE      CODE     ---       #221
      01002E68H   LINE      CODE     ---       #222
      01002E6BH   LINE      CODE     ---       #223
      01002E79H   LINE      CODE     ---       #224
      01002E79H   LINE      CODE     ---       #225
      01002E8AH   LINE      CODE     ---       #226
      01002E8AH   LINE      CODE     ---       #227
      01002E90H   LINE      CODE     ---       #228
      01002E9EH   LINE      CODE     ---       #229
      01002E9EH   LINE      CODE     ---       #230
      01002EAFH   LINE      CODE     ---       #231
      01002EAFH   LINE      CODE     ---       #232
      01002EB5H   LINE      CODE     ---       #233
      01002EC3H   LINE      CODE     ---       #234
      01002EC3H   LINE      CODE     ---       #235
      01002ED4H   LINE      CODE     ---       #236
      01002ED4H   LINE      CODE     ---       #237
      01002EDAH   LINE      CODE     ---       #238
      01002EE8H   LINE      CODE     ---       #239
      01002EE8H   LINE      CODE     ---       #240
      01002EE8H   LINE      CODE     ---       #241
      ---         BLOCKEND  ---      ---       LVL=0

      01002733H   BLOCK     CODE     ---       LVL=0
      02000388H   SYMBOL    XDATA    BYTE      bLevel
      02000389H   SYMBOL    XDATA    WORD      wTime
      01002733H   LINE      CODE     ---       #244
      0100273EH   LINE      CODE     ---       #245
      0100273EH   LINE      CODE     ---       #246
      0100275FH   LINE      CODE     ---       #248
      01002768H   LINE      CODE     ---       #249
      01002768H   LINE      CODE     ---       #250
      0100277EH   LINE      CODE     ---       #251
      0100277EH   LINE      CODE     ---       #252
      01002784H   LINE      CODE     ---       #253
      01002784H   LINE      CODE     ---       #254
      010027A6H   LINE      CODE     ---       #255
      010027ACH   LINE      CODE     ---       #256
      010027B1H   LINE      CODE     ---       #257
LX51 LINKER/LOCATER V4.66.30.0                                                        08/11/2020  17:20:48  PAGE 101


      010027B3H   LINE      CODE     ---       #259
      010027B3H   LINE      CODE     ---       #261
      010027BCH   LINE      CODE     ---       #262
      010027BCH   LINE      CODE     ---       #263
      010027C2H   LINE      CODE     ---       #264
      010027C8H   LINE      CODE     ---       #265
      010027C8H   LINE      CODE     ---       #266
      010027CAH   LINE      CODE     ---       #269
      010027CAH   LINE      CODE     ---       #270
      010027CAH   LINE      CODE     ---       #271
      010027E2H   LINE      CODE     ---       #272
      010027E2H   LINE      CODE     ---       #273
      010027E8H   LINE      CODE     ---       #274
      010027E8H   LINE      CODE     ---       #275
      010027F6H   LINE      CODE     ---       #276
      010027F7H   LINE      CODE     ---       #278
      010027F7H   LINE      CODE     ---       #279
      010027FDH   LINE      CODE     ---       #280
      01002802H   LINE      CODE     ---       #281
      01002802H   LINE      CODE     ---       #282
      01002802H   LINE      CODE     ---       #283
      01002803H   LINE      CODE     ---       #285
      01002803H   LINE      CODE     ---       #286
      0100281BH   LINE      CODE     ---       #287
      0100281BH   LINE      CODE     ---       #288
      01002820H   LINE      CODE     ---       #289
      01002820H   LINE      CODE     ---       #290
      01002831H   LINE      CODE     ---       #291
      01002831H   LINE      CODE     ---       #292
      01002837H   LINE      CODE     ---       #293
      01002837H   LINE      CODE     ---       #294
      01002837H   LINE      CODE     ---       #295
      ---         BLOCKEND  ---      ---       LVL=0

      01003538H   BLOCK     CODE     ---       LVL=0
      01003538H   BLOCK     CODE     NEAR LAB  LVL=1
      00000004H   SYMBOL    DATA     BYTE      i
      00000001H   SYMBOL    DATA     BYTE      RET
      00000005H   SYMBOL    DATA     BYTE      CheckSum
      ---         BLOCKEND  ---      ---       LVL=1
      01003538H   LINE      CODE     ---       #297
      01003538H   LINE      CODE     ---       #298
      01003538H   LINE      CODE     ---       #299
      0100353AH   LINE      CODE     ---       #300
      0100353BH   LINE      CODE     ---       #302
      01003547H   LINE      CODE     ---       #303
      01003547H   LINE      CODE     ---       #304
      01003564H   LINE      CODE     ---       #305
      01003564H   LINE      CODE     ---       #306
      01003565H   LINE      CODE     ---       #307
      01003565H   LINE      CODE     ---       #308
      01003568H   LINE      CODE     ---       #309
      0100356CH   LINE      CODE     ---       #310
      0100358EH   LINE      CODE     ---       #311
      0100358EH   LINE      CODE     ---       #312
      01003590H   LINE      CODE     ---       #313
      01003590H   LINE      CODE     ---       #314
      01003592H   LINE      CODE     ---       #315
      ---         BLOCKEND  ---      ---       LVL=0

      ---         MODULE    ---      ---       SPEAKER
      020003BBH   PUBLIC    XDATA    ---       Speaker
LX51 LINKER/LOCATER V4.66.30.0                                                        08/11/2020  17:20:48  PAGE 102


      000000A2H   SFRSYM    DATA     BYTE      SPI0CKR
      00000080H   SFRSYM    DATA     BYTE      P0
      000000C8H.6 SFRSYM    DATA     BIT       SCON1_PERR
      000000D0H.2 SFRSYM    DATA     BIT       PSW_OV
      00000090H   SFRSYM    DATA     BYTE      P1
      000000F8H.1 SFRSYM    DATA     BIT       SPI0CN0_TXNF
      00000097H   SFRSYM    DATA     BYTE      WDTCN
      000000A0H   SFRSYM    DATA     BYTE      P2
      000000B0H   SFRSYM    DATA     BYTE      P3
      000000BCH   SFRSYM    DATA     BYTE      ADC0CF
      000000C0H.7 SFRSYM    DATA     BIT       SMB0CN0_MASTER
      000000F9H   SFRSYM    DATA     WORD      PCA0
      000000E6H   SFRSYM    DATA     BYTE      EIE1
      000000C0H.1 SFRSYM    DATA     BIT       SMB0CN0_ACK
      000000CEH   SFRSYM    DATA     BYTE      EIE2
      0000008FH   SFRSYM    DATA     BYTE      PSCTL
      000000E4H   SFRSYM    DATA     BYTE      IT01CF
      000000C0H.6 SFRSYM    DATA     BIT       SMB0CN0_TXMODE
      000000ADH   SFRSYM    DATA     BYTE      DERIVID
      000000A7H   SFRSYM    DATA     BYTE      SFRPAGE
      000000A4H   SFRSYM    DATA     BYTE      P0MDOUT
      000000A5H   SFRSYM    DATA     BYTE      P1MDOUT
      000000E8H.5 SFRSYM    DATA     BIT       ADC0CN0_ADINT
      000000CBH   SFRSYM    DATA     BYTE      TMR2RLH
      000000A6H   SFRSYM    DATA     BYTE      P2MDOUT
      000000A8H   SFRSYM    DATA     BYTE      IE
      00000093H   SFRSYM    DATA     BYTE      TMR3RLH
      0000009CH   SFRSYM    DATA     BYTE      P3MDOUT
      000000A3H   SFRSYM    DATA     BYTE      TMR4RLH
      000000F3H   SFRSYM    DATA     BYTE      EIP1
      000000F4H   SFRSYM    DATA     BYTE      EIP2
      00000098H.2 SFRSYM    DATA     BIT       SCON0_RB8
      000000CAH   SFRSYM    DATA     BYTE      TMR2RLL
      000000FCH   SFRSYM    DATA     BYTE      PCA0CPH0
      00000092H   SFRSYM    DATA     BYTE      TMR3RLL
      000000EAH   SFRSYM    DATA     BYTE      PCA0CPH1
      00000098H.3 SFRSYM    DATA     BIT       SCON0_TB8
      000000F0H   SFRSYM    DATA     BIT       B_B0
      00000082H   SFRSYM    DATA     WORD      DP
      000000A2H   SFRSYM    DATA     BYTE      TMR4RLL
      000000ECH   SFRSYM    DATA     BYTE      PCA0CPH2
      000000F0H.1 SFRSYM    DATA     BIT       B_B1
      000000C3H   SFRSYM    DATA     WORD      ADC0GT
      000000BDH   SFRSYM    DATA     BYTE      I2C0SLAD
      000000D8H.3 SFRSYM    DATA     BIT       UART1FCN1_RFRQ
      000000F0H.2 SFRSYM    DATA     BIT       B_B2
      000000CFH   SFRSYM    DATA     BYTE      SFRPGCN
      000000FBH   SFRSYM    DATA     BYTE      PCA0CPL0
      000000F0H.3 SFRSYM    DATA     BIT       B_B3
      000000D9H   SFRSYM    DATA     BYTE      PCA0MD
      000000DAH   SFRSYM    DATA     BYTE      PCA0CPM0
      000000E9H   SFRSYM    DATA     BYTE      PCA0CPL1
      000000D8H.7 SFRSYM    DATA     BIT       UART1FCN1_TFRQ
      000000F0H.4 SFRSYM    DATA     BIT       B_B4
      000000DBH   SFRSYM    DATA     BYTE      PCA0CPM1
      000000EBH   SFRSYM    DATA     BYTE      PCA0CPL2
      000000F0H.5 SFRSYM    DATA     BIT       B_B5
      000000DCH   SFRSYM    DATA     BYTE      PCA0CPM2
      000000B8H   SFRSYM    DATA     BYTE      IP
      000000B9H   SFRSYM    DATA     BYTE      ADC0TK
      000000F0H.6 SFRSYM    DATA     BIT       B_B6
      000000C5H   SFRSYM    DATA     WORD      ADC0LT
LX51 LINKER/LOCATER V4.66.30.0                                                        08/11/2020  17:20:48  PAGE 103


      000000D8H.6 SFRSYM    DATA     BIT       UART1FCN1_TXNF
      00000098H.5 SFRSYM    DATA     BIT       SCON0_MCE
      000000F0H.7 SFRSYM    DATA     BIT       B_B7
      000000C3H   SFRSYM    DATA     BYTE      SMB0FCN0
      000000E1H   SFRSYM    DATA     BYTE      XBR0
      000000C4H   SFRSYM    DATA     BYTE      SMB0FCN1
      000000C1H   SFRSYM    DATA     BYTE      SMB0CF
      000000E2H   SFRSYM    DATA     BYTE      XBR1
      000000C1H   SFRSYM    DATA     BYTE      PFE0CN
      000000E7H   SFRSYM    DATA     BYTE      EMI0CN
      000000C0H.5 SFRSYM    DATA     BIT       SMB0CN0_STA
      000000E3H   SFRSYM    DATA     BYTE      XBR2
      000000BBH   SFRSYM    DATA     BYTE      ADC0MX
      000000E0H   SFRSYM    DATA     BIT       ACC_ACC0
      000000D1H   SFRSYM    DATA     BYTE      REF0CN
      0000008EH   SFRSYM    DATA     BYTE      CKCON0
      000000E0H.1 SFRSYM    DATA     BIT       ACC_ACC1
      000000C9H   SFRSYM    DATA     BYTE      REG0CN
      000000DDH   SFRSYM    DATA     BYTE      CRC0IN
      000000A6H   SFRSYM    DATA     BYTE      CKCON1
      000000C8H.2 SFRSYM    DATA     BIT       TMR2CN0_TR2
      000000E0H.2 SFRSYM    DATA     BIT       ACC_ACC2
      000000C6H   SFRSYM    DATA     BYTE      REG1CN
      000000E0H.3 SFRSYM    DATA     BIT       ACC_ACC3
      00000081H   SFRSYM    DATA     BYTE      SP
      0000009DH   SFRSYM    DATA     BYTE      CMP0MD
      000000E0H.4 SFRSYM    DATA     BIT       ACC_ACC4
      000000B1H   SFRSYM    DATA     BYTE      LFO0CN
      000000ABH   SFRSYM    DATA     BYTE      CMP1MD
      000000D8H   SFRSYM    DATA     BIT       PCA0CN0_CCF0
      000000E0H.5 SFRSYM    DATA     BIT       ACC_ACC5
      00000098H.2 SFRSYM    DATA     BIT       TMR4CN0_TR4
      000000D8H.1 SFRSYM    DATA     BIT       PCA0CN0_CCF1
      000000E0H.6 SFRSYM    DATA     BIT       ACC_ACC6
      000000CCH   SFRSYM    DATA     WORD      TMR2
      0000009AH   SFRSYM    DATA     BYTE      SPI0FCN0
      000000D8H.2 SFRSYM    DATA     BIT       PCA0CN0_CCF2
      000000E0H.7 SFRSYM    DATA     BIT       ACC_ACC7
      00000094H   SFRSYM    DATA     WORD      TMR3
      0000009BH   SFRSYM    DATA     BYTE      SPI0FCN1
      000000A4H   SFRSYM    DATA     WORD      TMR4
      00000094H   SFRSYM    DATA     BYTE      SBCON1
      000000C0H.3 SFRSYM    DATA     BIT       SMB0CN0_ACKRQ
      000000FFH   SFRSYM    DATA     BYTE      VDM0CN
      000000F1H   SFRSYM    DATA     BYTE      P0MDIN
      00000098H.4 SFRSYM    DATA     BIT       SCON0_REN
      000000ACH   SFRSYM    DATA     BYTE      SMB0TC
      000000F2H   SFRSYM    DATA     BYTE      P1MDIN
      000000C8H.4 SFRSYM    DATA     BIT       SCON1_REN
      000000F3H   SFRSYM    DATA     BYTE      P2MDIN
      000000C0H.4 SFRSYM    DATA     BIT       SMB0CN0_STO
      000000F4H   SFRSYM    DATA     BYTE      P3MDIN
      000000B9H   SFRSYM    DATA     BYTE      I2C0STAT
      000000BBH   SFRSYM    DATA     BYTE      I2C0DOUT
      00000096H   SFRSYM    DATA     BYTE      SBRLH1
      000000FEH   SFRSYM    DATA     BYTE      P0MASK
      000000D8H.5 SFRSYM    DATA     BIT       UART1FCN1_TXHOLD
      000000EEH   SFRSYM    DATA     BYTE      P1MASK
      000000FCH   SFRSYM    DATA     BYTE      P2MASK
      000000D0H.3 SFRSYM    DATA     BIT       PSW_RS0
      000000D8H.7 SFRSYM    DATA     BIT       PCA0CN0_CF
      0000009EH   SFRSYM    DATA     BYTE      PCA0CENT
LX51 LINKER/LOCATER V4.66.30.0                                                        08/11/2020  17:20:48  PAGE 104


      000000BAH   SFRSYM    DATA     BYTE      I2C0CN0
      000000D2H   SFRSYM    DATA     BYTE      CRC0ST
      000000F8H.4 SFRSYM    DATA     BIT       SPI0CN0_RXOVRN
      000000D0H.4 SFRSYM    DATA     BIT       PSW_RS1
      00000095H   SFRSYM    DATA     BYTE      SBRLL1
      000000C8H.2 SFRSYM    DATA     BIT       SCON1_RBX
      000000C8H   SFRSYM    DATA     BIT       TMR2CN0_T2XCLK0
      000000C8H.1 SFRSYM    DATA     BIT       TMR2CN0_T2XCLK1
      000000C8H.3 SFRSYM    DATA     BIT       SCON1_TBX
      000000E8H.7 SFRSYM    DATA     BIT       ADC0CN0_ADEN
      00000089H   SFRSYM    DATA     BYTE      TMOD
      00000088H   SFRSYM    DATA     BYTE      TCON
      000000CFH   SFRSYM    DATA     BYTE      CRC0FLIP
      000000D0H   SFRSYM    DATA     BIT       PSW_PARITY
      000000A8H.4 SFRSYM    DATA     BIT       IE_ES0
      0000009FH   SFRSYM    DATA     BYTE      CMP0MX
      00000098H   SFRSYM    DATA     BIT       TMR4CN0_T4XCLK0
      000000A8H.1 SFRSYM    DATA     BIT       IE_ET0
      000000AAH   SFRSYM    DATA     BYTE      CMP1MX
      00000098H.1 SFRSYM    DATA     BIT       TMR4CN0_T4XCLK1
      000000A8H.3 SFRSYM    DATA     BIT       IE_ET1
      000000D4H   SFRSYM    DATA     BYTE      P0SKIP
      000000D8H   SFRSYM    DATA     BIT       UART1FCN1_RIE
      000000A8H.5 SFRSYM    DATA     BIT       IE_ET2
      000000D5H   SFRSYM    DATA     BYTE      P1SKIP
      000000CCH   SFRSYM    DATA     BYTE      P2SKIP
      000000E8H   SFRSYM    DATA     BYTE      ADC0CN0
      000000D8H.4 SFRSYM    DATA     BIT       UART1FCN1_TIE
      000000A8H   SFRSYM    DATA     BIT       IE_EX0
      000000B2H   SFRSYM    DATA     BYTE      ADC0CN1
      000000D8H.6 SFRSYM    DATA     BIT       PCA0CN0_CR
      000000A8H.2 SFRSYM    DATA     BIT       IE_EX1
      000000C8H.7 SFRSYM    DATA     BIT       SCON1_OVR
      00000098H.7 SFRSYM    DATA     BIT       SCON0_SMODE
      000000B5H   SFRSYM    DATA     BYTE      DEVICEID
      000000A9H   SFRSYM    DATA     BYTE      CLKSEL
      000000F8H   SFRSYM    DATA     BIT       SPI0CN0_SPIEN
      000000F0H   SFRSYM    DATA     BYTE      B
      000000BEH   SFRSYM    DATA     BYTE      ADC0H
      000000E8H.6 SFRSYM    DATA     BIT       ADC0CN0_ADBMEN
      000000CAH   SFRSYM    DATA     WORD      TMR2RL
      000000BDH   SFRSYM    DATA     BYTE      ADC0L
      00000092H   SFRSYM    DATA     WORD      TMR3RL
      000000A2H   SFRSYM    DATA     WORD      TMR4RL
      000000D8H   SFRSYM    DATA     BYTE      PCA0CN0
      000000E0H   SFRSYM    DATA     BYTE      ACC
      000000FBH   SFRSYM    DATA     WORD      PCA0CP0
      000000E9H   SFRSYM    DATA     WORD      PCA0CP1
      000000EBH   SFRSYM    DATA     WORD      PCA0CP2
      000000BCH   SFRSYM    DATA     BYTE      I2C0DIN
      000000CEH   SFRSYM    DATA     BYTE      CRC0CN0
      0000008CH   SFRSYM    DATA     BYTE      TH0
      00000086H   SFRSYM    DATA     BYTE      CRC0CN1
      000000B8H.4 SFRSYM    DATA     BIT       IP_PS0
      000000FAH   SFRSYM    DATA     BYTE      UART1FCT
      0000008DH   SFRSYM    DATA     BYTE      TH1
      000000FAH   SFRSYM    DATA     BYTE      PCA0H
      000000F5H   SFRSYM    DATA     BYTE      I2C0FCT
      000000B8H.1 SFRSYM    DATA     BIT       IP_PT0
      000000B8H.3 SFRSYM    DATA     BIT       IP_PT1
      000000C0H.2 SFRSYM    DATA     BIT       SMB0CN0_ARBLOST
      000000B8H.5 SFRSYM    DATA     BIT       IP_PT2
LX51 LINKER/LOCATER V4.66.30.0                                                        08/11/2020  17:20:48  PAGE 105


      0000008AH   SFRSYM    DATA     BYTE      TL0
      000000D0H.5 SFRSYM    DATA     BIT       PSW_F0
      000000A8H.6 SFRSYM    DATA     BIT       IE_ESPI0
      0000008BH   SFRSYM    DATA     BYTE      TL1
      000000F9H   SFRSYM    DATA     BYTE      PCA0L
      000000C0H   SFRSYM    DATA     BIT       SMB0CN0_SI
      000000D0H.1 SFRSYM    DATA     BIT       PSW_F1
      00000080H   SFRSYM    DATA     BIT       P0_B0
      000000B8H   SFRSYM    DATA     BIT       IP_PX0
      00000090H   SFRSYM    DATA     BIT       P1_B0
      00000080H.1 SFRSYM    DATA     BIT       P0_B1
      000000B8H.2 SFRSYM    DATA     BIT       IP_PX1
      0000009EH   SFRSYM    DATA     BYTE      UART1LIN
      0000009BH   SFRSYM    DATA     BYTE      CMP0CN0
      00000088H.1 SFRSYM    DATA     BIT       TCON_IE0
      000000A0H   SFRSYM    DATA     BIT       P2_B0
      00000090H.1 SFRSYM    DATA     BIT       P1_B1
      00000080H.2 SFRSYM    DATA     BIT       P0_B2
      000000BFH   SFRSYM    DATA     BYTE      CMP1CN0
      00000099H   SFRSYM    DATA     BYTE      CMP0CN1
      00000088H.3 SFRSYM    DATA     BIT       TCON_IE1
      000000B0H   SFRSYM    DATA     BIT       P3_B0
      000000A0H.1 SFRSYM    DATA     BIT       P2_B1
      00000090H.2 SFRSYM    DATA     BIT       P1_B2
      00000080H.3 SFRSYM    DATA     BIT       P0_B3
      000000C0H   SFRSYM    DATA     BYTE      SMB0CN0
      000000ACH   SFRSYM    DATA     BYTE      CMP1CN1
      000000B0H.1 SFRSYM    DATA     BIT       P3_B1
      000000A0H.2 SFRSYM    DATA     BIT       P2_B2
      00000090H.3 SFRSYM    DATA     BIT       P1_B3
      00000080H.4 SFRSYM    DATA     BIT       P0_B4
      000000A0H.3 SFRSYM    DATA     BIT       P2_B3
      00000090H.4 SFRSYM    DATA     BIT       P1_B4
      00000080H.5 SFRSYM    DATA     BIT       P0_B5
      000000D8H.1 SFRSYM    DATA     BIT       UART1FCN1_RXTO0
      00000090H.5 SFRSYM    DATA     BIT       P1_B5
      00000080H.6 SFRSYM    DATA     BIT       P0_B6
      000000F5H   SFRSYM    DATA     BYTE      EIP1H
      000000D8H.2 SFRSYM    DATA     BIT       UART1FCN1_RXTO1
      00000090H.6 SFRSYM    DATA     BIT       P1_B6
      00000080H.7 SFRSYM    DATA     BIT       P0_B7
      000000C5H   SFRSYM    DATA     BYTE      SMB0RXLN
      000000F6H   SFRSYM    DATA     BYTE      EIP2H
      00000090H.7 SFRSYM    DATA     BIT       P1_B7
      00000083H   SFRSYM    DATA     BYTE      DPH
      000000C4H   SFRSYM    DATA     BYTE      ADC0GTH
      000000C8H.7 SFRSYM    DATA     BIT       TMR2CN0_TF2H
      000000C8H.3 SFRSYM    DATA     BIT       TMR2CN0_T2SPLIT
      000000D0H.6 SFRSYM    DATA     BIT       PSW_AC
      000000F8H   SFRSYM    DATA     BYTE      SPI0CN0
      000000C7H   SFRSYM    DATA     BYTE      HFO0CAL
      00000088H.5 SFRSYM    DATA     BIT       TCON_TF0
      00000098H   SFRSYM    DATA     BIT       SCON0_RI
      000000D6H   SFRSYM    DATA     BYTE      HFO1CAL
      00000082H   SFRSYM    DATA     BYTE      DPL
      00000088H.7 SFRSYM    DATA     BIT       TCON_TF1
      000000C8H   SFRSYM    DATA     BIT       SCON1_RI
      00000099H   SFRSYM    DATA     BYTE      SBUF0
      00000087H   SFRSYM    DATA     BYTE      PCON0
      000000F2H   SFRSYM    DATA     BYTE      IPH
      000000C3H   SFRSYM    DATA     BYTE      ADC0GTL
      00000098H.7 SFRSYM    DATA     BIT       TMR4CN0_TF4H
LX51 LINKER/LOCATER V4.66.30.0                                                        08/11/2020  17:20:48  PAGE 106


      00000098H.3 SFRSYM    DATA     BIT       TMR4CN0_T4SPLIT
      000000C8H.6 SFRSYM    DATA     BIT       TMR2CN0_TF2L
      00000098H.1 SFRSYM    DATA     BIT       SCON0_TI
      000000E8H   SFRSYM    DATA     BIT       ADC0CN0_ADCM0
      00000092H   SFRSYM    DATA     BYTE      SBUF1
      0000009AH   SFRSYM    DATA     BYTE      PCON1
      000000C6H   SFRSYM    DATA     BYTE      ADC0LTH
      00000088H   SFRSYM    DATA     BIT       TCON_IT0
      000000C8H.1 SFRSYM    DATA     BIT       SCON1_TI
      000000E8H.1 SFRSYM    DATA     BIT       ADC0CN0_ADCM1
      000000EFH   SFRSYM    DATA     BYTE      RSTSRC
      000000FDH   SFRSYM    DATA     BYTE      P0MAT
      000000DEH   SFRSYM    DATA     BYTE      CRC0DAT
      00000088H.2 SFRSYM    DATA     BIT       TCON_IT1
      000000E8H.2 SFRSYM    DATA     BIT       ADC0CN0_ADCM2
      000000D7H   SFRSYM    DATA     BYTE      SFRSTACK
      00000098H   SFRSYM    DATA     BYTE      SCON0
      000000F6H   SFRSYM    DATA     BYTE      PRTDRV
      000000EDH   SFRSYM    DATA     BYTE      P1MAT
      000000E8H.3 SFRSYM    DATA     BIT       ADC0CN0_ADWINT
      00000095H   SFRSYM    DATA     WORD      SBRL1
      00000093H   SFRSYM    DATA     BYTE      SMOD1
      000000C8H   SFRSYM    DATA     BYTE      SCON1
      000000FBH   SFRSYM    DATA     BYTE      P2MAT
      00000098H.6 SFRSYM    DATA     BIT       TMR4CN0_TF4L
      000000E8H.4 SFRSYM    DATA     BIT       ADC0CN0_ADBUSY
      000000D6H   SFRSYM    DATA     BYTE      SMB0ADM
      000000C5H   SFRSYM    DATA     BYTE      ADC0LTL
      000000F8H.5 SFRSYM    DATA     BIT       SPI0CN0_MODF
      000000B8H.6 SFRSYM    DATA     BIT       IP_PSPI0
      0000009CH   SFRSYM    DATA     BYTE      PCA0CLR
      000000C8H   SFRSYM    DATA     BYTE      TMR2CN0
      00000091H   SFRSYM    DATA     BYTE      TMR3CN0
      000000FDH   SFRSYM    DATA     BYTE      TMR2CN1
      00000098H   SFRSYM    DATA     BYTE      TMR4CN0
      000000FEH   SFRSYM    DATA     BYTE      TMR3CN1
      000000FFH   SFRSYM    DATA     BYTE      TMR4CN1
      000000D7H   SFRSYM    DATA     BYTE      SMB0ADR
      00000088H.4 SFRSYM    DATA     BIT       TCON_TR0
      000000C8H.4 SFRSYM    DATA     BIT       TMR2CN0_TF2CEN
      00000088H.6 SFRSYM    DATA     BIT       TCON_TR1
      000000C2H   SFRSYM    DATA     BYTE      SMB0DAT
      000000CDH   SFRSYM    DATA     BYTE      TMR2H
      000000A1H   SFRSYM    DATA     BYTE      SPI0CFG
      00000095H   SFRSYM    DATA     BYTE      TMR3H
      000000EFH   SFRSYM    DATA     BYTE      HFOCN
      000000D3H   SFRSYM    DATA     BYTE      CRC0CNT
      000000A5H   SFRSYM    DATA     BYTE      TMR4H
      00000098H.4 SFRSYM    DATA     BIT       TMR4CN0_TF4CEN
      000000EFH   SFRSYM    DATA     BYTE      SMB0FCT
      00000096H   SFRSYM    DATA     BYTE      PCA0POL
      000000CCH   SFRSYM    DATA     BYTE      TMR2L
      000000F8H.7 SFRSYM    DATA     BIT       SPI0CN0_SPIF
      00000094H   SFRSYM    DATA     BYTE      TMR3L
      000000DFH   SFRSYM    DATA     BYTE      ADC0PWR
      000000A8H.7 SFRSYM    DATA     BIT       IE_EA
      000000A4H   SFRSYM    DATA     BYTE      TMR4L
      000000C8H.5 SFRSYM    DATA     BIT       TMR2CN0_TF2LEN
      000000F8H.6 SFRSYM    DATA     BIT       SPI0CN0_WCOL
      000000F8H.2 SFRSYM    DATA     BIT       SPI0CN0_NSSMD0
      000000D0H.7 SFRSYM    DATA     BIT       PSW_CY
      0000009DH   SFRSYM    DATA     BYTE      UART1FCN0
LX51 LINKER/LOCATER V4.66.30.0                                                        08/11/2020  17:20:48  PAGE 107


      000000A3H   SFRSYM    DATA     BYTE      SPI0DAT
      000000ADH   SFRSYM    DATA     BYTE      I2C0FCN0
      000000F8H.3 SFRSYM    DATA     BIT       SPI0CN0_NSSMD1
      000000BDH   SFRSYM    DATA     WORD      ADC0
      000000D8H   SFRSYM    DATA     BYTE      UART1FCN1
      000000ABH   SFRSYM    DATA     BYTE      I2C0FCN1
      00000098H.5 SFRSYM    DATA     BIT       TMR4CN0_TF4LEN
      000000D0H   SFRSYM    DATA     BYTE      PSW
      000000F7H   SFRSYM    DATA     BYTE      PCA0PWM
      000000F7H   SFRSYM    DATA     BYTE      SPI0FCT
      000000B6H   SFRSYM    DATA     BYTE      REVID
      000000B7H   SFRSYM    DATA     BYTE      FLKEY
      000000B3H   SFRSYM    DATA     BYTE      ADC0AC
      00000007H   SYMBOL    DATA     BYTE      WarningClass

      ---         MODULE    ---      ---       TIMER
      020003BAH   PUBLIC    XDATA    BYTE      bTimeFlag
      020003B8H   PUBLIC    XDATA    WORD      wSensorCheckTime
      020003B6H   PUBLIC    XDATA    WORD      w50msCnt
      020003B5H   PUBLIC    XDATA    BYTE      bLevel
      020003B4H   PUBLIC    XDATA    BYTE      bSensorCheckFlag
      020003B3H   PUBLIC    XDATA    BYTE      b50msFlag
      020003B1H   PUBLIC    XDATA    WORD      wTime
      010038FEH   PUBLIC    CODE     ---       TIMER3_ISR
      01003C0AH   PUBLIC    CODE     ---       TIMER4_ISR
      01000022H   PUBLIC    CODE     ---       TIMER0_ISR
      010033B1H   PUBLIC    CODE     ---       TIMER2_ISR
      0100002EH   PUBLIC    CODE     ---       _Delay1ms
      010037FEH   PUBLIC    CODE     ---       _Delay1us
      0100000EH   PUBLIC    CODE     ---       Time_StopAdcTrigger
      01003BEEH   PUBLIC    CODE     ---       Time_StartAdcTrigger
      01003ACFH   PUBLIC    CODE     ---       Time_InitAdcTriggerTimer
      01003985H   PUBLIC    CODE     ---       Time_InitTheDelayTimer
      01000026H   PUBLIC    CODE     ---       StartTheUart0Timer
      01003A56H   PUBLIC    CODE     ---       Time_InitUart0Timer
      01003BD2H   PUBLIC    CODE     ---       Time_Init32msTimer
      0100395AH   PUBLIC    CODE     ---       Time_Init1msTimer
      01003AA7H   PUBLIC    CODE     ---       _Stop_PCA0_Capture
      01003A7FH   PUBLIC    CODE     ---       _Start_PCA0_Capture
      01003CB9H   PUBLIC    CODE     ---       Stop_PCA0_Comparator
      01003C77H   PUBLIC    CODE     ---       Start_PCA0_Comparator
      01003836H   PUBLIC    CODE     ---       Time_InitPCA0
      000000A2H   SFRSYM    DATA     BYTE      SPI0CKR
      00000080H   SFRSYM    DATA     BYTE      P0
      000000C8H.6 SFRSYM    DATA     BIT       SCON1_PERR
      000000D0H.2 SFRSYM    DATA     BIT       PSW_OV
      00000090H   SFRSYM    DATA     BYTE      P1
      000000F8H.1 SFRSYM    DATA     BIT       SPI0CN0_TXNF
      00000097H   SFRSYM    DATA     BYTE      WDTCN
      000000A0H   SFRSYM    DATA     BYTE      P2
      000000B0H   SFRSYM    DATA     BYTE      P3
      000000BCH   SFRSYM    DATA     BYTE      ADC0CF
      000000C0H.7 SFRSYM    DATA     BIT       SMB0CN0_MASTER
      000000F9H   SFRSYM    DATA     WORD      PCA0
      000000E6H   SFRSYM    DATA     BYTE      EIE1
      000000C0H.1 SFRSYM    DATA     BIT       SMB0CN0_ACK
      000000CEH   SFRSYM    DATA     BYTE      EIE2
      0000008FH   SFRSYM    DATA     BYTE      PSCTL
      000000E4H   SFRSYM    DATA     BYTE      IT01CF
      000000C0H.6 SFRSYM    DATA     BIT       SMB0CN0_TXMODE
      000000ADH   SFRSYM    DATA     BYTE      DERIVID
      000000A7H   SFRSYM    DATA     BYTE      SFRPAGE
LX51 LINKER/LOCATER V4.66.30.0                                                        08/11/2020  17:20:48  PAGE 108


      000000A4H   SFRSYM    DATA     BYTE      P0MDOUT
      000000A5H   SFRSYM    DATA     BYTE      P1MDOUT
      000000E8H.5 SFRSYM    DATA     BIT       ADC0CN0_ADINT
      000000CBH   SFRSYM    DATA     BYTE      TMR2RLH
      000000A6H   SFRSYM    DATA     BYTE      P2MDOUT
      000000A8H   SFRSYM    DATA     BYTE      IE
      00000093H   SFRSYM    DATA     BYTE      TMR3RLH
      0000009CH   SFRSYM    DATA     BYTE      P3MDOUT
      000000A3H   SFRSYM    DATA     BYTE      TMR4RLH
      000000F3H   SFRSYM    DATA     BYTE      EIP1
      000000F4H   SFRSYM    DATA     BYTE      EIP2
      00000098H.2 SFRSYM    DATA     BIT       SCON0_RB8
      000000CAH   SFRSYM    DATA     BYTE      TMR2RLL
      000000FCH   SFRSYM    DATA     BYTE      PCA0CPH0
      00000092H   SFRSYM    DATA     BYTE      TMR3RLL
      000000EAH   SFRSYM    DATA     BYTE      PCA0CPH1
      00000098H.3 SFRSYM    DATA     BIT       SCON0_TB8
      000000F0H   SFRSYM    DATA     BIT       B_B0
      00000082H   SFRSYM    DATA     WORD      DP
      000000A2H   SFRSYM    DATA     BYTE      TMR4RLL
      000000ECH   SFRSYM    DATA     BYTE      PCA0CPH2
      000000F0H.1 SFRSYM    DATA     BIT       B_B1
      000000C3H   SFRSYM    DATA     WORD      ADC0GT
      000000BDH   SFRSYM    DATA     BYTE      I2C0SLAD
      000000D8H.3 SFRSYM    DATA     BIT       UART1FCN1_RFRQ
      000000F0H.2 SFRSYM    DATA     BIT       B_B2
      000000CFH   SFRSYM    DATA     BYTE      SFRPGCN
      000000FBH   SFRSYM    DATA     BYTE      PCA0CPL0
      000000F0H.3 SFRSYM    DATA     BIT       B_B3
      000000D9H   SFRSYM    DATA     BYTE      PCA0MD
      000000DAH   SFRSYM    DATA     BYTE      PCA0CPM0
      000000E9H   SFRSYM    DATA     BYTE      PCA0CPL1
      000000D8H.7 SFRSYM    DATA     BIT       UART1FCN1_TFRQ
      000000F0H.4 SFRSYM    DATA     BIT       B_B4
      000000DBH   SFRSYM    DATA     BYTE      PCA0CPM1
      000000EBH   SFRSYM    DATA     BYTE      PCA0CPL2
      000000F0H.5 SFRSYM    DATA     BIT       B_B5
      000000DCH   SFRSYM    DATA     BYTE      PCA0CPM2
      000000B8H   SFRSYM    DATA     BYTE      IP
      000000B9H   SFRSYM    DATA     BYTE      ADC0TK
      000000F0H.6 SFRSYM    DATA     BIT       B_B6
      000000C5H   SFRSYM    DATA     WORD      ADC0LT
      000000D8H.6 SFRSYM    DATA     BIT       UART1FCN1_TXNF
      00000098H.5 SFRSYM    DATA     BIT       SCON0_MCE
      000000F0H.7 SFRSYM    DATA     BIT       B_B7
      000000C3H   SFRSYM    DATA     BYTE      SMB0FCN0
      000000E1H   SFRSYM    DATA     BYTE      XBR0
      000000C4H   SFRSYM    DATA     BYTE      SMB0FCN1
      000000C1H   SFRSYM    DATA     BYTE      SMB0CF
      000000E2H   SFRSYM    DATA     BYTE      XBR1
      000000C1H   SFRSYM    DATA     BYTE      PFE0CN
      000000E7H   SFRSYM    DATA     BYTE      EMI0CN
      000000C0H.5 SFRSYM    DATA     BIT       SMB0CN0_STA
      000000E3H   SFRSYM    DATA     BYTE      XBR2
      000000BBH   SFRSYM    DATA     BYTE      ADC0MX
      000000E0H   SFRSYM    DATA     BIT       ACC_ACC0
      000000D1H   SFRSYM    DATA     BYTE      REF0CN
      0000008EH   SFRSYM    DATA     BYTE      CKCON0
      000000E0H.1 SFRSYM    DATA     BIT       ACC_ACC1
      000000C9H   SFRSYM    DATA     BYTE      REG0CN
      000000DDH   SFRSYM    DATA     BYTE      CRC0IN
      000000A6H   SFRSYM    DATA     BYTE      CKCON1
LX51 LINKER/LOCATER V4.66.30.0                                                        08/11/2020  17:20:48  PAGE 109


      000000C8H.2 SFRSYM    DATA     BIT       TMR2CN0_TR2
      000000E0H.2 SFRSYM    DATA     BIT       ACC_ACC2
      000000C6H   SFRSYM    DATA     BYTE      REG1CN
      000000E0H.3 SFRSYM    DATA     BIT       ACC_ACC3
      00000081H   SFRSYM    DATA     BYTE      SP
      0000009DH   SFRSYM    DATA     BYTE      CMP0MD
      000000E0H.4 SFRSYM    DATA     BIT       ACC_ACC4
      000000B1H   SFRSYM    DATA     BYTE      LFO0CN
      000000ABH   SFRSYM    DATA     BYTE      CMP1MD
      000000D8H   SFRSYM    DATA     BIT       PCA0CN0_CCF0
      000000E0H.5 SFRSYM    DATA     BIT       ACC_ACC5
      00000098H.2 SFRSYM    DATA     BIT       TMR4CN0_TR4
      000000D8H.1 SFRSYM    DATA     BIT       PCA0CN0_CCF1
      000000E0H.6 SFRSYM    DATA     BIT       ACC_ACC6
      000000CCH   SFRSYM    DATA     WORD      TMR2
      0000009AH   SFRSYM    DATA     BYTE      SPI0FCN0
      000000D8H.2 SFRSYM    DATA     BIT       PCA0CN0_CCF2
      000000E0H.7 SFRSYM    DATA     BIT       ACC_ACC7
      00000094H   SFRSYM    DATA     WORD      TMR3
      0000009BH   SFRSYM    DATA     BYTE      SPI0FCN1
      000000A4H   SFRSYM    DATA     WORD      TMR4
      00000094H   SFRSYM    DATA     BYTE      SBCON1
      000000C0H.3 SFRSYM    DATA     BIT       SMB0CN0_ACKRQ
      000000FFH   SFRSYM    DATA     BYTE      VDM0CN
      000000F1H   SFRSYM    DATA     BYTE      P0MDIN
      00000098H.4 SFRSYM    DATA     BIT       SCON0_REN
      000000ACH   SFRSYM    DATA     BYTE      SMB0TC
      000000F2H   SFRSYM    DATA     BYTE      P1MDIN
      000000C8H.4 SFRSYM    DATA     BIT       SCON1_REN
      000000F3H   SFRSYM    DATA     BYTE      P2MDIN
      000000C0H.4 SFRSYM    DATA     BIT       SMB0CN0_STO
      000000F4H   SFRSYM    DATA     BYTE      P3MDIN
      000000B9H   SFRSYM    DATA     BYTE      I2C0STAT
      000000BBH   SFRSYM    DATA     BYTE      I2C0DOUT
      00000096H   SFRSYM    DATA     BYTE      SBRLH1
      000000FEH   SFRSYM    DATA     BYTE      P0MASK
      000000D8H.5 SFRSYM    DATA     BIT       UART1FCN1_TXHOLD
      000000EEH   SFRSYM    DATA     BYTE      P1MASK
      000000FCH   SFRSYM    DATA     BYTE      P2MASK
      000000D0H.3 SFRSYM    DATA     BIT       PSW_RS0
      000000D8H.7 SFRSYM    DATA     BIT       PCA0CN0_CF
      0000009EH   SFRSYM    DATA     BYTE      PCA0CENT
      000000BAH   SFRSYM    DATA     BYTE      I2C0CN0
      000000D2H   SFRSYM    DATA     BYTE      CRC0ST
      000000F8H.4 SFRSYM    DATA     BIT       SPI0CN0_RXOVRN
      000000D0H.4 SFRSYM    DATA     BIT       PSW_RS1
      00000095H   SFRSYM    DATA     BYTE      SBRLL1
      000000C8H.2 SFRSYM    DATA     BIT       SCON1_RBX
      000000C8H   SFRSYM    DATA     BIT       TMR2CN0_T2XCLK0
      000000C8H.1 SFRSYM    DATA     BIT       TMR2CN0_T2XCLK1
      000000C8H.3 SFRSYM    DATA     BIT       SCON1_TBX
      000000E8H.7 SFRSYM    DATA     BIT       ADC0CN0_ADEN
      00000089H   SFRSYM    DATA     BYTE      TMOD
      00000088H   SFRSYM    DATA     BYTE      TCON
      000000CFH   SFRSYM    DATA     BYTE      CRC0FLIP
      000000D0H   SFRSYM    DATA     BIT       PSW_PARITY
      000000A8H.4 SFRSYM    DATA     BIT       IE_ES0
      0000009FH   SFRSYM    DATA     BYTE      CMP0MX
      00000098H   SFRSYM    DATA     BIT       TMR4CN0_T4XCLK0
      000000A8H.1 SFRSYM    DATA     BIT       IE_ET0
      000000AAH   SFRSYM    DATA     BYTE      CMP1MX
      00000098H.1 SFRSYM    DATA     BIT       TMR4CN0_T4XCLK1
LX51 LINKER/LOCATER V4.66.30.0                                                        08/11/2020  17:20:48  PAGE 110


      000000A8H.3 SFRSYM    DATA     BIT       IE_ET1
      000000D4H   SFRSYM    DATA     BYTE      P0SKIP
      000000D8H   SFRSYM    DATA     BIT       UART1FCN1_RIE
      000000A8H.5 SFRSYM    DATA     BIT       IE_ET2
      000000D5H   SFRSYM    DATA     BYTE      P1SKIP
      000000CCH   SFRSYM    DATA     BYTE      P2SKIP
      000000E8H   SFRSYM    DATA     BYTE      ADC0CN0
      000000D8H.4 SFRSYM    DATA     BIT       UART1FCN1_TIE
      000000A8H   SFRSYM    DATA     BIT       IE_EX0
      000000B2H   SFRSYM    DATA     BYTE      ADC0CN1
      000000D8H.6 SFRSYM    DATA     BIT       PCA0CN0_CR
      000000A8H.2 SFRSYM    DATA     BIT       IE_EX1
      000000C8H.7 SFRSYM    DATA     BIT       SCON1_OVR
      00000098H.7 SFRSYM    DATA     BIT       SCON0_SMODE
      000000B5H   SFRSYM    DATA     BYTE      DEVICEID
      000000A9H   SFRSYM    DATA     BYTE      CLKSEL
      000000F8H   SFRSYM    DATA     BIT       SPI0CN0_SPIEN
      000000F0H   SFRSYM    DATA     BYTE      B
      000000BEH   SFRSYM    DATA     BYTE      ADC0H
      000000E8H.6 SFRSYM    DATA     BIT       ADC0CN0_ADBMEN
      000000CAH   SFRSYM    DATA     WORD      TMR2RL
      000000BDH   SFRSYM    DATA     BYTE      ADC0L
      00000092H   SFRSYM    DATA     WORD      TMR3RL
      000000A2H   SFRSYM    DATA     WORD      TMR4RL
      000000D8H   SFRSYM    DATA     BYTE      PCA0CN0
      000000E0H   SFRSYM    DATA     BYTE      ACC
      000000FBH   SFRSYM    DATA     WORD      PCA0CP0
      000000E9H   SFRSYM    DATA     WORD      PCA0CP1
      000000EBH   SFRSYM    DATA     WORD      PCA0CP2
      000000BCH   SFRSYM    DATA     BYTE      I2C0DIN
      000000CEH   SFRSYM    DATA     BYTE      CRC0CN0
      0000008CH   SFRSYM    DATA     BYTE      TH0
      00000086H   SFRSYM    DATA     BYTE      CRC0CN1
      000000B8H.4 SFRSYM    DATA     BIT       IP_PS0
      000000FAH   SFRSYM    DATA     BYTE      UART1FCT
      0000008DH   SFRSYM    DATA     BYTE      TH1
      000000FAH   SFRSYM    DATA     BYTE      PCA0H
      000000F5H   SFRSYM    DATA     BYTE      I2C0FCT
      000000B8H.1 SFRSYM    DATA     BIT       IP_PT0
      000000B8H.3 SFRSYM    DATA     BIT       IP_PT1
      000000C0H.2 SFRSYM    DATA     BIT       SMB0CN0_ARBLOST
      000000B8H.5 SFRSYM    DATA     BIT       IP_PT2
      0000008AH   SFRSYM    DATA     BYTE      TL0
      000000D0H.5 SFRSYM    DATA     BIT       PSW_F0
      000000A8H.6 SFRSYM    DATA     BIT       IE_ESPI0
      0000008BH   SFRSYM    DATA     BYTE      TL1
      000000F9H   SFRSYM    DATA     BYTE      PCA0L
      000000C0H   SFRSYM    DATA     BIT       SMB0CN0_SI
      000000D0H.1 SFRSYM    DATA     BIT       PSW_F1
      00000080H   SFRSYM    DATA     BIT       P0_B0
      000000B8H   SFRSYM    DATA     BIT       IP_PX0
      00000090H   SFRSYM    DATA     BIT       P1_B0
      00000080H.1 SFRSYM    DATA     BIT       P0_B1
      000000B8H.2 SFRSYM    DATA     BIT       IP_PX1
      0000009EH   SFRSYM    DATA     BYTE      UART1LIN
      0000009BH   SFRSYM    DATA     BYTE      CMP0CN0
      00000088H.1 SFRSYM    DATA     BIT       TCON_IE0
      000000A0H   SFRSYM    DATA     BIT       P2_B0
      00000090H.1 SFRSYM    DATA     BIT       P1_B1
      00000080H.2 SFRSYM    DATA     BIT       P0_B2
      000000BFH   SFRSYM    DATA     BYTE      CMP1CN0
      00000099H   SFRSYM    DATA     BYTE      CMP0CN1
LX51 LINKER/LOCATER V4.66.30.0                                                        08/11/2020  17:20:48  PAGE 111


      00000088H.3 SFRSYM    DATA     BIT       TCON_IE1
      000000B0H   SFRSYM    DATA     BIT       P3_B0
      000000A0H.1 SFRSYM    DATA     BIT       P2_B1
      00000090H.2 SFRSYM    DATA     BIT       P1_B2
      00000080H.3 SFRSYM    DATA     BIT       P0_B3
      000000C0H   SFRSYM    DATA     BYTE      SMB0CN0
      000000ACH   SFRSYM    DATA     BYTE      CMP1CN1
      000000B0H.1 SFRSYM    DATA     BIT       P3_B1
      000000A0H.2 SFRSYM    DATA     BIT       P2_B2
      00000090H.3 SFRSYM    DATA     BIT       P1_B3
      00000080H.4 SFRSYM    DATA     BIT       P0_B4
      000000A0H.3 SFRSYM    DATA     BIT       P2_B3
      00000090H.4 SFRSYM    DATA     BIT       P1_B4
      00000080H.5 SFRSYM    DATA     BIT       P0_B5
      000000D8H.1 SFRSYM    DATA     BIT       UART1FCN1_RXTO0
      00000090H.5 SFRSYM    DATA     BIT       P1_B5
      00000080H.6 SFRSYM    DATA     BIT       P0_B6
      000000F5H   SFRSYM    DATA     BYTE      EIP1H
      000000D8H.2 SFRSYM    DATA     BIT       UART1FCN1_RXTO1
      00000090H.6 SFRSYM    DATA     BIT       P1_B6
      00000080H.7 SFRSYM    DATA     BIT       P0_B7
      000000C5H   SFRSYM    DATA     BYTE      SMB0RXLN
      000000F6H   SFRSYM    DATA     BYTE      EIP2H
      00000090H.7 SFRSYM    DATA     BIT       P1_B7
      00000083H   SFRSYM    DATA     BYTE      DPH
      000000C4H   SFRSYM    DATA     BYTE      ADC0GTH
      000000C8H.7 SFRSYM    DATA     BIT       TMR2CN0_TF2H
      000000C8H.3 SFRSYM    DATA     BIT       TMR2CN0_T2SPLIT
      000000D0H.6 SFRSYM    DATA     BIT       PSW_AC
      000000F8H   SFRSYM    DATA     BYTE      SPI0CN0
      000000C7H   SFRSYM    DATA     BYTE      HFO0CAL
      00000088H.5 SFRSYM    DATA     BIT       TCON_TF0
      00000098H   SFRSYM    DATA     BIT       SCON0_RI
      000000D6H   SFRSYM    DATA     BYTE      HFO1CAL
      00000082H   SFRSYM    DATA     BYTE      DPL
      00000088H.7 SFRSYM    DATA     BIT       TCON_TF1
      000000C8H   SFRSYM    DATA     BIT       SCON1_RI
      00000099H   SFRSYM    DATA     BYTE      SBUF0
      00000087H   SFRSYM    DATA     BYTE      PCON0
      000000F2H   SFRSYM    DATA     BYTE      IPH
      000000C3H   SFRSYM    DATA     BYTE      ADC0GTL
      00000098H.7 SFRSYM    DATA     BIT       TMR4CN0_TF4H
      00000098H.3 SFRSYM    DATA     BIT       TMR4CN0_T4SPLIT
      000000C8H.6 SFRSYM    DATA     BIT       TMR2CN0_TF2L
      00000098H.1 SFRSYM    DATA     BIT       SCON0_TI
      000000E8H   SFRSYM    DATA     BIT       ADC0CN0_ADCM0
      00000092H   SFRSYM    DATA     BYTE      SBUF1
      0000009AH   SFRSYM    DATA     BYTE      PCON1
      000000C6H   SFRSYM    DATA     BYTE      ADC0LTH
      00000088H   SFRSYM    DATA     BIT       TCON_IT0
      000000C8H.1 SFRSYM    DATA     BIT       SCON1_TI
      000000E8H.1 SFRSYM    DATA     BIT       ADC0CN0_ADCM1
      000000EFH   SFRSYM    DATA     BYTE      RSTSRC
      000000FDH   SFRSYM    DATA     BYTE      P0MAT
      000000DEH   SFRSYM    DATA     BYTE      CRC0DAT
      00000088H.2 SFRSYM    DATA     BIT       TCON_IT1
      000000E8H.2 SFRSYM    DATA     BIT       ADC0CN0_ADCM2
      000000D7H   SFRSYM    DATA     BYTE      SFRSTACK
      00000098H   SFRSYM    DATA     BYTE      SCON0
      000000F6H   SFRSYM    DATA     BYTE      PRTDRV
      000000EDH   SFRSYM    DATA     BYTE      P1MAT
      000000E8H.3 SFRSYM    DATA     BIT       ADC0CN0_ADWINT
LX51 LINKER/LOCATER V4.66.30.0                                                        08/11/2020  17:20:48  PAGE 112


      00000095H   SFRSYM    DATA     WORD      SBRL1
      00000093H   SFRSYM    DATA     BYTE      SMOD1
      000000C8H   SFRSYM    DATA     BYTE      SCON1
      000000FBH   SFRSYM    DATA     BYTE      P2MAT
      00000098H.6 SFRSYM    DATA     BIT       TMR4CN0_TF4L
      000000E8H.4 SFRSYM    DATA     BIT       ADC0CN0_ADBUSY
      000000D6H   SFRSYM    DATA     BYTE      SMB0ADM
      000000C5H   SFRSYM    DATA     BYTE      ADC0LTL
      000000F8H.5 SFRSYM    DATA     BIT       SPI0CN0_MODF
      000000B8H.6 SFRSYM    DATA     BIT       IP_PSPI0
      0000009CH   SFRSYM    DATA     BYTE      PCA0CLR
      000000C8H   SFRSYM    DATA     BYTE      TMR2CN0
      00000091H   SFRSYM    DATA     BYTE      TMR3CN0
      000000FDH   SFRSYM    DATA     BYTE      TMR2CN1
      00000098H   SFRSYM    DATA     BYTE      TMR4CN0
      000000FEH   SFRSYM    DATA     BYTE      TMR3CN1
      000000FFH   SFRSYM    DATA     BYTE      TMR4CN1
      000000D7H   SFRSYM    DATA     BYTE      SMB0ADR
      00000088H.4 SFRSYM    DATA     BIT       TCON_TR0
      000000C8H.4 SFRSYM    DATA     BIT       TMR2CN0_TF2CEN
      00000088H.6 SFRSYM    DATA     BIT       TCON_TR1
      000000C2H   SFRSYM    DATA     BYTE      SMB0DAT
      000000CDH   SFRSYM    DATA     BYTE      TMR2H
      000000A1H   SFRSYM    DATA     BYTE      SPI0CFG
      00000095H   SFRSYM    DATA     BYTE      TMR3H
      000000EFH   SFRSYM    DATA     BYTE      HFOCN
      000000D3H   SFRSYM    DATA     BYTE      CRC0CNT
      000000A5H   SFRSYM    DATA     BYTE      TMR4H
      00000098H.4 SFRSYM    DATA     BIT       TMR4CN0_TF4CEN
      000000EFH   SFRSYM    DATA     BYTE      SMB0FCT
      00000096H   SFRSYM    DATA     BYTE      PCA0POL
      000000CCH   SFRSYM    DATA     BYTE      TMR2L
      000000F8H.7 SFRSYM    DATA     BIT       SPI0CN0_SPIF
      00000094H   SFRSYM    DATA     BYTE      TMR3L
      000000DFH   SFRSYM    DATA     BYTE      ADC0PWR
      000000A8H.7 SFRSYM    DATA     BIT       IE_EA
      000000A4H   SFRSYM    DATA     BYTE      TMR4L
      000000C8H.5 SFRSYM    DATA     BIT       TMR2CN0_TF2LEN
      000000F8H.6 SFRSYM    DATA     BIT       SPI0CN0_WCOL
      000000F8H.2 SFRSYM    DATA     BIT       SPI0CN0_NSSMD0
      000000D0H.7 SFRSYM    DATA     BIT       PSW_CY
      0000009DH   SFRSYM    DATA     BYTE      UART1FCN0
      000000A3H   SFRSYM    DATA     BYTE      SPI0DAT
      000000ADH   SFRSYM    DATA     BYTE      I2C0FCN0
      000000F8H.3 SFRSYM    DATA     BIT       SPI0CN0_NSSMD1
      000000BDH   SFRSYM    DATA     WORD      ADC0
      000000D8H   SFRSYM    DATA     BYTE      UART1FCN1
      000000ABH   SFRSYM    DATA     BYTE      I2C0FCN1
      00000098H.5 SFRSYM    DATA     BIT       TMR4CN0_TF4LEN
      000000D0H   SFRSYM    DATA     BYTE      PSW
      000000F7H   SFRSYM    DATA     BYTE      PCA0PWM
      000000F7H   SFRSYM    DATA     BYTE      SPI0FCT
      000000B6H   SFRSYM    DATA     BYTE      REVID
      000000B7H   SFRSYM    DATA     BYTE      FLKEY
      000000B3H   SFRSYM    DATA     BYTE      ADC0AC

      01003836H   BLOCK     CODE     ---       LVL=0
      01003836H   LINE      CODE     ---       #43
      01003836H   LINE      CODE     ---       #44
      01003836H   LINE      CODE     ---       #45
      0100383CH   LINE      CODE     ---       #46
      0100383FH   LINE      CODE     ---       #48
LX51 LINKER/LOCATER V4.66.30.0                                                        08/11/2020  17:20:48  PAGE 113


      01003841H   LINE      CODE     ---       #49
      01003843H   LINE      CODE     ---       #50
      01003845H   LINE      CODE     ---       #51
      01003847H   LINE      CODE     ---       #53
      0100384AH   LINE      CODE     ---       #57
      0100384CH   LINE      CODE     ---       #58
      0100384EH   LINE      CODE     ---       #59
      01003850H   LINE      CODE     ---       #60
      01003852H   LINE      CODE     ---       #61
      01003854H   LINE      CODE     ---       #62
      01003856H   LINE      CODE     ---       #64
      01003859H   LINE      CODE     ---       #73
      0100385CH   LINE      CODE     ---       #75
      0100385EH   LINE      CODE     ---       #77
      01003861H   LINE      CODE     ---       #78
      01003864H   LINE      CODE     ---       #79
      01003867H   LINE      CODE     ---       #80
      01003869H   LINE      CODE     ---       #82
      0100386CH   LINE      CODE     ---       #83
      ---         BLOCKEND  ---      ---       LVL=0

      01003C77H   BLOCK     CODE     ---       LVL=0
      01003C77H   LINE      CODE     ---       #85
      01003C77H   LINE      CODE     ---       #86
      01003C77H   LINE      CODE     ---       #87
      01003C7DH   LINE      CODE     ---       #88
      01003C83H   LINE      CODE     ---       #89
      ---         BLOCKEND  ---      ---       LVL=0

      01003CB9H   BLOCK     CODE     ---       LVL=0
      01003CB9H   LINE      CODE     ---       #90
      01003CB9H   LINE      CODE     ---       #91
      01003CB9H   LINE      CODE     ---       #92
      01003CBBH   LINE      CODE     ---       #93
      01003CC0H   LINE      CODE     ---       #94
      ---         BLOCKEND  ---      ---       LVL=0

      01003A7FH   BLOCK     CODE     ---       LVL=0
      00000007H   SYMBOL    DATA     BYTE      CH
      01003A7FH   LINE      CODE     ---       #96
      01003A7FH   LINE      CODE     ---       #97
      01003A7FH   LINE      CODE     ---       #98
      01003A85H   LINE      CODE     ---       #99
      01003A88H   LINE      CODE     ---       #100
      01003A8AH   LINE      CODE     ---       #101
      01003A8DH   LINE      CODE     ---       #102
      01003A8DH   LINE      CODE     ---       #103
      01003A90H   LINE      CODE     ---       #104
      01003A90H   LINE      CODE     ---       #105
      01003A94H   LINE      CODE     ---       #106
      01003A94H   LINE      CODE     ---       #107
      01003A97H   LINE      CODE     ---       #108
      01003A97H   LINE      CODE     ---       #109
      01003A9BH   LINE      CODE     ---       #110
      01003A9BH   LINE      CODE     ---       #111
      01003A9EH   LINE      CODE     ---       #112
      01003A9EH   LINE      CODE     ---       #113
      01003AA0H   LINE      CODE     ---       #114
      01003AA6H   LINE      CODE     ---       #115
      ---         BLOCKEND  ---      ---       LVL=0

      01003AA7H   BLOCK     CODE     ---       LVL=0
LX51 LINKER/LOCATER V4.66.30.0                                                        08/11/2020  17:20:48  PAGE 114


      00000007H   SYMBOL    DATA     BYTE      CH
      01003AA7H   LINE      CODE     ---       #117
      01003AA7H   LINE      CODE     ---       #118
      01003AA7H   LINE      CODE     ---       #119
      01003AADH   LINE      CODE     ---       #120
      01003AB0H   LINE      CODE     ---       #121
      01003AB2H   LINE      CODE     ---       #122
      01003AB5H   LINE      CODE     ---       #123
      01003AB5H   LINE      CODE     ---       #124
      01003AB8H   LINE      CODE     ---       #125
      01003AB8H   LINE      CODE     ---       #126
      01003ABCH   LINE      CODE     ---       #127
      01003ABCH   LINE      CODE     ---       #128
      01003ABFH   LINE      CODE     ---       #129
      01003ABFH   LINE      CODE     ---       #130
      01003AC3H   LINE      CODE     ---       #131
      01003AC3H   LINE      CODE     ---       #132
      01003AC6H   LINE      CODE     ---       #133
      01003AC6H   LINE      CODE     ---       #134
      01003AC8H   LINE      CODE     ---       #135
      01003ACEH   LINE      CODE     ---       #143
      ---         BLOCKEND  ---      ---       LVL=0

      0100395AH   BLOCK     CODE     ---       LVL=0
      0100395AH   LINE      CODE     ---       #147
      0100395AH   LINE      CODE     ---       #148
      0100395AH   LINE      CODE     ---       #149
      01003960H   LINE      CODE     ---       #150
      01003963H   LINE      CODE     ---       #152
      01003965H   LINE      CODE     ---       #153
      01003967H   LINE      CODE     ---       #154
      01003969H   LINE      CODE     ---       #155
      0100396BH   LINE      CODE     ---       #156
      0100396EH   LINE      CODE     ---       #157
      01003971H   LINE      CODE     ---       #158
      01003974H   LINE      CODE     ---       #159
      01003977H   LINE      CODE     ---       #160
      01003979H   LINE      CODE     ---       #161
      0100397CH   LINE      CODE     ---       #162
      0100397FH   LINE      CODE     ---       #163
      01003981H   LINE      CODE     ---       #165
      01003984H   LINE      CODE     ---       #166
      ---         BLOCKEND  ---      ---       LVL=0

      01003BD2H   BLOCK     CODE     ---       LVL=0
      01003BD2H   LINE      CODE     ---       #172
      01003BD2H   LINE      CODE     ---       #173
      01003BD2H   LINE      CODE     ---       #174
      01003BD5H   LINE      CODE     ---       #175
      01003BD8H   LINE      CODE     ---       #176
      01003BDBH   LINE      CODE     ---       #177
      01003BDEH   LINE      CODE     ---       #178
      01003BE1H   LINE      CODE     ---       #179
      01003BE3H   LINE      CODE     ---       #180
      01003BE5H   LINE      CODE     ---       #181
      01003BE8H   LINE      CODE     ---       #182
      01003BEBH   LINE      CODE     ---       #184
      01003BEDH   LINE      CODE     ---       #185
      ---         BLOCKEND  ---      ---       LVL=0

      01003A56H   BLOCK     CODE     ---       LVL=0
      01003A56H   LINE      CODE     ---       #209
LX51 LINKER/LOCATER V4.66.30.0                                                        08/11/2020  17:20:48  PAGE 115


      01003A56H   LINE      CODE     ---       #210
      01003A56H   LINE      CODE     ---       #211
      01003A5CH   LINE      CODE     ---       #215
      01003A5FH   LINE      CODE     ---       #216
      01003A62H   LINE      CODE     ---       #217
      01003A65H   LINE      CODE     ---       #218
      01003A68H   LINE      CODE     ---       #220
      01003A6BH   LINE      CODE     ---       #221
      01003A6EH   LINE      CODE     ---       #223
      01003A71H   LINE      CODE     ---       #224
      01003A73H   LINE      CODE     ---       #225
      01003A76H   LINE      CODE     ---       #226
      01003A79H   LINE      CODE     ---       #227
      01003A7CH   LINE      CODE     ---       #229
      01003A7EH   LINE      CODE     ---       #230
      ---         BLOCKEND  ---      ---       LVL=0

      01000026H   BLOCK     CODE     ---       LVL=0
      01000026H   LINE      CODE     ---       #232
      01000026H   LINE      CODE     ---       #233
      01000026H   LINE      CODE     ---       #234
      01000028H   LINE      CODE     ---       #235
      0100002AH   LINE      CODE     ---       #236
      ---         BLOCKEND  ---      ---       LVL=0

      01003985H   BLOCK     CODE     ---       LVL=0
      01003985H   LINE      CODE     ---       #246
      01003985H   LINE      CODE     ---       #247
      01003985H   LINE      CODE     ---       #248
      0100398BH   LINE      CODE     ---       #249
      0100398EH   LINE      CODE     ---       #250
      01003990H   LINE      CODE     ---       #251
      01003992H   LINE      CODE     ---       #252
      01003994H   LINE      CODE     ---       #253
      01003996H   LINE      CODE     ---       #254
      01003999H   LINE      CODE     ---       #255
      0100399CH   LINE      CODE     ---       #256
      0100399FH   LINE      CODE     ---       #257
      010039A1H   LINE      CODE     ---       #258
      010039A4H   LINE      CODE     ---       #259
      010039A7H   LINE      CODE     ---       #260
      010039AAH   LINE      CODE     ---       #262
      010039ACH   LINE      CODE     ---       #264
      010039AFH   LINE      CODE     ---       #265
      ---         BLOCKEND  ---      ---       LVL=0

      01003ACFH   BLOCK     CODE     ---       LVL=0
      01003ACFH   LINE      CODE     ---       #267
      01003ACFH   LINE      CODE     ---       #268
      01003ACFH   LINE      CODE     ---       #269
      01003AD5H   LINE      CODE     ---       #270
      01003AD8H   LINE      CODE     ---       #272
      01003ADAH   LINE      CODE     ---       #276
      01003ADDH   LINE      CODE     ---       #277
      01003AE0H   LINE      CODE     ---       #278
      01003AE3H   LINE      CODE     ---       #279
      01003AE6H   LINE      CODE     ---       #280
      01003AE9H   LINE      CODE     ---       #281
      01003AECH   LINE      CODE     ---       #282
      01003AEFH   LINE      CODE     ---       #283
      01003AF2H   LINE      CODE     ---       #285
      01003AF5H   LINE      CODE     ---       #286
LX51 LINKER/LOCATER V4.66.30.0                                                        08/11/2020  17:20:48  PAGE 116


      ---         BLOCKEND  ---      ---       LVL=0

      01003BEEH   BLOCK     CODE     ---       LVL=0
      01003BEEH   LINE      CODE     ---       #288
      01003BEEH   LINE      CODE     ---       #289
      01003BEEH   LINE      CODE     ---       #290
      01003BF4H   LINE      CODE     ---       #291
      01003BF7H   LINE      CODE     ---       #293
      01003BFAH   LINE      CODE     ---       #294
      01003BFDH   LINE      CODE     ---       #295
      01003C00H   LINE      CODE     ---       #296
      01003C03H   LINE      CODE     ---       #297
      01003C06H   LINE      CODE     ---       #299
      01003C09H   LINE      CODE     ---       #300
      ---         BLOCKEND  ---      ---       LVL=0

      0100000EH   BLOCK     CODE     ---       LVL=0
      0100000EH   LINE      CODE     ---       #302
      0100000EH   LINE      CODE     ---       #303
      0100000EH   LINE      CODE     ---       #304
      01000014H   LINE      CODE     ---       #305
      01000017H   LINE      CODE     ---       #307
      0100001AH   LINE      CODE     ---       #308
      0100001DH   LINE      CODE     ---       #310
      01000020H   LINE      CODE     ---       #311
      ---         BLOCKEND  ---      ---       LVL=0

      010037FEH   BLOCK     CODE     ---       LVL=0
      00000006H   SYMBOL    DATA     WORD      byTime
      010037FEH   BLOCK     CODE     NEAR LAB  LVL=1
      00000006H   SYMBOL    DATA     WORD      Temp
      ---         BLOCKEND  ---      ---       LVL=1
      010037FEH   LINE      CODE     ---       #361
      010037FEH   LINE      CODE     ---       #362
      010037FEH   LINE      CODE     ---       #365
      01003804H   LINE      CODE     ---       #366
      01003807H   LINE      CODE     ---       #368
      01003812H   LINE      CODE     ---       #369
      0100381BH   LINE      CODE     ---       #370
      0100381EH   LINE      CODE     ---       #371
      01003821H   LINE      CODE     ---       #372
      01003823H   LINE      CODE     ---       #373
      01003826H   LINE      CODE     ---       #374
      01003826H   LINE      CODE     ---       #375
      01003829H   LINE      CODE     ---       #376
      0100382BH   LINE      CODE     ---       #377
      0100382DH   LINE      CODE     ---       #378
      0100382FH   LINE      CODE     ---       #380
      01003835H   LINE      CODE     ---       #381
      ---         BLOCKEND  ---      ---       LVL=0

      0100002EH   BLOCK     CODE     ---       LVL=0
      00000004H   SYMBOL    DATA     WORD      byTime
      01000032H   BLOCK     CODE     NEAR LAB  LVL=1
      00000002H   SYMBOL    DATA     WORD      i
      ---         BLOCKEND  ---      ---       LVL=1
      0100002EH   LINE      CODE     ---       #386
      01000032H   LINE      CODE     ---       #387
      01000032H   LINE      CODE     ---       #389
      0100003CH   LINE      CODE     ---       #390
      0100003CH   LINE      CODE     ---       #391
      01000043H   LINE      CODE     ---       #392
LX51 LINKER/LOCATER V4.66.30.0                                                        08/11/2020  17:20:48  PAGE 117


      0100004AH   LINE      CODE     ---       #393
      ---         BLOCKEND  ---      ---       LVL=0

      010033B1H   BLOCK     CODE     ---       LVL=0
      010033B1H   LINE      CODE     ---       #399
      010033CEH   LINE      CODE     ---       #401
      010033D4H   LINE      CODE     ---       #402
      010033E9H   LINE      CODE     ---       #403
      010033E9H   LINE      CODE     ---       #404
      010033F0H   LINE      CODE     ---       #405
      010033F5H   LINE      CODE     ---       #406
      010033F5H   LINE      CODE     ---       #407
      010033F8H   LINE      CODE     ---       #408
      010033FAH   LINE      CODE     ---       #409
      ---         BLOCKEND  ---      ---       LVL=0

      01000022H   BLOCK     CODE     ---       LVL=0
      01000022H   LINE      CODE     ---       #414
      01000022H   LINE      CODE     ---       #417
      ---         BLOCKEND  ---      ---       LVL=0

      01003C0AH   BLOCK     CODE     ---       LVL=0
      01003C0AH   LINE      CODE     ---       #423
      01003C10H   LINE      CODE     ---       #425
      01003C16H   LINE      CODE     ---       #426
      01003C19H   LINE      CODE     ---       #427
      01003C1BH   LINE      CODE     ---       #428
      01003C1EH   LINE      CODE     ---       #429
      ---         BLOCKEND  ---      ---       LVL=0

      010038FEH   BLOCK     CODE     ---       LVL=0
      010038FEH   LINE      CODE     ---       #435
      01003906H   LINE      CODE     ---       #437
      01003915H   LINE      CODE     ---       #438
      01003921H   LINE      CODE     ---       #439
      01003924H   LINE      CODE     ---       #440
      ---         BLOCKEND  ---      ---       LVL=0

      ---         MODULE    ---      ---       UART
      02000384H   PUBLIC    XDATA    BYTE      Uart0RX_OK_Flag
      02000383H   PUBLIC    XDATA    BYTE      Uart0TX_NOTOK_Flag
      0200036BH   PUBLIC    XDATA    ---       gUart0ReceivePduInfo
      0200036AH   PUBLIC    XDATA    BYTE      Uart0TX_ALL_Flag
      02000362H   PUBLIC    XDATA    ---       gslinContext
      0100334CH   PUBLIC    CODE     ---       UART0_ISR
      010012ABH   PUBLIC    CODE     ---       _UART0_RXData
      01003B1DH   PUBLIC    CODE     ---       _UART0_WriteByte
      01003C4CH   PUBLIC    CODE     ---       UART0_ModeDataH
      01003C3CH   PUBLIC    CODE     ---       UART0_ModeDataL
      01000076H   PUBLIC    CODE     ---       UART0_Moudle_Dis
      01003C90H   PUBLIC    CODE     ---       UART0_INTRX_En
      01003C84H   PUBLIC    CODE     ---       UART0_INTRX_Dis
      01003AF6H   PUBLIC    CODE     ---       Uart0_Init
      000000A2H   SFRSYM    DATA     BYTE      SPI0CKR
      00000080H   SFRSYM    DATA     BYTE      P0
      000000C8H.6 SFRSYM    DATA     BIT       SCON1_PERR
      000000D0H.2 SFRSYM    DATA     BIT       PSW_OV
      00000090H   SFRSYM    DATA     BYTE      P1
      000000F8H.1 SFRSYM    DATA     BIT       SPI0CN0_TXNF
      00000097H   SFRSYM    DATA     BYTE      WDTCN
      000000A0H   SFRSYM    DATA     BYTE      P2
      000000B0H   SFRSYM    DATA     BYTE      P3
LX51 LINKER/LOCATER V4.66.30.0                                                        08/11/2020  17:20:48  PAGE 118


      000000BCH   SFRSYM    DATA     BYTE      ADC0CF
      000000C0H.7 SFRSYM    DATA     BIT       SMB0CN0_MASTER
      000000F9H   SFRSYM    DATA     WORD      PCA0
      000000E6H   SFRSYM    DATA     BYTE      EIE1
      000000C0H.1 SFRSYM    DATA     BIT       SMB0CN0_ACK
      000000CEH   SFRSYM    DATA     BYTE      EIE2
      0000008FH   SFRSYM    DATA     BYTE      PSCTL
      000000E4H   SFRSYM    DATA     BYTE      IT01CF
      000000C0H.6 SFRSYM    DATA     BIT       SMB0CN0_TXMODE
      000000ADH   SFRSYM    DATA     BYTE      DERIVID
      000000A7H   SFRSYM    DATA     BYTE      SFRPAGE
      000000A4H   SFRSYM    DATA     BYTE      P0MDOUT
      000000A5H   SFRSYM    DATA     BYTE      P1MDOUT
      000000E8H.5 SFRSYM    DATA     BIT       ADC0CN0_ADINT
      000000CBH   SFRSYM    DATA     BYTE      TMR2RLH
      000000A6H   SFRSYM    DATA     BYTE      P2MDOUT
      000000A8H   SFRSYM    DATA     BYTE      IE
      00000093H   SFRSYM    DATA     BYTE      TMR3RLH
      0000009CH   SFRSYM    DATA     BYTE      P3MDOUT
      000000A3H   SFRSYM    DATA     BYTE      TMR4RLH
      000000F3H   SFRSYM    DATA     BYTE      EIP1
      000000F4H   SFRSYM    DATA     BYTE      EIP2
      00000098H.2 SFRSYM    DATA     BIT       SCON0_RB8
      000000CAH   SFRSYM    DATA     BYTE      TMR2RLL
      000000FCH   SFRSYM    DATA     BYTE      PCA0CPH0
      00000092H   SFRSYM    DATA     BYTE      TMR3RLL
      000000EAH   SFRSYM    DATA     BYTE      PCA0CPH1
      00000098H.3 SFRSYM    DATA     BIT       SCON0_TB8
      000000F0H   SFRSYM    DATA     BIT       B_B0
      00000082H   SFRSYM    DATA     WORD      DP
      000000A2H   SFRSYM    DATA     BYTE      TMR4RLL
      000000ECH   SFRSYM    DATA     BYTE      PCA0CPH2
      000000F0H.1 SFRSYM    DATA     BIT       B_B1
      000000C3H   SFRSYM    DATA     WORD      ADC0GT
      000000BDH   SFRSYM    DATA     BYTE      I2C0SLAD
      000000D8H.3 SFRSYM    DATA     BIT       UART1FCN1_RFRQ
      000000F0H.2 SFRSYM    DATA     BIT       B_B2
      000000CFH   SFRSYM    DATA     BYTE      SFRPGCN
      000000FBH   SFRSYM    DATA     BYTE      PCA0CPL0
      000000F0H.3 SFRSYM    DATA     BIT       B_B3
      000000D9H   SFRSYM    DATA     BYTE      PCA0MD
      000000DAH   SFRSYM    DATA     BYTE      PCA0CPM0
      000000E9H   SFRSYM    DATA     BYTE      PCA0CPL1
      000000D8H.7 SFRSYM    DATA     BIT       UART1FCN1_TFRQ
      000000F0H.4 SFRSYM    DATA     BIT       B_B4
      000000DBH   SFRSYM    DATA     BYTE      PCA0CPM1
      000000EBH   SFRSYM    DATA     BYTE      PCA0CPL2
      000000F0H.5 SFRSYM    DATA     BIT       B_B5
      000000DCH   SFRSYM    DATA     BYTE      PCA0CPM2
      000000B8H   SFRSYM    DATA     BYTE      IP
      000000B9H   SFRSYM    DATA     BYTE      ADC0TK
      000000F0H.6 SFRSYM    DATA     BIT       B_B6
      000000C5H   SFRSYM    DATA     WORD      ADC0LT
      000000D8H.6 SFRSYM    DATA     BIT       UART1FCN1_TXNF
      00000098H.5 SFRSYM    DATA     BIT       SCON0_MCE
      000000F0H.7 SFRSYM    DATA     BIT       B_B7
      000000C3H   SFRSYM    DATA     BYTE      SMB0FCN0
      000000E1H   SFRSYM    DATA     BYTE      XBR0
      000000C4H   SFRSYM    DATA     BYTE      SMB0FCN1
      000000C1H   SFRSYM    DATA     BYTE      SMB0CF
      000000E2H   SFRSYM    DATA     BYTE      XBR1
      000000C1H   SFRSYM    DATA     BYTE      PFE0CN
LX51 LINKER/LOCATER V4.66.30.0                                                        08/11/2020  17:20:48  PAGE 119


      000000E7H   SFRSYM    DATA     BYTE      EMI0CN
      000000C0H.5 SFRSYM    DATA     BIT       SMB0CN0_STA
      000000E3H   SFRSYM    DATA     BYTE      XBR2
      000000BBH   SFRSYM    DATA     BYTE      ADC0MX
      000000E0H   SFRSYM    DATA     BIT       ACC_ACC0
      000000D1H   SFRSYM    DATA     BYTE      REF0CN
      0000008EH   SFRSYM    DATA     BYTE      CKCON0
      000000E0H.1 SFRSYM    DATA     BIT       ACC_ACC1
      000000C9H   SFRSYM    DATA     BYTE      REG0CN
      000000DDH   SFRSYM    DATA     BYTE      CRC0IN
      000000A6H   SFRSYM    DATA     BYTE      CKCON1
      000000C8H.2 SFRSYM    DATA     BIT       TMR2CN0_TR2
      000000E0H.2 SFRSYM    DATA     BIT       ACC_ACC2
      000000C6H   SFRSYM    DATA     BYTE      REG1CN
      000000E0H.3 SFRSYM    DATA     BIT       ACC_ACC3
      00000081H   SFRSYM    DATA     BYTE      SP
      0000009DH   SFRSYM    DATA     BYTE      CMP0MD
      000000E0H.4 SFRSYM    DATA     BIT       ACC_ACC4
      000000B1H   SFRSYM    DATA     BYTE      LFO0CN
      000000ABH   SFRSYM    DATA     BYTE      CMP1MD
      000000D8H   SFRSYM    DATA     BIT       PCA0CN0_CCF0
      000000E0H.5 SFRSYM    DATA     BIT       ACC_ACC5
      00000098H.2 SFRSYM    DATA     BIT       TMR4CN0_TR4
      000000D8H.1 SFRSYM    DATA     BIT       PCA0CN0_CCF1
      000000E0H.6 SFRSYM    DATA     BIT       ACC_ACC6
      000000CCH   SFRSYM    DATA     WORD      TMR2
      0000009AH   SFRSYM    DATA     BYTE      SPI0FCN0
      000000D8H.2 SFRSYM    DATA     BIT       PCA0CN0_CCF2
      000000E0H.7 SFRSYM    DATA     BIT       ACC_ACC7
      00000094H   SFRSYM    DATA     WORD      TMR3
      0000009BH   SFRSYM    DATA     BYTE      SPI0FCN1
      000000A4H   SFRSYM    DATA     WORD      TMR4
      00000094H   SFRSYM    DATA     BYTE      SBCON1
      000000C0H.3 SFRSYM    DATA     BIT       SMB0CN0_ACKRQ
      000000FFH   SFRSYM    DATA     BYTE      VDM0CN
      000000F1H   SFRSYM    DATA     BYTE      P0MDIN
      00000098H.4 SFRSYM    DATA     BIT       SCON0_REN
      000000ACH   SFRSYM    DATA     BYTE      SMB0TC
      000000F2H   SFRSYM    DATA     BYTE      P1MDIN
      000000C8H.4 SFRSYM    DATA     BIT       SCON1_REN
      000000F3H   SFRSYM    DATA     BYTE      P2MDIN
      000000C0H.4 SFRSYM    DATA     BIT       SMB0CN0_STO
      000000F4H   SFRSYM    DATA     BYTE      P3MDIN
      000000B9H   SFRSYM    DATA     BYTE      I2C0STAT
      000000BBH   SFRSYM    DATA     BYTE      I2C0DOUT
      00000096H   SFRSYM    DATA     BYTE      SBRLH1
      000000FEH   SFRSYM    DATA     BYTE      P0MASK
      000000D8H.5 SFRSYM    DATA     BIT       UART1FCN1_TXHOLD
      000000EEH   SFRSYM    DATA     BYTE      P1MASK
      000000FCH   SFRSYM    DATA     BYTE      P2MASK
      000000D0H.3 SFRSYM    DATA     BIT       PSW_RS0
      000000D8H.7 SFRSYM    DATA     BIT       PCA0CN0_CF
      0000009EH   SFRSYM    DATA     BYTE      PCA0CENT
      000000BAH   SFRSYM    DATA     BYTE      I2C0CN0
      000000D2H   SFRSYM    DATA     BYTE      CRC0ST
      000000F8H.4 SFRSYM    DATA     BIT       SPI0CN0_RXOVRN
      000000D0H.4 SFRSYM    DATA     BIT       PSW_RS1
      00000095H   SFRSYM    DATA     BYTE      SBRLL1
      000000C8H.2 SFRSYM    DATA     BIT       SCON1_RBX
      000000C8H   SFRSYM    DATA     BIT       TMR2CN0_T2XCLK0
      000000C8H.1 SFRSYM    DATA     BIT       TMR2CN0_T2XCLK1
      000000C8H.3 SFRSYM    DATA     BIT       SCON1_TBX
LX51 LINKER/LOCATER V4.66.30.0                                                        08/11/2020  17:20:48  PAGE 120


      000000E8H.7 SFRSYM    DATA     BIT       ADC0CN0_ADEN
      00000089H   SFRSYM    DATA     BYTE      TMOD
      00000088H   SFRSYM    DATA     BYTE      TCON
      000000CFH   SFRSYM    DATA     BYTE      CRC0FLIP
      000000D0H   SFRSYM    DATA     BIT       PSW_PARITY
      000000A8H.4 SFRSYM    DATA     BIT       IE_ES0
      0000009FH   SFRSYM    DATA     BYTE      CMP0MX
      00000098H   SFRSYM    DATA     BIT       TMR4CN0_T4XCLK0
      000000A8H.1 SFRSYM    DATA     BIT       IE_ET0
      000000AAH   SFRSYM    DATA     BYTE      CMP1MX
      00000098H.1 SFRSYM    DATA     BIT       TMR4CN0_T4XCLK1
      000000A8H.3 SFRSYM    DATA     BIT       IE_ET1
      000000D4H   SFRSYM    DATA     BYTE      P0SKIP
      000000D8H   SFRSYM    DATA     BIT       UART1FCN1_RIE
      000000A8H.5 SFRSYM    DATA     BIT       IE_ET2
      000000D5H   SFRSYM    DATA     BYTE      P1SKIP
      000000CCH   SFRSYM    DATA     BYTE      P2SKIP
      000000E8H   SFRSYM    DATA     BYTE      ADC0CN0
      000000D8H.4 SFRSYM    DATA     BIT       UART1FCN1_TIE
      000000A8H   SFRSYM    DATA     BIT       IE_EX0
      000000B2H   SFRSYM    DATA     BYTE      ADC0CN1
      000000D8H.6 SFRSYM    DATA     BIT       PCA0CN0_CR
      000000A8H.2 SFRSYM    DATA     BIT       IE_EX1
      000000C8H.7 SFRSYM    DATA     BIT       SCON1_OVR
      00000098H.7 SFRSYM    DATA     BIT       SCON0_SMODE
      000000B5H   SFRSYM    DATA     BYTE      DEVICEID
      000000A9H   SFRSYM    DATA     BYTE      CLKSEL
      000000F8H   SFRSYM    DATA     BIT       SPI0CN0_SPIEN
      000000F0H   SFRSYM    DATA     BYTE      B
      000000BEH   SFRSYM    DATA     BYTE      ADC0H
      000000E8H.6 SFRSYM    DATA     BIT       ADC0CN0_ADBMEN
      000000CAH   SFRSYM    DATA     WORD      TMR2RL
      000000BDH   SFRSYM    DATA     BYTE      ADC0L
      00000092H   SFRSYM    DATA     WORD      TMR3RL
      000000A2H   SFRSYM    DATA     WORD      TMR4RL
      000000D8H   SFRSYM    DATA     BYTE      PCA0CN0
      000000E0H   SFRSYM    DATA     BYTE      ACC
      000000FBH   SFRSYM    DATA     WORD      PCA0CP0
      000000E9H   SFRSYM    DATA     WORD      PCA0CP1
      000000EBH   SFRSYM    DATA     WORD      PCA0CP2
      000000BCH   SFRSYM    DATA     BYTE      I2C0DIN
      000000CEH   SFRSYM    DATA     BYTE      CRC0CN0
      0000008CH   SFRSYM    DATA     BYTE      TH0
      00000086H   SFRSYM    DATA     BYTE      CRC0CN1
      000000B8H.4 SFRSYM    DATA     BIT       IP_PS0
      000000FAH   SFRSYM    DATA     BYTE      UART1FCT
      0000008DH   SFRSYM    DATA     BYTE      TH1
      000000FAH   SFRSYM    DATA     BYTE      PCA0H
      000000F5H   SFRSYM    DATA     BYTE      I2C0FCT
      000000B8H.1 SFRSYM    DATA     BIT       IP_PT0
      000000B8H.3 SFRSYM    DATA     BIT       IP_PT1
      000000C0H.2 SFRSYM    DATA     BIT       SMB0CN0_ARBLOST
      000000B8H.5 SFRSYM    DATA     BIT       IP_PT2
      0000008AH   SFRSYM    DATA     BYTE      TL0
      000000D0H.5 SFRSYM    DATA     BIT       PSW_F0
      000000A8H.6 SFRSYM    DATA     BIT       IE_ESPI0
      0000008BH   SFRSYM    DATA     BYTE      TL1
      000000F9H   SFRSYM    DATA     BYTE      PCA0L
      000000C0H   SFRSYM    DATA     BIT       SMB0CN0_SI
      000000D0H.1 SFRSYM    DATA     BIT       PSW_F1
      00000080H   SFRSYM    DATA     BIT       P0_B0
      000000B8H   SFRSYM    DATA     BIT       IP_PX0
LX51 LINKER/LOCATER V4.66.30.0                                                        08/11/2020  17:20:48  PAGE 121


      00000090H   SFRSYM    DATA     BIT       P1_B0
      00000080H.1 SFRSYM    DATA     BIT       P0_B1
      000000B8H.2 SFRSYM    DATA     BIT       IP_PX1
      0000009EH   SFRSYM    DATA     BYTE      UART1LIN
      0000009BH   SFRSYM    DATA     BYTE      CMP0CN0
      00000088H.1 SFRSYM    DATA     BIT       TCON_IE0
      000000A0H   SFRSYM    DATA     BIT       P2_B0
      00000090H.1 SFRSYM    DATA     BIT       P1_B1
      00000080H.2 SFRSYM    DATA     BIT       P0_B2
      000000BFH   SFRSYM    DATA     BYTE      CMP1CN0
      00000099H   SFRSYM    DATA     BYTE      CMP0CN1
      00000088H.3 SFRSYM    DATA     BIT       TCON_IE1
      000000B0H   SFRSYM    DATA     BIT       P3_B0
      000000A0H.1 SFRSYM    DATA     BIT       P2_B1
      00000090H.2 SFRSYM    DATA     BIT       P1_B2
      00000080H.3 SFRSYM    DATA     BIT       P0_B3
      000000C0H   SFRSYM    DATA     BYTE      SMB0CN0
      000000ACH   SFRSYM    DATA     BYTE      CMP1CN1
      000000B0H.1 SFRSYM    DATA     BIT       P3_B1
      000000A0H.2 SFRSYM    DATA     BIT       P2_B2
      00000090H.3 SFRSYM    DATA     BIT       P1_B3
      00000080H.4 SFRSYM    DATA     BIT       P0_B4
      000000A0H.3 SFRSYM    DATA     BIT       P2_B3
      00000090H.4 SFRSYM    DATA     BIT       P1_B4
      00000080H.5 SFRSYM    DATA     BIT       P0_B5
      000000D8H.1 SFRSYM    DATA     BIT       UART1FCN1_RXTO0
      00000090H.5 SFRSYM    DATA     BIT       P1_B5
      00000080H.6 SFRSYM    DATA     BIT       P0_B6
      000000F5H   SFRSYM    DATA     BYTE      EIP1H
      000000D8H.2 SFRSYM    DATA     BIT       UART1FCN1_RXTO1
      00000090H.6 SFRSYM    DATA     BIT       P1_B6
      00000080H.7 SFRSYM    DATA     BIT       P0_B7
      000000C5H   SFRSYM    DATA     BYTE      SMB0RXLN
      000000F6H   SFRSYM    DATA     BYTE      EIP2H
      00000090H.7 SFRSYM    DATA     BIT       P1_B7
      00000083H   SFRSYM    DATA     BYTE      DPH
      000000C4H   SFRSYM    DATA     BYTE      ADC0GTH
      000000C8H.7 SFRSYM    DATA     BIT       TMR2CN0_TF2H
      000000C8H.3 SFRSYM    DATA     BIT       TMR2CN0_T2SPLIT
      000000D0H.6 SFRSYM    DATA     BIT       PSW_AC
      000000F8H   SFRSYM    DATA     BYTE      SPI0CN0
      000000C7H   SFRSYM    DATA     BYTE      HFO0CAL
      00000088H.5 SFRSYM    DATA     BIT       TCON_TF0
      00000098H   SFRSYM    DATA     BIT       SCON0_RI
      000000D6H   SFRSYM    DATA     BYTE      HFO1CAL
      00000082H   SFRSYM    DATA     BYTE      DPL
      00000088H.7 SFRSYM    DATA     BIT       TCON_TF1
      000000C8H   SFRSYM    DATA     BIT       SCON1_RI
      00000099H   SFRSYM    DATA     BYTE      SBUF0
      00000087H   SFRSYM    DATA     BYTE      PCON0
      000000F2H   SFRSYM    DATA     BYTE      IPH
      000000C3H   SFRSYM    DATA     BYTE      ADC0GTL
      00000098H.7 SFRSYM    DATA     BIT       TMR4CN0_TF4H
      00000098H.3 SFRSYM    DATA     BIT       TMR4CN0_T4SPLIT
      000000C8H.6 SFRSYM    DATA     BIT       TMR2CN0_TF2L
      00000098H.1 SFRSYM    DATA     BIT       SCON0_TI
      000000E8H   SFRSYM    DATA     BIT       ADC0CN0_ADCM0
      00000092H   SFRSYM    DATA     BYTE      SBUF1
      0000009AH   SFRSYM    DATA     BYTE      PCON1
      000000C6H   SFRSYM    DATA     BYTE      ADC0LTH
      00000088H   SFRSYM    DATA     BIT       TCON_IT0
      000000C8H.1 SFRSYM    DATA     BIT       SCON1_TI
LX51 LINKER/LOCATER V4.66.30.0                                                        08/11/2020  17:20:48  PAGE 122


      000000E8H.1 SFRSYM    DATA     BIT       ADC0CN0_ADCM1
      000000EFH   SFRSYM    DATA     BYTE      RSTSRC
      000000FDH   SFRSYM    DATA     BYTE      P0MAT
      000000DEH   SFRSYM    DATA     BYTE      CRC0DAT
      00000088H.2 SFRSYM    DATA     BIT       TCON_IT1
      000000E8H.2 SFRSYM    DATA     BIT       ADC0CN0_ADCM2
      000000D7H   SFRSYM    DATA     BYTE      SFRSTACK
      00000098H   SFRSYM    DATA     BYTE      SCON0
      000000F6H   SFRSYM    DATA     BYTE      PRTDRV
      000000EDH   SFRSYM    DATA     BYTE      P1MAT
      000000E8H.3 SFRSYM    DATA     BIT       ADC0CN0_ADWINT
      00000095H   SFRSYM    DATA     WORD      SBRL1
      00000093H   SFRSYM    DATA     BYTE      SMOD1
      000000C8H   SFRSYM    DATA     BYTE      SCON1
      000000FBH   SFRSYM    DATA     BYTE      P2MAT
      00000098H.6 SFRSYM    DATA     BIT       TMR4CN0_TF4L
      000000E8H.4 SFRSYM    DATA     BIT       ADC0CN0_ADBUSY
      000000D6H   SFRSYM    DATA     BYTE      SMB0ADM
      000000C5H   SFRSYM    DATA     BYTE      ADC0LTL
      000000F8H.5 SFRSYM    DATA     BIT       SPI0CN0_MODF
      000000B8H.6 SFRSYM    DATA     BIT       IP_PSPI0
      0000009CH   SFRSYM    DATA     BYTE      PCA0CLR
      000000C8H   SFRSYM    DATA     BYTE      TMR2CN0
      00000091H   SFRSYM    DATA     BYTE      TMR3CN0
      000000FDH   SFRSYM    DATA     BYTE      TMR2CN1
      00000098H   SFRSYM    DATA     BYTE      TMR4CN0
      000000FEH   SFRSYM    DATA     BYTE      TMR3CN1
      000000FFH   SFRSYM    DATA     BYTE      TMR4CN1
      000000D7H   SFRSYM    DATA     BYTE      SMB0ADR
      00000088H.4 SFRSYM    DATA     BIT       TCON_TR0
      000000C8H.4 SFRSYM    DATA     BIT       TMR2CN0_TF2CEN
      00000088H.6 SFRSYM    DATA     BIT       TCON_TR1
      000000C2H   SFRSYM    DATA     BYTE      SMB0DAT
      000000CDH   SFRSYM    DATA     BYTE      TMR2H
      000000A1H   SFRSYM    DATA     BYTE      SPI0CFG
      00000095H   SFRSYM    DATA     BYTE      TMR3H
      000000EFH   SFRSYM    DATA     BYTE      HFOCN
      000000D3H   SFRSYM    DATA     BYTE      CRC0CNT
      000000A5H   SFRSYM    DATA     BYTE      TMR4H
      00000098H.4 SFRSYM    DATA     BIT       TMR4CN0_TF4CEN
      000000EFH   SFRSYM    DATA     BYTE      SMB0FCT
      00000096H   SFRSYM    DATA     BYTE      PCA0POL
      000000CCH   SFRSYM    DATA     BYTE      TMR2L
      000000F8H.7 SFRSYM    DATA     BIT       SPI0CN0_SPIF
      00000094H   SFRSYM    DATA     BYTE      TMR3L
      000000DFH   SFRSYM    DATA     BYTE      ADC0PWR
      000000A8H.7 SFRSYM    DATA     BIT       IE_EA
      000000A4H   SFRSYM    DATA     BYTE      TMR4L
      000000C8H.5 SFRSYM    DATA     BIT       TMR2CN0_TF2LEN
      000000F8H.6 SFRSYM    DATA     BIT       SPI0CN0_WCOL
      000000F8H.2 SFRSYM    DATA     BIT       SPI0CN0_NSSMD0
      000000D0H.7 SFRSYM    DATA     BIT       PSW_CY
      0000009DH   SFRSYM    DATA     BYTE      UART1FCN0
      000000A3H   SFRSYM    DATA     BYTE      SPI0DAT
      000000ADH   SFRSYM    DATA     BYTE      I2C0FCN0
      000000F8H.3 SFRSYM    DATA     BIT       SPI0CN0_NSSMD1
      000000BDH   SFRSYM    DATA     WORD      ADC0
      000000D8H   SFRSYM    DATA     BYTE      UART1FCN1
      000000ABH   SFRSYM    DATA     BYTE      I2C0FCN1
      00000098H.5 SFRSYM    DATA     BIT       TMR4CN0_TF4LEN
      000000D0H   SFRSYM    DATA     BYTE      PSW
      000000F7H   SFRSYM    DATA     BYTE      PCA0PWM
LX51 LINKER/LOCATER V4.66.30.0                                                        08/11/2020  17:20:48  PAGE 123


      000000F7H   SFRSYM    DATA     BYTE      SPI0FCT
      000000B6H   SFRSYM    DATA     BYTE      REVID
      000000B7H   SFRSYM    DATA     BYTE      FLKEY
      000000B3H   SFRSYM    DATA     BYTE      ADC0AC

      01003AF6H   BLOCK     CODE     ---       LVL=0
      01003AF6H   LINE      CODE     ---       #24
      01003AF6H   LINE      CODE     ---       #25
      01003AF6H   LINE      CODE     ---       #26
      01003AFCH   LINE      CODE     ---       #27
      01003AFFH   LINE      CODE     ---       #28
      01003B02H   LINE      CODE     ---       #29
      01003B05H   LINE      CODE     ---       #30
      01003B08H   LINE      CODE     ---       #32
      01003B0BH   LINE      CODE     ---       #34
      01003B0EH   LINE      CODE     ---       #35
      01003B11H   LINE      CODE     ---       #36
      01003B14H   LINE      CODE     ---       #37
      01003B17H   LINE      CODE     ---       #38
      01003B1AH   LINE      CODE     ---       #40
      ---         BLOCKEND  ---      ---       LVL=0

      01003C84H   BLOCK     CODE     ---       LVL=0
      01003C84H   BLOCK     CODE     NEAR LAB  LVL=1
      00000007H   SYMBOL    DATA     BYTE      savedPage
      ---         BLOCKEND  ---      ---       LVL=1
      01003C84H   LINE      CODE     ---       #43
      01003C84H   LINE      CODE     ---       #44
      01003C84H   LINE      CODE     ---       #46
      01003C89H   LINE      CODE     ---       #48
      01003C8BH   LINE      CODE     ---       #49
      01003C8DH   LINE      CODE     ---       #51
      01003C8FH   LINE      CODE     ---       #53
      ---         BLOCKEND  ---      ---       LVL=0

      01003C90H   BLOCK     CODE     ---       LVL=0
      01003C90H   BLOCK     CODE     NEAR LAB  LVL=1
      00000007H   SYMBOL    DATA     BYTE      savedPage
      ---         BLOCKEND  ---      ---       LVL=1
      01003C90H   LINE      CODE     ---       #55
      01003C90H   LINE      CODE     ---       #56
      01003C90H   LINE      CODE     ---       #58
      01003C95H   LINE      CODE     ---       #60
      01003C97H   LINE      CODE     ---       #61
      01003C99H   LINE      CODE     ---       #63
      01003C9BH   LINE      CODE     ---       #65
      ---         BLOCKEND  ---      ---       LVL=0

      01000076H   BLOCK     CODE     ---       LVL=0
      01000076H   LINE      CODE     ---       #67
      01000076H   LINE      CODE     ---       #68
      01000076H   LINE      CODE     ---       #69
      0100007CH   LINE      CODE     ---       #70
      0100007FH   LINE      CODE     ---       #71
      01000082H   LINE      CODE     ---       #72
      01000085H   LINE      CODE     ---       #73
      01000088H   LINE      CODE     ---       #75
      0100008BH   LINE      CODE     ---       #77
      0100008EH   LINE      CODE     ---       #78
      01000091H   LINE      CODE     ---       #79
      01000094H   LINE      CODE     ---       #80
      01000097H   LINE      CODE     ---       #81
LX51 LINKER/LOCATER V4.66.30.0                                                        08/11/2020  17:20:48  PAGE 124


      0100009AH   LINE      CODE     ---       #82
      ---         BLOCKEND  ---      ---       LVL=0

      01003C3CH   BLOCK     CODE     ---       LVL=0
      01003C3CH   LINE      CODE     ---       #84
      01003C3CH   LINE      CODE     ---       #85
      01003C3CH   LINE      CODE     ---       #86
      01003C42H   LINE      CODE     ---       #87
      01003C45H   LINE      CODE     ---       #88
      01003C48H   LINE      CODE     ---       #89
      01003C4BH   LINE      CODE     ---       #90
      ---         BLOCKEND  ---      ---       LVL=0

      01003C4CH   BLOCK     CODE     ---       LVL=0
      01003C4CH   LINE      CODE     ---       #93
      01003C4CH   LINE      CODE     ---       #94
      01003C4CH   LINE      CODE     ---       #95
      01003C52H   LINE      CODE     ---       #96
      01003C55H   LINE      CODE     ---       #97
      01003C58H   LINE      CODE     ---       #98
      01003C5BH   LINE      CODE     ---       #99
      ---         BLOCKEND  ---      ---       LVL=0

      01003B1DH   BLOCK     CODE     ---       LVL=0
      00000002H   SYMBOL    DATA     WORD      dataTx
      01003B21H   BLOCK     CODE     NEAR LAB  LVL=1
      00000005H   SYMBOL    DATA     BYTE      savedPage
      ---         BLOCKEND  ---      ---       LVL=1
      01003B1DH   LINE      CODE     ---       #103
      01003B21H   LINE      CODE     ---       #104
      01003B21H   LINE      CODE     ---       #106
      01003B26H   LINE      CODE     ---       #113
      01003B2BH   LINE      CODE     ---       #114
      01003B2EH   LINE      CODE     ---       #115
      01003B34H   LINE      CODE     ---       #116
      01003B34H   LINE      CODE     ---       #117
      01003B37H   LINE      CODE     ---       #118
      01003B39H   LINE      CODE     ---       #119
      01003B3FH   LINE      CODE     ---       #120
      01003B43H   LINE      CODE     ---       #121
      ---         BLOCKEND  ---      ---       LVL=0

      010012ABH   BLOCK     CODE     ---       LVL=0
      00000006H   SYMBOL    DATA     WORD      rxdata
      010012ABH   BLOCK     CODE     NEAR LAB  LVL=1
      020003A0H   SYMBOL    XDATA    BYTE      i
      020003A1H   SYMBOL    XDATA    ---       pCtt
      ---         BLOCKEND  ---      ---       LVL=1
      010012ABH   LINE      CODE     ---       #123
      010012ABH   LINE      CODE     ---       #124
      010012ABH   LINE      CODE     ---       #127
      010012B9H   LINE      CODE     ---       #198
      010012C5H   LINE      CODE     ---       #200
      010012C5H   LINE      CODE     ---       #201
      010012E2H   LINE      CODE     ---       #202
      010012F6H   LINE      CODE     ---       #203
      010012FEH   LINE      CODE     ---       #204
      01001305H   LINE      CODE     ---       #205
      01001311H   LINE      CODE     ---       #206
      01001311H   LINE      CODE     ---       #207
      01001330H   LINE      CODE     ---       #209
      01001330H   LINE      CODE     ---       #210
LX51 LINKER/LOCATER V4.66.30.0                                                        08/11/2020  17:20:48  PAGE 125


      01001355H   LINE      CODE     ---       #211
      01001368H   LINE      CODE     ---       #213
      0100137BH   LINE      CODE     ---       #214
      0100137BH   LINE      CODE     ---       #215
      01001398H   LINE      CODE     ---       #216
      010013B9H   LINE      CODE     ---       #217
      010013B9H   LINE      CODE     ---       #218
      010013D8H   LINE      CODE     ---       #219
      010013D8H   LINE      CODE     ---       #220
      0100140DH   LINE      CODE     ---       #221
      0100140DH   LINE      CODE     ---       #222
      01001415H   LINE      CODE     ---       #223
      01001417H   LINE      CODE     ---       #225
      01001417H   LINE      CODE     ---       #226
      01001427H   LINE      CODE     ---       #227
      01001429H   LINE      CODE     ---       #228
      01001429H   LINE      CODE     ---       #229
      01001431H   LINE      CODE     ---       #230
      01001431H   LINE      CODE     ---       #232
      01001431H   LINE      CODE     ---       #233
      01001444H   LINE      CODE     ---       #234
      01001444H   LINE      CODE     ---       #236
      01001459H   LINE      CODE     ---       #237
      01001459H   LINE      CODE     ---       #238
      01001460H   LINE      CODE     ---       #239
      01001469H   LINE      CODE     ---       #240
      0100147FH   LINE      CODE     ---       #241
      0100147FH   LINE      CODE     ---       #242
      01001485H   LINE      CODE     ---       #243
      01001485H   LINE      CODE     ---       #244
      0100148BH   LINE      CODE     ---       #245
      0100148BH   LINE      CODE     ---       #246
      01001491H   LINE      CODE     ---       #247
      01001493H   LINE      CODE     ---       #254
      01001493H   LINE      CODE     ---       #255
      01001498H   LINE      CODE     ---       #256
      0100149BH   LINE      CODE     ---       #257
      0100149BH   LINE      CODE     ---       #258
      0100149BH   LINE      CODE     ---       #260
      010014B1H   LINE      CODE     ---       #261
      010014B1H   LINE      CODE     ---       #262
      010014B4H   LINE      CODE     ---       #263
      010014B4H   LINE      CODE     ---       #264
      010014B4H   LINE      CODE     ---       #266
      010014D5H   LINE      CODE     ---       #268
      010014D5H   LINE      CODE     ---       #269
      010014D8H   LINE      CODE     ---       #270
      010014D8H   LINE      CODE     ---       #273
      ---         BLOCKEND  ---      ---       LVL=0

      0100334CH   BLOCK     CODE     ---       LVL=0
      01003369H   BLOCK     CODE     NEAR LAB  LVL=1
      0200039FH   SYMBOL    XDATA    BYTE      scon0_buff
      00000004H   SYMBOL    DATA     BYTE      sbuf0_buff
      00000006H   SYMBOL    DATA     WORD      data_9bit
      ---         BLOCKEND  ---      ---       LVL=1
      0100334CH   LINE      CODE     ---       #276
      01003369H   LINE      CODE     ---       #280
      01003369H   LINE      CODE     ---       #281
      0100336FH   LINE      CODE     ---       #283
      01003373H   LINE      CODE     ---       #284
      01003373H   LINE      CODE     ---       #285
LX51 LINKER/LOCATER V4.66.30.0                                                        08/11/2020  17:20:48  PAGE 126


      01003375H   LINE      CODE     ---       #286
      01003377H   LINE      CODE     ---       #287
      01003385H   LINE      CODE     ---       #288
      01003388H   LINE      CODE     ---       #289
      01003388H   LINE      CODE     ---       #291
      0100338FH   LINE      CODE     ---       #292
      0100338FH   LINE      CODE     ---       #293
      01003391H   LINE      CODE     ---       #294
      01003396H   LINE      CODE     ---       #295
      01003396H   LINE      CODE     ---       #296
      ---         BLOCKEND  ---      ---       LVL=0

      ---         MODULE    ---      ---       UARTCFG
      02000280H   PUBLIC    XDATA    ---       MsgRadar_Self_Init
      02000278H   PUBLIC    XDATA    ---       MsgBCM_Info
      02000270H   PUBLIC    XDATA    ---       MsgBCM_Mode
      02000268H   PUBLIC    XDATA    ---       MsgBCM_Info_Init
      02000260H   PUBLIC    XDATA    ---       MsgBCM_Mode_Init
      02000258H   PUBLIC    XDATA    ---       MsgRadar_ReqMode
      02000248H   PUBLIC    XDATA    ---       MsgRadar_Distance
      02000240H   PUBLIC    XDATA    ---       MsgRadar_ReqMode_Init
      02000230H   PUBLIC    XDATA    ---       MsgRadar_Distance_Init
      02000228H   PUBLIC    XDATA    ---       MsgRadar_Self
      010037C4H   PUBLIC    CODE     ---       InitUart0AllVar
      0100362FH   PUBLIC    CODE     ---       InitUart0ReceiveVar
      01001040H   PUBLIC    CODE     ---       _ReceiveFramereCorresponding
      01002D96H   PUBLIC    CODE     ---       _CalcFrameChecksum
      01003745H   PUBLIC    CODE     ---       _CalcByteEVEN
      01002B78H   PUBLIC    CODE     ---       UART0_DataInit
      000000A2H   SFRSYM    DATA     BYTE      SPI0CKR
      00000080H   SFRSYM    DATA     BYTE      P0
      000000C8H.6 SFRSYM    DATA     BIT       SCON1_PERR
      000000D0H.2 SFRSYM    DATA     BIT       PSW_OV
      00000090H   SFRSYM    DATA     BYTE      P1
      000000F8H.1 SFRSYM    DATA     BIT       SPI0CN0_TXNF
      00000097H   SFRSYM    DATA     BYTE      WDTCN
      000000A0H   SFRSYM    DATA     BYTE      P2
      000000B0H   SFRSYM    DATA     BYTE      P3
      000000BCH   SFRSYM    DATA     BYTE      ADC0CF
      000000C0H.7 SFRSYM    DATA     BIT       SMB0CN0_MASTER
      000000F9H   SFRSYM    DATA     WORD      PCA0
      000000E6H   SFRSYM    DATA     BYTE      EIE1
      000000C0H.1 SFRSYM    DATA     BIT       SMB0CN0_ACK
      000000CEH   SFRSYM    DATA     BYTE      EIE2
      0000008FH   SFRSYM    DATA     BYTE      PSCTL
      000000E4H   SFRSYM    DATA     BYTE      IT01CF
      000000C0H.6 SFRSYM    DATA     BIT       SMB0CN0_TXMODE
      000000ADH   SFRSYM    DATA     BYTE      DERIVID
      000000A7H   SFRSYM    DATA     BYTE      SFRPAGE
      000000A4H   SFRSYM    DATA     BYTE      P0MDOUT
      000000A5H   SFRSYM    DATA     BYTE      P1MDOUT
      000000E8H.5 SFRSYM    DATA     BIT       ADC0CN0_ADINT
      000000CBH   SFRSYM    DATA     BYTE      TMR2RLH
      000000A6H   SFRSYM    DATA     BYTE      P2MDOUT
      000000A8H   SFRSYM    DATA     BYTE      IE
      00000093H   SFRSYM    DATA     BYTE      TMR3RLH
      0000009CH   SFRSYM    DATA     BYTE      P3MDOUT
      000000A3H   SFRSYM    DATA     BYTE      TMR4RLH
      000000F3H   SFRSYM    DATA     BYTE      EIP1
      000000F4H   SFRSYM    DATA     BYTE      EIP2
      00000098H.2 SFRSYM    DATA     BIT       SCON0_RB8
      000000CAH   SFRSYM    DATA     BYTE      TMR2RLL
LX51 LINKER/LOCATER V4.66.30.0                                                        08/11/2020  17:20:48  PAGE 127


      000000FCH   SFRSYM    DATA     BYTE      PCA0CPH0
      00000092H   SFRSYM    DATA     BYTE      TMR3RLL
      000000EAH   SFRSYM    DATA     BYTE      PCA0CPH1
      00000098H.3 SFRSYM    DATA     BIT       SCON0_TB8
      000000F0H   SFRSYM    DATA     BIT       B_B0
      00000082H   SFRSYM    DATA     WORD      DP
      000000A2H   SFRSYM    DATA     BYTE      TMR4RLL
      000000ECH   SFRSYM    DATA     BYTE      PCA0CPH2
      000000F0H.1 SFRSYM    DATA     BIT       B_B1
      000000C3H   SFRSYM    DATA     WORD      ADC0GT
      000000BDH   SFRSYM    DATA     BYTE      I2C0SLAD
      000000D8H.3 SFRSYM    DATA     BIT       UART1FCN1_RFRQ
      000000F0H.2 SFRSYM    DATA     BIT       B_B2
      000000CFH   SFRSYM    DATA     BYTE      SFRPGCN
      000000FBH   SFRSYM    DATA     BYTE      PCA0CPL0
      000000F0H.3 SFRSYM    DATA     BIT       B_B3
      000000D9H   SFRSYM    DATA     BYTE      PCA0MD
      000000DAH   SFRSYM    DATA     BYTE      PCA0CPM0
      000000E9H   SFRSYM    DATA     BYTE      PCA0CPL1
      000000D8H.7 SFRSYM    DATA     BIT       UART1FCN1_TFRQ
      000000F0H.4 SFRSYM    DATA     BIT       B_B4
      000000DBH   SFRSYM    DATA     BYTE      PCA0CPM1
      000000EBH   SFRSYM    DATA     BYTE      PCA0CPL2
      000000F0H.5 SFRSYM    DATA     BIT       B_B5
      000000DCH   SFRSYM    DATA     BYTE      PCA0CPM2
      000000B8H   SFRSYM    DATA     BYTE      IP
      000000B9H   SFRSYM    DATA     BYTE      ADC0TK
      000000F0H.6 SFRSYM    DATA     BIT       B_B6
      000000C5H   SFRSYM    DATA     WORD      ADC0LT
      000000D8H.6 SFRSYM    DATA     BIT       UART1FCN1_TXNF
      00000098H.5 SFRSYM    DATA     BIT       SCON0_MCE
      000000F0H.7 SFRSYM    DATA     BIT       B_B7
      000000C3H   SFRSYM    DATA     BYTE      SMB0FCN0
      000000E1H   SFRSYM    DATA     BYTE      XBR0
      000000C4H   SFRSYM    DATA     BYTE      SMB0FCN1
      000000C1H   SFRSYM    DATA     BYTE      SMB0CF
      000000E2H   SFRSYM    DATA     BYTE      XBR1
      000000C1H   SFRSYM    DATA     BYTE      PFE0CN
      000000E7H   SFRSYM    DATA     BYTE      EMI0CN
      000000C0H.5 SFRSYM    DATA     BIT       SMB0CN0_STA
      000000E3H   SFRSYM    DATA     BYTE      XBR2
      000000BBH   SFRSYM    DATA     BYTE      ADC0MX
      000000E0H   SFRSYM    DATA     BIT       ACC_ACC0
      000000D1H   SFRSYM    DATA     BYTE      REF0CN
      0000008EH   SFRSYM    DATA     BYTE      CKCON0
      000000E0H.1 SFRSYM    DATA     BIT       ACC_ACC1
      000000C9H   SFRSYM    DATA     BYTE      REG0CN
      000000DDH   SFRSYM    DATA     BYTE      CRC0IN
      000000A6H   SFRSYM    DATA     BYTE      CKCON1
      000000C8H.2 SFRSYM    DATA     BIT       TMR2CN0_TR2
      000000E0H.2 SFRSYM    DATA     BIT       ACC_ACC2
      000000C6H   SFRSYM    DATA     BYTE      REG1CN
      000000E0H.3 SFRSYM    DATA     BIT       ACC_ACC3
      00000081H   SFRSYM    DATA     BYTE      SP
      0000009DH   SFRSYM    DATA     BYTE      CMP0MD
      000000E0H.4 SFRSYM    DATA     BIT       ACC_ACC4
      000000B1H   SFRSYM    DATA     BYTE      LFO0CN
      000000ABH   SFRSYM    DATA     BYTE      CMP1MD
      000000D8H   SFRSYM    DATA     BIT       PCA0CN0_CCF0
      000000E0H.5 SFRSYM    DATA     BIT       ACC_ACC5
      00000098H.2 SFRSYM    DATA     BIT       TMR4CN0_TR4
      000000D8H.1 SFRSYM    DATA     BIT       PCA0CN0_CCF1
LX51 LINKER/LOCATER V4.66.30.0                                                        08/11/2020  17:20:48  PAGE 128


      000000E0H.6 SFRSYM    DATA     BIT       ACC_ACC6
      000000CCH   SFRSYM    DATA     WORD      TMR2
      0000009AH   SFRSYM    DATA     BYTE      SPI0FCN0
      000000D8H.2 SFRSYM    DATA     BIT       PCA0CN0_CCF2
      000000E0H.7 SFRSYM    DATA     BIT       ACC_ACC7
      00000094H   SFRSYM    DATA     WORD      TMR3
      0000009BH   SFRSYM    DATA     BYTE      SPI0FCN1
      000000A4H   SFRSYM    DATA     WORD      TMR4
      00000094H   SFRSYM    DATA     BYTE      SBCON1
      000000C0H.3 SFRSYM    DATA     BIT       SMB0CN0_ACKRQ
      000000FFH   SFRSYM    DATA     BYTE      VDM0CN
      000000F1H   SFRSYM    DATA     BYTE      P0MDIN
      00000098H.4 SFRSYM    DATA     BIT       SCON0_REN
      000000ACH   SFRSYM    DATA     BYTE      SMB0TC
      000000F2H   SFRSYM    DATA     BYTE      P1MDIN
      000000C8H.4 SFRSYM    DATA     BIT       SCON1_REN
      000000F3H   SFRSYM    DATA     BYTE      P2MDIN
      000000C0H.4 SFRSYM    DATA     BIT       SMB0CN0_STO
      000000F4H   SFRSYM    DATA     BYTE      P3MDIN
      000000B9H   SFRSYM    DATA     BYTE      I2C0STAT
      000000BBH   SFRSYM    DATA     BYTE      I2C0DOUT
      00000096H   SFRSYM    DATA     BYTE      SBRLH1
      000000FEH   SFRSYM    DATA     BYTE      P0MASK
      000000D8H.5 SFRSYM    DATA     BIT       UART1FCN1_TXHOLD
      000000EEH   SFRSYM    DATA     BYTE      P1MASK
      000000FCH   SFRSYM    DATA     BYTE      P2MASK
      000000D0H.3 SFRSYM    DATA     BIT       PSW_RS0
      000000D8H.7 SFRSYM    DATA     BIT       PCA0CN0_CF
      0000009EH   SFRSYM    DATA     BYTE      PCA0CENT
      000000BAH   SFRSYM    DATA     BYTE      I2C0CN0
      000000D2H   SFRSYM    DATA     BYTE      CRC0ST
      000000F8H.4 SFRSYM    DATA     BIT       SPI0CN0_RXOVRN
      000000D0H.4 SFRSYM    DATA     BIT       PSW_RS1
      00000095H   SFRSYM    DATA     BYTE      SBRLL1
      000000C8H.2 SFRSYM    DATA     BIT       SCON1_RBX
      000000C8H   SFRSYM    DATA     BIT       TMR2CN0_T2XCLK0
      000000C8H.1 SFRSYM    DATA     BIT       TMR2CN0_T2XCLK1
      000000C8H.3 SFRSYM    DATA     BIT       SCON1_TBX
      000000E8H.7 SFRSYM    DATA     BIT       ADC0CN0_ADEN
      00000089H   SFRSYM    DATA     BYTE      TMOD
      00000088H   SFRSYM    DATA     BYTE      TCON
      000000CFH   SFRSYM    DATA     BYTE      CRC0FLIP
      000000D0H   SFRSYM    DATA     BIT       PSW_PARITY
      000000A8H.4 SFRSYM    DATA     BIT       IE_ES0
      0000009FH   SFRSYM    DATA     BYTE      CMP0MX
      00000098H   SFRSYM    DATA     BIT       TMR4CN0_T4XCLK0
      000000A8H.1 SFRSYM    DATA     BIT       IE_ET0
      000000AAH   SFRSYM    DATA     BYTE      CMP1MX
      00000098H.1 SFRSYM    DATA     BIT       TMR4CN0_T4XCLK1
      000000A8H.3 SFRSYM    DATA     BIT       IE_ET1
      000000D4H   SFRSYM    DATA     BYTE      P0SKIP
      000000D8H   SFRSYM    DATA     BIT       UART1FCN1_RIE
      000000A8H.5 SFRSYM    DATA     BIT       IE_ET2
      000000D5H   SFRSYM    DATA     BYTE      P1SKIP
      000000CCH   SFRSYM    DATA     BYTE      P2SKIP
      000000E8H   SFRSYM    DATA     BYTE      ADC0CN0
      000000D8H.4 SFRSYM    DATA     BIT       UART1FCN1_TIE
      000000A8H   SFRSYM    DATA     BIT       IE_EX0
      000000B2H   SFRSYM    DATA     BYTE      ADC0CN1
      000000D8H.6 SFRSYM    DATA     BIT       PCA0CN0_CR
      000000A8H.2 SFRSYM    DATA     BIT       IE_EX1
      000000C8H.7 SFRSYM    DATA     BIT       SCON1_OVR
LX51 LINKER/LOCATER V4.66.30.0                                                        08/11/2020  17:20:48  PAGE 129


      00000098H.7 SFRSYM    DATA     BIT       SCON0_SMODE
      000000B5H   SFRSYM    DATA     BYTE      DEVICEID
      000000A9H   SFRSYM    DATA     BYTE      CLKSEL
      000000F8H   SFRSYM    DATA     BIT       SPI0CN0_SPIEN
      000000F0H   SFRSYM    DATA     BYTE      B
      000000BEH   SFRSYM    DATA     BYTE      ADC0H
      000000E8H.6 SFRSYM    DATA     BIT       ADC0CN0_ADBMEN
      000000CAH   SFRSYM    DATA     WORD      TMR2RL
      000000BDH   SFRSYM    DATA     BYTE      ADC0L
      00000092H   SFRSYM    DATA     WORD      TMR3RL
      000000A2H   SFRSYM    DATA     WORD      TMR4RL
      000000D8H   SFRSYM    DATA     BYTE      PCA0CN0
      000000E0H   SFRSYM    DATA     BYTE      ACC
      000000FBH   SFRSYM    DATA     WORD      PCA0CP0
      000000E9H   SFRSYM    DATA     WORD      PCA0CP1
      000000EBH   SFRSYM    DATA     WORD      PCA0CP2
      000000BCH   SFRSYM    DATA     BYTE      I2C0DIN
      000000CEH   SFRSYM    DATA     BYTE      CRC0CN0
      0000008CH   SFRSYM    DATA     BYTE      TH0
      00000086H   SFRSYM    DATA     BYTE      CRC0CN1
      000000B8H.4 SFRSYM    DATA     BIT       IP_PS0
      000000FAH   SFRSYM    DATA     BYTE      UART1FCT
      0000008DH   SFRSYM    DATA     BYTE      TH1
      000000FAH   SFRSYM    DATA     BYTE      PCA0H
      000000F5H   SFRSYM    DATA     BYTE      I2C0FCT
      000000B8H.1 SFRSYM    DATA     BIT       IP_PT0
      000000B8H.3 SFRSYM    DATA     BIT       IP_PT1
      000000C0H.2 SFRSYM    DATA     BIT       SMB0CN0_ARBLOST
      000000B8H.5 SFRSYM    DATA     BIT       IP_PT2
      0000008AH   SFRSYM    DATA     BYTE      TL0
      000000D0H.5 SFRSYM    DATA     BIT       PSW_F0
      000000A8H.6 SFRSYM    DATA     BIT       IE_ESPI0
      0000008BH   SFRSYM    DATA     BYTE      TL1
      000000F9H   SFRSYM    DATA     BYTE      PCA0L
      000000C0H   SFRSYM    DATA     BIT       SMB0CN0_SI
      000000D0H.1 SFRSYM    DATA     BIT       PSW_F1
      00000080H   SFRSYM    DATA     BIT       P0_B0
      000000B8H   SFRSYM    DATA     BIT       IP_PX0
      00000090H   SFRSYM    DATA     BIT       P1_B0
      00000080H.1 SFRSYM    DATA     BIT       P0_B1
      000000B8H.2 SFRSYM    DATA     BIT       IP_PX1
      0000009EH   SFRSYM    DATA     BYTE      UART1LIN
      0000009BH   SFRSYM    DATA     BYTE      CMP0CN0
      00000088H.1 SFRSYM    DATA     BIT       TCON_IE0
      000000A0H   SFRSYM    DATA     BIT       P2_B0
      00000090H.1 SFRSYM    DATA     BIT       P1_B1
      00000080H.2 SFRSYM    DATA     BIT       P0_B2
      000000BFH   SFRSYM    DATA     BYTE      CMP1CN0
      00000099H   SFRSYM    DATA     BYTE      CMP0CN1
      00000088H.3 SFRSYM    DATA     BIT       TCON_IE1
      000000B0H   SFRSYM    DATA     BIT       P3_B0
      000000A0H.1 SFRSYM    DATA     BIT       P2_B1
      00000090H.2 SFRSYM    DATA     BIT       P1_B2
      00000080H.3 SFRSYM    DATA     BIT       P0_B3
      000000C0H   SFRSYM    DATA     BYTE      SMB0CN0
      000000ACH   SFRSYM    DATA     BYTE      CMP1CN1
      000000B0H.1 SFRSYM    DATA     BIT       P3_B1
      000000A0H.2 SFRSYM    DATA     BIT       P2_B2
      00000090H.3 SFRSYM    DATA     BIT       P1_B3
      00000080H.4 SFRSYM    DATA     BIT       P0_B4
      000000A0H.3 SFRSYM    DATA     BIT       P2_B3
      00000090H.4 SFRSYM    DATA     BIT       P1_B4
LX51 LINKER/LOCATER V4.66.30.0                                                        08/11/2020  17:20:48  PAGE 130


      00000080H.5 SFRSYM    DATA     BIT       P0_B5
      000000D8H.1 SFRSYM    DATA     BIT       UART1FCN1_RXTO0
      00000090H.5 SFRSYM    DATA     BIT       P1_B5
      00000080H.6 SFRSYM    DATA     BIT       P0_B6
      000000F5H   SFRSYM    DATA     BYTE      EIP1H
      000000D8H.2 SFRSYM    DATA     BIT       UART1FCN1_RXTO1
      00000090H.6 SFRSYM    DATA     BIT       P1_B6
      00000080H.7 SFRSYM    DATA     BIT       P0_B7
      000000C5H   SFRSYM    DATA     BYTE      SMB0RXLN
      000000F6H   SFRSYM    DATA     BYTE      EIP2H
      00000090H.7 SFRSYM    DATA     BIT       P1_B7
      00000083H   SFRSYM    DATA     BYTE      DPH
      000000C4H   SFRSYM    DATA     BYTE      ADC0GTH
      000000C8H.7 SFRSYM    DATA     BIT       TMR2CN0_TF2H
      000000C8H.3 SFRSYM    DATA     BIT       TMR2CN0_T2SPLIT
      000000D0H.6 SFRSYM    DATA     BIT       PSW_AC
      000000F8H   SFRSYM    DATA     BYTE      SPI0CN0
      000000C7H   SFRSYM    DATA     BYTE      HFO0CAL
      00000088H.5 SFRSYM    DATA     BIT       TCON_TF0
      00000098H   SFRSYM    DATA     BIT       SCON0_RI
      000000D6H   SFRSYM    DATA     BYTE      HFO1CAL
      00000082H   SFRSYM    DATA     BYTE      DPL
      00000088H.7 SFRSYM    DATA     BIT       TCON_TF1
      000000C8H   SFRSYM    DATA     BIT       SCON1_RI
      00000099H   SFRSYM    DATA     BYTE      SBUF0
      00000087H   SFRSYM    DATA     BYTE      PCON0
      000000F2H   SFRSYM    DATA     BYTE      IPH
      000000C3H   SFRSYM    DATA     BYTE      ADC0GTL
      00000098H.7 SFRSYM    DATA     BIT       TMR4CN0_TF4H
      00000098H.3 SFRSYM    DATA     BIT       TMR4CN0_T4SPLIT
      000000C8H.6 SFRSYM    DATA     BIT       TMR2CN0_TF2L
      00000098H.1 SFRSYM    DATA     BIT       SCON0_TI
      000000E8H   SFRSYM    DATA     BIT       ADC0CN0_ADCM0
      00000092H   SFRSYM    DATA     BYTE      SBUF1
      0000009AH   SFRSYM    DATA     BYTE      PCON1
      000000C6H   SFRSYM    DATA     BYTE      ADC0LTH
      00000088H   SFRSYM    DATA     BIT       TCON_IT0
      000000C8H.1 SFRSYM    DATA     BIT       SCON1_TI
      000000E8H.1 SFRSYM    DATA     BIT       ADC0CN0_ADCM1
      000000EFH   SFRSYM    DATA     BYTE      RSTSRC
      000000FDH   SFRSYM    DATA     BYTE      P0MAT
      000000DEH   SFRSYM    DATA     BYTE      CRC0DAT
      00000088H.2 SFRSYM    DATA     BIT       TCON_IT1
      000000E8H.2 SFRSYM    DATA     BIT       ADC0CN0_ADCM2
      000000D7H   SFRSYM    DATA     BYTE      SFRSTACK
      00000098H   SFRSYM    DATA     BYTE      SCON0
      000000F6H   SFRSYM    DATA     BYTE      PRTDRV
      000000EDH   SFRSYM    DATA     BYTE      P1MAT
      000000E8H.3 SFRSYM    DATA     BIT       ADC0CN0_ADWINT
      00000095H   SFRSYM    DATA     WORD      SBRL1
      00000093H   SFRSYM    DATA     BYTE      SMOD1
      000000C8H   SFRSYM    DATA     BYTE      SCON1
      000000FBH   SFRSYM    DATA     BYTE      P2MAT
      00000098H.6 SFRSYM    DATA     BIT       TMR4CN0_TF4L
      000000E8H.4 SFRSYM    DATA     BIT       ADC0CN0_ADBUSY
      000000D6H   SFRSYM    DATA     BYTE      SMB0ADM
      000000C5H   SFRSYM    DATA     BYTE      ADC0LTL
      000000F8H.5 SFRSYM    DATA     BIT       SPI0CN0_MODF
      000000B8H.6 SFRSYM    DATA     BIT       IP_PSPI0
      0000009CH   SFRSYM    DATA     BYTE      PCA0CLR
      000000C8H   SFRSYM    DATA     BYTE      TMR2CN0
      00000091H   SFRSYM    DATA     BYTE      TMR3CN0
LX51 LINKER/LOCATER V4.66.30.0                                                        08/11/2020  17:20:48  PAGE 131


      000000FDH   SFRSYM    DATA     BYTE      TMR2CN1
      00000098H   SFRSYM    DATA     BYTE      TMR4CN0
      000000FEH   SFRSYM    DATA     BYTE      TMR3CN1
      000000FFH   SFRSYM    DATA     BYTE      TMR4CN1
      000000D7H   SFRSYM    DATA     BYTE      SMB0ADR
      00000088H.4 SFRSYM    DATA     BIT       TCON_TR0
      000000C8H.4 SFRSYM    DATA     BIT       TMR2CN0_TF2CEN
      00000088H.6 SFRSYM    DATA     BIT       TCON_TR1
      000000C2H   SFRSYM    DATA     BYTE      SMB0DAT
      000000CDH   SFRSYM    DATA     BYTE      TMR2H
      000000A1H   SFRSYM    DATA     BYTE      SPI0CFG
      00000095H   SFRSYM    DATA     BYTE      TMR3H
      000000EFH   SFRSYM    DATA     BYTE      HFOCN
      000000D3H   SFRSYM    DATA     BYTE      CRC0CNT
      000000A5H   SFRSYM    DATA     BYTE      TMR4H
      00000098H.4 SFRSYM    DATA     BIT       TMR4CN0_TF4CEN
      000000EFH   SFRSYM    DATA     BYTE      SMB0FCT
      00000096H   SFRSYM    DATA     BYTE      PCA0POL
      000000CCH   SFRSYM    DATA     BYTE      TMR2L
      000000F8H.7 SFRSYM    DATA     BIT       SPI0CN0_SPIF
      00000094H   SFRSYM    DATA     BYTE      TMR3L
      000000DFH   SFRSYM    DATA     BYTE      ADC0PWR
      000000A8H.7 SFRSYM    DATA     BIT       IE_EA
      000000A4H   SFRSYM    DATA     BYTE      TMR4L
      000000C8H.5 SFRSYM    DATA     BIT       TMR2CN0_TF2LEN
      000000F8H.6 SFRSYM    DATA     BIT       SPI0CN0_WCOL
      000000F8H.2 SFRSYM    DATA     BIT       SPI0CN0_NSSMD0
      000000D0H.7 SFRSYM    DATA     BIT       PSW_CY
      0000009DH   SFRSYM    DATA     BYTE      UART1FCN0
      000000A3H   SFRSYM    DATA     BYTE      SPI0DAT
      000000ADH   SFRSYM    DATA     BYTE      I2C0FCN0
      000000F8H.3 SFRSYM    DATA     BIT       SPI0CN0_NSSMD1
      000000BDH   SFRSYM    DATA     WORD      ADC0
      000000D8H   SFRSYM    DATA     BYTE      UART1FCN1
      000000ABH   SFRSYM    DATA     BYTE      I2C0FCN1
      00000098H.5 SFRSYM    DATA     BIT       TMR4CN0_TF4LEN
      000000D0H   SFRSYM    DATA     BYTE      PSW
      000000F7H   SFRSYM    DATA     BYTE      PCA0PWM
      000000F7H   SFRSYM    DATA     BYTE      SPI0FCT
      000000B6H   SFRSYM    DATA     BYTE      REVID
      000000B7H   SFRSYM    DATA     BYTE      FLKEY
      000000B3H   SFRSYM    DATA     BYTE      ADC0AC

      01002B78H   BLOCK     CODE     ---       LVL=0
      01002B78H   BLOCK     CODE     NEAR LAB  LVL=1
      00000007H   SYMBOL    DATA     BYTE      i
      ---         BLOCKEND  ---      ---       LVL=1
      01002B78H   LINE      CODE     ---       #38
      01002B78H   LINE      CODE     ---       #39
      01002B78H   LINE      CODE     ---       #41
      01002B7AH   LINE      CODE     ---       #42
      01002B7AH   LINE      CODE     ---       #43
      01002B9CH   LINE      CODE     ---       #44
      01002BBEH   LINE      CODE     ---       #45
      01002BE0H   LINE      CODE     ---       #46
      01002C02H   LINE      CODE     ---       #47
      01002C0BH   LINE      CODE     ---       #49
      01002C0DH   LINE      CODE     ---       #50
      01002C0DH   LINE      CODE     ---       #51
      01002C2FH   LINE      CODE     ---       #52
      01002C34H   LINE      CODE     ---       #53
      ---         BLOCKEND  ---      ---       LVL=0
LX51 LINKER/LOCATER V4.66.30.0                                                        08/11/2020  17:20:48  PAGE 132



      01003745H   BLOCK     CODE     ---       LVL=0
      020003A4H   SYMBOL    XDATA    BYTE      value
      0100374AH   BLOCK     CODE     NEAR LAB  LVL=1
      00000004H   SYMBOL    DATA     BYTE      i
      00000001H   SYMBOL    DATA     BYTE      evensum
      00000005H   SYMBOL    DATA     BYTE      ret
      ---         BLOCKEND  ---      ---       LVL=1
      01003745H   LINE      CODE     ---       #56
      0100374AH   LINE      CODE     ---       #57
      0100374AH   LINE      CODE     ---       #59
      0100374CH   LINE      CODE     ---       #60
      0100374DH   LINE      CODE     ---       #61
      0100374EH   LINE      CODE     ---       #62
      0100374EH   LINE      CODE     ---       #63
      0100377AH   LINE      CODE     ---       #64
      0100377AH   LINE      CODE     ---       #65
      0100377BH   LINE      CODE     ---       #66
      0100377BH   LINE      CODE     ---       #67
      01003780H   LINE      CODE     ---       #68
      01003783H   LINE      CODE     ---       #69
      01003784H   LINE      CODE     ---       #70
      ---         BLOCKEND  ---      ---       LVL=0

      01002D96H   BLOCK     CODE     ---       LVL=0
      00000007H   SYMBOL    DATA     BYTE      mode
      01002D96H   BLOCK     CODE     NEAR LAB  LVL=1
      00000006H   SYMBOL    DATA     BYTE      i
      00000001H   SYMBOL    DATA     BYTE      ret
      00000004H   SYMBOL    DATA     WORD      checksum
      ---         BLOCKEND  ---      ---       LVL=1
      01002D96H   LINE      CODE     ---       #72
      01002D96H   LINE      CODE     ---       #73
      01002D96H   LINE      CODE     ---       #76
      01002D99H   LINE      CODE     ---       #77
      01002D9AH   LINE      CODE     ---       #78
      01002DAEH   LINE      CODE     ---       #79
      01002DAEH   LINE      CODE     ---       #80
      01002DAEH   LINE      CODE     ---       #81
      01002DAEH   LINE      CODE     ---       #82
      01002DB0H   LINE      CODE     ---       #83
      01002DB0H   LINE      CODE     ---       #84
      01002DC4H   LINE      CODE     ---       #85
      01002DC9H   LINE      CODE     ---       #86
      01002DC9H   LINE      CODE     ---       #87
      01002DCBH   LINE      CODE     ---       #88
      01002DCBH   LINE      CODE     ---       #89
      01002DCBH   LINE      CODE     ---       #90
      01002DCBH   LINE      CODE     ---       #91
      01002DCDH   LINE      CODE     ---       #92
      01002DCDH   LINE      CODE     ---       #93
      01002DE1H   LINE      CODE     ---       #94
      01002DE6H   LINE      CODE     ---       #95
      01002DE6H   LINE      CODE     ---       #96
      01002DE8H   LINE      CODE     ---       #97
      01002DE8H   LINE      CODE     ---       #98
      01002DE8H   LINE      CODE     ---       #99
      01002DE8H   LINE      CODE     ---       #100
      01002DEAH   LINE      CODE     ---       #101
      01002DEAH   LINE      CODE     ---       #102
      01002DFEH   LINE      CODE     ---       #103
      01002E03H   LINE      CODE     ---       #104
LX51 LINKER/LOCATER V4.66.30.0                                                        08/11/2020  17:20:48  PAGE 133


      01002E03H   LINE      CODE     ---       #105
      01002E05H   LINE      CODE     ---       #106
      01002E05H   LINE      CODE     ---       #108
      01002E05H   LINE      CODE     ---       #109
      01002E05H   LINE      CODE     ---       #110
      01002E07H   LINE      CODE     ---       #111
      01002E07H   LINE      CODE     ---       #112
      01002E1BH   LINE      CODE     ---       #113
      01002E20H   LINE      CODE     ---       #114
      01002E20H   LINE      CODE     ---       #115
      01002E22H   LINE      CODE     ---       #116
      01002E22H   LINE      CODE     ---       #118
      01002E22H   LINE      CODE     ---       #119
      01002E22H   LINE      CODE     ---       #120
      01002E24H   LINE      CODE     ---       #121
      01002E24H   LINE      CODE     ---       #122
      01002E38H   LINE      CODE     ---       #123
      01002E3DH   LINE      CODE     ---       #124
      01002E3DH   LINE      CODE     ---       #125
      01002E3DH   LINE      CODE     ---       #126
      01002E3DH   LINE      CODE     ---       #127
      01002E3DH   LINE      CODE     ---       #128
      01002E3FH   LINE      CODE     ---       #129
      01002E41H   LINE      CODE     ---       #130
      ---         BLOCKEND  ---      ---       LVL=0

      01001040H   BLOCK     CODE     ---       LVL=0
      020003A4H   SYMBOL    XDATA    WORD      start
      01001048H   BLOCK     CODE     NEAR LAB  LVL=1
      00000001H   SYMBOL    DATA     ---       pCtt
      ---         BLOCKEND  ---      ---       LVL=1
      01001040H   LINE      CODE     ---       #132
      01001048H   LINE      CODE     ---       #133
      01001048H   LINE      CODE     ---       #135
      0100104EH   LINE      CODE     ---       #137
      01001056H   LINE      CODE     ---       #138
      01001056H   LINE      CODE     ---       #139
      01001067H   LINE      CODE     ---       #140
      01001085H   LINE      CODE     ---       #141
      01001099H   LINE      CODE     ---       #142
      010010BAH   LINE      CODE     ---       #143
      010010CEH   LINE      CODE     ---       #144
      010010EFH   LINE      CODE     ---       #145
      01001103H   LINE      CODE     ---       #146
      0100111FH   LINE      CODE     ---       #147
      01001122H   LINE      CODE     ---       #148
      01001131H   LINE      CODE     ---       #149
      01001131H   LINE      CODE     ---       #150
      01001142H   LINE      CODE     ---       #151
      01001160H   LINE      CODE     ---       #152
      01001180H   LINE      CODE     ---       #153
      010011ADH   LINE      CODE     ---       #154
      010011E4H   LINE      CODE     ---       #155
      0100121BH   LINE      CODE     ---       #156
      0100123CH   LINE      CODE     ---       #157
      01001250H   LINE      CODE     ---       #158
      01001271H   LINE      CODE     ---       #159
      01001285H   LINE      CODE     ---       #160
      010012A6H   LINE      CODE     ---       #161
      010012A7H   LINE      CODE     ---       #163
      010012A7H   LINE      CODE     ---       #164
      010012AAH   LINE      CODE     ---       #165
LX51 LINKER/LOCATER V4.66.30.0                                                        08/11/2020  17:20:48  PAGE 134


      010012AAH   LINE      CODE     ---       #167
      ---         BLOCKEND  ---      ---       LVL=0

      0100362FH   BLOCK     CODE     ---       LVL=0
      0100362FH   BLOCK     CODE     NEAR LAB  LVL=1
      00000007H   SYMBOL    DATA     BYTE      i
      ---         BLOCKEND  ---      ---       LVL=1
      0100362FH   LINE      CODE     ---       #169
      0100362FH   LINE      CODE     ---       #170
      0100362FH   LINE      CODE     ---       #173
      01003631H   LINE      CODE     ---       #174
      01003631H   LINE      CODE     ---       #175
      01003641H   LINE      CODE     ---       #176
      01003651H   LINE      CODE     ---       #177
      01003656H   LINE      CODE     ---       #178
      01003664H   LINE      CODE     ---       #179
      01003669H   LINE      CODE     ---       #180
      0100366DH   LINE      CODE     ---       #181
      01003673H   LINE      CODE     ---       #182
      01003678H   LINE      CODE     ---       #185
      ---         BLOCKEND  ---      ---       LVL=0

      010037C4H   BLOCK     CODE     ---       LVL=0
      010037C4H   LINE      CODE     ---       #187
      010037C4H   LINE      CODE     ---       #188
      010037C4H   LINE      CODE     ---       #189
      010037C7H   LINE      CODE     ---       #190
      010037CCH   LINE      CODE     ---       #191
      010037D7H   LINE      CODE     ---       #192
      010037DEH   LINE      CODE     ---       #193
      010037FBH   LINE      CODE     ---       #194
      ---         BLOCKEND  ---      ---       LVL=0

      ---         MODULE    ---      ---       ?C_INIT
      01003073H   PUBLIC    CODE     ---       ?C_START

      ---         MODULE    ---      ---       ?C?CLDOPTR
      010006A0H   PUBLIC    CODE     ---       ?C?CLDOPTR

      ---         MODULE    ---      ---       ?C?CILDOPTR
      010006CDH   PUBLIC    CODE     ---       ?C?CILDOPTR

      ---         MODULE    ---      ---       ?C?CSTOPTR
      01000700H   PUBLIC    CODE     ---       ?C?CSTOPTR

      ---         MODULE    ---      ---       ?C?IMUL
      01000722H   PUBLIC    CODE     ---       ?C?IMUL

      ---         MODULE    ---      ---       ?C?UIDIV
      01000734H   PUBLIC    CODE     ---       ?C?UIDIV

      ---         MODULE    ---      ---       ?C?IILDX
      01000789H   PUBLIC    CODE     ---       ?C?IILDX

      ---         MODULE    ---      ---       ?C?ILDPTR
      0100079FH   PUBLIC    CODE     ---       ?C?ILDPTR

      ---         MODULE    ---      ---       ?C?ILDOPTR
      010007CAH   PUBLIC    CODE     ---       ?C?ILDOPTR

      ---         MODULE    ---      ---       ?C?ISTPTR
      01000802H   PUBLIC    CODE     ---       ?C?ISTPTR
LX51 LINKER/LOCATER V4.66.30.0                                                        08/11/2020  17:20:48  PAGE 135



      ---         MODULE    ---      ---       ?C?ISTOPTR
      01000821H   PUBLIC    CODE     ---       ?C?ISTOPTR

      ---         MODULE    ---      ---       ?C?ULDIV
      0100088AH   PUBLIC    CODE     ---       ?C?ULDIV

      ---         MODULE    ---      ---       ?C?ULCMP
      0100091CH   PUBLIC    CODE     ---       ?C?ULCMP

      ---         MODULE    ---      ---       ?C?LSTXDATA
      0100092DH   PUBLIC    CODE     ---       ?C?LSTXDATA

      ---         MODULE    ---      ---       ?C?LSTKXDATA
      01000939H   PUBLIC    CODE     ---       ?C?LSTKXDATA

      ---         MODULE    ---      ---       ?C?OFFXADD
      0100096AH   PUBLIC    CODE     ---       ?C?OFFXADD

      ---         MODULE    ---      ---       ?C?PLDOPTR
      01000976H   PUBLIC    CODE     ---       ?C?PLDOPTR

      ---         MODULE    ---      ---       ?C?PSTOPTR
      010009A6H   PUBLIC    CODE     ---       ?C?PSTOPTR

      ---         MODULE    ---      ---       ?C?ICALL
      010009FFH   PUBLIC    CODE     ---       ?C?ICALL
      01000A03H   PUBLIC    CODE     ---       ?C?ICALL2

      ---         MODULE    ---      ---       ?C?LIMUL
      01000A05H   PUBLIC    CODE     ---       ?C?LIMUL

      ---         MODULE    ---      ---       ?C?PLDIDATA
      01000A32H   PUBLIC    CODE     ---       ?C?PLDIDATA

      ---         MODULE    ---      ---       ?C?PSTIDATA
      01000A3BH   PUBLIC    CODE     ---       ?C?PSTIDATA

      ---         MODULE    ---      ---       ?C?PLDXDATA
      01000A44H   PUBLIC    CODE     ---       ?C?PLDXDATA

      ---         MODULE    ---      ---       ?C?PSTXDATA
      01000A4DH   PUBLIC    CODE     ---       ?C?PSTXDATA

      ---         MODULE    ---      ---       ?C?PLDPDATA
      01000A56H   PUBLIC    CODE     ---       ?C?PLDPDATA

      ---         MODULE    ---      ---       ?C?PSTPDATA
      01000A5FH   PUBLIC    CODE     ---       ?C?PSTPDATA

      ---         MODULE    ---      ---       ?C?PLDCODE
      01000A68H   PUBLIC    CODE     ---       ?C?PLDCODE



*** WARNING L13: RECURSIVE CALL TO FUNCTION
    CALLED:  _SRL_GETHEADER/SERIAL
    CALLER:  _SRL_GETDATA/SERIAL

*** WARNING L15: MULTIPLE CALL TO FUNCTION
    NAME:    _CALCBYTEEVEN/UARTCFG
    CALLER1: ?C_C51STARTUP
LX51 LINKER/LOCATER V4.66.30.0                                                        08/11/2020  17:20:48  PAGE 136


    CALLER2: UART0_ISR/UART

Program Size: data=9.1 xdata=962 const=0 code=15561
LX51 RUN COMPLETE.  2 WARNING(S),  0 ERROR(S)
