LX51 LINKER/LOCATER V4.66.30.0                                                          08/12/2020  16:38:44  PAGE 1


LX51 LINKER/LOCATER V4.66.30.0, INVOKED BY:
C:\SILICONLABS\SIMPLICITYSTUDIO\V4\DEVELOPER\TOOLCHAINS\KEIL_8051\9.53\BIN\LX51.EXE ./src/Adc.OBJ, ./src/Command.OBJ, ./
>> src/Cpu.OBJ, ./src/DetectObj.OBJ, ./src/EFM8BB2_FlashPrimitives.OBJ, ./src/InitDevice.OBJ, ./src/Main.OBJ, ./src/SILA
>> BS_STARTUP.OBJ, ./src/Serial.OBJ, ./src/Speaker.OBJ, ./src/Timer.OBJ, ./src/Uart.OBJ, ./src/UartCfg.OBJ TO DFSK-F516-
>> EFM8BB21F16G-C-QFN20_20200107.OMF.CRBUILD REMOVEUNUSED PRINT (.\DFSK-F516-EFM8BB21F16G-C-QFN20_20200107.m51) PAGEWIDT
>> H (120) PAGELENGTH (65) CLASSES (ECODE (C:0X0-C:0X3FFE), HCONST (C:0X0-C:0X3FFE), XDATA (X:0X0-X:0X7FF), HDATA (X:0X0
>> -X:0X7FF))




PROGRAM RECURSIONS REMOVED FROM CALL TREE
=========================================
+--> _SRL_GETHEADER/SERIAL
<--+ _SRL_GETDATA/SERIAL



CPU MODE:     8051 MODE
MEMORY MODEL: LARGE


INPUT MODULES INCLUDED:
  ./src/Adc.OBJ (ADC)
         COMMENT TYPE 0: C51 V9.53.0.0
  ./src/Command.OBJ (COMMAND)
         COMMENT TYPE 0: C51 V9.53.0.0
  ./src/Cpu.OBJ (CPU)
         COMMENT TYPE 0: C51 V9.53.0.0
  ./src/DetectObj.OBJ (DETECTOBJ)
         COMMENT TYPE 0: C51 V9.53.0.0
  ./src/EFM8BB2_FlashPrimitives.OBJ (EFM8BB2_FLASHPRIMITIVES)
         COMMENT TYPE 0: C51 V9.53.0.0
  ./src/InitDevice.OBJ (INITDEVICE)
         COMMENT TYPE 0: C51 V9.53.0.0
  ./src/Main.OBJ (MAIN)
         COMMENT TYPE 0: C51 V9.53.0.0
  ./src/SILABS_STARTUP.OBJ (?C_STARTUP)
         COMMENT TYPE 0: AX51 V3.12.0.0
  ./src/Serial.OBJ (SERIAL)
         COMMENT TYPE 0: C51 V9.53.0.0
  ./src/Speaker.OBJ (SPEAKER)
         COMMENT TYPE 0: C51 V9.53.0.0
  ./src/Timer.OBJ (TIMER)
         COMMENT TYPE 0: C51 V9.53.0.0
  ./src/Uart.OBJ (UART)
         COMMENT TYPE 0: C51 V9.53.0.0
  ./src/UartCfg.OBJ (UARTCFG)
         COMMENT TYPE 0: C51 V9.53.0.0
  C:\SILICONLABS\SIMPLICITYSTUDIO\V4\DEVELOPER\TOOLCHAINS\KEIL_8051\9.53\LIB\C51L.LIB (?C_INIT)
         COMMENT TYPE 1: A51 / ASM51 Assembler
  C:\SILICONLABS\SIMPLICITYSTUDIO\V4\DEVELOPER\TOOLCHAINS\KEIL_8051\9.53\LIB\C51L.LIB (?C?CLDOPTR)
         COMMENT TYPE 1: A51 / ASM51 Assembler
  C:\SILICONLABS\SIMPLICITYSTUDIO\V4\DEVELOPER\TOOLCHAINS\KEIL_8051\9.53\LIB\C51L.LIB (?C?CILDOPTR)
         COMMENT TYPE 1: A51 / ASM51 Assembler
  C:\SILICONLABS\SIMPLICITYSTUDIO\V4\DEVELOPER\TOOLCHAINS\KEIL_8051\9.53\LIB\C51L.LIB (?C?CSTOPTR)
         COMMENT TYPE 1: A51 / ASM51 Assembler
  C:\SILICONLABS\SIMPLICITYSTUDIO\V4\DEVELOPER\TOOLCHAINS\KEIL_8051\9.53\LIB\C51L.LIB (?C?IMUL)
         COMMENT TYPE 1: A51 / ASM51 Assembler
  C:\SILICONLABS\SIMPLICITYSTUDIO\V4\DEVELOPER\TOOLCHAINS\KEIL_8051\9.53\LIB\C51L.LIB (?C?UIDIV)
         COMMENT TYPE 1: A51 / ASM51 Assembler
  C:\SILICONLABS\SIMPLICITYSTUDIO\V4\DEVELOPER\TOOLCHAINS\KEIL_8051\9.53\LIB\C51L.LIB (?C?IILDX)
         COMMENT TYPE 1: A51 / ASM51 Assembler
LX51 LINKER/LOCATER V4.66.30.0                                                        08/12/2020  16:38:44  PAGE 2


  C:\SILICONLABS\SIMPLICITYSTUDIO\V4\DEVELOPER\TOOLCHAINS\KEIL_8051\9.53\LIB\C51L.LIB (?C?ILDPTR)
         COMMENT TYPE 1: A51 / ASM51 Assembler
  C:\SILICONLABS\SIMPLICITYSTUDIO\V4\DEVELOPER\TOOLCHAINS\KEIL_8051\9.53\LIB\C51L.LIB (?C?ILDOPTR)
         COMMENT TYPE 1: A51 / ASM51 Assembler
  C:\SILICONLABS\SIMPLICITYSTUDIO\V4\DEVELOPER\TOOLCHAINS\KEIL_8051\9.53\LIB\C51L.LIB (?C?ISTPTR)
         COMMENT TYPE 1: A51 / ASM51 Assembler
  C:\SILICONLABS\SIMPLICITYSTUDIO\V4\DEVELOPER\TOOLCHAINS\KEIL_8051\9.53\LIB\C51L.LIB (?C?ISTOPTR)
         COMMENT TYPE 1: A51 / ASM51 Assembler
  C:\SILICONLABS\SIMPLICITYSTUDIO\V4\DEVELOPER\TOOLCHAINS\KEIL_8051\9.53\LIB\C51L.LIB (?C?LMUL)
         COMMENT TYPE 1: A51 / ASM51 Assembler
  C:\SILICONLABS\SIMPLICITYSTUDIO\V4\DEVELOPER\TOOLCHAINS\KEIL_8051\9.53\LIB\C51L.LIB (?C?ULDIV)
         COMMENT TYPE 1: A51 / ASM51 Assembler
  C:\SILICONLABS\SIMPLICITYSTUDIO\V4\DEVELOPER\TOOLCHAINS\KEIL_8051\9.53\LIB\C51L.LIB (?C?ULCMP)
         COMMENT TYPE 1: A51 / ASM51 Assembler
  C:\SILICONLABS\SIMPLICITYSTUDIO\V4\DEVELOPER\TOOLCHAINS\KEIL_8051\9.53\LIB\C51L.LIB (?C?LSHL)
         COMMENT TYPE 1: A51 / ASM51 Assembler
  C:\SILICONLABS\SIMPLICITYSTUDIO\V4\DEVELOPER\TOOLCHAINS\KEIL_8051\9.53\LIB\C51L.LIB (?C?LSTXDATA)
         COMMENT TYPE 1: A51 / ASM51 Assembler
  C:\SILICONLABS\SIMPLICITYSTUDIO\V4\DEVELOPER\TOOLCHAINS\KEIL_8051\9.53\LIB\C51L.LIB (?C?LSTKXDATA)
         COMMENT TYPE 1: A51 / ASM51 Assembler
  C:\SILICONLABS\SIMPLICITYSTUDIO\V4\DEVELOPER\TOOLCHAINS\KEIL_8051\9.53\LIB\C51L.LIB (?C?OFFXADD)
         COMMENT TYPE 1: A51 / ASM51 Assembler
  C:\SILICONLABS\SIMPLICITYSTUDIO\V4\DEVELOPER\TOOLCHAINS\KEIL_8051\9.53\LIB\C51L.LIB (?C?PLDOPTR)
         COMMENT TYPE 1: A51 / ASM51 Assembler
  C:\SILICONLABS\SIMPLICITYSTUDIO\V4\DEVELOPER\TOOLCHAINS\KEIL_8051\9.53\LIB\C51L.LIB (?C?PSTOPTR)
         COMMENT TYPE 1: A51 / ASM51 Assembler
  C:\SILICONLABS\SIMPLICITYSTUDIO\V4\DEVELOPER\TOOLCHAINS\KEIL_8051\9.53\LIB\C51L.LIB (?C?ICALL)
         COMMENT TYPE 1: A51 / ASM51 Assembler
  C:\SILICONLABS\SIMPLICITYSTUDIO\V4\DEVELOPER\TOOLCHAINS\KEIL_8051\9.53\LIB\C51L.LIB (?C?LIMUL)
         COMMENT TYPE 1: A51 / ASM51 Assembler
  C:\SILICONLABS\SIMPLICITYSTUDIO\V4\DEVELOPER\TOOLCHAINS\KEIL_8051\9.53\LIB\C51L.LIB (?C?PLDIDATA)
         COMMENT TYPE 1: A51 / ASM51 Assembler
  C:\SILICONLABS\SIMPLICITYSTUDIO\V4\DEVELOPER\TOOLCHAINS\KEIL_8051\9.53\LIB\C51L.LIB (?C?PSTIDATA)
         COMMENT TYPE 1: A51 / ASM51 Assembler
  C:\SILICONLABS\SIMPLICITYSTUDIO\V4\DEVELOPER\TOOLCHAINS\KEIL_8051\9.53\LIB\C51L.LIB (?C?PLDXDATA)
         COMMENT TYPE 1: A51 / ASM51 Assembler
  C:\SILICONLABS\SIMPLICITYSTUDIO\V4\DEVELOPER\TOOLCHAINS\KEIL_8051\9.53\LIB\C51L.LIB (?C?PSTXDATA)
         COMMENT TYPE 1: A51 / ASM51 Assembler
  C:\SILICONLABS\SIMPLICITYSTUDIO\V4\DEVELOPER\TOOLCHAINS\KEIL_8051\9.53\LIB\C51L.LIB (?C?PLDPDATA)
         COMMENT TYPE 1: A51 / ASM51 Assembler
  C:\SILICONLABS\SIMPLICITYSTUDIO\V4\DEVELOPER\TOOLCHAINS\KEIL_8051\9.53\LIB\C51L.LIB (?C?PSTPDATA)
         COMMENT TYPE 1: A51 / ASM51 Assembler
  C:\SILICONLABS\SIMPLICITYSTUDIO\V4\DEVELOPER\TOOLCHAINS\KEIL_8051\9.53\LIB\C51L.LIB (?C?PLDCODE)
         COMMENT TYPE 1: A51 / ASM51 Assembler


ACTIVE MEMORY CLASSES OF MODULE:  DFSK-F516-EFM8BB21F16G-C-QFN20_20200107.OMF.CRBUILD (ADC)

BASE        START       END         USED      MEMORY CLASS
==========================================================
C:000000H   C:000000H   C:003FFEH             ECODE
B00:0000H   C:000000H   C:003FFEH             HCONST
X:000000H   X:000000H   X:0007FFH   0003F5H   XDATA
X:000000H   X:000000H   X:0007FFH             HDATA
C:000000H   C:000000H   C:00FFFFH   00383FH   CODE
I:000020H.0 I:000020H.0 I:00002FH.7           BIT
I:000000H   I:000000H   I:0000FFH   000001H   IDATA
I:000000H   I:000000H   I:00007FH   000008H   DATA


MEMORY MAP OF MODULE:  DFSK-F516-EFM8BB21F16G-C-QFN20_20200107.OMF.CRBUILD (ADC)

LX51 LINKER/LOCATER V4.66.30.0                                                        08/12/2020  16:38:44  PAGE 3



START     STOP      LENGTH    ALIGN  RELOC    MEMORY CLASS   SEGMENT NAME
=========================================================================

* * * * * * * * * * *   D A T A   M E M O R Y   * * * * * * * * * * * * *
000000H   000007H   000008H   ---    AT..     DATA           "REG BANK 0"
000008H   000008H   000001H   BYTE   UNIT     IDATA          ?STACK

* * * * * * * * * * *   C O D E   M E M O R Y   * * * * * * * * * * * * *
000000H   000002H   000003H   ---    OFFS..   CODE           ?CO?SILABS_STARTUP?3
000003H   00000AH   000008H   BYTE   UNIT     CODE           ?PR?STOP_PCA0_COMPARATOR?TIMER
00000BH   00000DH   000003H   BYTE   OFFS..   CODE           ?TIMER?0000B
00000EH   000020H   000013H   BYTE   UNIT     CODE           ?PR?TIME_STOPADCTRIGGER?TIMER
000021H   000021H   000001H   BYTE   UNIT     CODE           ?PR?SILABS_STARTUP?MAIN
000022H   000022H   000001H   BYTE   UNIT     CODE           ?PR?TIMER0_ISR?TIMER
000023H   000025H   000003H   BYTE   OFFS..   CODE           ?UART?00023
000026H   00002AH   000005H   BYTE   UNIT     CODE           ?PR?STARTTHEUART0TIMER?TIMER
00002BH   00002DH   000003H   BYTE   OFFS..   CODE           ?TIMER?0002B
00002EH   00004AH   00001DH   BYTE   UNIT     CODE           ?PR?_DELAY1MS?TIMER
00004BH   00004DH   000003H   BYTE   OFFS..   CODE           ?ADC?0004B
00004EH   000050H   000003H   BYTE   UNIT     CODE           ?PR?ADC_WINDOW_ISR?ADC
000051H   000052H   000002H   ---    ---      **GAP**
000053H   000055H   000003H   BYTE   OFFS..   CODE           ?ADC?00053
000056H   000058H   000003H   BYTE   UNIT     CODE           ?PR?CPU_ENABLEINTERRUPT?CPU
000059H   00005AH   000002H   ---    ---      **GAP**
00005BH   00005DH   000003H   BYTE   OFFS..   CODE           ?SERIAL?0005B
00005EH   00006DH   000010H   BYTE   UNIT     CODE           ?PR?CMD_SENDDISTANCETOBCM?COMMAND
00006EH   000070H   000003H   BYTE   UNIT     CODE           ?PR?CPU_DISABLEINTERRUPT?CPU
000071H   000072H   000002H   ---    ---      **GAP**
000073H   000075H   000003H   BYTE   OFFS..   CODE           ?TIMER?00073
000076H   00009AH   000025H   BYTE   UNIT     CODE           ?PR?UART0_MOUDLE_DIS?UART
00009BH   00009DH   000003H   BYTE   OFFS..   CODE           ?TIMER?0009B
00009EH   0005C7H   00052AH   BYTE   UNIT     CODE           ?PR?CMD_PROCESS?COMMAND
0005C8H   0009FDH   000436H   BYTE   UNIT     CODE           ?C?LIB_CODE
0009FEH   000D41H   000344H   BYTE   UNIT     CODE           ?PR?DETOBJ_RAWECHODATAANS?DETECTOBJ
000D42H   000FC9H   000288H   BYTE   UNIT     CODE           ?PR?DETOBJ_COMPARETHEDATA?DETECTOBJ
000FCAH   001234H   00026BH   BYTE   UNIT     CODE           ?PR?_RECEIVEFRAMERECORRESPONDING?UARTCFG
001235H   001462H   00022EH   BYTE   UNIT     CODE           ?PR?_UART0_RXDATA?UART
001463H   00167BH   000219H   BYTE   UNIT     CODE           ?PR?DETOBJ_DETTHEOBJ?DETECTOBJ
00167CH   00185EH   0001E3H   BYTE   UNIT     CODE           ?PR?DETOBJ_CALSAMPNOISE?DETECTOBJ
00185FH   001A35H   0001D7H   BYTE   UNIT     CODE           ?PR?CMD_DISTANCETOCOMINFO?COMMAND
001A36H   001C0BH   0001D6H   BYTE   UNIT     CODE           ?PR?DETOBJ_RAWFILTER?DETECTOBJ
001C0CH   001D91H   000186H   BYTE   UNIT     CODE           ?PR?_SRL_SENDDATA?SERIAL
001D92H   001F0EH   00017DH   BYTE   UNIT     CODE           ?PR?PCA0_ISR?SERIAL
001F0FH   002077H   000169H   BYTE   UNIT     CODE           ?PR?ADC_READID?ADC
002078H   0021D4H   00015DH   BYTE   UNIT     CODE           ?PR?DETOBJ_GENERATETHENEARESTOBSTACLE?DETECTOBJ
0021D5H   002319H   000145H   BYTE   UNIT     CODE           ?PR?DETOBJ_RAWNOISEDATAANS?DETECTOBJ
00231AH   002448H   00012FH   BYTE   UNIT     CODE           ?PR?SENDDATA_WORK?SERIAL
002449H   00254FH   000107H   BYTE   UNIT     CODE           ?PR?DETOBJ_DIAGNOSTICTHERINGTIME?DETECTOBJ
002550H   002654H   000105H   BYTE   UNIT     CODE           ?PR?_SRL_GETDATA?SERIAL
002655H   002745H   0000F1H   BYTE   UNIT     CODE           ?PR?_SRL_GETHEADER?SERIAL
002746H   00282DH   0000E8H   BYTE   UNIT     CODE           ?C_INITSEG
00282EH   0028FBH   0000CEH   BYTE   UNIT     CODE           ?PR?SENDDATA_SELFCHECK?SERIAL
0028FCH   0029C3H   0000C8H   BYTE   UNIT     CODE           ?PR?INITGLOBALVARIABLE?MAIN
0029C4H   002A82H   0000BFH   BYTE   UNIT     CODE           ?PR?ADC_ISR?ADC
002A83H   002B2EH   0000ACH   BYTE   UNIT     CODE           ?PR?_CALCFRAMECHECKSUM?UARTCFG
002B2FH   002BCFH   0000A1H   BYTE   UNIT     CODE           ?PR?DETOBJ_PROCESSTHERINGTIME?DETECTOBJ
002BD0H   002C67H   000098H   BYTE   UNIT     CODE           ?PR?MAIN?MAIN
002C68H   002CF6H   00008FH   BYTE   UNIT     CODE           ?C_C51STARTUP
002CF7H   002D84H   00008EH   BYTE   UNIT     CODE           ?PR?DETOBJ_SENDTHE58KHZULTRASONIC?DETECTOBJ
002D85H   002E0EH   00008AH   BYTE   UNIT     CODE           ?PR?CMD_UPDATADISTANCE?COMMAND
002E0FH   002E93H   000085H   BYTE   UNIT     CODE           ?PR?DETOBJ_INITTHEEPD?DETECTOBJ
LX51 LINKER/LOCATER V4.66.30.0                                                        08/12/2020  16:38:44  PAGE 4


002E94H   002F18H   000085H   BYTE   UNIT     CODE           ?PR?TIMER2_ISR?TIMER
002F19H   002F8BH   000073H   BYTE   UNIT     CODE           ?PR?DETOBJ_CLEARTHENOISEBUFF?DETECTOBJ
002F8CH   002FF8H   00006DH   BYTE   UNIT     CODE           ?PR?CMD_SENDSELFCHECKTOBCM?COMMAND
002FF9H   00305EH   000066H   BYTE   UNIT     CODE           ?PR?CMD_SAVEDATA?COMMAND
00305FH   0030C3H   000065H   BYTE   UNIT     CODE           ?PR?_GETDISTANCE?DETECTOBJ
0030C4H   003128H   000065H   BYTE   UNIT     CODE           ?PR?UART0_ISR?UART
003129H   00318BH   000063H   BYTE   UNIT     CODE           ?PR?DETOBJ_HOLDTHEOBSTACLESTATE?DETECTOBJ
00318CH   0031E6H   00005BH   BYTE   UNIT     CODE           ?PR?RXDATAPARITY?SERIAL
0031E7H   00323CH   000056H   BYTE   UNIT     CODE           ?PR?ADC_CALUE?ADC
00323DH   00328EH   000052H   BYTE   UNIT     CODE           ?PR?DETOBJ_INITALLCHANNELDISTANCE?DETECTOBJ
00328FH   0032D9H   00004BH   BYTE   UNIT     CODE           ?PR?DETOBJ_INITTHECCD?DETECTOBJ
0032DAH   003323H   00004AH   BYTE   UNIT     CODE           ?PR?INITUART0RECEIVEVAR?UARTCFG
003324H   003366H   000043H   BYTE   UNIT     CODE           ?PR?_DETOBJ_COPYSAMPLINGBUFFER?DETECTOBJ
003367H   0033A6H   000040H   BYTE   UNIT     CODE           ?PR?_CALCBYTEEVEN?UARTCFG
0033A7H   0033DFH   000039H   BYTE   UNIT     CODE           ?PR?SRL_INITVARIABLE?SERIAL
0033E0H   003417H   000038H   BYTE   UNIT     CODE           ?PR?_DELAY1US?TIMER
003418H   00344EH   000037H   BYTE   UNIT     CODE           ?PR?TIME_INITPCA0?TIMER
00344FH   003481H   000033H   BYTE   UNIT     CODE           ?PR?ADC_INITDETECT?ADC
003482H   0034B0H   00002FH   BYTE   UNIT     CODE           ?PR?ADC_POWERSAMPLINGINIT?ADC
0034B1H   0034DFH   00002FH   BYTE   UNIT     CODE           ?PR?ADC_IDSAMPLINGINIT?ADC
0034E0H   00350EH   00002FH   BYTE   UNIT     CODE           ?PR?TIMER3_ISR?TIMER
00350FH   00353BH   00002DH   BYTE   UNIT     CODE           ?PR?_COMMUNICAITONMODE?SERIAL
00353CH   003566H   00002BH   BYTE   UNIT     CODE           ?PR?TIME_INIT1MSTIMER?TIMER
003567H   003591H   00002BH   BYTE   UNIT     CODE           ?PR?TIME_INITTHEDELAYTIMER?TIMER
003592H   0035BBH   00002AH   BYTE   UNIT     CODE           ?PR?DETOBJ_REALTIMECLOCK?DETECTOBJ
0035BCH   0035E5H   00002AH   BYTE   UNIT     CODE           ?PR?DETOBJ_CLEARTHERAWDATABUFF?DETECTOBJ
0035E6H   00360EH   000029H   BYTE   UNIT     CODE           ?PR?TIME_INITUART0TIMER?TIMER
00360FH   003636H   000028H   BYTE   UNIT     CODE           ?PR?_START_PCA0_CAPTURE?TIMER
003637H   00365EH   000028H   BYTE   UNIT     CODE           ?PR?_STOP_PCA0_CAPTURE?TIMER
00365FH   003685H   000027H   BYTE   UNIT     CODE           ?PR?TIME_INITADCTRIGGERTIMER?TIMER
003686H   0036ACH   000027H   BYTE   UNIT     CODE           ?PR?UART0_INIT?UART
0036ADH   0036D2H   000026H   BYTE   UNIT     CODE           ?PR?DETOBJ_DIAGNOSTICTHESENSOR?DETECTOBJ
0036D3H   0036F8H   000026H   BYTE   UNIT     CODE           ?PR?ENABLEINTERNALCOMMUNICAITON?SERIAL
0036F9H   00371BH   000023H   BYTE   UNIT     CODE           ?PR?CPU_INITHARDWAREPORT?CPU
00371CH   00373CH   000021H   BYTE   UNIT     CODE           ?PR?CMD_NEXTSENSORSELF?COMMAND
00373DH   00375BH   00001FH   BYTE   UNIT     CODE           ?PR?CMD_NEXTSENSORDET?COMMAND
00375CH   003779H   00001EH   BYTE   UNIT     CODE           ?PR?CMD_INITVARIABLE?COMMAND
00377AH   003797H   00001EH   BYTE   UNIT     CODE           ?PR?CPU_CLK_INIT?CPU
003798H   0037B3H   00001CH   BYTE   UNIT     CODE           ?PR?TIME_INIT32MSTIMER?TIMER
0037B4H   0037CFH   00001CH   BYTE   UNIT     CODE           ?PR?TIME_STARTADCTRIGGER?TIMER
0037D0H   0037EAH   00001BH   BYTE   UNIT     CODE           ?PR?TIMER4_ISR?TIMER
0037EBH   003801H   000017H   BYTE   UNIT     CODE           ?PR?_CPU_WDG_INIT?CPU
003802H   00380EH   00000DH   BYTE   UNIT     CODE           ?PR?ADC_START?ADC
00380FH   00381BH   00000DH   BYTE   UNIT     CODE           ?PR?START_PCA0_COMPARATOR?TIMER
00381CH   003825H   00000AH   BYTE   UNIT     CODE           ?PR?ADC_STOP?ADC
003826H   00382FH   00000AH   BYTE   UNIT     CODE           ?PR?DISABLEINTERNALCOMMUNICAITON?SERIAL
003830H   003838H   000009H   BYTE   UNIT     CODE           ?PR?DETOBJ_START?DETECTOBJ
003839H   00383EH   000006H   BYTE   UNIT     CODE           ?PR?DETOBJ_STOP?DETECTOBJ
00383FH   003844H   000006H   BYTE   UNIT     CODE           ?PR?DETOBJ_INITTHEANALYSISDATA?DETECTOBJ

* * * * * * * * * * *  X D A T A   M E M O R Y  * * * * * * * * * * * * *
000000H   000236H   000237H   BYTE   UNIT     XDATA          ?XD?DETECTOBJ
000237H   0002CCH   000096H   BYTE   UNIT     XDATA          ?XD?SERIAL
0002CDH   00032CH   000060H   BYTE   UNIT     XDATA          ?XD?UARTCFG
00032DH   000366H   00003AH   BYTE   UNIT     XDATA          ?XD?COMMAND
000367H   00038FH   000029H   BYTE   UNIT     XDATA          ?XD?ADC
000390H   0003B2H   000023H   BYTE   UNIT     XDATA          ?XD?UART
0003B3H   0003D3H   000021H   BYTE   UNIT     XDATA          _XDATA_GROUP_
0003D4H   0003E2H   00000FH   BYTE   UNIT     XDATA          ?XD?TIMER
0003E3H   0003EDH   00000BH   BYTE   UNIT     XDATA          ?XD?MAIN
0003EEH   0003F3H   000006H   BYTE   UNIT     XDATA          ?XD?SPEAKER
0003F4H   0003F4H   000001H   BYTE   UNIT     XDATA          ?XD?CPU
LX51 LINKER/LOCATER V4.66.30.0                                                        08/12/2020  16:38:44  PAGE 5



* * * * * * * * *   R E M O V E D     S E G M E N T S   * * * * * * * *
   *DEL*:           00001CH   BYTE   UNIT     CODE           ?PR?ADC_INITVARIABLE?ADC
   *DEL*:           000057H   BYTE   UNIT     CODE           ?PR?ADC_POWERSAMPLE?ADC
   *DEL*:           000016H   BYTE   UNIT     CODE           ?PR?ADC_IDSAMPLE?ADC
   *DEL*:           000001H   BYTE   UNIT     CODE           ?PR?CMD_READID?COMMAND
   *DEL*:           0000B5H   BYTE   UNIT     CODE           ?PR?CMD_GETVECHILEMODE?COMMAND
   *DEL*:           000001H   BYTE   UNIT     XDATA          ?XD?CMD_GETVECHILEMODE?COMMAND
   *DEL*:           000015H   BYTE   UNIT     CODE           ?PR?CMD_CLEARBUFFER?COMMAND
   *DEL*:           000045H   BYTE   UNIT     CODE           ?PR?CMD_SENDREQVECHIMODETOBCM?COMMAND
   *DEL*:           000001H   BYTE   UNIT     XDATA          ?XD?CMD_SENDREQVECHIMODETOBCM?COMMAND
   *DEL*:           000003H   BYTE   UNIT     CODE           ?PR?CMD_VECHILECFGCHECK?COMMAND
   *DEL*:           000001H   BYTE   UNIT     CODE           ?PR?CPU_INIT_VECT?CPU
   *DEL*:           000001H   BYTE   UNIT     CODE           ?PR?NULL?DETECTOBJ
   *DEL*:           000050H   BYTE   UNIT     CODE           ?PR?DETOBJ_INITSELFCHECKVAR?DETECTOBJ
   *DEL*:           000241H   BYTE   UNIT     CODE           ?PR?DETOBJ_INITVARIABLE?DETECTOBJ
   *DEL*:           000002H   BYTE   UNIT     XDATA          ?XD?DETOBJ_INITVARIABLE?DETECTOBJ
   *DEL*:           000001H   BYTE   UNIT     CODE           ?PR?DETOBJ_PREECHOPROCESS?DETECTOBJ
   *DEL*:           000029H   BYTE   UNIT     CODE           ?PR?_FLASH_BYTEWRITE?EFM8BB2_FLASHPRIMITIVES
   *DEL*:           000000H.1 BIT    UNIT     BIT            ?BI?_FLASH_BYTEWRITE?EFM8BB2_FLASHPRIMITIVES
   *DEL*:           000012H   BYTE   UNIT     CODE           ?PR?_FLASH_BYTEREAD?EFM8BB2_FLASHPRIMITIVES
   *DEL*:           000000H.1 BIT    UNIT     BIT            ?BI?_FLASH_BYTEREAD?EFM8BB2_FLASHPRIMITIVES
   *DEL*:           000029H   BYTE   UNIT     CODE           ?PR?_FLASH_PAGEERASE?EFM8BB2_FLASHPRIMITIVES
   *DEL*:           000000H.1 BIT    UNIT     BIT            ?BI?_FLASH_PAGEERASE?EFM8BB2_FLASHPRIMITIVES
   *DEL*:           00000EH   BYTE   UNIT     CODE           ?PR?_FLASH_WRITEVECHILEMODE?EFM8BB2_FLASHPRIMITIVES
   *DEL*:           000008H   BYTE   UNIT     CODE           ?PR?FLASH_READVECHILEMODE?EFM8BB2_FLASHPRIMITIVES
   *DEL*:           000005H   BYTE   UNIT     CODE           ?PR?ENTER_DEFAULTMODE_FROM_RESET?INITDEVICE
   *DEL*:           000006H   BYTE   UNIT     CODE           ?PR?SPK_INITHARDWARE?SPEAKER
   *DEL*:           000012H   BYTE   UNIT     CODE           ?PR?SPK_INITVARIABLE?SPEAKER
   *DEL*:           0000C6H   BYTE   UNIT     CODE           ?PR?SPK_DRIVETHESPEAKER?SPEAKER
   *DEL*:           000024H   BYTE   UNIT     CODE           ?PR?TIME_INITVARIABLE?TIMER
   *DEL*:           000005H   BYTE   UNIT     CODE           ?PR?ENABLETHE32MSTIMERINTERRUPT?TIMER
   *DEL*:           000003H   BYTE   UNIT     CODE           ?PR?DISABLETHE32MSTIMERINTERRUPT?TIMER
   *DEL*:           000005H   BYTE   UNIT     CODE           ?PR?STOPTHEUART0TIMER?TIMER
   *DEL*:           000013H   BYTE   UNIT     CODE           ?PR?STARTTHE32MSTIMER?TIMER
   *DEL*:           00000FH   BYTE   UNIT     CODE           ?PR?STOPTHE32MSTIMER?TIMER
   *DEL*:           000017H   BYTE   UNIT     CODE           ?PR?START1MSTIMER?TIMER
   *DEL*:           000011H   BYTE   UNIT     CODE           ?PR?STOP1MSTIMER?TIMER
   *DEL*:           00000CH   BYTE   UNIT     CODE           ?PR?UART0_INTRX_DIS?UART
   *DEL*:           00000CH   BYTE   UNIT     CODE           ?PR?UART0_INTRX_EN?UART
   *DEL*:           000010H   BYTE   UNIT     CODE           ?PR?UART0_MODEDATAL?UART
   *DEL*:           000010H   BYTE   UNIT     CODE           ?PR?UART0_MODEDATAH?UART
   *DEL*:           000027H   BYTE   UNIT     CODE           ?PR?_UART0_WRITEBYTE?UART
   *DEL*:           0000BDH   BYTE   UNIT     CODE           ?PR?UART0_DATAINIT?UARTCFG
   *DEL*:           00003AH   BYTE   UNIT     CODE           ?PR?INITUART0ALLVAR?UARTCFG



OVERLAY MAP OF MODULE:   DFSK-F516-EFM8BB21F16G-C-QFN20_20200107.OMF.CRBUILD (ADC)


FUNCTION/MODULE                               XDATA_GROUP
--> CALLED FUNCTION/MODULE                    START  STOP
=========================================================
ADC_ISR/ADC                                   03B3H 03B5H

*** NEW ROOT ********************************

ADC_WINDOW_ISR/ADC                            ----- -----

*** NEW ROOT ********************************

LX51 LINKER/LOCATER V4.66.30.0                                                        08/12/2020  16:38:44  PAGE 6


?C_C51STARTUP                                 ----- -----
  +--> SILABS_STARTUP/MAIN
  +--> MAIN/MAIN
  +--> ?C_INITSEG

SILABS_STARTUP/MAIN                           ----- -----

MAIN/MAIN                                     ----- -----
  +--> CPU_CLK_INIT/CPU
  +--> CPU_INITHARDWAREPORT/CPU
  +--> _CPU_WDG_INIT/CPU
  +--> TIME_INITTHEDELAYTIMER/TIMER
  +--> TIME_INIT1MSTIMER/TIMER
  +--> TIME_INIT32MSTIMER/TIMER
  +--> INITGLOBALVARIABLE/MAIN
  +--> CMD_INITVARIABLE/COMMAND
  +--> TIME_INITUART0TIMER/TIMER
  +--> TIME_INITPCA0/TIMER
  +--> CPU_ENABLEINTERRUPT/CPU
  +--> _DELAY1MS/TIMER
  +--> ADC_READID/ADC
  +--> DETOBJ_DETTHEOBJ/DETECTOBJ
  +--> _COMMUNICAITONMODE/SERIAL
  +--> DETOBJ_INITALLCHANNELDISTANCE/DETECTOBJ

CPU_CLK_INIT/CPU                              ----- -----

CPU_INITHARDWAREPORT/CPU                      ----- -----

_CPU_WDG_INIT/CPU                             ----- -----

TIME_INITTHEDELAYTIMER/TIMER                  ----- -----

TIME_INIT1MSTIMER/TIMER                       ----- -----

TIME_INIT32MSTIMER/TIMER                      ----- -----

INITGLOBALVARIABLE/MAIN                       ----- -----
  +--> SRL_INITVARIABLE/SERIAL
  +--> DETOBJ_INITALLCHANNELDISTANCE/DETECTOBJ
  +--> _SRL_GETHEADER/SERIAL

SRL_INITVARIABLE/SERIAL                       ----- -----
  +--> _SRL_GETHEADER/SERIAL

_SRL_GETHEADER/SERIAL                         ----- -----
  +--> _SRL_GETDATA/SERIAL

_SRL_GETDATA/SERIAL                           03B6H 03B8H
  +--> RXDATAPARITY/SERIAL

RXDATAPARITY/SERIAL                           ----- -----

DETOBJ_INITALLCHANNELDISTANCE/DETECTOBJ       ----- -----
  +--> DETOBJ_STOP/DETECTOBJ

DETOBJ_STOP/DETECTOBJ                         ----- -----
  +--> TIME_STOPADCTRIGGER/TIMER
  +--> ADC_STOP/ADC

TIME_STOPADCTRIGGER/TIMER                     ----- -----

LX51 LINKER/LOCATER V4.66.30.0                                                        08/12/2020  16:38:44  PAGE 7


ADC_STOP/ADC                                  ----- -----

CMD_INITVARIABLE/COMMAND                      ----- -----

TIME_INITUART0TIMER/TIMER                     ----- -----

TIME_INITPCA0/TIMER                           ----- -----

CPU_ENABLEINTERRUPT/CPU                       ----- -----

_DELAY1MS/TIMER                               ----- -----
  +--> _DELAY1US/TIMER

_DELAY1US/TIMER                               ----- -----

ADC_READID/ADC                                ----- -----
  +--> ADC_POWERSAMPLINGINIT/ADC
  +--> ADC_CALUE/ADC
  +--> _DELAY1MS/TIMER

ADC_POWERSAMPLINGINIT/ADC                     ----- -----

ADC_CALUE/ADC                                 ----- -----
  +--> ADC_IDSAMPLINGINIT/ADC
  +--> _DELAY1US/TIMER
  +--> ADC_STOP/ADC

ADC_IDSAMPLINGINIT/ADC                        ----- -----

DETOBJ_DETTHEOBJ/DETECTOBJ                    ----- -----
  +--> CMD_PROCESS/COMMAND
  +--> DETOBJ_INITTHECCD/DETECTOBJ
  +--> DETOBJ_CLEARTHERAWDATABUFF/DETECTOBJ
  +--> DETOBJ_CLEARTHENOISEBUFF/DETECTOBJ
  +--> ADC_INITDETECT/ADC
  +--> DETOBJ_START/DETECTOBJ
  +--> DETOBJ_STOP/DETECTOBJ
  +--> DETOBJ_CALSAMPNOISE/DETECTOBJ
  +--> DETOBJ_INITTHEEPD/DETECTOBJ
  +--> DETOBJ_SENDTHE58KHZULTRASONIC/DETECTOBJ
  +--> DETOBJ_RAWECHODATAANS/DETECTOBJ
  +--> DETOBJ_DIAGNOSTICTHERINGTIME/DETECTOBJ
  +--> DETOBJ_HOLDTHEOBSTACLESTATE/DETECTOBJ
  +--> DETOBJ_COMPARETHEDATA/DETECTOBJ
  +--> DETOBJ_PROCESSTHERINGTIME/DETECTOBJ
  +--> DETOBJ_GENERATETHENEARESTOBSTACLE/DETECTOBJ

CMD_PROCESS/COMMAND                           03B6H 03B7H
  +--> _SRL_SENDDATA/SERIAL
  +--> CMD_SAVEDATA/COMMAND
  +--> CMD_NEXTSENSORSELF/COMMAND
  +--> _COMMUNICAITONMODE/SERIAL
  +--> CMD_SENDSELFCHECKTOBCM/COMMAND
  +--> _DELAY1MS/TIMER
  +--> CMD_NEXTSENSORDET/COMMAND
  +--> CMD_UPDATADISTANCE/COMMAND
  +--> INITUART0RECEIVEVAR/UARTCFG
  +--> CMD_SENDDISTANCETOBCM/COMMAND
  +--> DETOBJ_INITALLCHANNELDISTANCE/DETECTOBJ
  +--> _STOP_PCA0_CAPTURE/TIMER
  +--> _START_PCA0_CAPTURE/TIMER

LX51 LINKER/LOCATER V4.66.30.0                                                        08/12/2020  16:38:44  PAGE 8


_SRL_SENDDATA/SERIAL                          03B8H 03C0H
  +--> START_PCA0_COMPARATOR/TIMER

START_PCA0_COMPARATOR/TIMER                   ----- -----

CMD_SAVEDATA/COMMAND                          ----- -----

CMD_NEXTSENSORSELF/COMMAND                    ----- -----

_COMMUNICAITONMODE/SERIAL                     03B8H 03B8H
  +--> UART0_MOUDLE_DIS/UART
  +--> ENABLEINTERNALCOMMUNICAITON/SERIAL
  +--> _STOP_PCA0_CAPTURE/TIMER
  +--> UART0_INIT/UART
  +--> DISABLEINTERNALCOMMUNICAITON/SERIAL

UART0_MOUDLE_DIS/UART                         ----- -----

ENABLEINTERNALCOMMUNICAITON/SERIAL            ----- -----
  +--> _START_PCA0_CAPTURE/TIMER

_START_PCA0_CAPTURE/TIMER                     ----- -----

_STOP_PCA0_CAPTURE/TIMER                      ----- -----

UART0_INIT/UART                               ----- -----
  +--> STARTTHEUART0TIMER/TIMER

STARTTHEUART0TIMER/TIMER                      ----- -----

DISABLEINTERNALCOMMUNICAITON/SERIAL           ----- -----
  +--> _STOP_PCA0_CAPTURE/TIMER

CMD_SENDSELFCHECKTOBCM/COMMAND                03B8H 03B9H
  +--> _CALCFRAMECHECKSUM/UARTCFG
  +--> _CALCBYTEEVEN/UARTCFG
  +--> SENDDATA_SELFCHECK/SERIAL

_CALCFRAMECHECKSUM/UARTCFG                    ----- -----

_CALCBYTEEVEN/UARTCFG                         03D2H 03D2H

SENDDATA_SELFCHECK/SERIAL                     ----- -----
  +--> START_PCA0_COMPARATOR/TIMER

CMD_NEXTSENSORDET/COMMAND                     ----- -----
  +--> _COMMUNICAITONMODE/SERIAL

CMD_UPDATADISTANCE/COMMAND                    ----- -----
  +--> CMD_DISTANCETOCOMINFO/COMMAND

CMD_DISTANCETOCOMINFO/COMMAND                 ----- -----

INITUART0RECEIVEVAR/UARTCFG                   ----- -----

CMD_SENDDISTANCETOBCM/COMMAND                 ----- -----
  +--> SENDDATA_WORK/SERIAL

SENDDATA_WORK/SERIAL                          03B8H 03BDH
  +--> START_PCA0_COMPARATOR/TIMER

DETOBJ_INITTHECCD/DETECTOBJ                   ----- -----
LX51 LINKER/LOCATER V4.66.30.0                                                        08/12/2020  16:38:44  PAGE 9



DETOBJ_CLEARTHERAWDATABUFF/DETECTOBJ          ----- -----
  +--> DETOBJ_INITTHEANALYSISDATA/DETECTOBJ

DETOBJ_INITTHEANALYSISDATA/DETECTOBJ          ----- -----

DETOBJ_CLEARTHENOISEBUFF/DETECTOBJ            ----- -----

ADC_INITDETECT/ADC                            ----- -----
  +--> ADC_START/ADC

ADC_START/ADC                                 ----- -----

DETOBJ_START/DETECTOBJ                        ----- -----
  +--> TIME_INITADCTRIGGERTIMER/TIMER
  +--> TIME_STARTADCTRIGGER/TIMER
  +--> ADC_START/ADC

TIME_INITADCTRIGGERTIMER/TIMER                ----- -----

TIME_STARTADCTRIGGER/TIMER                    ----- -----

DETOBJ_CALSAMPNOISE/DETECTOBJ                 03B6H 03BCH
  +--> _DETOBJ_COPYSAMPLINGBUFFER/DETECTOBJ
  +--> DETOBJ_RAWNOISEDATAANS/DETECTOBJ

_DETOBJ_COPYSAMPLINGBUFFER/DETECTOBJ          03BDH 03C3H

DETOBJ_RAWNOISEDATAANS/DETECTOBJ              03BDH 03BEH

DETOBJ_INITTHEEPD/DETECTOBJ                   ----- -----

DETOBJ_SENDTHE58KHZULTRASONIC/DETECTOBJ       03B6H 03B6H
  +--> CPU_DISABLEINTERRUPT/CPU
  +--> _DELAY1US/TIMER
  +--> CPU_ENABLEINTERRUPT/CPU

CPU_DISABLEINTERRUPT/CPU                      ----- -----

DETOBJ_RAWECHODATAANS/DETECTOBJ               03B6H 03BDH
  +--> DETOBJ_RAWFILTER/DETECTOBJ
  +--> _GETDISTANCE/DETECTOBJ

DETOBJ_RAWFILTER/DETECTOBJ                    03BEH 03C1H

_GETDISTANCE/DETECTOBJ                        03BEH 03BFH

DETOBJ_DIAGNOSTICTHERINGTIME/DETECTOBJ        ----- -----
  +--> DETOBJ_DIAGNOSTICTHESENSOR/DETECTOBJ

DETOBJ_DIAGNOSTICTHESENSOR/DETECTOBJ          ----- -----

DETOBJ_HOLDTHEOBSTACLESTATE/DETECTOBJ         ----- -----

DETOBJ_COMPARETHEDATA/DETECTOBJ               03B6H 03CCH

DETOBJ_PROCESSTHERINGTIME/DETECTOBJ           ----- -----

DETOBJ_GENERATETHENEARESTOBSTACLE/DETECT+     ----- -----
... OBJ

?C_INITSEG                                    ----- -----
LX51 LINKER/LOCATER V4.66.30.0                                                        08/12/2020  16:38:44  PAGE 10


  +--> _SRL_GETHEADER/SERIAL

*** NEW ROOT ********************************

PCA0_ISR/SERIAL                               ----- -----
  +--> STOP_PCA0_COMPARATOR/TIMER

STOP_PCA0_COMPARATOR/TIMER                    ----- -----

*** NEW ROOT ********************************

TIMER2_ISR/TIMER                              ----- -----
  +--> DETOBJ_REALTIMECLOCK/DETECTOBJ

DETOBJ_REALTIMECLOCK/DETECTOBJ                ----- -----

*** NEW ROOT ********************************

TIMER0_ISR/TIMER                              ----- -----

*** NEW ROOT ********************************

TIMER4_ISR/TIMER                              ----- -----

*** NEW ROOT ********************************

TIMER3_ISR/TIMER                              ----- -----

*** NEW ROOT ********************************

UART0_ISR/UART                                03CDH 03CDH
  +--> _UART0_RXDATA/UART

_UART0_RXDATA/UART                            03CEH 03D1H
  +--> _CALCBYTEEVEN/UARTCFG
  +--> _RECEIVEFRAMERECORRESPONDING/UARTCFG
  +--> INITUART0RECEIVEVAR/UARTCFG

_RECEIVEFRAMERECORRESPONDING/UARTCFG          03D2H 03D3H
  +--> INITUART0RECEIVEVAR/UARTCFG



PUBLIC SYMBOLS OF MODULE:  DFSK-F516-EFM8BB21F16G-C-QFN20_20200107.OMF.CRBUILD (ADC)


      VALUE       CLASS    TYPE      PUBLIC SYMBOL NAME
      =================================================
      020003BDH   XDATA    BYTE      ?_DetObj_CopySamplingBuffer?BYTE
      020003B8H   XDATA    BYTE      ?_Srl_SendData?BYTE
      010005F5H   CODE     ---       ?C?CILDOPTR
      010005C8H   CODE     ---       ?C?CLDOPTR
      00000000H   NUMBER   ---       ?C?CODESEG
      01000628H   CODE     ---       ?C?CSTOPTR
      01000989H   CODE     ---       ?C?ICALL
      0100098DH   CODE     ---       ?C?ICALL2
      010006B1H   CODE     ---       ?C?IILDX
      010006F2H   CODE     ---       ?C?ILDOPTR
      010006C7H   CODE     ---       ?C?ILDPTR
      0100064AH   CODE     ---       ?C?IMUL
      01000749H   CODE     ---       ?C?ISTOPTR
      0100072AH   CODE     ---       ?C?ISTPTR
LX51 LINKER/LOCATER V4.66.30.0                                                        08/12/2020  16:38:44  PAGE 11


      0100098FH   CODE     ---       ?C?LIMUL
      01000776H   CODE     ---       ?C?LMUL
      010008A4H   CODE     ---       ?C?LSHL
      010008C3H   CODE     ---       ?C?LSTKXDATA
      010008B7H   CODE     ---       ?C?LSTXDATA
      010008F4H   CODE     ---       ?C?OFFXADD
      010009F2H   CODE     ---       ?C?PLDCODE
      010009BCH   CODE     ---       ?C?PLDIDATA
      01000900H   CODE     ---       ?C?PLDOPTR
      010009E0H   CODE     ---       ?C?PLDPDATA
      010009CEH   CODE     ---       ?C?PLDXDATA
      010009C5H   CODE     ---       ?C?PSTIDATA
      01000930H   CODE     ---       ?C?PSTOPTR
      010009E9H   CODE     ---       ?C?PSTPDATA
      010009D7H   CODE     ---       ?C?PSTXDATA
      0100065CH   CODE     ---       ?C?UIDIV
      01000893H   CODE     ---       ?C?ULCMP
      01000801H   CODE     ---       ?C?ULDIV
      00000000H   NUMBER   ---       ?C?XDATASEG
      01002CB2H   CODE     ---       ?C_START
      01000000H   CODE     NEAR LAB  ?C_STARTUP
      01003367H   CODE     ---       _CalcByteEVEN
      01002A83H   CODE     ---       _CalcFrameChecksum
      0100350FH   CODE     ---       _CommunicaitonMode
      010037EBH   CODE     ---       _Cpu_WDG_Init
      0100002EH   CODE     ---       _Delay1ms
      010033E0H   CODE     ---       _Delay1us
      01003324H   CODE     ---       _DetObj_CopySamplingBuffer
*DEL*:00000000H   CODE     ---       _FLASH_ByteRead
*DEL*:00000000H   CODE     ---       _FLASH_ByteWrite
*DEL*:00000000H   CODE     ---       _FLASH_PageErase
*DEL*:00000000H   CODE     ---       _Flash_WriteVechileMode
      0100305FH   CODE     ---       _GetDistance
      01000FCAH   CODE     ---       _ReceiveFramereCorresponding
      01002550H   CODE     ---       _Srl_GetData
      01002655H   CODE     ---       _Srl_GetHeader
      01001C0CH   CODE     ---       _Srl_SendData
      0100360FH   CODE     ---       _Start_PCA0_Capture
      01003637H   CODE     ---       _Stop_PCA0_Capture
      01001235H   CODE     ---       _UART0_RXData
*DEL*:00000000H   CODE     ---       _UART0_WriteByte
*SFR* 000000E0H   DATA     BYTE      ACC
*SFR* 000000E0H   DATA     BIT       ACC_ACC0
*SFR* 000000E0H.1 DATA     BIT       ACC_ACC1
*SFR* 000000E0H.2 DATA     BIT       ACC_ACC2
*SFR* 000000E0H.3 DATA     BIT       ACC_ACC3
*SFR* 000000E0H.4 DATA     BIT       ACC_ACC4
*SFR* 000000E0H.5 DATA     BIT       ACC_ACC5
*SFR* 000000E0H.6 DATA     BIT       ACC_ACC6
*SFR* 000000E0H.7 DATA     BIT       ACC_ACC7
      0200037CH   XDATA    ---       ADC
*SFR* 000000BDH   DATA     WORD      ADC0
*SFR* 000000B3H   DATA     BYTE      ADC0AC
*SFR* 000000BCH   DATA     BYTE      ADC0CF
*SFR* 000000E8H   DATA     BYTE      ADC0CN0
*SFR* 000000E8H.6 DATA     BIT       ADC0CN0_ADBMEN
*SFR* 000000E8H.4 DATA     BIT       ADC0CN0_ADBUSY
*SFR* 000000E8H   DATA     BIT       ADC0CN0_ADCM0
*SFR* 000000E8H.1 DATA     BIT       ADC0CN0_ADCM1
*SFR* 000000E8H.2 DATA     BIT       ADC0CN0_ADCM2
*SFR* 000000E8H.7 DATA     BIT       ADC0CN0_ADEN
*SFR* 000000E8H.5 DATA     BIT       ADC0CN0_ADINT
LX51 LINKER/LOCATER V4.66.30.0                                                        08/12/2020  16:38:44  PAGE 12


*SFR* 000000E8H.3 DATA     BIT       ADC0CN0_ADWINT
*SFR* 000000B2H   DATA     BYTE      ADC0CN1
*SFR* 000000C3H   DATA     WORD      ADC0GT
*SFR* 000000C4H   DATA     BYTE      ADC0GTH
*SFR* 000000C3H   DATA     BYTE      ADC0GTL
*SFR* 000000BEH   DATA     BYTE      ADC0H
*SFR* 000000BDH   DATA     BYTE      ADC0L
*SFR* 000000C5H   DATA     WORD      ADC0LT
*SFR* 000000C6H   DATA     BYTE      ADC0LTH
*SFR* 000000C5H   DATA     BYTE      ADC0LTL
*SFR* 000000BBH   DATA     BYTE      ADC0MX
*SFR* 000000DFH   DATA     BYTE      ADC0PWR
*SFR* 000000B9H   DATA     BYTE      ADC0TK
      010031F9H   CODE     ---       ADC_CALUE
*DEL*:00000000H   CODE     ---       ADC_IDSample
      010034B1H   CODE     ---       ADC_IDSamplingInit
      0100344FH   CODE     ---       ADC_InitDetect
*DEL*:00000000H   CODE     ---       ADC_InitVariable
      010029C4H   CODE     ---       ADC_ISR
*DEL*:00000000H   CODE     ---       ADC_PowerSample
      01003482H   CODE     ---       ADC_PowerSamplingInit
      01001F0FH   CODE     ---       ADC_ReadID
      01003802H   CODE     ---       ADC_Start
      0100381CH   CODE     ---       ADC_Stop
      0100004EH   CODE     ---       ADC_WINDOW_ISR
      0200006AH   XDATA    ---       AnsData
*SFR* 000000F0H   DATA     BYTE      B
      020003D6H   XDATA    BYTE      b20msFlag
      020003D7H   XDATA    BYTE      b50msFlag
*SFR* 000000F0H   DATA     BIT       B_B0
*SFR* 000000F0H.1 DATA     BIT       B_B1
*SFR* 000000F0H.2 DATA     BIT       B_B2
*SFR* 000000F0H.3 DATA     BIT       B_B3
*SFR* 000000F0H.4 DATA     BIT       B_B4
*SFR* 000000F0H.5 DATA     BIT       B_B5
*SFR* 000000F0H.6 DATA     BIT       B_B6
*SFR* 000000F0H.7 DATA     BIT       B_B7
      02000372H   XDATA    BYTE      bDetectFlag
      020003DBH   XDATA    BYTE      bLevel
      0200038BH   XDATA    BYTE      bRadar_PoweFlag
      020003D8H   XDATA    BYTE      bSensorCheckFlag
      020003E2H   XDATA    BYTE      bTimeFlag
      020003E9H   XDATA    ---       buffer
      02000367H   XDATA    BYTE      bWorkFlag
      0200037BH   XDATA    BYTE      bySampleTimes
      02000366H   XDATA    BYTE      c5times
*SFR* 0000008EH   DATA     BYTE      CKCON0
*SFR* 000000A6H   DATA     BYTE      CKCON1
*SFR* 000000A9H   DATA     BYTE      CLKSEL
      02000017H   XDATA    ---       ClrtData
      02000339H   XDATA    ---       Cmd
*DEL*:00000000H   CODE     ---       Cmd_ClearBuffer
      0100185FH   CODE     ---       Cmd_DistancetoComInfo
*DEL*:00000000H   CODE     ---       Cmd_GetVechileMode
      0100375CH   CODE     ---       Cmd_InitVariable
      0100373DH   CODE     ---       Cmd_NextSensorDet
      0100371CH   CODE     ---       Cmd_NextSensorSelf
      0100009EH   CODE     ---       Cmd_Process
*DEL*:00000000H   CODE     ---       Cmd_ReadID
      01002FF9H   CODE     ---       Cmd_SaveData
      0100005EH   CODE     ---       Cmd_SendDistancetoBCM
*DEL*:00000000H   CODE     ---       Cmd_SendReqVechiModetoBCM
LX51 LINKER/LOCATER V4.66.30.0                                                        08/12/2020  16:38:44  PAGE 13


      01002F8CH   CODE     ---       Cmd_SendSelfChecktoBCM
      01002D85H   CODE     ---       Cmd_UpdataDistance
*DEL*:00000000H   CODE     ---       Cmd_VechileCfgCheck
*SFR* 0000009BH   DATA     BYTE      CMP0CN0
*SFR* 00000099H   DATA     BYTE      CMP0CN1
*SFR* 0000009DH   DATA     BYTE      CMP0MD
*SFR* 0000009FH   DATA     BYTE      CMP0MX
*SFR* 000000BFH   DATA     BYTE      CMP1CN0
*SFR* 000000ACH   DATA     BYTE      CMP1CN1
*SFR* 000000ABH   DATA     BYTE      CMP1MD
*SFR* 000000AAH   DATA     BYTE      CMP1MX
      0200001DH   XDATA    ---       CmpData
      0100377AH   CODE     ---       Cpu_Clk_Init
      0100006EH   CODE     ---       Cpu_DisableInterrupt
      01000056H   CODE     ---       Cpu_EnableInterrupt
*DEL*:00000000H   CODE     ---       Cpu_Init_Vect
      010036F9H   CODE     ---       Cpu_InitHardwarePort
*SFR* 000000CEH   DATA     BYTE      CRC0CN0
*SFR* 00000086H   DATA     BYTE      CRC0CN1
*SFR* 000000D3H   DATA     BYTE      CRC0CNT
*SFR* 000000DEH   DATA     BYTE      CRC0DAT
*SFR* 000000CFH   DATA     BYTE      CRC0FLIP
*SFR* 000000DDH   DATA     BYTE      CRC0IN
*SFR* 000000D2H   DATA     BYTE      CRC0ST
      020003E3H   XDATA    BYTE      Debug_RD1
      020003E4H   XDATA    BYTE      Debug_RD2
*SFR* 000000ADH   DATA     BYTE      DERIVID
      02000075H   XDATA    ---       DetectInterval
      020001CAH   XDATA    ---       DetInfo
      0100167CH   CODE     ---       DetObj_CalSampNoise
      01002F19H   CODE     ---       DetObj_ClearTheNoiseBuff
      010035BCH   CODE     ---       DetObj_ClearTheRawDataBuff
      01000D42H   CODE     ---       DetObj_CompareTheData
      020001D3H   XDATA    ---       DetObj_DataPrcs
      01001463H   CODE     ---       DetObj_DetTheObj
      01002449H   CODE     ---       DetObj_DiagnosticTheRingTime
      010036ADH   CODE     ---       DetObj_DiagnosticTheSensor
      01002078H   CODE     ---       DetObj_GenerateTheNearestObstacle
      01003129H   CODE     ---       DetObj_HoldTheObstaclestate
      0100323DH   CODE     ---       DetObj_InitAllChannelDistance
*DEL*:00000000H   CODE     ---       DetObj_InitSelfCheckVar
      0100383FH   CODE     ---       DetObj_InitTheAnalysisData
      0100328FH   CODE     ---       DetObj_InitTheCCD
      01002E0FH   CODE     ---       DetObj_InitTheEPD
*DEL*:00000000H   CODE     ---       DetObj_InitVariable
*DEL*:00000000H   CODE     ---       DetObj_PreEchoProcess
      01002B2FH   CODE     ---       DetObj_ProcessTheRingTime
      010009FEH   CODE     ---       DetObj_RawEchoDataAns
      01001A36H   CODE     ---       DetObj_RawFilter
      010021D5H   CODE     ---       DetObj_RawNoiseDataAns
      01003592H   CODE     ---       DetObj_RealTimeClock
      01002CF7H   CODE     ---       DetObj_SendThe58KhzUltraSonic
      01003830H   CODE     ---       DetObj_Start
      01003839H   CODE     ---       DetObj_Stop
*SFR* 000000B5H   DATA     BYTE      DEVICEID
      0200000CH   XDATA    ---       DiagInfo
      01003826H   CODE     ---       DisableInternalCommunicaiton
*DEL*:00000000H   CODE     ---       DisableThe32msTimerInterrupt
*SFR* 00000082H   DATA     WORD      DP
*SFR* 00000083H   DATA     BYTE      DPH
*SFR* 00000082H   DATA     BYTE      DPL
      02000231H   XDATA    ---       EachSNMaxDistance
LX51 LINKER/LOCATER V4.66.30.0                                                        08/12/2020  16:38:44  PAGE 14


      020001D6H   XDATA    ---       EachSNMaxDistance_2Snr
      020001DCH   XDATA    ---       EachSNMaxDistance_3Snr
      020001E2H   XDATA    ---       EachSNMaxDistance_5Snr
*SFR* 000000E6H   DATA     BYTE      EIE1
*SFR* 000000CEH   DATA     BYTE      EIE2
*SFR* 000000F3H   DATA     BYTE      EIP1
*SFR* 000000F5H   DATA     BYTE      EIP1H
*SFR* 000000F4H   DATA     BYTE      EIP2
*SFR* 000000F6H   DATA     BYTE      EIP2H
*SFR* 000000E7H   DATA     BYTE      EMI0CN
      010036D3H   CODE     ---       EnableInternalCommunicaiton
*DEL*:00000000H   CODE     ---       EnableThe32msTimerInterrupt
*DEL*:00000000H   CODE     ---       enter_DefaultMode_from_RESET
      020003E5H   XDATA    DWORD     errorCount
      02000370H   XDATA    WORD      FL_MAX_VALUE
      0200036EH   XDATA    WORD      FL_MIN_VALUE
*DEL*:00000000H   CODE     ---       Flash_ReadVechileMode
*SFR* 000000B7H   DATA     BYTE      FLKEY
      02000375H   XDATA    WORD      FR_MAX_VALUE
      02000373H   XDATA    WORD      FR_MIN_VALUE
      02000390H   XDATA    ---       gslinContext
      02000399H   XDATA    ---       gUart0ReceivePduInfo
*SFR* 000000C7H   DATA     BYTE      HFO0CAL
*SFR* 000000D6H   DATA     BYTE      HFO1CAL
*SFR* 000000EFH   DATA     BYTE      HFOCN
*SFR* 000000BAH   DATA     BYTE      I2C0CN0
*SFR* 000000BCH   DATA     BYTE      I2C0DIN
*SFR* 000000BBH   DATA     BYTE      I2C0DOUT
*SFR* 000000ADH   DATA     BYTE      I2C0FCN0
*SFR* 000000ABH   DATA     BYTE      I2C0FCN1
*SFR* 000000F5H   DATA     BYTE      I2C0FCT
*SFR* 000000BDH   DATA     BYTE      I2C0SLAD
*SFR* 000000B9H   DATA     BYTE      I2C0STAT
*SFR* 000000A8H   DATA     BYTE      IE
*SFR* 000000A8H.7 DATA     BIT       IE_EA
*SFR* 000000A8H.4 DATA     BIT       IE_ES0
*SFR* 000000A8H.6 DATA     BIT       IE_ESPI0
*SFR* 000000A8H.1 DATA     BIT       IE_ET0
*SFR* 000000A8H.3 DATA     BIT       IE_ET1
*SFR* 000000A8H.5 DATA     BIT       IE_ET2
*SFR* 000000A8H   DATA     BIT       IE_EX0
*SFR* 000000A8H.2 DATA     BIT       IE_EX1
      010028FCH   CODE     ---       InitGlobalVariable
*DEL*:00000000H   CODE     ---       InitUart0AllVar
      010032DAH   CODE     ---       InitUart0ReceiveVar
*SFR* 000000B8H   DATA     BYTE      IP
*SFR* 000000B8H.4 DATA     BIT       IP_PS0
*SFR* 000000B8H.6 DATA     BIT       IP_PSPI0
*SFR* 000000B8H.1 DATA     BIT       IP_PT0
*SFR* 000000B8H.3 DATA     BIT       IP_PT1
*SFR* 000000B8H.5 DATA     BIT       IP_PT2
*SFR* 000000B8H   DATA     BIT       IP_PX0
*SFR* 000000B8H.2 DATA     BIT       IP_PX1
*SFR* 000000F2H   DATA     BYTE      IPH
*SFR* 000000E4H   DATA     BYTE      IT01CF
*SFR* 000000B1H   DATA     BYTE      LFO0CN
      01002BD0H   CODE     ---       main
      0200031DH   XDATA    ---       MsgBCM_Info
      0200030DH   XDATA    ---       MsgBCM_Info_Init
      02000315H   XDATA    ---       MsgBCM_Mode
      02000305H   XDATA    ---       MsgBCM_Mode_Init
      020002EDH   XDATA    ---       MsgRadar_Distance
LX51 LINKER/LOCATER V4.66.30.0                                                        08/12/2020  16:38:44  PAGE 15


      020002D5H   XDATA    ---       MsgRadar_Distance_Init
      020002FDH   XDATA    ---       MsgRadar_ReqMode
      020002E5H   XDATA    ---       MsgRadar_ReqMode_Init
      020002CDH   XDATA    ---       MsgRadar_Self
      02000325H   XDATA    ---       MsgRadar_Self_Init
      020001FCH   XDATA    ---       NearestData
      02000000H   XDATA    ---       Noise
*DEL*:00000000H   CODE     ---       Null
*SFR* 00000080H   DATA     BYTE      P0
*SFR* 00000080H   DATA     BIT       P0_B0
*SFR* 00000080H.1 DATA     BIT       P0_B1
*SFR* 00000080H.2 DATA     BIT       P0_B2
*SFR* 00000080H.3 DATA     BIT       P0_B3
*SFR* 00000080H.4 DATA     BIT       P0_B4
*SFR* 00000080H.5 DATA     BIT       P0_B5
*SFR* 00000080H.6 DATA     BIT       P0_B6
*SFR* 00000080H.7 DATA     BIT       P0_B7
*SFR* 000000FEH   DATA     BYTE      P0MASK
*SFR* 000000FDH   DATA     BYTE      P0MAT
*SFR* 000000F1H   DATA     BYTE      P0MDIN
*SFR* 000000A4H   DATA     BYTE      P0MDOUT
*SFR* 000000D4H   DATA     BYTE      P0SKIP
*SFR* 00000090H   DATA     BYTE      P1
*SFR* 00000090H   DATA     BIT       P1_B0
*SFR* 00000090H.1 DATA     BIT       P1_B1
*SFR* 00000090H.2 DATA     BIT       P1_B2
*SFR* 00000090H.3 DATA     BIT       P1_B3
*SFR* 00000090H.4 DATA     BIT       P1_B4
*SFR* 00000090H.5 DATA     BIT       P1_B5
*SFR* 00000090H.6 DATA     BIT       P1_B6
*SFR* 00000090H.7 DATA     BIT       P1_B7
*SFR* 000000EEH   DATA     BYTE      P1MASK
*SFR* 000000EDH   DATA     BYTE      P1MAT
*SFR* 000000F2H   DATA     BYTE      P1MDIN
*SFR* 000000A5H   DATA     BYTE      P1MDOUT
*SFR* 000000D5H   DATA     BYTE      P1SKIP
*SFR* 000000A0H   DATA     BYTE      P2
*SFR* 000000A0H   DATA     BIT       P2_B0
*SFR* 000000A0H.1 DATA     BIT       P2_B1
*SFR* 000000A0H.2 DATA     BIT       P2_B2
*SFR* 000000A0H.3 DATA     BIT       P2_B3
*SFR* 000000FCH   DATA     BYTE      P2MASK
*SFR* 000000FBH   DATA     BYTE      P2MAT
*SFR* 000000F3H   DATA     BYTE      P2MDIN
*SFR* 000000A6H   DATA     BYTE      P2MDOUT
*SFR* 000000CCH   DATA     BYTE      P2SKIP
*SFR* 000000B0H   DATA     BYTE      P3
*SFR* 000000B0H   DATA     BIT       P3_B0
*SFR* 000000B0H.1 DATA     BIT       P3_B1
*SFR* 000000F4H   DATA     BYTE      P3MDIN
*SFR* 0000009CH   DATA     BYTE      P3MDOUT
*SFR* 000000F9H   DATA     WORD      PCA0
      01001D92H   CODE     ---       PCA0_ISR
*SFR* 0000009EH   DATA     BYTE      PCA0CENT
*SFR* 0000009CH   DATA     BYTE      PCA0CLR
*SFR* 000000D8H   DATA     BYTE      PCA0CN0
*SFR* 000000D8H   DATA     BIT       PCA0CN0_CCF0
*SFR* 000000D8H.1 DATA     BIT       PCA0CN0_CCF1
*SFR* 000000D8H.2 DATA     BIT       PCA0CN0_CCF2
*SFR* 000000D8H.7 DATA     BIT       PCA0CN0_CF
*SFR* 000000D8H.6 DATA     BIT       PCA0CN0_CR
*SFR* 000000FBH   DATA     WORD      PCA0CP0
LX51 LINKER/LOCATER V4.66.30.0                                                        08/12/2020  16:38:44  PAGE 16


*SFR* 000000E9H   DATA     WORD      PCA0CP1
*SFR* 000000EBH   DATA     WORD      PCA0CP2
*SFR* 000000FCH   DATA     BYTE      PCA0CPH0
*SFR* 000000EAH   DATA     BYTE      PCA0CPH1
*SFR* 000000ECH   DATA     BYTE      PCA0CPH2
*SFR* 000000FBH   DATA     BYTE      PCA0CPL0
*SFR* 000000E9H   DATA     BYTE      PCA0CPL1
*SFR* 000000EBH   DATA     BYTE      PCA0CPL2
*SFR* 000000DAH   DATA     BYTE      PCA0CPM0
*SFR* 000000DBH   DATA     BYTE      PCA0CPM1
*SFR* 000000DCH   DATA     BYTE      PCA0CPM2
*SFR* 000000FAH   DATA     BYTE      PCA0H
*SFR* 000000F9H   DATA     BYTE      PCA0L
*SFR* 000000D9H   DATA     BYTE      PCA0MD
*SFR* 00000096H   DATA     BYTE      PCA0POL
*SFR* 000000F7H   DATA     BYTE      PCA0PWM
*SFR* 00000087H   DATA     BYTE      PCON0
*SFR* 0000009AH   DATA     BYTE      PCON1
*SFR* 000000C1H   DATA     BYTE      PFE0CN
*SFR* 000000A0H   DATA     BYTE      PPAGE_SFR
*SFR* 000000F6H   DATA     BYTE      PRTDRV
*SFR* 0000008FH   DATA     BYTE      PSCTL
*SFR* 000000D0H   DATA     BYTE      PSW
*SFR* 000000D0H.6 DATA     BIT       PSW_AC
*SFR* 000000D0H.7 DATA     BIT       PSW_CY
*SFR* 000000D0H.5 DATA     BIT       PSW_F0
*SFR* 000000D0H.1 DATA     BIT       PSW_F1
*SFR* 000000D0H.2 DATA     BIT       PSW_OV
*SFR* 000000D0H   DATA     BIT       PSW_PARITY
*SFR* 000000D0H.3 DATA     BIT       PSW_RS0
*SFR* 000000D0H.4 DATA     BIT       PSW_RS1
      0200007BH   XDATA    ---       RawData
*SFR* 000000D1H   DATA     BYTE      REF0CN
*SFR* 000000C9H   DATA     BYTE      REG0CN
*SFR* 000000C6H   DATA     BYTE      REG1CN
*SFR* 000000B6H   DATA     BYTE      REVID
      02000379H   XDATA    WORD      RL_MAX_VALUE
      02000377H   XDATA    WORD      RL_MIN_VALUE
      0200036CH   XDATA    WORD      RML_MAX_VALUE
      0200036AH   XDATA    WORD      RML_MIN_VALUE
      0200038CH   XDATA    WORD      RR_MAX_VALUE
      02000389H   XDATA    WORD      RR_MIN_VALUE
*SFR* 000000EFH   DATA     BYTE      RSTSRC
      0100318CH   CODE     ---       RxDataParity
*SFR* 00000094H   DATA     BYTE      SBCON1
*SFR* 00000095H   DATA     WORD      SBRL1
*SFR* 00000096H   DATA     BYTE      SBRLH1
*SFR* 00000095H   DATA     BYTE      SBRLL1
*SFR* 00000099H   DATA     BYTE      SBUF0
*SFR* 00000092H   DATA     BYTE      SBUF1
*SFR* 00000098H   DATA     BYTE      SCON0
*SFR* 00000098H.5 DATA     BIT       SCON0_MCE
*SFR* 00000098H.2 DATA     BIT       SCON0_RB8
*SFR* 00000098H.4 DATA     BIT       SCON0_REN
*SFR* 00000098H   DATA     BIT       SCON0_RI
*SFR* 00000098H.7 DATA     BIT       SCON0_SMODE
*SFR* 00000098H.3 DATA     BIT       SCON0_TB8
*SFR* 00000098H.1 DATA     BIT       SCON0_TI
*SFR* 000000C8H   DATA     BYTE      SCON1
*SFR* 000000C8H.7 DATA     BIT       SCON1_OVR
*SFR* 000000C8H.6 DATA     BIT       SCON1_PERR
*SFR* 000000C8H.2 DATA     BIT       SCON1_RBX
LX51 LINKER/LOCATER V4.66.30.0                                                        08/12/2020  16:38:44  PAGE 17


*SFR* 000000C8H.4 DATA     BIT       SCON1_REN
*SFR* 000000C8H   DATA     BIT       SCON1_RI
*SFR* 000000C8H.3 DATA     BIT       SCON1_TBX
*SFR* 000000C8H.1 DATA     BIT       SCON1_TI
      0200032DH   XDATA    ---       Self_Straighten
      0100282EH   CODE     ---       SendData_SelfCheck
      0100231AH   CODE     ---       SendData_Work
      0200023EH   XDATA    ---       Serial
      02000237H   XDATA    ---       Serial_ISP
*SFR* 000000A7H   DATA     BYTE      SFRPAGE
      020003F4H   XDATA    BYTE      SFRPAGE_TEMP
*SFR* 000000CFH   DATA     BYTE      SFRPGCN
*SFR* 000000D7H   DATA     BYTE      SFRSTACK
      01000021H   CODE     ---       SiLabs_Startup
*SFR* 000000D6H   DATA     BYTE      SMB0ADM
*SFR* 000000D7H   DATA     BYTE      SMB0ADR
*SFR* 000000C1H   DATA     BYTE      SMB0CF
*SFR* 000000C0H   DATA     BYTE      SMB0CN0
*SFR* 000000C0H.1 DATA     BIT       SMB0CN0_ACK
*SFR* 000000C0H.3 DATA     BIT       SMB0CN0_ACKRQ
*SFR* 000000C0H.2 DATA     BIT       SMB0CN0_ARBLOST
*SFR* 000000C0H.7 DATA     BIT       SMB0CN0_MASTER
*SFR* 000000C0H   DATA     BIT       SMB0CN0_SI
*SFR* 000000C0H.5 DATA     BIT       SMB0CN0_STA
*SFR* 000000C0H.4 DATA     BIT       SMB0CN0_STO
*SFR* 000000C0H.6 DATA     BIT       SMB0CN0_TXMODE
*SFR* 000000C2H   DATA     BYTE      SMB0DAT
*SFR* 000000C3H   DATA     BYTE      SMB0FCN0
*SFR* 000000C4H   DATA     BYTE      SMB0FCN1
*SFR* 000000EFH   DATA     BYTE      SMB0FCT
*SFR* 000000C5H   DATA     BYTE      SMB0RXLN
*SFR* 000000ACH   DATA     BYTE      SMB0TC
*SFR* 00000093H   DATA     BYTE      SMOD1
*SFR* 00000081H   DATA     BYTE      SP
      020003EEH   XDATA    ---       Speaker
*SFR* 000000A1H   DATA     BYTE      SPI0CFG
*SFR* 000000A2H   DATA     BYTE      SPI0CKR
*SFR* 000000F8H   DATA     BYTE      SPI0CN0
*SFR* 000000F8H.5 DATA     BIT       SPI0CN0_MODF
*SFR* 000000F8H.2 DATA     BIT       SPI0CN0_NSSMD0
*SFR* 000000F8H.3 DATA     BIT       SPI0CN0_NSSMD1
*SFR* 000000F8H.4 DATA     BIT       SPI0CN0_RXOVRN
*SFR* 000000F8H   DATA     BIT       SPI0CN0_SPIEN
*SFR* 000000F8H.7 DATA     BIT       SPI0CN0_SPIF
*SFR* 000000F8H.1 DATA     BIT       SPI0CN0_TXNF
*SFR* 000000F8H.6 DATA     BIT       SPI0CN0_WCOL
*SFR* 000000A3H   DATA     BYTE      SPI0DAT
*SFR* 0000009AH   DATA     BYTE      SPI0FCN0
*SFR* 0000009BH   DATA     BYTE      SPI0FCN1
*SFR* 000000F7H   DATA     BYTE      SPI0FCT
*DEL*:00000000H   CODE     ---       Spk_DriveTheSpeaker
*DEL*:00000000H   CODE     ---       Spk_InitHardware
*DEL*:00000000H   CODE     ---       Spk_InitVariable
      010033A7H   CODE     ---       Srl_InitVariable
*DEL*:00000000H   CODE     ---       Start1msTimer
      0100380FH   CODE     ---       Start_PCA0_Comparator
*DEL*:00000000H   CODE     ---       StartThe32msTimer
      01000026H   CODE     ---       StartTheUart0Timer
*DEL*:00000000H   CODE     ---       Stop1msTimer
      01000003H   CODE     ---       Stop_PCA0_Comparator
*DEL*:00000000H   CODE     ---       StopThe32msTimer
*DEL*:00000000H   CODE     ---       StopTheUart0Timer
LX51 LINKER/LOCATER V4.66.30.0                                                        08/12/2020  16:38:44  PAGE 18


      020001E8H   XDATA    ---       TableHeight
      02000209H   XDATA    ---       TableWidth
*SFR* 00000088H   DATA     BYTE      TCON
*SFR* 00000088H.1 DATA     BIT       TCON_IE0
*SFR* 00000088H.3 DATA     BIT       TCON_IE1
*SFR* 00000088H   DATA     BIT       TCON_IT0
*SFR* 00000088H.2 DATA     BIT       TCON_IT1
*SFR* 00000088H.5 DATA     BIT       TCON_TF0
*SFR* 00000088H.7 DATA     BIT       TCON_TF1
*SFR* 00000088H.4 DATA     BIT       TCON_TR0
*SFR* 00000088H.6 DATA     BIT       TCON_TR1
*SFR* 0000008CH   DATA     BYTE      TH0
*SFR* 0000008DH   DATA     BYTE      TH1
      0100353CH   CODE     ---       Time_Init1msTimer
      01003798H   CODE     ---       Time_Init32msTimer
      0100365FH   CODE     ---       Time_InitAdcTriggerTimer
      01003418H   CODE     ---       Time_InitPCA0
      01003567H   CODE     ---       Time_InitTheDelayTimer
      010035E6H   CODE     ---       Time_InitUart0Timer
*DEL*:00000000H   CODE     ---       Time_InitVariable
      010037B4H   CODE     ---       Time_StartAdcTrigger
      0100000EH   CODE     ---       Time_StopAdcTrigger
      01000022H   CODE     ---       TIMER0_ISR
      01002E94H   CODE     ---       TIMER2_ISR
      010034E0H   CODE     ---       TIMER3_ISR
      010037D0H   CODE     ---       TIMER4_ISR
*SFR* 0000008AH   DATA     BYTE      TL0
*SFR* 0000008BH   DATA     BYTE      TL1
*SFR* 00000089H   DATA     BYTE      TMOD
*SFR* 000000CCH   DATA     WORD      TMR2
*SFR* 000000C8H   DATA     BYTE      TMR2CN0
*SFR* 000000C8H.3 DATA     BIT       TMR2CN0_T2SPLIT
*SFR* 000000C8H   DATA     BIT       TMR2CN0_T2XCLK0
*SFR* 000000C8H.1 DATA     BIT       TMR2CN0_T2XCLK1
*SFR* 000000C8H.4 DATA     BIT       TMR2CN0_TF2CEN
*SFR* 000000C8H.7 DATA     BIT       TMR2CN0_TF2H
*SFR* 000000C8H.6 DATA     BIT       TMR2CN0_TF2L
*SFR* 000000C8H.5 DATA     BIT       TMR2CN0_TF2LEN
*SFR* 000000C8H.2 DATA     BIT       TMR2CN0_TR2
*SFR* 000000FDH   DATA     BYTE      TMR2CN1
*SFR* 000000CDH   DATA     BYTE      TMR2H
*SFR* 000000CCH   DATA     BYTE      TMR2L
*SFR* 000000CAH   DATA     WORD      TMR2RL
*SFR* 000000CBH   DATA     BYTE      TMR2RLH
*SFR* 000000CAH   DATA     BYTE      TMR2RLL
*SFR* 00000094H   DATA     WORD      TMR3
*SFR* 00000091H   DATA     BYTE      TMR3CN0
*SFR* 000000FEH   DATA     BYTE      TMR3CN1
*SFR* 00000095H   DATA     BYTE      TMR3H
*SFR* 00000094H   DATA     BYTE      TMR3L
*SFR* 00000092H   DATA     WORD      TMR3RL
*SFR* 00000093H   DATA     BYTE      TMR3RLH
*SFR* 00000092H   DATA     BYTE      TMR3RLL
*SFR* 000000A4H   DATA     WORD      TMR4
*SFR* 00000098H   DATA     BYTE      TMR4CN0
*SFR* 00000098H.3 DATA     BIT       TMR4CN0_T4SPLIT
*SFR* 00000098H   DATA     BIT       TMR4CN0_T4XCLK0
*SFR* 00000098H.1 DATA     BIT       TMR4CN0_T4XCLK1
*SFR* 00000098H.4 DATA     BIT       TMR4CN0_TF4CEN
*SFR* 00000098H.7 DATA     BIT       TMR4CN0_TF4H
*SFR* 00000098H.6 DATA     BIT       TMR4CN0_TF4L
*SFR* 00000098H.5 DATA     BIT       TMR4CN0_TF4LEN
LX51 LINKER/LOCATER V4.66.30.0                                                        08/12/2020  16:38:44  PAGE 19


*SFR* 00000098H.2 DATA     BIT       TMR4CN0_TR4
*SFR* 000000FFH   DATA     BYTE      TMR4CN1
*SFR* 000000A5H   DATA     BYTE      TMR4H
*SFR* 000000A4H   DATA     BYTE      TMR4L
*SFR* 000000A2H   DATA     WORD      TMR4RL
*SFR* 000000A3H   DATA     BYTE      TMR4RLH
*SFR* 000000A2H   DATA     BYTE      TMR4RLL
*DEL*:00000000H   CODE     ---       UART0_DataInit
      01003686H   CODE     ---       Uart0_Init
*DEL*:00000000H   CODE     ---       UART0_INTRX_Dis
*DEL*:00000000H   CODE     ---       UART0_INTRX_En
      010030C4H   CODE     ---       UART0_ISR
*DEL*:00000000H   CODE     ---       UART0_ModeDataH
*DEL*:00000000H   CODE     ---       UART0_ModeDataL
      01000076H   CODE     ---       UART0_Moudle_Dis
      020003B2H   XDATA    BYTE      Uart0RX_OK_Flag
      02000398H   XDATA    BYTE      Uart0TX_ALL_Flag
      020003B1H   XDATA    BYTE      Uart0TX_NOTOK_Flag
*SFR* 0000009DH   DATA     BYTE      UART1FCN0
*SFR* 000000D8H   DATA     BYTE      UART1FCN1
*SFR* 000000D8H.3 DATA     BIT       UART1FCN1_RFRQ
*SFR* 000000D8H   DATA     BIT       UART1FCN1_RIE
*SFR* 000000D8H.1 DATA     BIT       UART1FCN1_RXTO0
*SFR* 000000D8H.2 DATA     BIT       UART1FCN1_RXTO1
*SFR* 000000D8H.7 DATA     BIT       UART1FCN1_TFRQ
*SFR* 000000D8H.4 DATA     BIT       UART1FCN1_TIE
*SFR* 000000D8H.5 DATA     BIT       UART1FCN1_TXHOLD
*SFR* 000000D8H.6 DATA     BIT       UART1FCN1_TXNF
*SFR* 000000FAH   DATA     BYTE      UART1FCT
*SFR* 0000009EH   DATA     BYTE      UART1LIN
*SFR* 000000FFH   DATA     BYTE      VDM0CN
      020003DCH   XDATA    WORD      w20msCnt
      020003DEH   XDATA    WORD      w50msCnt
*SFR* 00000097H   DATA     BYTE      WDTCN
      02000368H   XDATA    WORD      wPowerValue
      0200038EH   XDATA    WORD      wSampleValue
      020003E0H   XDATA    WORD      wSensorCheckTime
      020003D4H   XDATA    WORD      wTime
      020003D9H   XDATA    WORD      wTimeMs
*SFR* 000000E1H   DATA     BYTE      XBR0
*SFR* 000000E2H   DATA     BYTE      XBR1
*SFR* 000000E3H   DATA     BYTE      XBR2



SYMBOL TABLE OF MODULE:  DFSK-F516-EFM8BB21F16G-C-QFN20_20200107.OMF.CRBUILD (ADC)

      VALUE       REP       CLASS    TYPE      SYMBOL NAME
      ====================================================
      ---         MODULE    ---      ---       ADC
      0200038EH   PUBLIC    XDATA    WORD      wSampleValue
      0200038CH   PUBLIC    XDATA    WORD      RR_MAX_VALUE
      0200038BH   PUBLIC    XDATA    BYTE      bRadar_PoweFlag
      02000389H   PUBLIC    XDATA    WORD      RR_MIN_VALUE
      0200037CH   PUBLIC    XDATA    ---       ADC
      0200037BH   PUBLIC    XDATA    BYTE      bySampleTimes
      02000379H   PUBLIC    XDATA    WORD      RL_MAX_VALUE
      02000377H   PUBLIC    XDATA    WORD      RL_MIN_VALUE
      02000375H   PUBLIC    XDATA    WORD      FR_MAX_VALUE
      02000373H   PUBLIC    XDATA    WORD      FR_MIN_VALUE
      02000372H   PUBLIC    XDATA    BYTE      bDetectFlag
      02000370H   PUBLIC    XDATA    WORD      FL_MAX_VALUE
LX51 LINKER/LOCATER V4.66.30.0                                                        08/12/2020  16:38:44  PAGE 20


      0200036EH   PUBLIC    XDATA    WORD      FL_MIN_VALUE
      0200036CH   PUBLIC    XDATA    WORD      RML_MAX_VALUE
      0200036AH   PUBLIC    XDATA    WORD      RML_MIN_VALUE
      02000368H   PUBLIC    XDATA    WORD      wPowerValue
      02000367H   PUBLIC    XDATA    BYTE      bWorkFlag
      0100004EH   PUBLIC    CODE     ---       ADC_WINDOW_ISR
      010029C4H   PUBLIC    CODE     ---       ADC_ISR
      0100344FH   PUBLIC    CODE     ---       ADC_InitDetect
      0100381CH   PUBLIC    CODE     ---       ADC_Stop
      01003802H   PUBLIC    CODE     ---       ADC_Start
      01001F0FH   PUBLIC    CODE     ---       ADC_ReadID
      010031F9H   PUBLIC    CODE     ---       ADC_CALUE
      010034B1H   PUBLIC    CODE     ---       ADC_IDSamplingInit
      01003482H   PUBLIC    CODE     ---       ADC_PowerSamplingInit
      000000A2H   SFRSYM    DATA     BYTE      SPI0CKR
      00000080H   SFRSYM    DATA     BYTE      P0
      000000C8H.6 SFRSYM    DATA     BIT       SCON1_PERR
      000000D0H.2 SFRSYM    DATA     BIT       PSW_OV
      00000090H   SFRSYM    DATA     BYTE      P1
      000000F8H.1 SFRSYM    DATA     BIT       SPI0CN0_TXNF
      00000097H   SFRSYM    DATA     BYTE      WDTCN
      000000A0H   SFRSYM    DATA     BYTE      P2
      000000B0H   SFRSYM    DATA     BYTE      P3
      000000BCH   SFRSYM    DATA     BYTE      ADC0CF
      000000C0H.7 SFRSYM    DATA     BIT       SMB0CN0_MASTER
      000000F9H   SFRSYM    DATA     WORD      PCA0
      000000E6H   SFRSYM    DATA     BYTE      EIE1
      000000C0H.1 SFRSYM    DATA     BIT       SMB0CN0_ACK
      000000CEH   SFRSYM    DATA     BYTE      EIE2
      0000008FH   SFRSYM    DATA     BYTE      PSCTL
      000000E4H   SFRSYM    DATA     BYTE      IT01CF
      000000C0H.6 SFRSYM    DATA     BIT       SMB0CN0_TXMODE
      000000ADH   SFRSYM    DATA     BYTE      DERIVID
      000000A7H   SFRSYM    DATA     BYTE      SFRPAGE
      000000A4H   SFRSYM    DATA     BYTE      P0MDOUT
      000000A5H   SFRSYM    DATA     BYTE      P1MDOUT
      000000E8H.5 SFRSYM    DATA     BIT       ADC0CN0_ADINT
      000000CBH   SFRSYM    DATA     BYTE      TMR2RLH
      000000A6H   SFRSYM    DATA     BYTE      P2MDOUT
      000000A8H   SFRSYM    DATA     BYTE      IE
      00000093H   SFRSYM    DATA     BYTE      TMR3RLH
      0000009CH   SFRSYM    DATA     BYTE      P3MDOUT
      000000A3H   SFRSYM    DATA     BYTE      TMR4RLH
      000000F3H   SFRSYM    DATA     BYTE      EIP1
      000000F4H   SFRSYM    DATA     BYTE      EIP2
      00000098H.2 SFRSYM    DATA     BIT       SCON0_RB8
      000000CAH   SFRSYM    DATA     BYTE      TMR2RLL
      000000FCH   SFRSYM    DATA     BYTE      PCA0CPH0
      00000092H   SFRSYM    DATA     BYTE      TMR3RLL
      000000EAH   SFRSYM    DATA     BYTE      PCA0CPH1
      00000098H.3 SFRSYM    DATA     BIT       SCON0_TB8
      000000F0H   SFRSYM    DATA     BIT       B_B0
      00000082H   SFRSYM    DATA     WORD      DP
      000000A2H   SFRSYM    DATA     BYTE      TMR4RLL
      000000ECH   SFRSYM    DATA     BYTE      PCA0CPH2
      000000F0H.1 SFRSYM    DATA     BIT       B_B1
      000000C3H   SFRSYM    DATA     WORD      ADC0GT
      000000BDH   SFRSYM    DATA     BYTE      I2C0SLAD
      000000D8H.3 SFRSYM    DATA     BIT       UART1FCN1_RFRQ
      000000F0H.2 SFRSYM    DATA     BIT       B_B2
      000000CFH   SFRSYM    DATA     BYTE      SFRPGCN
      000000FBH   SFRSYM    DATA     BYTE      PCA0CPL0
LX51 LINKER/LOCATER V4.66.30.0                                                        08/12/2020  16:38:44  PAGE 21


      000000F0H.3 SFRSYM    DATA     BIT       B_B3
      000000D9H   SFRSYM    DATA     BYTE      PCA0MD
      000000DAH   SFRSYM    DATA     BYTE      PCA0CPM0
      000000E9H   SFRSYM    DATA     BYTE      PCA0CPL1
      000000D8H.7 SFRSYM    DATA     BIT       UART1FCN1_TFRQ
      000000F0H.4 SFRSYM    DATA     BIT       B_B4
      000000DBH   SFRSYM    DATA     BYTE      PCA0CPM1
      000000EBH   SFRSYM    DATA     BYTE      PCA0CPL2
      000000F0H.5 SFRSYM    DATA     BIT       B_B5
      000000DCH   SFRSYM    DATA     BYTE      PCA0CPM2
      000000B8H   SFRSYM    DATA     BYTE      IP
      000000B9H   SFRSYM    DATA     BYTE      ADC0TK
      000000F0H.6 SFRSYM    DATA     BIT       B_B6
      000000C5H   SFRSYM    DATA     WORD      ADC0LT
      000000D8H.6 SFRSYM    DATA     BIT       UART1FCN1_TXNF
      00000098H.5 SFRSYM    DATA     BIT       SCON0_MCE
      000000F0H.7 SFRSYM    DATA     BIT       B_B7
      000000C3H   SFRSYM    DATA     BYTE      SMB0FCN0
      000000E1H   SFRSYM    DATA     BYTE      XBR0
      000000C4H   SFRSYM    DATA     BYTE      SMB0FCN1
      000000C1H   SFRSYM    DATA     BYTE      SMB0CF
      000000E2H   SFRSYM    DATA     BYTE      XBR1
      000000C1H   SFRSYM    DATA     BYTE      PFE0CN
      000000E7H   SFRSYM    DATA     BYTE      EMI0CN
      000000C0H.5 SFRSYM    DATA     BIT       SMB0CN0_STA
      000000E3H   SFRSYM    DATA     BYTE      XBR2
      000000BBH   SFRSYM    DATA     BYTE      ADC0MX
      000000E0H   SFRSYM    DATA     BIT       ACC_ACC0
      000000D1H   SFRSYM    DATA     BYTE      REF0CN
      0000008EH   SFRSYM    DATA     BYTE      CKCON0
      000000E0H.1 SFRSYM    DATA     BIT       ACC_ACC1
      000000C9H   SFRSYM    DATA     BYTE      REG0CN
      000000DDH   SFRSYM    DATA     BYTE      CRC0IN
      000000A6H   SFRSYM    DATA     BYTE      CKCON1
      000000C8H.2 SFRSYM    DATA     BIT       TMR2CN0_TR2
      000000E0H.2 SFRSYM    DATA     BIT       ACC_ACC2
      000000C6H   SFRSYM    DATA     BYTE      REG1CN
      000000E0H.3 SFRSYM    DATA     BIT       ACC_ACC3
      00000081H   SFRSYM    DATA     BYTE      SP
      0000009DH   SFRSYM    DATA     BYTE      CMP0MD
      000000E0H.4 SFRSYM    DATA     BIT       ACC_ACC4
      000000B1H   SFRSYM    DATA     BYTE      LFO0CN
      000000ABH   SFRSYM    DATA     BYTE      CMP1MD
      000000D8H   SFRSYM    DATA     BIT       PCA0CN0_CCF0
      000000E0H.5 SFRSYM    DATA     BIT       ACC_ACC5
      00000098H.2 SFRSYM    DATA     BIT       TMR4CN0_TR4
      000000D8H.1 SFRSYM    DATA     BIT       PCA0CN0_CCF1
      000000E0H.6 SFRSYM    DATA     BIT       ACC_ACC6
      000000CCH   SFRSYM    DATA     WORD      TMR2
      0000009AH   SFRSYM    DATA     BYTE      SPI0FCN0
      000000D8H.2 SFRSYM    DATA     BIT       PCA0CN0_CCF2
      000000E0H.7 SFRSYM    DATA     BIT       ACC_ACC7
      00000094H   SFRSYM    DATA     WORD      TMR3
      0000009BH   SFRSYM    DATA     BYTE      SPI0FCN1
      000000A4H   SFRSYM    DATA     WORD      TMR4
      00000094H   SFRSYM    DATA     BYTE      SBCON1
      000000C0H.3 SFRSYM    DATA     BIT       SMB0CN0_ACKRQ
      000000FFH   SFRSYM    DATA     BYTE      VDM0CN
      000000F1H   SFRSYM    DATA     BYTE      P0MDIN
      00000098H.4 SFRSYM    DATA     BIT       SCON0_REN
      000000ACH   SFRSYM    DATA     BYTE      SMB0TC
      000000F2H   SFRSYM    DATA     BYTE      P1MDIN
LX51 LINKER/LOCATER V4.66.30.0                                                        08/12/2020  16:38:44  PAGE 22


      000000C8H.4 SFRSYM    DATA     BIT       SCON1_REN
      000000F3H   SFRSYM    DATA     BYTE      P2MDIN
      000000C0H.4 SFRSYM    DATA     BIT       SMB0CN0_STO
      000000F4H   SFRSYM    DATA     BYTE      P3MDIN
      000000B9H   SFRSYM    DATA     BYTE      I2C0STAT
      000000BBH   SFRSYM    DATA     BYTE      I2C0DOUT
      00000096H   SFRSYM    DATA     BYTE      SBRLH1
      000000FEH   SFRSYM    DATA     BYTE      P0MASK
      000000D8H.5 SFRSYM    DATA     BIT       UART1FCN1_TXHOLD
      000000EEH   SFRSYM    DATA     BYTE      P1MASK
      000000FCH   SFRSYM    DATA     BYTE      P2MASK
      000000D0H.3 SFRSYM    DATA     BIT       PSW_RS0
      000000D8H.7 SFRSYM    DATA     BIT       PCA0CN0_CF
      0000009EH   SFRSYM    DATA     BYTE      PCA0CENT
      000000BAH   SFRSYM    DATA     BYTE      I2C0CN0
      000000D2H   SFRSYM    DATA     BYTE      CRC0ST
      000000F8H.4 SFRSYM    DATA     BIT       SPI0CN0_RXOVRN
      000000D0H.4 SFRSYM    DATA     BIT       PSW_RS1
      00000095H   SFRSYM    DATA     BYTE      SBRLL1
      000000C8H.2 SFRSYM    DATA     BIT       SCON1_RBX
      000000C8H   SFRSYM    DATA     BIT       TMR2CN0_T2XCLK0
      000000C8H.1 SFRSYM    DATA     BIT       TMR2CN0_T2XCLK1
      000000C8H.3 SFRSYM    DATA     BIT       SCON1_TBX
      000000E8H.7 SFRSYM    DATA     BIT       ADC0CN0_ADEN
      00000089H   SFRSYM    DATA     BYTE      TMOD
      00000088H   SFRSYM    DATA     BYTE      TCON
      000000CFH   SFRSYM    DATA     BYTE      CRC0FLIP
      000000D0H   SFRSYM    DATA     BIT       PSW_PARITY
      000000A8H.4 SFRSYM    DATA     BIT       IE_ES0
      0000009FH   SFRSYM    DATA     BYTE      CMP0MX
      00000098H   SFRSYM    DATA     BIT       TMR4CN0_T4XCLK0
      000000A8H.1 SFRSYM    DATA     BIT       IE_ET0
      000000AAH   SFRSYM    DATA     BYTE      CMP1MX
      00000098H.1 SFRSYM    DATA     BIT       TMR4CN0_T4XCLK1
      000000A8H.3 SFRSYM    DATA     BIT       IE_ET1
      000000D4H   SFRSYM    DATA     BYTE      P0SKIP
      000000D8H   SFRSYM    DATA     BIT       UART1FCN1_RIE
      000000A8H.5 SFRSYM    DATA     BIT       IE_ET2
      000000D5H   SFRSYM    DATA     BYTE      P1SKIP
      000000CCH   SFRSYM    DATA     BYTE      P2SKIP
      000000E8H   SFRSYM    DATA     BYTE      ADC0CN0
      000000D8H.4 SFRSYM    DATA     BIT       UART1FCN1_TIE
      000000A8H   SFRSYM    DATA     BIT       IE_EX0
      000000B2H   SFRSYM    DATA     BYTE      ADC0CN1
      000000D8H.6 SFRSYM    DATA     BIT       PCA0CN0_CR
      000000A8H.2 SFRSYM    DATA     BIT       IE_EX1
      000000C8H.7 SFRSYM    DATA     BIT       SCON1_OVR
      00000098H.7 SFRSYM    DATA     BIT       SCON0_SMODE
      000000B5H   SFRSYM    DATA     BYTE      DEVICEID
      000000A9H   SFRSYM    DATA     BYTE      CLKSEL
      000000F8H   SFRSYM    DATA     BIT       SPI0CN0_SPIEN
      000000F0H   SFRSYM    DATA     BYTE      B
      000000BEH   SFRSYM    DATA     BYTE      ADC0H
      000000E8H.6 SFRSYM    DATA     BIT       ADC0CN0_ADBMEN
      000000CAH   SFRSYM    DATA     WORD      TMR2RL
      000000BDH   SFRSYM    DATA     BYTE      ADC0L
      00000092H   SFRSYM    DATA     WORD      TMR3RL
      000000A2H   SFRSYM    DATA     WORD      TMR4RL
      000000D8H   SFRSYM    DATA     BYTE      PCA0CN0
      000000E0H   SFRSYM    DATA     BYTE      ACC
      000000FBH   SFRSYM    DATA     WORD      PCA0CP0
      000000E9H   SFRSYM    DATA     WORD      PCA0CP1
LX51 LINKER/LOCATER V4.66.30.0                                                        08/12/2020  16:38:44  PAGE 23


      000000EBH   SFRSYM    DATA     WORD      PCA0CP2
      000000BCH   SFRSYM    DATA     BYTE      I2C0DIN
      000000CEH   SFRSYM    DATA     BYTE      CRC0CN0
      0000008CH   SFRSYM    DATA     BYTE      TH0
      00000086H   SFRSYM    DATA     BYTE      CRC0CN1
      000000B8H.4 SFRSYM    DATA     BIT       IP_PS0
      000000FAH   SFRSYM    DATA     BYTE      UART1FCT
      0000008DH   SFRSYM    DATA     BYTE      TH1
      000000FAH   SFRSYM    DATA     BYTE      PCA0H
      000000F5H   SFRSYM    DATA     BYTE      I2C0FCT
      000000B8H.1 SFRSYM    DATA     BIT       IP_PT0
      000000B8H.3 SFRSYM    DATA     BIT       IP_PT1
      000000C0H.2 SFRSYM    DATA     BIT       SMB0CN0_ARBLOST
      000000B8H.5 SFRSYM    DATA     BIT       IP_PT2
      0000008AH   SFRSYM    DATA     BYTE      TL0
      000000D0H.5 SFRSYM    DATA     BIT       PSW_F0
      000000A8H.6 SFRSYM    DATA     BIT       IE_ESPI0
      0000008BH   SFRSYM    DATA     BYTE      TL1
      000000F9H   SFRSYM    DATA     BYTE      PCA0L
      000000C0H   SFRSYM    DATA     BIT       SMB0CN0_SI
      000000D0H.1 SFRSYM    DATA     BIT       PSW_F1
      00000080H   SFRSYM    DATA     BIT       P0_B0
      000000B8H   SFRSYM    DATA     BIT       IP_PX0
      00000090H   SFRSYM    DATA     BIT       P1_B0
      00000080H.1 SFRSYM    DATA     BIT       P0_B1
      000000B8H.2 SFRSYM    DATA     BIT       IP_PX1
      0000009EH   SFRSYM    DATA     BYTE      UART1LIN
      0000009BH   SFRSYM    DATA     BYTE      CMP0CN0
      00000088H.1 SFRSYM    DATA     BIT       TCON_IE0
      000000A0H   SFRSYM    DATA     BIT       P2_B0
      00000090H.1 SFRSYM    DATA     BIT       P1_B1
      00000080H.2 SFRSYM    DATA     BIT       P0_B2
      000000BFH   SFRSYM    DATA     BYTE      CMP1CN0
      00000099H   SFRSYM    DATA     BYTE      CMP0CN1
      00000088H.3 SFRSYM    DATA     BIT       TCON_IE1
      000000B0H   SFRSYM    DATA     BIT       P3_B0
      000000A0H.1 SFRSYM    DATA     BIT       P2_B1
      00000090H.2 SFRSYM    DATA     BIT       P1_B2
      00000080H.3 SFRSYM    DATA     BIT       P0_B3
      000000C0H   SFRSYM    DATA     BYTE      SMB0CN0
      000000ACH   SFRSYM    DATA     BYTE      CMP1CN1
      000000B0H.1 SFRSYM    DATA     BIT       P3_B1
      000000A0H.2 SFRSYM    DATA     BIT       P2_B2
      00000090H.3 SFRSYM    DATA     BIT       P1_B3
      00000080H.4 SFRSYM    DATA     BIT       P0_B4
      000000A0H.3 SFRSYM    DATA     BIT       P2_B3
      00000090H.4 SFRSYM    DATA     BIT       P1_B4
      00000080H.5 SFRSYM    DATA     BIT       P0_B5
      000000D8H.1 SFRSYM    DATA     BIT       UART1FCN1_RXTO0
      00000090H.5 SFRSYM    DATA     BIT       P1_B5
      00000080H.6 SFRSYM    DATA     BIT       P0_B6
      000000F5H   SFRSYM    DATA     BYTE      EIP1H
      000000D8H.2 SFRSYM    DATA     BIT       UART1FCN1_RXTO1
      00000090H.6 SFRSYM    DATA     BIT       P1_B6
      00000080H.7 SFRSYM    DATA     BIT       P0_B7
      000000C5H   SFRSYM    DATA     BYTE      SMB0RXLN
      000000F6H   SFRSYM    DATA     BYTE      EIP2H
      00000090H.7 SFRSYM    DATA     BIT       P1_B7
      00000083H   SFRSYM    DATA     BYTE      DPH
      000000C4H   SFRSYM    DATA     BYTE      ADC0GTH
      000000C8H.7 SFRSYM    DATA     BIT       TMR2CN0_TF2H
      000000C8H.3 SFRSYM    DATA     BIT       TMR2CN0_T2SPLIT
LX51 LINKER/LOCATER V4.66.30.0                                                        08/12/2020  16:38:44  PAGE 24


      000000D0H.6 SFRSYM    DATA     BIT       PSW_AC
      000000F8H   SFRSYM    DATA     BYTE      SPI0CN0
      000000C7H   SFRSYM    DATA     BYTE      HFO0CAL
      00000088H.5 SFRSYM    DATA     BIT       TCON_TF0
      00000098H   SFRSYM    DATA     BIT       SCON0_RI
      000000D6H   SFRSYM    DATA     BYTE      HFO1CAL
      00000082H   SFRSYM    DATA     BYTE      DPL
      00000088H.7 SFRSYM    DATA     BIT       TCON_TF1
      000000C8H   SFRSYM    DATA     BIT       SCON1_RI
      00000099H   SFRSYM    DATA     BYTE      SBUF0
      00000087H   SFRSYM    DATA     BYTE      PCON0
      000000F2H   SFRSYM    DATA     BYTE      IPH
      000000C3H   SFRSYM    DATA     BYTE      ADC0GTL
      00000098H.7 SFRSYM    DATA     BIT       TMR4CN0_TF4H
      00000098H.3 SFRSYM    DATA     BIT       TMR4CN0_T4SPLIT
      000000C8H.6 SFRSYM    DATA     BIT       TMR2CN0_TF2L
      00000098H.1 SFRSYM    DATA     BIT       SCON0_TI
      000000E8H   SFRSYM    DATA     BIT       ADC0CN0_ADCM0
      00000092H   SFRSYM    DATA     BYTE      SBUF1
      0000009AH   SFRSYM    DATA     BYTE      PCON1
      000000C6H   SFRSYM    DATA     BYTE      ADC0LTH
      00000088H   SFRSYM    DATA     BIT       TCON_IT0
      000000C8H.1 SFRSYM    DATA     BIT       SCON1_TI
      000000E8H.1 SFRSYM    DATA     BIT       ADC0CN0_ADCM1
      000000EFH   SFRSYM    DATA     BYTE      RSTSRC
      000000FDH   SFRSYM    DATA     BYTE      P0MAT
      000000DEH   SFRSYM    DATA     BYTE      CRC0DAT
      00000088H.2 SFRSYM    DATA     BIT       TCON_IT1
      000000E8H.2 SFRSYM    DATA     BIT       ADC0CN0_ADCM2
      000000D7H   SFRSYM    DATA     BYTE      SFRSTACK
      00000098H   SFRSYM    DATA     BYTE      SCON0
      000000F6H   SFRSYM    DATA     BYTE      PRTDRV
      000000EDH   SFRSYM    DATA     BYTE      P1MAT
      000000E8H.3 SFRSYM    DATA     BIT       ADC0CN0_ADWINT
      00000095H   SFRSYM    DATA     WORD      SBRL1
      00000093H   SFRSYM    DATA     BYTE      SMOD1
      000000C8H   SFRSYM    DATA     BYTE      SCON1
      000000FBH   SFRSYM    DATA     BYTE      P2MAT
      00000098H.6 SFRSYM    DATA     BIT       TMR4CN0_TF4L
      000000E8H.4 SFRSYM    DATA     BIT       ADC0CN0_ADBUSY
      000000D6H   SFRSYM    DATA     BYTE      SMB0ADM
      000000C5H   SFRSYM    DATA     BYTE      ADC0LTL
      000000F8H.5 SFRSYM    DATA     BIT       SPI0CN0_MODF
      000000B8H.6 SFRSYM    DATA     BIT       IP_PSPI0
      0000009CH   SFRSYM    DATA     BYTE      PCA0CLR
      000000C8H   SFRSYM    DATA     BYTE      TMR2CN0
      00000091H   SFRSYM    DATA     BYTE      TMR3CN0
      000000FDH   SFRSYM    DATA     BYTE      TMR2CN1
      00000098H   SFRSYM    DATA     BYTE      TMR4CN0
      000000FEH   SFRSYM    DATA     BYTE      TMR3CN1
      000000FFH   SFRSYM    DATA     BYTE      TMR4CN1
      000000D7H   SFRSYM    DATA     BYTE      SMB0ADR
      00000088H.4 SFRSYM    DATA     BIT       TCON_TR0
      000000C8H.4 SFRSYM    DATA     BIT       TMR2CN0_TF2CEN
      00000088H.6 SFRSYM    DATA     BIT       TCON_TR1
      000000C2H   SFRSYM    DATA     BYTE      SMB0DAT
      000000CDH   SFRSYM    DATA     BYTE      TMR2H
      000000A1H   SFRSYM    DATA     BYTE      SPI0CFG
      00000095H   SFRSYM    DATA     BYTE      TMR3H
      000000EFH   SFRSYM    DATA     BYTE      HFOCN
      000000D3H   SFRSYM    DATA     BYTE      CRC0CNT
      000000A5H   SFRSYM    DATA     BYTE      TMR4H
LX51 LINKER/LOCATER V4.66.30.0                                                        08/12/2020  16:38:44  PAGE 25


      00000098H.4 SFRSYM    DATA     BIT       TMR4CN0_TF4CEN
      000000EFH   SFRSYM    DATA     BYTE      SMB0FCT
      00000096H   SFRSYM    DATA     BYTE      PCA0POL
      000000CCH   SFRSYM    DATA     BYTE      TMR2L
      000000F8H.7 SFRSYM    DATA     BIT       SPI0CN0_SPIF
      00000094H   SFRSYM    DATA     BYTE      TMR3L
      000000DFH   SFRSYM    DATA     BYTE      ADC0PWR
      000000A8H.7 SFRSYM    DATA     BIT       IE_EA
      000000A4H   SFRSYM    DATA     BYTE      TMR4L
      000000C8H.5 SFRSYM    DATA     BIT       TMR2CN0_TF2LEN
      000000F8H.6 SFRSYM    DATA     BIT       SPI0CN0_WCOL
      000000F8H.2 SFRSYM    DATA     BIT       SPI0CN0_NSSMD0
      000000D0H.7 SFRSYM    DATA     BIT       PSW_CY
      0000009DH   SFRSYM    DATA     BYTE      UART1FCN0
      000000A3H   SFRSYM    DATA     BYTE      SPI0DAT
      000000ADH   SFRSYM    DATA     BYTE      I2C0FCN0
      000000F8H.3 SFRSYM    DATA     BIT       SPI0CN0_NSSMD1
      000000BDH   SFRSYM    DATA     WORD      ADC0
      000000D8H   SFRSYM    DATA     BYTE      UART1FCN1
      000000ABH   SFRSYM    DATA     BYTE      I2C0FCN1
      00000098H.5 SFRSYM    DATA     BIT       TMR4CN0_TF4LEN
      000000D0H   SFRSYM    DATA     BYTE      PSW
      000000F7H   SFRSYM    DATA     BYTE      PCA0PWM
      000000F7H   SFRSYM    DATA     BYTE      SPI0FCT
      000000B6H   SFRSYM    DATA     BYTE      REVID
      000000B7H   SFRSYM    DATA     BYTE      FLKEY
      000000B3H   SFRSYM    DATA     BYTE      ADC0AC

      01003482H   BLOCK     CODE     ---       LVL=0
      01003482H   LINE      CODE     ---       #54
      01003482H   LINE      CODE     ---       #55
      01003482H   LINE      CODE     ---       #56
      01003484H   LINE      CODE     ---       #57
      01003486H   LINE      CODE     ---       #58
      01003488H   LINE      CODE     ---       #59
      0100348BH   LINE      CODE     ---       #60
      0100348EH   LINE      CODE     ---       #65
      01003491H   LINE      CODE     ---       #70
      01003494H   LINE      CODE     ---       #75
      01003497H   LINE      CODE     ---       #76
      0100349AH   LINE      CODE     ---       #77
      0100349DH   LINE      CODE     ---       #78
      0100349FH   LINE      CODE     ---       #79
      010034A1H   LINE      CODE     ---       #80
      010034A4H   LINE      CODE     ---       #81
      010034A7H   LINE      CODE     ---       #88
      010034ABH   LINE      CODE     ---       #89
      010034ADH   LINE      CODE     ---       #90
      010034B0H   LINE      CODE     ---       #92
      ---         BLOCKEND  ---      ---       LVL=0

      010034B1H   BLOCK     CODE     ---       LVL=0
      010034B1H   LINE      CODE     ---       #94
      010034B1H   LINE      CODE     ---       #95
      010034B1H   LINE      CODE     ---       #96
      010034B3H   LINE      CODE     ---       #97
      010034B5H   LINE      CODE     ---       #98
      010034B7H   LINE      CODE     ---       #99
      010034BAH   LINE      CODE     ---       #100
      010034BDH   LINE      CODE     ---       #105
      010034C0H   LINE      CODE     ---       #110
      010034C3H   LINE      CODE     ---       #115
LX51 LINKER/LOCATER V4.66.30.0                                                        08/12/2020  16:38:44  PAGE 26


      010034C6H   LINE      CODE     ---       #116
      010034C9H   LINE      CODE     ---       #117
      010034CCH   LINE      CODE     ---       #118
      010034CEH   LINE      CODE     ---       #119
      010034D0H   LINE      CODE     ---       #120
      010034D3H   LINE      CODE     ---       #121
      010034D6H   LINE      CODE     ---       #128
      010034DAH   LINE      CODE     ---       #129
      010034DCH   LINE      CODE     ---       #130
      010034DFH   LINE      CODE     ---       #132
      ---         BLOCKEND  ---      ---       LVL=0

      010031E7H   BLOCK     CODE     ---       LVL=0
      ---         BLOCKEND  ---      ---       LVL=0

      010031F9H   BLOCK     CODE     ---       LVL=0
      010031F9H   LINE      CODE     ---       #134
      010031F9H   LINE      CODE     ---       #135
      010031F9H   LINE      CODE     ---       #136
      010031FEH   LINE      CODE     ---       #137
      01003202H   LINE      CODE     ---       #138
      01003202H   LINE      CODE     ---       #139
      01003204H   LINE      CODE     ---       #140
      01003206H   LINE      CODE     ---       #141
      0100320DH   LINE      CODE     ---       #142
      01003219H   LINE      CODE     ---       #143
      01003223H   LINE      CODE     ---       #144
      01003226H   LINE      CODE     ---       #145
      0100323CH   LINE      CODE     ---       #146
      ---         BLOCKEND  ---      ---       LVL=0

      01001F0FH   BLOCK     CODE     ---       LVL=0
      01001F0FH   BLOCK     CODE     NEAR LAB  LVL=1
      00000006H   SYMBOL    DATA     WORD      temp
      ---         BLOCKEND  ---      ---       LVL=1
      01001F0FH   LINE      CODE     ---       #179
      01001F0FH   LINE      CODE     ---       #180
      01001F0FH   LINE      CODE     ---       #189
      01001F12H   LINE      CODE     ---       #190
      01001F15H   LINE      CODE     ---       #191
      01001F15H   LINE      CODE     ---       #192
      01001F15H   LINE      CODE     ---       #193
      01001F18H   LINE      CODE     ---       #194
      01001F27H   LINE      CODE     ---       #203
      01001F2EH   LINE      CODE     ---       #204
      01001F34H   LINE      CODE     ---       #209
      01001F70H   LINE      CODE     ---       #210
      01001F79H   LINE      CODE     ---       #211
      01001F79H   LINE      CODE     ---       #212
      01001F7DH   LINE      CODE     ---       #213
      01001F7DH   LINE      CODE     ---       #215
      01001F85H   LINE      CODE     ---       #216
      01001F8CH   LINE      CODE     ---       #221
      01001F9BH   LINE      CODE     ---       #222
      01001FDFH   LINE      CODE     ---       #231
      01002003H   LINE      CODE     ---       #232
      01002003H   LINE      CODE     ---       #233
      01002008H   LINE      CODE     ---       #234
      01002008H   LINE      CODE     ---       #241
      01002029H   LINE      CODE     ---       #242
      01002029H   LINE      CODE     ---       #243
      01002032H   LINE      CODE     ---       #244
LX51 LINKER/LOCATER V4.66.30.0                                                        08/12/2020  16:38:44  PAGE 27


      01002039H   LINE      CODE     ---       #245
      0100203BH   LINE      CODE     ---       #246
      01002044H   LINE      CODE     ---       #247
      0100204BH   LINE      CODE     ---       #255
      0100206FH   LINE      CODE     ---       #256
      0100206FH   LINE      CODE     ---       #257
      01002075H   LINE      CODE     ---       #258
      01002075H   LINE      CODE     ---       #259
      01002075H   LINE      CODE     ---       #260
      01002077H   LINE      CODE     ---       #261
      ---         BLOCKEND  ---      ---       LVL=0

      01003802H   BLOCK     CODE     ---       LVL=0
      01003802H   LINE      CODE     ---       #265
      01003802H   LINE      CODE     ---       #266
      01003802H   LINE      CODE     ---       #267
      01003804H   LINE      CODE     ---       #268
      01003806H   LINE      CODE     ---       #269
      01003808H   LINE      CODE     ---       #270
      0100380EH   LINE      CODE     ---       #271
      ---         BLOCKEND  ---      ---       LVL=0

      0100381CH   BLOCK     CODE     ---       LVL=0
      0100381CH   LINE      CODE     ---       #273
      0100381CH   LINE      CODE     ---       #274
      0100381CH   LINE      CODE     ---       #275
      0100381EH   LINE      CODE     ---       #276
      01003820H   LINE      CODE     ---       #277
      01003825H   LINE      CODE     ---       #278
      ---         BLOCKEND  ---      ---       LVL=0

      0100344FH   BLOCK     CODE     ---       LVL=0
      0100344FH   LINE      CODE     ---       #281
      0100344FH   LINE      CODE     ---       #282
      0100344FH   LINE      CODE     ---       #283
      01003451H   LINE      CODE     ---       #284
      01003453H   LINE      CODE     ---       #285
      01003455H   LINE      CODE     ---       #286
      01003458H   LINE      CODE     ---       #287
      0100345BH   LINE      CODE     ---       #292
      0100345EH   LINE      CODE     ---       #297
      01003461H   LINE      CODE     ---       #302
      01003464H   LINE      CODE     ---       #303
      01003467H   LINE      CODE     ---       #304
      0100346AH   LINE      CODE     ---       #305
      0100346CH   LINE      CODE     ---       #306
      0100346EH   LINE      CODE     ---       #307
      01003471H   LINE      CODE     ---       #308
      01003474H   LINE      CODE     ---       #315
      01003477H   LINE      CODE     ---       #316
      0100347AH   LINE      CODE     ---       #317
      0100347DH   LINE      CODE     ---       #318
      0100347FH   LINE      CODE     ---       #319
      ---         BLOCKEND  ---      ---       LVL=0

      010029C4H   BLOCK     CODE     ---       LVL=0
      010029F3H   BLOCK     CODE     NEAR LAB  LVL=1
      020003B3H   SYMBOL    XDATA    BYTE      i
      020003B4H   SYMBOL    XDATA    BYTE      Max
      020003B5H   SYMBOL    XDATA    BYTE      Min
      ---         BLOCKEND  ---      ---       LVL=1
      010029C4H   LINE      CODE     ---       #325
LX51 LINKER/LOCATER V4.66.30.0                                                        08/12/2020  16:38:44  PAGE 28


      010029D3H   LINE      CODE     ---       #327
      010029DDH   LINE      CODE     ---       #328
      010029DDH   LINE      CODE     ---       #329
      010029EAH   LINE      CODE     ---       #330
      010029F0H   LINE      CODE     ---       #331
      010029F3H   LINE      CODE     ---       #333
      010029F3H   LINE      CODE     ---       #335
      010029F8H   LINE      CODE     ---       #336
      010029FCH   LINE      CODE     ---       #337
      01002A09H   LINE      CODE     ---       #338
      01002A0EH   LINE      CODE     ---       #339
      01002A1CH   LINE      CODE     ---       #340
      01002A1CH   LINE      CODE     ---       #341
      01002A30H   LINE      CODE     ---       #342
      01002A32H   LINE      CODE     ---       #343
      01002A3AH   LINE      CODE     ---       #344
      01002A4CH   LINE      CODE     ---       #345
      01002A54H   LINE      CODE     ---       #346
      01002A72H   LINE      CODE     ---       #347
      01002A72H   LINE      CODE     ---       #348
      01002A74H   LINE      CODE     ---       #349
      01002A76H   LINE      CODE     ---       #350
      ---         BLOCKEND  ---      ---       LVL=0

      0100004EH   BLOCK     CODE     ---       LVL=0
      0100004EH   LINE      CODE     ---       #356
      0100004EH   LINE      CODE     ---       #358
      01000050H   LINE      CODE     ---       #359
      ---         BLOCKEND  ---      ---       LVL=0

      ---         MODULE    ---      ---       COMMAND
      02000366H   PUBLIC    XDATA    BYTE      c5times
      02000339H   PUBLIC    XDATA    ---       Cmd
      0200032DH   PUBLIC    XDATA    ---       Self_Straighten
      0100005EH   PUBLIC    CODE     ---       Cmd_SendDistancetoBCM
      01002F8CH   PUBLIC    CODE     ---       Cmd_SendSelfChecktoBCM
      0100373DH   PUBLIC    CODE     ---       Cmd_NextSensorDet
      0100371CH   PUBLIC    CODE     ---       Cmd_NextSensorSelf
      0100185FH   PUBLIC    CODE     ---       Cmd_DistancetoComInfo
      01002D85H   PUBLIC    CODE     ---       Cmd_UpdataDistance
      01002FF9H   PUBLIC    CODE     ---       Cmd_SaveData
      0100009EH   PUBLIC    CODE     ---       Cmd_Process
      0100375CH   PUBLIC    CODE     ---       Cmd_InitVariable
      000000A2H   SFRSYM    DATA     BYTE      SPI0CKR
      00000080H   SFRSYM    DATA     BYTE      P0
      000000C8H.6 SFRSYM    DATA     BIT       SCON1_PERR
      000000D0H.2 SFRSYM    DATA     BIT       PSW_OV
      00000090H   SFRSYM    DATA     BYTE      P1
      000000F8H.1 SFRSYM    DATA     BIT       SPI0CN0_TXNF
      00000097H   SFRSYM    DATA     BYTE      WDTCN
      000000A0H   SFRSYM    DATA     BYTE      P2
      000000B0H   SFRSYM    DATA     BYTE      P3
      000000BCH   SFRSYM    DATA     BYTE      ADC0CF
      000000C0H.7 SFRSYM    DATA     BIT       SMB0CN0_MASTER
      000000F9H   SFRSYM    DATA     WORD      PCA0
      000000E6H   SFRSYM    DATA     BYTE      EIE1
      000000C0H.1 SFRSYM    DATA     BIT       SMB0CN0_ACK
      000000CEH   SFRSYM    DATA     BYTE      EIE2
      0000008FH   SFRSYM    DATA     BYTE      PSCTL
      000000E4H   SFRSYM    DATA     BYTE      IT01CF
      000000C0H.6 SFRSYM    DATA     BIT       SMB0CN0_TXMODE
      000000ADH   SFRSYM    DATA     BYTE      DERIVID
LX51 LINKER/LOCATER V4.66.30.0                                                        08/12/2020  16:38:44  PAGE 29


      000000A7H   SFRSYM    DATA     BYTE      SFRPAGE
      000000A4H   SFRSYM    DATA     BYTE      P0MDOUT
      000000A5H   SFRSYM    DATA     BYTE      P1MDOUT
      000000E8H.5 SFRSYM    DATA     BIT       ADC0CN0_ADINT
      000000CBH   SFRSYM    DATA     BYTE      TMR2RLH
      000000A6H   SFRSYM    DATA     BYTE      P2MDOUT
      000000A8H   SFRSYM    DATA     BYTE      IE
      00000093H   SFRSYM    DATA     BYTE      TMR3RLH
      0000009CH   SFRSYM    DATA     BYTE      P3MDOUT
      000000A3H   SFRSYM    DATA     BYTE      TMR4RLH
      000000F3H   SFRSYM    DATA     BYTE      EIP1
      000000F4H   SFRSYM    DATA     BYTE      EIP2
      00000098H.2 SFRSYM    DATA     BIT       SCON0_RB8
      000000CAH   SFRSYM    DATA     BYTE      TMR2RLL
      000000FCH   SFRSYM    DATA     BYTE      PCA0CPH0
      00000092H   SFRSYM    DATA     BYTE      TMR3RLL
      000000EAH   SFRSYM    DATA     BYTE      PCA0CPH1
      00000098H.3 SFRSYM    DATA     BIT       SCON0_TB8
      000000F0H   SFRSYM    DATA     BIT       B_B0
      00000082H   SFRSYM    DATA     WORD      DP
      000000A2H   SFRSYM    DATA     BYTE      TMR4RLL
      000000ECH   SFRSYM    DATA     BYTE      PCA0CPH2
      000000F0H.1 SFRSYM    DATA     BIT       B_B1
      000000C3H   SFRSYM    DATA     WORD      ADC0GT
      000000BDH   SFRSYM    DATA     BYTE      I2C0SLAD
      000000D8H.3 SFRSYM    DATA     BIT       UART1FCN1_RFRQ
      000000F0H.2 SFRSYM    DATA     BIT       B_B2
      000000CFH   SFRSYM    DATA     BYTE      SFRPGCN
      000000FBH   SFRSYM    DATA     BYTE      PCA0CPL0
      000000F0H.3 SFRSYM    DATA     BIT       B_B3
      000000D9H   SFRSYM    DATA     BYTE      PCA0MD
      000000DAH   SFRSYM    DATA     BYTE      PCA0CPM0
      000000E9H   SFRSYM    DATA     BYTE      PCA0CPL1
      000000D8H.7 SFRSYM    DATA     BIT       UART1FCN1_TFRQ
      000000F0H.4 SFRSYM    DATA     BIT       B_B4
      000000DBH   SFRSYM    DATA     BYTE      PCA0CPM1
      000000EBH   SFRSYM    DATA     BYTE      PCA0CPL2
      000000F0H.5 SFRSYM    DATA     BIT       B_B5
      000000DCH   SFRSYM    DATA     BYTE      PCA0CPM2
      000000B8H   SFRSYM    DATA     BYTE      IP
      000000B9H   SFRSYM    DATA     BYTE      ADC0TK
      000000F0H.6 SFRSYM    DATA     BIT       B_B6
      000000C5H   SFRSYM    DATA     WORD      ADC0LT
      000000D8H.6 SFRSYM    DATA     BIT       UART1FCN1_TXNF
      00000098H.5 SFRSYM    DATA     BIT       SCON0_MCE
      000000F0H.7 SFRSYM    DATA     BIT       B_B7
      000000C3H   SFRSYM    DATA     BYTE      SMB0FCN0
      000000E1H   SFRSYM    DATA     BYTE      XBR0
      000000C4H   SFRSYM    DATA     BYTE      SMB0FCN1
      000000C1H   SFRSYM    DATA     BYTE      SMB0CF
      000000E2H   SFRSYM    DATA     BYTE      XBR1
      000000C1H   SFRSYM    DATA     BYTE      PFE0CN
      000000E7H   SFRSYM    DATA     BYTE      EMI0CN
      000000C0H.5 SFRSYM    DATA     BIT       SMB0CN0_STA
      000000E3H   SFRSYM    DATA     BYTE      XBR2
      000000BBH   SFRSYM    DATA     BYTE      ADC0MX
      000000E0H   SFRSYM    DATA     BIT       ACC_ACC0
      000000D1H   SFRSYM    DATA     BYTE      REF0CN
      0000008EH   SFRSYM    DATA     BYTE      CKCON0
      000000E0H.1 SFRSYM    DATA     BIT       ACC_ACC1
      000000C9H   SFRSYM    DATA     BYTE      REG0CN
      000000DDH   SFRSYM    DATA     BYTE      CRC0IN
LX51 LINKER/LOCATER V4.66.30.0                                                        08/12/2020  16:38:44  PAGE 30


      000000A6H   SFRSYM    DATA     BYTE      CKCON1
      000000C8H.2 SFRSYM    DATA     BIT       TMR2CN0_TR2
      000000E0H.2 SFRSYM    DATA     BIT       ACC_ACC2
      000000C6H   SFRSYM    DATA     BYTE      REG1CN
      000000E0H.3 SFRSYM    DATA     BIT       ACC_ACC3
      00000081H   SFRSYM    DATA     BYTE      SP
      0000009DH   SFRSYM    DATA     BYTE      CMP0MD
      000000E0H.4 SFRSYM    DATA     BIT       ACC_ACC4
      000000B1H   SFRSYM    DATA     BYTE      LFO0CN
      000000ABH   SFRSYM    DATA     BYTE      CMP1MD
      000000D8H   SFRSYM    DATA     BIT       PCA0CN0_CCF0
      000000E0H.5 SFRSYM    DATA     BIT       ACC_ACC5
      00000098H.2 SFRSYM    DATA     BIT       TMR4CN0_TR4
      000000D8H.1 SFRSYM    DATA     BIT       PCA0CN0_CCF1
      000000E0H.6 SFRSYM    DATA     BIT       ACC_ACC6
      000000CCH   SFRSYM    DATA     WORD      TMR2
      0000009AH   SFRSYM    DATA     BYTE      SPI0FCN0
      000000D8H.2 SFRSYM    DATA     BIT       PCA0CN0_CCF2
      000000E0H.7 SFRSYM    DATA     BIT       ACC_ACC7
      00000094H   SFRSYM    DATA     WORD      TMR3
      0000009BH   SFRSYM    DATA     BYTE      SPI0FCN1
      000000A4H   SFRSYM    DATA     WORD      TMR4
      00000094H   SFRSYM    DATA     BYTE      SBCON1
      000000C0H.3 SFRSYM    DATA     BIT       SMB0CN0_ACKRQ
      000000FFH   SFRSYM    DATA     BYTE      VDM0CN
      000000F1H   SFRSYM    DATA     BYTE      P0MDIN
      00000098H.4 SFRSYM    DATA     BIT       SCON0_REN
      000000ACH   SFRSYM    DATA     BYTE      SMB0TC
      000000F2H   SFRSYM    DATA     BYTE      P1MDIN
      000000C8H.4 SFRSYM    DATA     BIT       SCON1_REN
      000000F3H   SFRSYM    DATA     BYTE      P2MDIN
      000000C0H.4 SFRSYM    DATA     BIT       SMB0CN0_STO
      000000F4H   SFRSYM    DATA     BYTE      P3MDIN
      000000B9H   SFRSYM    DATA     BYTE      I2C0STAT
      000000BBH   SFRSYM    DATA     BYTE      I2C0DOUT
      00000096H   SFRSYM    DATA     BYTE      SBRLH1
      000000FEH   SFRSYM    DATA     BYTE      P0MASK
      000000D8H.5 SFRSYM    DATA     BIT       UART1FCN1_TXHOLD
      000000EEH   SFRSYM    DATA     BYTE      P1MASK
      000000FCH   SFRSYM    DATA     BYTE      P2MASK
      000000D0H.3 SFRSYM    DATA     BIT       PSW_RS0
      000000D8H.7 SFRSYM    DATA     BIT       PCA0CN0_CF
      0000009EH   SFRSYM    DATA     BYTE      PCA0CENT
      000000BAH   SFRSYM    DATA     BYTE      I2C0CN0
      000000D2H   SFRSYM    DATA     BYTE      CRC0ST
      000000F8H.4 SFRSYM    DATA     BIT       SPI0CN0_RXOVRN
      000000D0H.4 SFRSYM    DATA     BIT       PSW_RS1
      00000095H   SFRSYM    DATA     BYTE      SBRLL1
      000000C8H.2 SFRSYM    DATA     BIT       SCON1_RBX
      000000C8H   SFRSYM    DATA     BIT       TMR2CN0_T2XCLK0
      000000C8H.1 SFRSYM    DATA     BIT       TMR2CN0_T2XCLK1
      000000C8H.3 SFRSYM    DATA     BIT       SCON1_TBX
      000000E8H.7 SFRSYM    DATA     BIT       ADC0CN0_ADEN
      00000089H   SFRSYM    DATA     BYTE      TMOD
      00000088H   SFRSYM    DATA     BYTE      TCON
      000000CFH   SFRSYM    DATA     BYTE      CRC0FLIP
      000000D0H   SFRSYM    DATA     BIT       PSW_PARITY
      000000A8H.4 SFRSYM    DATA     BIT       IE_ES0
      0000009FH   SFRSYM    DATA     BYTE      CMP0MX
      00000098H   SFRSYM    DATA     BIT       TMR4CN0_T4XCLK0
      000000A8H.1 SFRSYM    DATA     BIT       IE_ET0
      000000AAH   SFRSYM    DATA     BYTE      CMP1MX
LX51 LINKER/LOCATER V4.66.30.0                                                        08/12/2020  16:38:44  PAGE 31


      00000098H.1 SFRSYM    DATA     BIT       TMR4CN0_T4XCLK1
      000000A8H.3 SFRSYM    DATA     BIT       IE_ET1
      000000D4H   SFRSYM    DATA     BYTE      P0SKIP
      000000D8H   SFRSYM    DATA     BIT       UART1FCN1_RIE
      000000A8H.5 SFRSYM    DATA     BIT       IE_ET2
      000000D5H   SFRSYM    DATA     BYTE      P1SKIP
      000000CCH   SFRSYM    DATA     BYTE      P2SKIP
      000000E8H   SFRSYM    DATA     BYTE      ADC0CN0
      000000D8H.4 SFRSYM    DATA     BIT       UART1FCN1_TIE
      000000A8H   SFRSYM    DATA     BIT       IE_EX0
      000000B2H   SFRSYM    DATA     BYTE      ADC0CN1
      000000D8H.6 SFRSYM    DATA     BIT       PCA0CN0_CR
      000000A8H.2 SFRSYM    DATA     BIT       IE_EX1
      000000C8H.7 SFRSYM    DATA     BIT       SCON1_OVR
      00000098H.7 SFRSYM    DATA     BIT       SCON0_SMODE
      000000B5H   SFRSYM    DATA     BYTE      DEVICEID
      000000A9H   SFRSYM    DATA     BYTE      CLKSEL
      000000F8H   SFRSYM    DATA     BIT       SPI0CN0_SPIEN
      000000F0H   SFRSYM    DATA     BYTE      B
      000000BEH   SFRSYM    DATA     BYTE      ADC0H
      000000E8H.6 SFRSYM    DATA     BIT       ADC0CN0_ADBMEN
      000000CAH   SFRSYM    DATA     WORD      TMR2RL
      000000BDH   SFRSYM    DATA     BYTE      ADC0L
      00000092H   SFRSYM    DATA     WORD      TMR3RL
      000000A2H   SFRSYM    DATA     WORD      TMR4RL
      000000D8H   SFRSYM    DATA     BYTE      PCA0CN0
      000000E0H   SFRSYM    DATA     BYTE      ACC
      000000FBH   SFRSYM    DATA     WORD      PCA0CP0
      000000E9H   SFRSYM    DATA     WORD      PCA0CP1
      000000EBH   SFRSYM    DATA     WORD      PCA0CP2
      000000BCH   SFRSYM    DATA     BYTE      I2C0DIN
      000000CEH   SFRSYM    DATA     BYTE      CRC0CN0
      0000008CH   SFRSYM    DATA     BYTE      TH0
      00000086H   SFRSYM    DATA     BYTE      CRC0CN1
      000000B8H.4 SFRSYM    DATA     BIT       IP_PS0
      000000FAH   SFRSYM    DATA     BYTE      UART1FCT
      0000008DH   SFRSYM    DATA     BYTE      TH1
      000000FAH   SFRSYM    DATA     BYTE      PCA0H
      000000F5H   SFRSYM    DATA     BYTE      I2C0FCT
      000000B8H.1 SFRSYM    DATA     BIT       IP_PT0
      000000B8H.3 SFRSYM    DATA     BIT       IP_PT1
      000000C0H.2 SFRSYM    DATA     BIT       SMB0CN0_ARBLOST
      000000B8H.5 SFRSYM    DATA     BIT       IP_PT2
      0000008AH   SFRSYM    DATA     BYTE      TL0
      000000D0H.5 SFRSYM    DATA     BIT       PSW_F0
      000000A8H.6 SFRSYM    DATA     BIT       IE_ESPI0
      0000008BH   SFRSYM    DATA     BYTE      TL1
      000000F9H   SFRSYM    DATA     BYTE      PCA0L
      000000C0H   SFRSYM    DATA     BIT       SMB0CN0_SI
      000000D0H.1 SFRSYM    DATA     BIT       PSW_F1
      00000080H   SFRSYM    DATA     BIT       P0_B0
      000000B8H   SFRSYM    DATA     BIT       IP_PX0
      00000090H   SFRSYM    DATA     BIT       P1_B0
      00000080H.1 SFRSYM    DATA     BIT       P0_B1
      000000B8H.2 SFRSYM    DATA     BIT       IP_PX1
      0000009EH   SFRSYM    DATA     BYTE      UART1LIN
      0000009BH   SFRSYM    DATA     BYTE      CMP0CN0
      00000088H.1 SFRSYM    DATA     BIT       TCON_IE0
      000000A0H   SFRSYM    DATA     BIT       P2_B0
      00000090H.1 SFRSYM    DATA     BIT       P1_B1
      00000080H.2 SFRSYM    DATA     BIT       P0_B2
      000000BFH   SFRSYM    DATA     BYTE      CMP1CN0
LX51 LINKER/LOCATER V4.66.30.0                                                        08/12/2020  16:38:44  PAGE 32


      00000099H   SFRSYM    DATA     BYTE      CMP0CN1
      00000088H.3 SFRSYM    DATA     BIT       TCON_IE1
      000000B0H   SFRSYM    DATA     BIT       P3_B0
      000000A0H.1 SFRSYM    DATA     BIT       P2_B1
      00000090H.2 SFRSYM    DATA     BIT       P1_B2
      00000080H.3 SFRSYM    DATA     BIT       P0_B3
      000000C0H   SFRSYM    DATA     BYTE      SMB0CN0
      000000ACH   SFRSYM    DATA     BYTE      CMP1CN1
      000000B0H.1 SFRSYM    DATA     BIT       P3_B1
      000000A0H.2 SFRSYM    DATA     BIT       P2_B2
      00000090H.3 SFRSYM    DATA     BIT       P1_B3
      00000080H.4 SFRSYM    DATA     BIT       P0_B4
      000000A0H.3 SFRSYM    DATA     BIT       P2_B3
      00000090H.4 SFRSYM    DATA     BIT       P1_B4
      00000080H.5 SFRSYM    DATA     BIT       P0_B5
      000000D8H.1 SFRSYM    DATA     BIT       UART1FCN1_RXTO0
      00000090H.5 SFRSYM    DATA     BIT       P1_B5
      00000080H.6 SFRSYM    DATA     BIT       P0_B6
      000000F5H   SFRSYM    DATA     BYTE      EIP1H
      000000D8H.2 SFRSYM    DATA     BIT       UART1FCN1_RXTO1
      00000090H.6 SFRSYM    DATA     BIT       P1_B6
      00000080H.7 SFRSYM    DATA     BIT       P0_B7
      000000C5H   SFRSYM    DATA     BYTE      SMB0RXLN
      000000F6H   SFRSYM    DATA     BYTE      EIP2H
      00000090H.7 SFRSYM    DATA     BIT       P1_B7
      00000083H   SFRSYM    DATA     BYTE      DPH
      000000C4H   SFRSYM    DATA     BYTE      ADC0GTH
      000000C8H.7 SFRSYM    DATA     BIT       TMR2CN0_TF2H
      000000C8H.3 SFRSYM    DATA     BIT       TMR2CN0_T2SPLIT
      000000D0H.6 SFRSYM    DATA     BIT       PSW_AC
      000000F8H   SFRSYM    DATA     BYTE      SPI0CN0
      000000C7H   SFRSYM    DATA     BYTE      HFO0CAL
      00000088H.5 SFRSYM    DATA     BIT       TCON_TF0
      00000098H   SFRSYM    DATA     BIT       SCON0_RI
      000000D6H   SFRSYM    DATA     BYTE      HFO1CAL
      00000082H   SFRSYM    DATA     BYTE      DPL
      00000088H.7 SFRSYM    DATA     BIT       TCON_TF1
      000000C8H   SFRSYM    DATA     BIT       SCON1_RI
      00000099H   SFRSYM    DATA     BYTE      SBUF0
      00000087H   SFRSYM    DATA     BYTE      PCON0
      000000F2H   SFRSYM    DATA     BYTE      IPH
      000000C3H   SFRSYM    DATA     BYTE      ADC0GTL
      00000098H.7 SFRSYM    DATA     BIT       TMR4CN0_TF4H
      00000098H.3 SFRSYM    DATA     BIT       TMR4CN0_T4SPLIT
      000000C8H.6 SFRSYM    DATA     BIT       TMR2CN0_TF2L
      00000098H.1 SFRSYM    DATA     BIT       SCON0_TI
      000000E8H   SFRSYM    DATA     BIT       ADC0CN0_ADCM0
      00000092H   SFRSYM    DATA     BYTE      SBUF1
      0000009AH   SFRSYM    DATA     BYTE      PCON1
      000000C6H   SFRSYM    DATA     BYTE      ADC0LTH
      00000088H   SFRSYM    DATA     BIT       TCON_IT0
      000000C8H.1 SFRSYM    DATA     BIT       SCON1_TI
      000000E8H.1 SFRSYM    DATA     BIT       ADC0CN0_ADCM1
      000000EFH   SFRSYM    DATA     BYTE      RSTSRC
      000000FDH   SFRSYM    DATA     BYTE      P0MAT
      000000DEH   SFRSYM    DATA     BYTE      CRC0DAT
      00000088H.2 SFRSYM    DATA     BIT       TCON_IT1
      000000E8H.2 SFRSYM    DATA     BIT       ADC0CN0_ADCM2
      000000D7H   SFRSYM    DATA     BYTE      SFRSTACK
      00000098H   SFRSYM    DATA     BYTE      SCON0
      000000F6H   SFRSYM    DATA     BYTE      PRTDRV
      000000EDH   SFRSYM    DATA     BYTE      P1MAT
LX51 LINKER/LOCATER V4.66.30.0                                                        08/12/2020  16:38:44  PAGE 33


      000000E8H.3 SFRSYM    DATA     BIT       ADC0CN0_ADWINT
      00000095H   SFRSYM    DATA     WORD      SBRL1
      00000093H   SFRSYM    DATA     BYTE      SMOD1
      000000C8H   SFRSYM    DATA     BYTE      SCON1
      000000FBH   SFRSYM    DATA     BYTE      P2MAT
      00000098H.6 SFRSYM    DATA     BIT       TMR4CN0_TF4L
      000000E8H.4 SFRSYM    DATA     BIT       ADC0CN0_ADBUSY
      000000D6H   SFRSYM    DATA     BYTE      SMB0ADM
      000000C5H   SFRSYM    DATA     BYTE      ADC0LTL
      000000F8H.5 SFRSYM    DATA     BIT       SPI0CN0_MODF
      000000B8H.6 SFRSYM    DATA     BIT       IP_PSPI0
      0000009CH   SFRSYM    DATA     BYTE      PCA0CLR
      000000C8H   SFRSYM    DATA     BYTE      TMR2CN0
      00000091H   SFRSYM    DATA     BYTE      TMR3CN0
      000000FDH   SFRSYM    DATA     BYTE      TMR2CN1
      00000098H   SFRSYM    DATA     BYTE      TMR4CN0
      000000FEH   SFRSYM    DATA     BYTE      TMR3CN1
      000000FFH   SFRSYM    DATA     BYTE      TMR4CN1
      000000D7H   SFRSYM    DATA     BYTE      SMB0ADR
      00000088H.4 SFRSYM    DATA     BIT       TCON_TR0
      000000C8H.4 SFRSYM    DATA     BIT       TMR2CN0_TF2CEN
      00000088H.6 SFRSYM    DATA     BIT       TCON_TR1
      000000C2H   SFRSYM    DATA     BYTE      SMB0DAT
      000000CDH   SFRSYM    DATA     BYTE      TMR2H
      000000A1H   SFRSYM    DATA     BYTE      SPI0CFG
      00000095H   SFRSYM    DATA     BYTE      TMR3H
      000000EFH   SFRSYM    DATA     BYTE      HFOCN
      000000D3H   SFRSYM    DATA     BYTE      CRC0CNT
      000000A5H   SFRSYM    DATA     BYTE      TMR4H
      00000098H.4 SFRSYM    DATA     BIT       TMR4CN0_TF4CEN
      000000EFH   SFRSYM    DATA     BYTE      SMB0FCT
      00000096H   SFRSYM    DATA     BYTE      PCA0POL
      000000CCH   SFRSYM    DATA     BYTE      TMR2L
      000000F8H.7 SFRSYM    DATA     BIT       SPI0CN0_SPIF
      00000094H   SFRSYM    DATA     BYTE      TMR3L
      000000DFH   SFRSYM    DATA     BYTE      ADC0PWR
      000000A8H.7 SFRSYM    DATA     BIT       IE_EA
      000000A4H   SFRSYM    DATA     BYTE      TMR4L
      000000C8H.5 SFRSYM    DATA     BIT       TMR2CN0_TF2LEN
      000000F8H.6 SFRSYM    DATA     BIT       SPI0CN0_WCOL
      000000F8H.2 SFRSYM    DATA     BIT       SPI0CN0_NSSMD0
      000000D0H.7 SFRSYM    DATA     BIT       PSW_CY
      0000009DH   SFRSYM    DATA     BYTE      UART1FCN0
      000000A3H   SFRSYM    DATA     BYTE      SPI0DAT
      000000ADH   SFRSYM    DATA     BYTE      I2C0FCN0
      000000F8H.3 SFRSYM    DATA     BIT       SPI0CN0_NSSMD1
      000000BDH   SFRSYM    DATA     WORD      ADC0
      000000D8H   SFRSYM    DATA     BYTE      UART1FCN1
      000000ABH   SFRSYM    DATA     BYTE      I2C0FCN1
      00000098H.5 SFRSYM    DATA     BIT       TMR4CN0_TF4LEN
      000000D0H   SFRSYM    DATA     BYTE      PSW
      000000F7H   SFRSYM    DATA     BYTE      PCA0PWM
      000000F7H   SFRSYM    DATA     BYTE      SPI0FCT
      000000B6H   SFRSYM    DATA     BYTE      REVID
      000000B7H   SFRSYM    DATA     BYTE      FLKEY
      000000B3H   SFRSYM    DATA     BYTE      ADC0AC

      0100375CH   BLOCK     CODE     ---       LVL=0
      0100375CH   LINE      CODE     ---       #14
      0100375CH   LINE      CODE     ---       #15
      0100375CH   LINE      CODE     ---       #16
      01003761H   LINE      CODE     ---       #17
LX51 LINKER/LOCATER V4.66.30.0                                                        08/12/2020  16:38:44  PAGE 34


      01003767H   LINE      CODE     ---       #18
      0100376CH   LINE      CODE     ---       #19
      0100376EH   LINE      CODE     ---       #24
      01003774H   LINE      CODE     ---       #28
      01003779H   LINE      CODE     ---       #33
      ---         BLOCKEND  ---      ---       LVL=0

      0100009EH   BLOCK     CODE     ---       LVL=0
      0100009EH   BLOCK     CODE     NEAR LAB  LVL=1
      020003B6H   SYMBOL    XDATA    BYTE      i
      00000007H   SYMBOL    DATA     BYTE      self_temp
      020003B7H   SYMBOL    XDATA    BYTE      cnt
      ---         BLOCKEND  ---      ---       LVL=1
      0100009EH   LINE      CODE     ---       #93
      0100009EH   LINE      CODE     ---       #94
      0100009EH   LINE      CODE     ---       #97
      010000A5H   LINE      CODE     ---       #98
      010000A5H   LINE      CODE     ---       #99
      010000AAH   LINE      CODE     ---       #101
      010000AAH   LINE      CODE     ---       #103
      010000E4H   LINE      CODE     ---       #104
      010000E4H   LINE      CODE     ---       #105
      010000E4H   LINE      CODE     ---       #106
      010000E4H   LINE      CODE     ---       #107
      010000FBH   LINE      CODE     ---       #108
      01000104H   LINE      CODE     ---       #109
      0100010AH   LINE      CODE     ---       #110
      0100010BH   LINE      CODE     ---       #111
      0100010BH   LINE      CODE     ---       #112
      0100010BH   LINE      CODE     ---       #113
      0100010BH   LINE      CODE     ---       #114
      0100011AH   LINE      CODE     ---       #115
      0100011AH   LINE      CODE     ---       #116
      01000125H   LINE      CODE     ---       #117
      01000125H   LINE      CODE     ---       #118
      0100012CH   LINE      CODE     ---       #119
      0100012CH   LINE      CODE     ---       #120
      0100012EH   LINE      CODE     ---       #121
      0100013EH   LINE      CODE     ---       #122
      01000148H   LINE      CODE     ---       #123
      01000148H   LINE      CODE     ---       #124
      0100014BH   LINE      CODE     ---       #125
      0100014EH   LINE      CODE     ---       #126
      01000151H   LINE      CODE     ---       #128
      01000151H   LINE      CODE     ---       #129
      01000159H   LINE      CODE     ---       #130
      01000159H   LINE      CODE     ---       #131
      01000159H   LINE      CODE     ---       #132
      01000159H   LINE      CODE     ---       #133
      01000159H   LINE      CODE     ---       #134
      0100015CH   LINE      CODE     ---       #136
      0100015CH   LINE      CODE     ---       #137
      01000161H   LINE      CODE     ---       #138
      01000179H   LINE      CODE     ---       #139
      01000179H   LINE      CODE     ---       #140
      01000189H   LINE      CODE     ---       #141
      01000196H   LINE      CODE     ---       #142
      01000199H   LINE      CODE     ---       #143
      01000199H   LINE      CODE     ---       #144
      01000199H   LINE      CODE     ---       #146
      01000199H   LINE      CODE     ---       #147
      01000199H   LINE      CODE     ---       #150
LX51 LINKER/LOCATER V4.66.30.0                                                        08/12/2020  16:38:44  PAGE 35


      01000199H   LINE      CODE     ---       #151
      01000199H   LINE      CODE     ---       #161
      0100019BH   LINE      CODE     ---       #162
      0100019FH   LINE      CODE     ---       #164
      010001BEH   LINE      CODE     ---       #165
      010001BEH   LINE      CODE     ---       #166
      010001E4H   LINE      CODE     ---       #167
      010001ECH   LINE      CODE     ---       #168
      010001F4H   LINE      CODE     ---       #170
      010001F9H   LINE      CODE     ---       #171
      010001FEH   LINE      CODE     ---       #172
      010001FEH   LINE      CODE     ---       #173
      01000201H   LINE      CODE     ---       #174
      01000208H   LINE      CODE     ---       #175
      01000214H   LINE      CODE     ---       #176
      0100021AH   LINE      CODE     ---       #177
      01000220H   LINE      CODE     ---       #178
      01000225H   LINE      CODE     ---       #180
      01000226H   LINE      CODE     ---       #181
      01000226H   LINE      CODE     ---       #183
      01000226H   LINE      CODE     ---       #184
      01000226H   LINE      CODE     ---       #185
      0100022DH   LINE      CODE     ---       #186
      01000244H   LINE      CODE     ---       #187
      0100024DH   LINE      CODE     ---       #188
      01000253H   LINE      CODE     ---       #189
      01000254H   LINE      CODE     ---       #190
      01000254H   LINE      CODE     ---       #192
      01000254H   LINE      CODE     ---       #193
      01000254H   LINE      CODE     ---       #194
      01000263H   LINE      CODE     ---       #195
      01000263H   LINE      CODE     ---       #196
      0100026BH   LINE      CODE     ---       #197
      0100026BH   LINE      CODE     ---       #198
      01000273H   LINE      CODE     ---       #199
      01000273H   LINE      CODE     ---       #200
      01000274H   LINE      CODE     ---       #201
      01000283H   LINE      CODE     ---       #202
      01000283H   LINE      CODE     ---       #203
      0100028FH   LINE      CODE     ---       #204
      01000292H   LINE      CODE     ---       #205
      010002CBH   LINE      CODE     ---       #206
      010002CEH   LINE      CODE     ---       #207
      010002CEH   LINE      CODE     ---       #208
      010002CEH   LINE      CODE     ---       #209
      010002CEH   LINE      CODE     ---       #210
      010002D1H   LINE      CODE     ---       #211
      010002D4H   LINE      CODE     ---       #213
      010002D4H   LINE      CODE     ---       #214
      0100030DH   LINE      CODE     ---       #215
      01000322H   LINE      CODE     ---       #216
      01000322H   LINE      CODE     ---       #217
      01000333H   LINE      CODE     ---       #218
      01000340H   LINE      CODE     ---       #219
      0100034DH   LINE      CODE     ---       #220
      0100034DH   LINE      CODE     ---       #221
      0100034DH   LINE      CODE     ---       #222
      0100034DH   LINE      CODE     ---       #223
      0100034FH   LINE      CODE     ---       #224
      0100034FH   LINE      CODE     ---       #226
      0100034FH   LINE      CODE     ---       #227
      0100034FH   LINE      CODE     ---       #228
LX51 LINKER/LOCATER V4.66.30.0                                                        08/12/2020  16:38:44  PAGE 36


      0100035BH   LINE      CODE     ---       #229
      0100035BH   LINE      CODE     ---       #230
      0100035EH   LINE      CODE     ---       #231
      01000363H   LINE      CODE     ---       #232
      01000366H   LINE      CODE     ---       #233
      01000369H   LINE      CODE     ---       #234
      01000372H   LINE      CODE     ---       #236
      01000372H   LINE      CODE     ---       #237
      01000382H   LINE      CODE     ---       #238
      01000382H   LINE      CODE     ---       #246
      01000382H   LINE      CODE     ---       #247
      01000385H   LINE      CODE     ---       #248
      0100038CH   LINE      CODE     ---       #249
      0100038CH   LINE      CODE     ---       #250
      0100038FH   LINE      CODE     ---       #251
      0100038FH   LINE      CODE     ---       #253
      0100038FH   LINE      CODE     ---       #254
      0100038FH   LINE      CODE     ---       #255
      0100038FH   LINE      CODE     ---       #256
      0100038FH   LINE      CODE     ---       #263
      0100039EH   LINE      CODE     ---       #264
      0100039EH   LINE      CODE     ---       #272
      0100039FH   LINE      CODE     ---       #273
      010003A2H   LINE      CODE     ---       #275
      010003A2H   LINE      CODE     ---       #276
      010003A5H   LINE      CODE     ---       #277
      010003B3H   LINE      CODE     ---       #278
      010003B3H   LINE      CODE     ---       #279
      010003B6H   LINE      CODE     ---       #281
      010003B9H   LINE      CODE     ---       #282
      010003BCH   LINE      CODE     ---       #283
      010003C1H   LINE      CODE     ---       #284
      010003C7H   LINE      CODE     ---       #285
      010003C7H   LINE      CODE     ---       #286
      010003C7H   LINE      CODE     ---       #287
      010003C8H   LINE      CODE     ---       #288
      010003C8H   LINE      CODE     ---       #290
      010003C8H   LINE      CODE     ---       #291
      010003C8H   LINE      CODE     ---       #298
      010003DAH   LINE      CODE     ---       #299
      010003DAH   LINE      CODE     ---       #306
      010003DBH   LINE      CODE     ---       #307
      010003DEH   LINE      CODE     ---       #317
      010003DEH   LINE      CODE     ---       #319
      010003DEH   LINE      CODE     ---       #320
      010003DEH   LINE      CODE     ---       #321
      010003E6H   LINE      CODE     ---       #322
      010003E6H   LINE      CODE     ---       #323
      010003EDH   LINE      CODE     ---       #324
      010003EDH   LINE      CODE     ---       #325
      010003EFH   LINE      CODE     ---       #327
      010003FEH   LINE      CODE     ---       #328
      010003FEH   LINE      CODE     ---       #329
      01000406H   LINE      CODE     ---       #330
      0100040CH   LINE      CODE     ---       #331
      01000411H   LINE      CODE     ---       #332
      01000417H   LINE      CODE     ---       #333
      01000417H   LINE      CODE     ---       #334
      01000417H   LINE      CODE     ---       #335
      01000417H   LINE      CODE     ---       #337
      0100041EH   LINE      CODE     ---       #338
      0100041EH   LINE      CODE     ---       #339
LX51 LINKER/LOCATER V4.66.30.0                                                        08/12/2020  16:38:44  PAGE 37


      01000425H   LINE      CODE     ---       #340
      01000425H   LINE      CODE     ---       #341
      01000427H   LINE      CODE     ---       #342
      0100042CH   LINE      CODE     ---       #343
      01000432H   LINE      CODE     ---       #344
      01000432H   LINE      CODE     ---       #345
      01000432H   LINE      CODE     ---       #347
      0100043DH   LINE      CODE     ---       #348
      0100043DH   LINE      CODE     ---       #349
      01000448H   LINE      CODE     ---       #350
      01000448H   LINE      CODE     ---       #351
      01000449H   LINE      CODE     ---       #352
      0100045DH   LINE      CODE     ---       #353
      0100045DH   LINE      CODE     ---       #354
      01000465H   LINE      CODE     ---       #355
      0100046AH   LINE      CODE     ---       #356
      0100046FH   LINE      CODE     ---       #357
      01000475H   LINE      CODE     ---       #358
      01000475H   LINE      CODE     ---       #359
      01000475H   LINE      CODE     ---       #360
      01000475H   LINE      CODE     ---       #362
      01000476H   LINE      CODE     ---       #363
      01000476H   LINE      CODE     ---       #365
      01000476H   LINE      CODE     ---       #366
      01000476H   LINE      CODE     ---       #378
      0100049EH   LINE      CODE     ---       #379
      010004BAH   LINE      CODE     ---       #380
      010004BFH   LINE      CODE     ---       #381
      010004C5H   LINE      CODE     ---       #382
      010004C6H   LINE      CODE     ---       #383
      010004C6H   LINE      CODE     ---       #385
      010004C6H   LINE      CODE     ---       #386
      010004C6H   LINE      CODE     ---       #387
      010004D1H   LINE      CODE     ---       #388
      010004D1H   LINE      CODE     ---       #389
      010004DCH   LINE      CODE     ---       #390
      010004DCH   LINE      CODE     ---       #391
      010004DDH   LINE      CODE     ---       #392
      010004E8H   LINE      CODE     ---       #393
      010004EEH   LINE      CODE     ---       #394
      010004F3H   LINE      CODE     ---       #395
      010004F9H   LINE      CODE     ---       #396
      010004F9H   LINE      CODE     ---       #397
      010004F9H   LINE      CODE     ---       #398
      010004FAH   LINE      CODE     ---       #399
      010004FAH   LINE      CODE     ---       #401
      010004FAH   LINE      CODE     ---       #402
      010004FAH   LINE      CODE     ---       #403
      01000515H   LINE      CODE     ---       #404
      01000515H   LINE      CODE     ---       #405
      0100051AH   LINE      CODE     ---       #406
      0100052FH   LINE      CODE     ---       #407
      0100053CH   LINE      CODE     ---       #408
      01000547H   LINE      CODE     ---       #409
      01000547H   LINE      CODE     ---       #410
      01000551H   LINE      CODE     ---       #411
      01000551H   LINE      CODE     ---       #412
      0100055EH   LINE      CODE     ---       #413
      01000560H   LINE      CODE     ---       #414
      01000560H   LINE      CODE     ---       #415
      01000567H   LINE      CODE     ---       #416
      01000567H   LINE      CODE     ---       #417
LX51 LINKER/LOCATER V4.66.30.0                                                        08/12/2020  16:38:44  PAGE 38


      01000588H   LINE      CODE     ---       #418
      0100058DH   LINE      CODE     ---       #419
      01000593H   LINE      CODE     ---       #420
      01000594H   LINE      CODE     ---       #421
      01000594H   LINE      CODE     ---       #423
      01000594H   LINE      CODE     ---       #424
      01000594H   LINE      CODE     ---       #431
      010005A3H   LINE      CODE     ---       #432
      010005A3H   LINE      CODE     ---       #440
      010005AFH   LINE      CODE     ---       #441
      010005B0H   LINE      CODE     ---       #443
      010005B0H   LINE      CODE     ---       #444
      010005B3H   LINE      CODE     ---       #445
      010005B6H   LINE      CODE     ---       #446
      010005BBH   LINE      CODE     ---       #447
      010005BEH   LINE      CODE     ---       #448
      010005C7H   LINE      CODE     ---       #449
      010005C7H   LINE      CODE     ---       #450
      010005C7H   LINE      CODE     ---       #451
      010005C7H   LINE      CODE     ---       #454
      010005C7H   LINE      CODE     ---       #456
      010005C7H   LINE      CODE     ---       #461
      ---         BLOCKEND  ---      ---       LVL=0

      01002FF9H   BLOCK     CODE     ---       LVL=0
      01002FF9H   LINE      CODE     ---       #463
      01002FF9H   LINE      CODE     ---       #464
      01002FF9H   LINE      CODE     ---       #465
      01003002H   LINE      CODE     ---       #466
      01003002H   LINE      CODE     ---       #467
      01003013H   LINE      CODE     ---       #468
      01003013H   LINE      CODE     ---       #470
      0100301FH   LINE      CODE     ---       #471
      01003038H   LINE      CODE     ---       #472
      0100303AH   LINE      CODE     ---       #474
      0100303AH   LINE      CODE     ---       #475
      0100304AH   LINE      CODE     ---       #476
      01003057H   LINE      CODE     ---       #477
      01003057H   LINE      CODE     ---       #478
      01003057H   LINE      CODE     ---       #479
      0100305EH   LINE      CODE     ---       #480
      ---         BLOCKEND  ---      ---       LVL=0

      01002D85H   BLOCK     CODE     ---       LVL=0
      01002D85H   LINE      CODE     ---       #482
      01002D85H   LINE      CODE     ---       #483
      01002D85H   LINE      CODE     ---       #484
      01002D88H   LINE      CODE     ---       #486
      01002D92H   LINE      CODE     ---       #487
      01002D9CH   LINE      CODE     ---       #488
      01002DA6H   LINE      CODE     ---       #489
      01002DB0H   LINE      CODE     ---       #490
      01002DBAH   LINE      CODE     ---       #491
      01002DC4H   LINE      CODE     ---       #493
      01002DCCH   LINE      CODE     ---       #494
      01002DD6H   LINE      CODE     ---       #495
      01002DE0H   LINE      CODE     ---       #496
      01002DEAH   LINE      CODE     ---       #497
      01002DEEH   LINE      CODE     ---       #498
      01002DF2H   LINE      CODE     ---       #499
      01002DFCH   LINE      CODE     ---       #501
      01002E0EH   LINE      CODE     ---       #502
LX51 LINKER/LOCATER V4.66.30.0                                                        08/12/2020  16:38:44  PAGE 39


      ---         BLOCKEND  ---      ---       LVL=0

      0100185FH   BLOCK     CODE     ---       LVL=0
      0100185FH   BLOCK     CODE     NEAR LAB  LVL=1
      00000002H   SYMBOL    DATA     BYTE      i
      00000003H   SYMBOL    DATA     BYTE      NearestDis
      ---         BLOCKEND  ---      ---       LVL=1
      0100185FH   LINE      CODE     ---       #504
      0100185FH   LINE      CODE     ---       #505
      0100185FH   LINE      CODE     ---       #508
      01001861H   LINE      CODE     ---       #510
      01001863H   LINE      CODE     ---       #511
      01001863H   LINE      CODE     ---       #512
      01001879H   LINE      CODE     ---       #514
      01001879H   LINE      CODE     ---       #515
      01001886H   LINE      CODE     ---       #516
      01001888H   LINE      CODE     ---       #517
      01001899H   LINE      CODE     ---       #518
      01001899H   LINE      CODE     ---       #519
      010018B4H   LINE      CODE     ---       #520
      010018B6H   LINE      CODE     ---       #521
      010018C4H   LINE      CODE     ---       #522
      010018C4H   LINE      CODE     ---       #523
      010018D1H   LINE      CODE     ---       #524
      010018D3H   LINE      CODE     ---       #526
      010018D3H   LINE      CODE     ---       #527
      010018DFH   LINE      CODE     ---       #528
      010018DFH   LINE      CODE     ---       #530
      010018ECH   LINE      CODE     ---       #531
      010018ECH   LINE      CODE     ---       #532
      010018F8H   LINE      CODE     ---       #533
      010018FAH   LINE      CODE     ---       #535
      010018FAH   LINE      CODE     ---       #536
      01001907H   LINE      CODE     ---       #537
      01001907H   LINE      CODE     ---       #538
      01001910H   LINE      CODE     ---       #540
      0100191CH   LINE      CODE     ---       #541
      0100191CH   LINE      CODE     ---       #542
      01001925H   LINE      CODE     ---       #543
      01001925H   LINE      CODE     ---       #544
      01001927H   LINE      CODE     ---       #545
      01001927H   LINE      CODE     ---       #546
      01001930H   LINE      CODE     ---       #547
      01001930H   LINE      CODE     ---       #548
      01001932H   LINE      CODE     ---       #549
      01001932H   LINE      CODE     ---       #564
      01001934H   LINE      CODE     ---       #565
      01001934H   LINE      CODE     ---       #566
      0100194FH   LINE      CODE     ---       #567
      0100194FH   LINE      CODE     ---       #568
      0100195CH   LINE      CODE     ---       #569
      0100195CH   LINE      CODE     ---       #570
      0100196DH   LINE      CODE     ---       #571
      0100196DH   LINE      CODE     ---       #572
      0100196FH   LINE      CODE     ---       #573
      0100196FH   LINE      CODE     ---       #574
      01001974H   LINE      CODE     ---       #575
      0100197AH   LINE      CODE     ---       #576
      0100197AH   LINE      CODE     ---       #577
      0100197AH   LINE      CODE     ---       #578
      0100197DH   LINE      CODE     ---       #579
      01001983H   LINE      CODE     ---       #580
LX51 LINKER/LOCATER V4.66.30.0                                                        08/12/2020  16:38:44  PAGE 40


      01001983H   LINE      CODE     ---       #581
      01001983H   LINE      CODE     ---       #582
      01001986H   LINE      CODE     ---       #583
      0100198CH   LINE      CODE     ---       #584
      0100198CH   LINE      CODE     ---       #585
      01001992H   LINE      CODE     ---       #586
      01001993H   LINE      CODE     ---       #587
      0100199CH   LINE      CODE     ---       #588
      0100199CH   LINE      CODE     ---       #589
      010019A2H   LINE      CODE     ---       #590
      010019A2H   LINE      CODE     ---       #591
      010019A3H   LINE      CODE     ---       #592
      010019ABH   LINE      CODE     ---       #593
      010019ABH   LINE      CODE     ---       #594
      010019B4H   LINE      CODE     ---       #595
      010019B4H   LINE      CODE     ---       #596
      010019B6H   LINE      CODE     ---       #597
      010019B6H   LINE      CODE     ---       #598
      010019BFH   LINE      CODE     ---       #599
      010019BFH   LINE      CODE     ---       #600
      010019C1H   LINE      CODE     ---       #601
      010019C1H   LINE      CODE     ---       #610
      010019C3H   LINE      CODE     ---       #611
      010019C3H   LINE      CODE     ---       #612
      010019DEH   LINE      CODE     ---       #613
      010019DEH   LINE      CODE     ---       #614
      010019EBH   LINE      CODE     ---       #615
      010019EBH   LINE      CODE     ---       #617
      010019FCH   LINE      CODE     ---       #618
      010019FCH   LINE      CODE     ---       #619
      010019FEH   LINE      CODE     ---       #620
      010019FEH   LINE      CODE     ---       #621
      01001A03H   LINE      CODE     ---       #622
      01001A09H   LINE      CODE     ---       #623
      01001A09H   LINE      CODE     ---       #624
      01001A0FH   LINE      CODE     ---       #625
      01001A10H   LINE      CODE     ---       #626
      01001A16H   LINE      CODE     ---       #627
      01001A16H   LINE      CODE     ---       #628
      01001A1CH   LINE      CODE     ---       #629
      01001A1DH   LINE      CODE     ---       #630
      01001A23H   LINE      CODE     ---       #631
      01001A23H   LINE      CODE     ---       #632
      01001A29H   LINE      CODE     ---       #633
      01001A2AH   LINE      CODE     ---       #634
      01001A30H   LINE      CODE     ---       #635
      01001A30H   LINE      CODE     ---       #636
      01001A35H   LINE      CODE     ---       #637
      01001A35H   LINE      CODE     ---       #638
      01001A35H   LINE      CODE     ---       #639
      ---         BLOCKEND  ---      ---       LVL=0

      0100371CH   BLOCK     CODE     ---       LVL=0
      0100371CH   LINE      CODE     ---       #641
      0100371CH   LINE      CODE     ---       #642
      0100371CH   LINE      CODE     ---       #643
      01003721H   LINE      CODE     ---       #644
      01003727H   LINE      CODE     ---       #645
      0100372DH   LINE      CODE     ---       #646
      01003734H   LINE      CODE     ---       #647
      01003734H   LINE      CODE     ---       #648
      01003736H   LINE      CODE     ---       #649
LX51 LINKER/LOCATER V4.66.30.0                                                        08/12/2020  16:38:44  PAGE 41


      0100373CH   LINE      CODE     ---       #650
      0100373CH   LINE      CODE     ---       #651
      ---         BLOCKEND  ---      ---       LVL=0

      0100373DH   BLOCK     CODE     ---       LVL=0
      0100373DH   LINE      CODE     ---       #653
      0100373DH   LINE      CODE     ---       #654
      0100373DH   LINE      CODE     ---       #656
      01003746H   LINE      CODE     ---       #657
      01003749H   LINE      CODE     ---       #658
      01003749H   LINE      CODE     ---       #659
      0100374FH   LINE      CODE     ---       #660
      01003750H   LINE      CODE     ---       #661
      01003755H   LINE      CODE     ---       #662
      0100375BH   LINE      CODE     ---       #663
      0100375BH   LINE      CODE     ---       #664
      ---         BLOCKEND  ---      ---       LVL=0
      00000007H   SYMBOL    DATA     BYTE      i

      01002F8CH   BLOCK     CODE     ---       LVL=0
      01002F8CH   BLOCK     CODE     NEAR LAB  LVL=1
      020003B8H   SYMBOL    XDATA    BYTE      i
      020003B9H   SYMBOL    XDATA    BYTE      eve_temp
      00000006H   SYMBOL    DATA     WORD      checksum_temp
      ---         BLOCKEND  ---      ---       LVL=1
      01002F8CH   LINE      CODE     ---       #692
      01002F8CH   LINE      CODE     ---       #693
      01002F8CH   LINE      CODE     ---       #697
      01002F93H   LINE      CODE     ---       #698
      01002F9BH   LINE      CODE     ---       #699
      01002FAAH   LINE      CODE     ---       #700
      01002FAAH   LINE      CODE     ---       #701
      01002FC2H   LINE      CODE     ---       #702
      01002FEEH   LINE      CODE     ---       #703
      01002FF6H   LINE      CODE     ---       #717
      ---         BLOCKEND  ---      ---       LVL=0

      0100005EH   BLOCK     CODE     ---       LVL=0
      0100005EH   LINE      CODE     ---       #720
      0100005EH   LINE      CODE     ---       #721
      0100005EH   LINE      CODE     ---       #759
      01000065H   LINE      CODE     ---       #760
      01000065H   LINE      CODE     ---       #761
      01000068H   LINE      CODE     ---       #762
      0100006DH   LINE      CODE     ---       #763
      0100006DH   LINE      CODE     ---       #772
      ---         BLOCKEND  ---      ---       LVL=0

      ---         MODULE    ---      ---       CPU
      020003F4H   PUBLIC    XDATA    BYTE      SFRPAGE_TEMP
      010036F9H   PUBLIC    CODE     ---       Cpu_InitHardwarePort
      0100006EH   PUBLIC    CODE     ---       Cpu_DisableInterrupt
      01000056H   PUBLIC    CODE     ---       Cpu_EnableInterrupt
      010037EBH   PUBLIC    CODE     ---       _Cpu_WDG_Init
      0100377AH   PUBLIC    CODE     ---       Cpu_Clk_Init
      000000A2H   SFRSYM    DATA     BYTE      SPI0CKR
      00000080H   SFRSYM    DATA     BYTE      P0
      000000C8H.6 SFRSYM    DATA     BIT       SCON1_PERR
      000000D0H.2 SFRSYM    DATA     BIT       PSW_OV
      00000090H   SFRSYM    DATA     BYTE      P1
      000000F8H.1 SFRSYM    DATA     BIT       SPI0CN0_TXNF
      00000097H   SFRSYM    DATA     BYTE      WDTCN
LX51 LINKER/LOCATER V4.66.30.0                                                        08/12/2020  16:38:44  PAGE 42


      000000A0H   SFRSYM    DATA     BYTE      P2
      000000B0H   SFRSYM    DATA     BYTE      P3
      000000BCH   SFRSYM    DATA     BYTE      ADC0CF
      000000C0H.7 SFRSYM    DATA     BIT       SMB0CN0_MASTER
      000000F9H   SFRSYM    DATA     WORD      PCA0
      000000E6H   SFRSYM    DATA     BYTE      EIE1
      000000C0H.1 SFRSYM    DATA     BIT       SMB0CN0_ACK
      000000CEH   SFRSYM    DATA     BYTE      EIE2
      0000008FH   SFRSYM    DATA     BYTE      PSCTL
      000000E4H   SFRSYM    DATA     BYTE      IT01CF
      000000C0H.6 SFRSYM    DATA     BIT       SMB0CN0_TXMODE
      000000ADH   SFRSYM    DATA     BYTE      DERIVID
      000000A7H   SFRSYM    DATA     BYTE      SFRPAGE
      000000A4H   SFRSYM    DATA     BYTE      P0MDOUT
      000000A5H   SFRSYM    DATA     BYTE      P1MDOUT
      000000E8H.5 SFRSYM    DATA     BIT       ADC0CN0_ADINT
      000000CBH   SFRSYM    DATA     BYTE      TMR2RLH
      000000A6H   SFRSYM    DATA     BYTE      P2MDOUT
      000000A8H   SFRSYM    DATA     BYTE      IE
      00000093H   SFRSYM    DATA     BYTE      TMR3RLH
      0000009CH   SFRSYM    DATA     BYTE      P3MDOUT
      000000A3H   SFRSYM    DATA     BYTE      TMR4RLH
      000000F3H   SFRSYM    DATA     BYTE      EIP1
      000000F4H   SFRSYM    DATA     BYTE      EIP2
      00000098H.2 SFRSYM    DATA     BIT       SCON0_RB8
      000000CAH   SFRSYM    DATA     BYTE      TMR2RLL
      000000FCH   SFRSYM    DATA     BYTE      PCA0CPH0
      00000092H   SFRSYM    DATA     BYTE      TMR3RLL
      000000EAH   SFRSYM    DATA     BYTE      PCA0CPH1
      00000098H.3 SFRSYM    DATA     BIT       SCON0_TB8
      000000F0H   SFRSYM    DATA     BIT       B_B0
      00000082H   SFRSYM    DATA     WORD      DP
      000000A2H   SFRSYM    DATA     BYTE      TMR4RLL
      000000ECH   SFRSYM    DATA     BYTE      PCA0CPH2
      000000F0H.1 SFRSYM    DATA     BIT       B_B1
      000000C3H   SFRSYM    DATA     WORD      ADC0GT
      000000BDH   SFRSYM    DATA     BYTE      I2C0SLAD
      000000D8H.3 SFRSYM    DATA     BIT       UART1FCN1_RFRQ
      000000F0H.2 SFRSYM    DATA     BIT       B_B2
      000000CFH   SFRSYM    DATA     BYTE      SFRPGCN
      000000FBH   SFRSYM    DATA     BYTE      PCA0CPL0
      000000F0H.3 SFRSYM    DATA     BIT       B_B3
      000000D9H   SFRSYM    DATA     BYTE      PCA0MD
      000000DAH   SFRSYM    DATA     BYTE      PCA0CPM0
      000000E9H   SFRSYM    DATA     BYTE      PCA0CPL1
      000000D8H.7 SFRSYM    DATA     BIT       UART1FCN1_TFRQ
      000000F0H.4 SFRSYM    DATA     BIT       B_B4
      000000DBH   SFRSYM    DATA     BYTE      PCA0CPM1
      000000EBH   SFRSYM    DATA     BYTE      PCA0CPL2
      000000F0H.5 SFRSYM    DATA     BIT       B_B5
      000000DCH   SFRSYM    DATA     BYTE      PCA0CPM2
      000000B8H   SFRSYM    DATA     BYTE      IP
      000000B9H   SFRSYM    DATA     BYTE      ADC0TK
      000000F0H.6 SFRSYM    DATA     BIT       B_B6
      000000C5H   SFRSYM    DATA     WORD      ADC0LT
      000000D8H.6 SFRSYM    DATA     BIT       UART1FCN1_TXNF
      00000098H.5 SFRSYM    DATA     BIT       SCON0_MCE
      000000F0H.7 SFRSYM    DATA     BIT       B_B7
      000000C3H   SFRSYM    DATA     BYTE      SMB0FCN0
      000000E1H   SFRSYM    DATA     BYTE      XBR0
      000000C4H   SFRSYM    DATA     BYTE      SMB0FCN1
      000000C1H   SFRSYM    DATA     BYTE      SMB0CF
LX51 LINKER/LOCATER V4.66.30.0                                                        08/12/2020  16:38:44  PAGE 43


      000000E2H   SFRSYM    DATA     BYTE      XBR1
      000000C1H   SFRSYM    DATA     BYTE      PFE0CN
      000000E7H   SFRSYM    DATA     BYTE      EMI0CN
      000000C0H.5 SFRSYM    DATA     BIT       SMB0CN0_STA
      000000E3H   SFRSYM    DATA     BYTE      XBR2
      000000BBH   SFRSYM    DATA     BYTE      ADC0MX
      000000E0H   SFRSYM    DATA     BIT       ACC_ACC0
      000000D1H   SFRSYM    DATA     BYTE      REF0CN
      0000008EH   SFRSYM    DATA     BYTE      CKCON0
      000000E0H.1 SFRSYM    DATA     BIT       ACC_ACC1
      000000C9H   SFRSYM    DATA     BYTE      REG0CN
      000000DDH   SFRSYM    DATA     BYTE      CRC0IN
      000000A6H   SFRSYM    DATA     BYTE      CKCON1
      000000C8H.2 SFRSYM    DATA     BIT       TMR2CN0_TR2
      000000E0H.2 SFRSYM    DATA     BIT       ACC_ACC2
      000000C6H   SFRSYM    DATA     BYTE      REG1CN
      000000E0H.3 SFRSYM    DATA     BIT       ACC_ACC3
      00000081H   SFRSYM    DATA     BYTE      SP
      0000009DH   SFRSYM    DATA     BYTE      CMP0MD
      000000E0H.4 SFRSYM    DATA     BIT       ACC_ACC4
      000000B1H   SFRSYM    DATA     BYTE      LFO0CN
      000000ABH   SFRSYM    DATA     BYTE      CMP1MD
      000000D8H   SFRSYM    DATA     BIT       PCA0CN0_CCF0
      000000E0H.5 SFRSYM    DATA     BIT       ACC_ACC5
      00000098H.2 SFRSYM    DATA     BIT       TMR4CN0_TR4
      000000D8H.1 SFRSYM    DATA     BIT       PCA0CN0_CCF1
      000000E0H.6 SFRSYM    DATA     BIT       ACC_ACC6
      000000CCH   SFRSYM    DATA     WORD      TMR2
      0000009AH   SFRSYM    DATA     BYTE      SPI0FCN0
      000000D8H.2 SFRSYM    DATA     BIT       PCA0CN0_CCF2
      000000E0H.7 SFRSYM    DATA     BIT       ACC_ACC7
      00000094H   SFRSYM    DATA     WORD      TMR3
      0000009BH   SFRSYM    DATA     BYTE      SPI0FCN1
      000000A4H   SFRSYM    DATA     WORD      TMR4
      00000094H   SFRSYM    DATA     BYTE      SBCON1
      000000C0H.3 SFRSYM    DATA     BIT       SMB0CN0_ACKRQ
      000000FFH   SFRSYM    DATA     BYTE      VDM0CN
      000000F1H   SFRSYM    DATA     BYTE      P0MDIN
      00000098H.4 SFRSYM    DATA     BIT       SCON0_REN
      000000ACH   SFRSYM    DATA     BYTE      SMB0TC
      000000F2H   SFRSYM    DATA     BYTE      P1MDIN
      000000C8H.4 SFRSYM    DATA     BIT       SCON1_REN
      000000F3H   SFRSYM    DATA     BYTE      P2MDIN
      000000C0H.4 SFRSYM    DATA     BIT       SMB0CN0_STO
      000000F4H   SFRSYM    DATA     BYTE      P3MDIN
      000000B9H   SFRSYM    DATA     BYTE      I2C0STAT
      000000BBH   SFRSYM    DATA     BYTE      I2C0DOUT
      00000096H   SFRSYM    DATA     BYTE      SBRLH1
      000000FEH   SFRSYM    DATA     BYTE      P0MASK
      000000D8H.5 SFRSYM    DATA     BIT       UART1FCN1_TXHOLD
      000000EEH   SFRSYM    DATA     BYTE      P1MASK
      000000FCH   SFRSYM    DATA     BYTE      P2MASK
      000000D0H.3 SFRSYM    DATA     BIT       PSW_RS0
      000000D8H.7 SFRSYM    DATA     BIT       PCA0CN0_CF
      0000009EH   SFRSYM    DATA     BYTE      PCA0CENT
      000000BAH   SFRSYM    DATA     BYTE      I2C0CN0
      000000D2H   SFRSYM    DATA     BYTE      CRC0ST
      000000F8H.4 SFRSYM    DATA     BIT       SPI0CN0_RXOVRN
      000000D0H.4 SFRSYM    DATA     BIT       PSW_RS1
      00000095H   SFRSYM    DATA     BYTE      SBRLL1
      000000C8H.2 SFRSYM    DATA     BIT       SCON1_RBX
      000000C8H   SFRSYM    DATA     BIT       TMR2CN0_T2XCLK0
LX51 LINKER/LOCATER V4.66.30.0                                                        08/12/2020  16:38:44  PAGE 44


      000000C8H.1 SFRSYM    DATA     BIT       TMR2CN0_T2XCLK1
      000000C8H.3 SFRSYM    DATA     BIT       SCON1_TBX
      000000E8H.7 SFRSYM    DATA     BIT       ADC0CN0_ADEN
      00000089H   SFRSYM    DATA     BYTE      TMOD
      00000088H   SFRSYM    DATA     BYTE      TCON
      000000CFH   SFRSYM    DATA     BYTE      CRC0FLIP
      000000D0H   SFRSYM    DATA     BIT       PSW_PARITY
      000000A8H.4 SFRSYM    DATA     BIT       IE_ES0
      0000009FH   SFRSYM    DATA     BYTE      CMP0MX
      00000098H   SFRSYM    DATA     BIT       TMR4CN0_T4XCLK0
      000000A8H.1 SFRSYM    DATA     BIT       IE_ET0
      000000AAH   SFRSYM    DATA     BYTE      CMP1MX
      00000098H.1 SFRSYM    DATA     BIT       TMR4CN0_T4XCLK1
      000000A8H.3 SFRSYM    DATA     BIT       IE_ET1
      000000D4H   SFRSYM    DATA     BYTE      P0SKIP
      000000D8H   SFRSYM    DATA     BIT       UART1FCN1_RIE
      000000A8H.5 SFRSYM    DATA     BIT       IE_ET2
      000000D5H   SFRSYM    DATA     BYTE      P1SKIP
      000000CCH   SFRSYM    DATA     BYTE      P2SKIP
      000000E8H   SFRSYM    DATA     BYTE      ADC0CN0
      000000D8H.4 SFRSYM    DATA     BIT       UART1FCN1_TIE
      000000A8H   SFRSYM    DATA     BIT       IE_EX0
      000000B2H   SFRSYM    DATA     BYTE      ADC0CN1
      000000D8H.6 SFRSYM    DATA     BIT       PCA0CN0_CR
      000000A8H.2 SFRSYM    DATA     BIT       IE_EX1
      000000C8H.7 SFRSYM    DATA     BIT       SCON1_OVR
      00000098H.7 SFRSYM    DATA     BIT       SCON0_SMODE
      000000B5H   SFRSYM    DATA     BYTE      DEVICEID
      000000A9H   SFRSYM    DATA     BYTE      CLKSEL
      000000F8H   SFRSYM    DATA     BIT       SPI0CN0_SPIEN
      000000F0H   SFRSYM    DATA     BYTE      B
      000000BEH   SFRSYM    DATA     BYTE      ADC0H
      000000E8H.6 SFRSYM    DATA     BIT       ADC0CN0_ADBMEN
      000000CAH   SFRSYM    DATA     WORD      TMR2RL
      000000BDH   SFRSYM    DATA     BYTE      ADC0L
      00000092H   SFRSYM    DATA     WORD      TMR3RL
      000000A2H   SFRSYM    DATA     WORD      TMR4RL
      000000D8H   SFRSYM    DATA     BYTE      PCA0CN0
      000000E0H   SFRSYM    DATA     BYTE      ACC
      000000FBH   SFRSYM    DATA     WORD      PCA0CP0
      000000E9H   SFRSYM    DATA     WORD      PCA0CP1
      000000EBH   SFRSYM    DATA     WORD      PCA0CP2
      000000BCH   SFRSYM    DATA     BYTE      I2C0DIN
      000000CEH   SFRSYM    DATA     BYTE      CRC0CN0
      0000008CH   SFRSYM    DATA     BYTE      TH0
      00000086H   SFRSYM    DATA     BYTE      CRC0CN1
      000000B8H.4 SFRSYM    DATA     BIT       IP_PS0
      000000FAH   SFRSYM    DATA     BYTE      UART1FCT
      0000008DH   SFRSYM    DATA     BYTE      TH1
      000000FAH   SFRSYM    DATA     BYTE      PCA0H
      000000F5H   SFRSYM    DATA     BYTE      I2C0FCT
      000000B8H.1 SFRSYM    DATA     BIT       IP_PT0
      000000B8H.3 SFRSYM    DATA     BIT       IP_PT1
      000000C0H.2 SFRSYM    DATA     BIT       SMB0CN0_ARBLOST
      000000B8H.5 SFRSYM    DATA     BIT       IP_PT2
      0000008AH   SFRSYM    DATA     BYTE      TL0
      000000D0H.5 SFRSYM    DATA     BIT       PSW_F0
      000000A8H.6 SFRSYM    DATA     BIT       IE_ESPI0
      0000008BH   SFRSYM    DATA     BYTE      TL1
      000000F9H   SFRSYM    DATA     BYTE      PCA0L
      000000C0H   SFRSYM    DATA     BIT       SMB0CN0_SI
      000000D0H.1 SFRSYM    DATA     BIT       PSW_F1
LX51 LINKER/LOCATER V4.66.30.0                                                        08/12/2020  16:38:44  PAGE 45


      00000080H   SFRSYM    DATA     BIT       P0_B0
      000000B8H   SFRSYM    DATA     BIT       IP_PX0
      00000090H   SFRSYM    DATA     BIT       P1_B0
      00000080H.1 SFRSYM    DATA     BIT       P0_B1
      000000B8H.2 SFRSYM    DATA     BIT       IP_PX1
      0000009EH   SFRSYM    DATA     BYTE      UART1LIN
      0000009BH   SFRSYM    DATA     BYTE      CMP0CN0
      00000088H.1 SFRSYM    DATA     BIT       TCON_IE0
      000000A0H   SFRSYM    DATA     BIT       P2_B0
      00000090H.1 SFRSYM    DATA     BIT       P1_B1
      00000080H.2 SFRSYM    DATA     BIT       P0_B2
      000000BFH   SFRSYM    DATA     BYTE      CMP1CN0
      00000099H   SFRSYM    DATA     BYTE      CMP0CN1
      00000088H.3 SFRSYM    DATA     BIT       TCON_IE1
      000000B0H   SFRSYM    DATA     BIT       P3_B0
      000000A0H.1 SFRSYM    DATA     BIT       P2_B1
      00000090H.2 SFRSYM    DATA     BIT       P1_B2
      00000080H.3 SFRSYM    DATA     BIT       P0_B3
      000000C0H   SFRSYM    DATA     BYTE      SMB0CN0
      000000ACH   SFRSYM    DATA     BYTE      CMP1CN1
      000000B0H.1 SFRSYM    DATA     BIT       P3_B1
      000000A0H.2 SFRSYM    DATA     BIT       P2_B2
      00000090H.3 SFRSYM    DATA     BIT       P1_B3
      00000080H.4 SFRSYM    DATA     BIT       P0_B4
      000000A0H.3 SFRSYM    DATA     BIT       P2_B3
      00000090H.4 SFRSYM    DATA     BIT       P1_B4
      00000080H.5 SFRSYM    DATA     BIT       P0_B5
      000000D8H.1 SFRSYM    DATA     BIT       UART1FCN1_RXTO0
      00000090H.5 SFRSYM    DATA     BIT       P1_B5
      00000080H.6 SFRSYM    DATA     BIT       P0_B6
      000000F5H   SFRSYM    DATA     BYTE      EIP1H
      000000D8H.2 SFRSYM    DATA     BIT       UART1FCN1_RXTO1
      00000090H.6 SFRSYM    DATA     BIT       P1_B6
      00000080H.7 SFRSYM    DATA     BIT       P0_B7
      000000C5H   SFRSYM    DATA     BYTE      SMB0RXLN
      000000F6H   SFRSYM    DATA     BYTE      EIP2H
      00000090H.7 SFRSYM    DATA     BIT       P1_B7
      00000083H   SFRSYM    DATA     BYTE      DPH
      000000C4H   SFRSYM    DATA     BYTE      ADC0GTH
      000000C8H.7 SFRSYM    DATA     BIT       TMR2CN0_TF2H
      000000C8H.3 SFRSYM    DATA     BIT       TMR2CN0_T2SPLIT
      000000D0H.6 SFRSYM    DATA     BIT       PSW_AC
      000000F8H   SFRSYM    DATA     BYTE      SPI0CN0
      000000C7H   SFRSYM    DATA     BYTE      HFO0CAL
      00000088H.5 SFRSYM    DATA     BIT       TCON_TF0
      00000098H   SFRSYM    DATA     BIT       SCON0_RI
      000000D6H   SFRSYM    DATA     BYTE      HFO1CAL
      00000082H   SFRSYM    DATA     BYTE      DPL
      00000088H.7 SFRSYM    DATA     BIT       TCON_TF1
      000000C8H   SFRSYM    DATA     BIT       SCON1_RI
      00000099H   SFRSYM    DATA     BYTE      SBUF0
      00000087H   SFRSYM    DATA     BYTE      PCON0
      000000F2H   SFRSYM    DATA     BYTE      IPH
      000000C3H   SFRSYM    DATA     BYTE      ADC0GTL
      00000098H.7 SFRSYM    DATA     BIT       TMR4CN0_TF4H
      00000098H.3 SFRSYM    DATA     BIT       TMR4CN0_T4SPLIT
      000000C8H.6 SFRSYM    DATA     BIT       TMR2CN0_TF2L
      00000098H.1 SFRSYM    DATA     BIT       SCON0_TI
      000000E8H   SFRSYM    DATA     BIT       ADC0CN0_ADCM0
      00000092H   SFRSYM    DATA     BYTE      SBUF1
      0000009AH   SFRSYM    DATA     BYTE      PCON1
      000000C6H   SFRSYM    DATA     BYTE      ADC0LTH
LX51 LINKER/LOCATER V4.66.30.0                                                        08/12/2020  16:38:44  PAGE 46


      00000088H   SFRSYM    DATA     BIT       TCON_IT0
      000000C8H.1 SFRSYM    DATA     BIT       SCON1_TI
      000000E8H.1 SFRSYM    DATA     BIT       ADC0CN0_ADCM1
      000000EFH   SFRSYM    DATA     BYTE      RSTSRC
      000000FDH   SFRSYM    DATA     BYTE      P0MAT
      000000DEH   SFRSYM    DATA     BYTE      CRC0DAT
      00000088H.2 SFRSYM    DATA     BIT       TCON_IT1
      000000E8H.2 SFRSYM    DATA     BIT       ADC0CN0_ADCM2
      000000D7H   SFRSYM    DATA     BYTE      SFRSTACK
      00000098H   SFRSYM    DATA     BYTE      SCON0
      000000F6H   SFRSYM    DATA     BYTE      PRTDRV
      000000EDH   SFRSYM    DATA     BYTE      P1MAT
      000000E8H.3 SFRSYM    DATA     BIT       ADC0CN0_ADWINT
      00000095H   SFRSYM    DATA     WORD      SBRL1
      00000093H   SFRSYM    DATA     BYTE      SMOD1
      000000C8H   SFRSYM    DATA     BYTE      SCON1
      000000FBH   SFRSYM    DATA     BYTE      P2MAT
      00000098H.6 SFRSYM    DATA     BIT       TMR4CN0_TF4L
      000000E8H.4 SFRSYM    DATA     BIT       ADC0CN0_ADBUSY
      000000D6H   SFRSYM    DATA     BYTE      SMB0ADM
      000000C5H   SFRSYM    DATA     BYTE      ADC0LTL
      000000F8H.5 SFRSYM    DATA     BIT       SPI0CN0_MODF
      000000B8H.6 SFRSYM    DATA     BIT       IP_PSPI0
      0000009CH   SFRSYM    DATA     BYTE      PCA0CLR
      000000C8H   SFRSYM    DATA     BYTE      TMR2CN0
      00000091H   SFRSYM    DATA     BYTE      TMR3CN0
      000000FDH   SFRSYM    DATA     BYTE      TMR2CN1
      00000098H   SFRSYM    DATA     BYTE      TMR4CN0
      000000FEH   SFRSYM    DATA     BYTE      TMR3CN1
      000000FFH   SFRSYM    DATA     BYTE      TMR4CN1
      000000D7H   SFRSYM    DATA     BYTE      SMB0ADR
      00000088H.4 SFRSYM    DATA     BIT       TCON_TR0
      000000C8H.4 SFRSYM    DATA     BIT       TMR2CN0_TF2CEN
      00000088H.6 SFRSYM    DATA     BIT       TCON_TR1
      000000C2H   SFRSYM    DATA     BYTE      SMB0DAT
      000000CDH   SFRSYM    DATA     BYTE      TMR2H
      000000A1H   SFRSYM    DATA     BYTE      SPI0CFG
      00000095H   SFRSYM    DATA     BYTE      TMR3H
      000000EFH   SFRSYM    DATA     BYTE      HFOCN
      000000D3H   SFRSYM    DATA     BYTE      CRC0CNT
      000000A5H   SFRSYM    DATA     BYTE      TMR4H
      00000098H.4 SFRSYM    DATA     BIT       TMR4CN0_TF4CEN
      000000EFH   SFRSYM    DATA     BYTE      SMB0FCT
      00000096H   SFRSYM    DATA     BYTE      PCA0POL
      000000CCH   SFRSYM    DATA     BYTE      TMR2L
      000000F8H.7 SFRSYM    DATA     BIT       SPI0CN0_SPIF
      00000094H   SFRSYM    DATA     BYTE      TMR3L
      000000DFH   SFRSYM    DATA     BYTE      ADC0PWR
      000000A8H.7 SFRSYM    DATA     BIT       IE_EA
      000000A4H   SFRSYM    DATA     BYTE      TMR4L
      000000C8H.5 SFRSYM    DATA     BIT       TMR2CN0_TF2LEN
      000000F8H.6 SFRSYM    DATA     BIT       SPI0CN0_WCOL
      000000F8H.2 SFRSYM    DATA     BIT       SPI0CN0_NSSMD0
      000000D0H.7 SFRSYM    DATA     BIT       PSW_CY
      0000009DH   SFRSYM    DATA     BYTE      UART1FCN0
      000000A3H   SFRSYM    DATA     BYTE      SPI0DAT
      000000ADH   SFRSYM    DATA     BYTE      I2C0FCN0
      000000F8H.3 SFRSYM    DATA     BIT       SPI0CN0_NSSMD1
      000000BDH   SFRSYM    DATA     WORD      ADC0
      000000D8H   SFRSYM    DATA     BYTE      UART1FCN1
      000000ABH   SFRSYM    DATA     BYTE      I2C0FCN1
      00000098H.5 SFRSYM    DATA     BIT       TMR4CN0_TF4LEN
LX51 LINKER/LOCATER V4.66.30.0                                                        08/12/2020  16:38:44  PAGE 47


      000000D0H   SFRSYM    DATA     BYTE      PSW
      000000F7H   SFRSYM    DATA     BYTE      PCA0PWM
      000000F7H   SFRSYM    DATA     BYTE      SPI0FCT
      000000B6H   SFRSYM    DATA     BYTE      REVID
      000000B7H   SFRSYM    DATA     BYTE      FLKEY
      000000B3H   SFRSYM    DATA     BYTE      ADC0AC

      0100377AH   BLOCK     CODE     ---       LVL=0
      0100377AH   LINE      CODE     ---       #18
      0100377AH   LINE      CODE     ---       #19
      0100377AH   LINE      CODE     ---       #20
      0100377DH   LINE      CODE     ---       #21
      01003780H   LINE      CODE     ---       #23
      01003783H   LINE      CODE     ---       #24
      01003785H   LINE      CODE     ---       #25
      01003787H   LINE      CODE     ---       #26
      0100378CH   LINE      CODE     ---       #27
      0100378FH   LINE      CODE     ---       #28
      01003792H   LINE      CODE     ---       #29
      01003797H   LINE      CODE     ---       #31
      ---         BLOCKEND  ---      ---       LVL=0

      010037EBH   BLOCK     CODE     ---       LVL=0
      00000007H   SYMBOL    DATA     BYTE      Switch
      010037EBH   LINE      CODE     ---       #34
      010037EBH   LINE      CODE     ---       #35
      010037EBH   LINE      CODE     ---       #36
      010037EEH   LINE      CODE     ---       #37
      010037F2H   LINE      CODE     ---       #38
      010037F2H   LINE      CODE     ---       #39
      010037F5H   LINE      CODE     ---       #40
      010037F8H   LINE      CODE     ---       #41
      010037F8H   LINE      CODE     ---       #42
      010037FBH   LINE      CODE     ---       #43
      010037FBH   LINE      CODE     ---       #44
      010037FEH   LINE      CODE     ---       #45
      01003801H   LINE      CODE     ---       #46
      01003801H   LINE      CODE     ---       #47
      ---         BLOCKEND  ---      ---       LVL=0

      01000056H   BLOCK     CODE     ---       LVL=0
      01000056H   LINE      CODE     ---       #49
      01000056H   LINE      CODE     ---       #50
      01000056H   LINE      CODE     ---       #51
      01000058H   LINE      CODE     ---       #52
      ---         BLOCKEND  ---      ---       LVL=0

      0100006EH   BLOCK     CODE     ---       LVL=0
      0100006EH   LINE      CODE     ---       #54
      0100006EH   LINE      CODE     ---       #55
      0100006EH   LINE      CODE     ---       #56
      01000070H   LINE      CODE     ---       #57
      ---         BLOCKEND  ---      ---       LVL=0

      010036F9H   BLOCK     CODE     ---       LVL=0
      010036F9H   LINE      CODE     ---       #59
      010036F9H   LINE      CODE     ---       #60
      010036F9H   LINE      CODE     ---       #61
      010036FCH   LINE      CODE     ---       #63
      010036FFH   LINE      CODE     ---       #65
      01003702H   LINE      CODE     ---       #67
      01003705H   LINE      CODE     ---       #69
LX51 LINKER/LOCATER V4.66.30.0                                                        08/12/2020  16:38:44  PAGE 48


      01003708H   LINE      CODE     ---       #73
      0100370BH   LINE      CODE     ---       #75
      0100370EH   LINE      CODE     ---       #77
      01003711H   LINE      CODE     ---       #79
      01003714H   LINE      CODE     ---       #83
      01003716H   LINE      CODE     ---       #87
      01003718H   LINE      CODE     ---       #90
      0100371BH   LINE      CODE     ---       #94
      ---         BLOCKEND  ---      ---       LVL=0

      ---         MODULE    ---      ---       DETECTOBJ
      02000231H   PUBLIC    XDATA    ---       EachSNMaxDistance
      02000209H   PUBLIC    XDATA    ---       TableWidth
      020001FCH   PUBLIC    XDATA    ---       NearestData
      020001E8H   PUBLIC    XDATA    ---       TableHeight
      020001E2H   PUBLIC    XDATA    ---       EachSNMaxDistance_5Snr
      020001DCH   PUBLIC    XDATA    ---       EachSNMaxDistance_3Snr
      020001D6H   PUBLIC    XDATA    ---       EachSNMaxDistance_2Snr
      020001D3H   PUBLIC    XDATA    ---       DetObj_DataPrcs
      020001CAH   PUBLIC    XDATA    ---       DetInfo
      0200007BH   PUBLIC    XDATA    ---       RawData
      02000075H   PUBLIC    XDATA    ---       DetectInterval
      0200006AH   PUBLIC    XDATA    ---       AnsData
      0200001DH   PUBLIC    XDATA    ---       CmpData
      02000017H   PUBLIC    XDATA    ---       ClrtData
      0200000CH   PUBLIC    XDATA    ---       DiagInfo
      02000000H   PUBLIC    XDATA    ---       Noise
      01000D42H   PUBLIC    CODE     ---       DetObj_CompareTheData
      01002B2FH   PUBLIC    CODE     ---       DetObj_ProcessTheRingTime
      01002078H   PUBLIC    CODE     ---       DetObj_GenerateTheNearestObstacle
      01003129H   PUBLIC    CODE     ---       DetObj_HoldTheObstaclestate
      01001463H   PUBLIC    CODE     ---       DetObj_DetTheObj
      010021D5H   PUBLIC    CODE     ---       DetObj_RawNoiseDataAns
      010009FEH   PUBLIC    CODE     ---       DetObj_RawEchoDataAns
      01001A36H   PUBLIC    CODE     ---       DetObj_RawFilter
      0100167CH   PUBLIC    CODE     ---       DetObj_CalSampNoise
      020003BDH   PUBLIC    XDATA    BYTE      ?_DetObj_CopySamplingBuffer?BYTE
      01003324H   PUBLIC    CODE     ---       _DetObj_CopySamplingBuffer
      01002F19H   PUBLIC    CODE     ---       DetObj_ClearTheNoiseBuff
      0100305FH   PUBLIC    CODE     ---       _GetDistance
      010035BCH   PUBLIC    CODE     ---       DetObj_ClearTheRawDataBuff
      0100328FH   PUBLIC    CODE     ---       DetObj_InitTheCCD
      01002E0FH   PUBLIC    CODE     ---       DetObj_InitTheEPD
      0100383FH   PUBLIC    CODE     ---       DetObj_InitTheAnalysisData
      01003839H   PUBLIC    CODE     ---       DetObj_Stop
      01003830H   PUBLIC    CODE     ---       DetObj_Start
      01002449H   PUBLIC    CODE     ---       DetObj_DiagnosticTheRingTime
      010036ADH   PUBLIC    CODE     ---       DetObj_DiagnosticTheSensor
      01002CF7H   PUBLIC    CODE     ---       DetObj_SendThe58KhzUltraSonic
      01003592H   PUBLIC    CODE     ---       DetObj_RealTimeClock
      0100323DH   PUBLIC    CODE     ---       DetObj_InitAllChannelDistance
      000000A2H   SFRSYM    DATA     BYTE      SPI0CKR
      00000080H   SFRSYM    DATA     BYTE      P0
      000000C8H.6 SFRSYM    DATA     BIT       SCON1_PERR
      000000D0H.2 SFRSYM    DATA     BIT       PSW_OV
      00000090H   SFRSYM    DATA     BYTE      P1
      000000F8H.1 SFRSYM    DATA     BIT       SPI0CN0_TXNF
      00000097H   SFRSYM    DATA     BYTE      WDTCN
      000000A0H   SFRSYM    DATA     BYTE      P2
      000000B0H   SFRSYM    DATA     BYTE      P3
      000000BCH   SFRSYM    DATA     BYTE      ADC0CF
      000000C0H.7 SFRSYM    DATA     BIT       SMB0CN0_MASTER
LX51 LINKER/LOCATER V4.66.30.0                                                        08/12/2020  16:38:44  PAGE 49


      000000F9H   SFRSYM    DATA     WORD      PCA0
      000000E6H   SFRSYM    DATA     BYTE      EIE1
      000000C0H.1 SFRSYM    DATA     BIT       SMB0CN0_ACK
      000000CEH   SFRSYM    DATA     BYTE      EIE2
      0000008FH   SFRSYM    DATA     BYTE      PSCTL
      000000E4H   SFRSYM    DATA     BYTE      IT01CF
      000000C0H.6 SFRSYM    DATA     BIT       SMB0CN0_TXMODE
      000000ADH   SFRSYM    DATA     BYTE      DERIVID
      000000A7H   SFRSYM    DATA     BYTE      SFRPAGE
      000000A4H   SFRSYM    DATA     BYTE      P0MDOUT
      000000A5H   SFRSYM    DATA     BYTE      P1MDOUT
      000000E8H.5 SFRSYM    DATA     BIT       ADC0CN0_ADINT
      000000CBH   SFRSYM    DATA     BYTE      TMR2RLH
      000000A6H   SFRSYM    DATA     BYTE      P2MDOUT
      000000A8H   SFRSYM    DATA     BYTE      IE
      00000093H   SFRSYM    DATA     BYTE      TMR3RLH
      0000009CH   SFRSYM    DATA     BYTE      P3MDOUT
      000000A3H   SFRSYM    DATA     BYTE      TMR4RLH
      000000F3H   SFRSYM    DATA     BYTE      EIP1
      000000F4H   SFRSYM    DATA     BYTE      EIP2
      00000098H.2 SFRSYM    DATA     BIT       SCON0_RB8
      000000CAH   SFRSYM    DATA     BYTE      TMR2RLL
      000000FCH   SFRSYM    DATA     BYTE      PCA0CPH0
      00000092H   SFRSYM    DATA     BYTE      TMR3RLL
      000000EAH   SFRSYM    DATA     BYTE      PCA0CPH1
      00000098H.3 SFRSYM    DATA     BIT       SCON0_TB8
      000000F0H   SFRSYM    DATA     BIT       B_B0
      00000082H   SFRSYM    DATA     WORD      DP
      000000A2H   SFRSYM    DATA     BYTE      TMR4RLL
      000000ECH   SFRSYM    DATA     BYTE      PCA0CPH2
      000000F0H.1 SFRSYM    DATA     BIT       B_B1
      000000C3H   SFRSYM    DATA     WORD      ADC0GT
      000000BDH   SFRSYM    DATA     BYTE      I2C0SLAD
      000000D8H.3 SFRSYM    DATA     BIT       UART1FCN1_RFRQ
      000000F0H.2 SFRSYM    DATA     BIT       B_B2
      000000CFH   SFRSYM    DATA     BYTE      SFRPGCN
      000000FBH   SFRSYM    DATA     BYTE      PCA0CPL0
      000000F0H.3 SFRSYM    DATA     BIT       B_B3
      000000D9H   SFRSYM    DATA     BYTE      PCA0MD
      000000DAH   SFRSYM    DATA     BYTE      PCA0CPM0
      000000E9H   SFRSYM    DATA     BYTE      PCA0CPL1
      000000D8H.7 SFRSYM    DATA     BIT       UART1FCN1_TFRQ
      000000F0H.4 SFRSYM    DATA     BIT       B_B4
      000000DBH   SFRSYM    DATA     BYTE      PCA0CPM1
      000000EBH   SFRSYM    DATA     BYTE      PCA0CPL2
      000000F0H.5 SFRSYM    DATA     BIT       B_B5
      000000DCH   SFRSYM    DATA     BYTE      PCA0CPM2
      000000B8H   SFRSYM    DATA     BYTE      IP
      000000B9H   SFRSYM    DATA     BYTE      ADC0TK
      000000F0H.6 SFRSYM    DATA     BIT       B_B6
      000000C5H   SFRSYM    DATA     WORD      ADC0LT
      000000D8H.6 SFRSYM    DATA     BIT       UART1FCN1_TXNF
      00000098H.5 SFRSYM    DATA     BIT       SCON0_MCE
      000000F0H.7 SFRSYM    DATA     BIT       B_B7
      000000C3H   SFRSYM    DATA     BYTE      SMB0FCN0
      000000E1H   SFRSYM    DATA     BYTE      XBR0
      000000C4H   SFRSYM    DATA     BYTE      SMB0FCN1
      000000C1H   SFRSYM    DATA     BYTE      SMB0CF
      000000E2H   SFRSYM    DATA     BYTE      XBR1
      000000C1H   SFRSYM    DATA     BYTE      PFE0CN
      000000E7H   SFRSYM    DATA     BYTE      EMI0CN
      000000C0H.5 SFRSYM    DATA     BIT       SMB0CN0_STA
LX51 LINKER/LOCATER V4.66.30.0                                                        08/12/2020  16:38:44  PAGE 50


      000000E3H   SFRSYM    DATA     BYTE      XBR2
      000000BBH   SFRSYM    DATA     BYTE      ADC0MX
      000000E0H   SFRSYM    DATA     BIT       ACC_ACC0
      000000D1H   SFRSYM    DATA     BYTE      REF0CN
      0000008EH   SFRSYM    DATA     BYTE      CKCON0
      000000E0H.1 SFRSYM    DATA     BIT       ACC_ACC1
      000000C9H   SFRSYM    DATA     BYTE      REG0CN
      000000DDH   SFRSYM    DATA     BYTE      CRC0IN
      000000A6H   SFRSYM    DATA     BYTE      CKCON1
      000000C8H.2 SFRSYM    DATA     BIT       TMR2CN0_TR2
      000000E0H.2 SFRSYM    DATA     BIT       ACC_ACC2
      000000C6H   SFRSYM    DATA     BYTE      REG1CN
      000000E0H.3 SFRSYM    DATA     BIT       ACC_ACC3
      00000081H   SFRSYM    DATA     BYTE      SP
      0000009DH   SFRSYM    DATA     BYTE      CMP0MD
      000000E0H.4 SFRSYM    DATA     BIT       ACC_ACC4
      000000B1H   SFRSYM    DATA     BYTE      LFO0CN
      000000ABH   SFRSYM    DATA     BYTE      CMP1MD
      000000D8H   SFRSYM    DATA     BIT       PCA0CN0_CCF0
      000000E0H.5 SFRSYM    DATA     BIT       ACC_ACC5
      00000098H.2 SFRSYM    DATA     BIT       TMR4CN0_TR4
      000000D8H.1 SFRSYM    DATA     BIT       PCA0CN0_CCF1
      000000E0H.6 SFRSYM    DATA     BIT       ACC_ACC6
      000000CCH   SFRSYM    DATA     WORD      TMR2
      0000009AH   SFRSYM    DATA     BYTE      SPI0FCN0
      000000D8H.2 SFRSYM    DATA     BIT       PCA0CN0_CCF2
      000000E0H.7 SFRSYM    DATA     BIT       ACC_ACC7
      00000094H   SFRSYM    DATA     WORD      TMR3
      0000009BH   SFRSYM    DATA     BYTE      SPI0FCN1
      000000A4H   SFRSYM    DATA     WORD      TMR4
      00000094H   SFRSYM    DATA     BYTE      SBCON1
      000000C0H.3 SFRSYM    DATA     BIT       SMB0CN0_ACKRQ
      000000FFH   SFRSYM    DATA     BYTE      VDM0CN
      000000F1H   SFRSYM    DATA     BYTE      P0MDIN
      00000098H.4 SFRSYM    DATA     BIT       SCON0_REN
      000000ACH   SFRSYM    DATA     BYTE      SMB0TC
      000000F2H   SFRSYM    DATA     BYTE      P1MDIN
      000000C8H.4 SFRSYM    DATA     BIT       SCON1_REN
      000000F3H   SFRSYM    DATA     BYTE      P2MDIN
      000000C0H.4 SFRSYM    DATA     BIT       SMB0CN0_STO
      000000F4H   SFRSYM    DATA     BYTE      P3MDIN
      000000B9H   SFRSYM    DATA     BYTE      I2C0STAT
      000000BBH   SFRSYM    DATA     BYTE      I2C0DOUT
      00000096H   SFRSYM    DATA     BYTE      SBRLH1
      000000FEH   SFRSYM    DATA     BYTE      P0MASK
      000000D8H.5 SFRSYM    DATA     BIT       UART1FCN1_TXHOLD
      000000EEH   SFRSYM    DATA     BYTE      P1MASK
      000000FCH   SFRSYM    DATA     BYTE      P2MASK
      000000D0H.3 SFRSYM    DATA     BIT       PSW_RS0
      000000D8H.7 SFRSYM    DATA     BIT       PCA0CN0_CF
      0000009EH   SFRSYM    DATA     BYTE      PCA0CENT
      000000BAH   SFRSYM    DATA     BYTE      I2C0CN0
      000000D2H   SFRSYM    DATA     BYTE      CRC0ST
      000000F8H.4 SFRSYM    DATA     BIT       SPI0CN0_RXOVRN
      000000D0H.4 SFRSYM    DATA     BIT       PSW_RS1
      00000095H   SFRSYM    DATA     BYTE      SBRLL1
      000000C8H.2 SFRSYM    DATA     BIT       SCON1_RBX
      000000C8H   SFRSYM    DATA     BIT       TMR2CN0_T2XCLK0
      000000C8H.1 SFRSYM    DATA     BIT       TMR2CN0_T2XCLK1
      000000C8H.3 SFRSYM    DATA     BIT       SCON1_TBX
      000000E8H.7 SFRSYM    DATA     BIT       ADC0CN0_ADEN
      00000089H   SFRSYM    DATA     BYTE      TMOD
LX51 LINKER/LOCATER V4.66.30.0                                                        08/12/2020  16:38:44  PAGE 51


      00000088H   SFRSYM    DATA     BYTE      TCON
      000000CFH   SFRSYM    DATA     BYTE      CRC0FLIP
      000000D0H   SFRSYM    DATA     BIT       PSW_PARITY
      000000A8H.4 SFRSYM    DATA     BIT       IE_ES0
      0000009FH   SFRSYM    DATA     BYTE      CMP0MX
      00000098H   SFRSYM    DATA     BIT       TMR4CN0_T4XCLK0
      000000A8H.1 SFRSYM    DATA     BIT       IE_ET0
      000000AAH   SFRSYM    DATA     BYTE      CMP1MX
      00000098H.1 SFRSYM    DATA     BIT       TMR4CN0_T4XCLK1
      000000A8H.3 SFRSYM    DATA     BIT       IE_ET1
      000000D4H   SFRSYM    DATA     BYTE      P0SKIP
      000000D8H   SFRSYM    DATA     BIT       UART1FCN1_RIE
      000000A8H.5 SFRSYM    DATA     BIT       IE_ET2
      000000D5H   SFRSYM    DATA     BYTE      P1SKIP
      000000CCH   SFRSYM    DATA     BYTE      P2SKIP
      000000E8H   SFRSYM    DATA     BYTE      ADC0CN0
      000000D8H.4 SFRSYM    DATA     BIT       UART1FCN1_TIE
      000000A8H   SFRSYM    DATA     BIT       IE_EX0
      000000B2H   SFRSYM    DATA     BYTE      ADC0CN1
      000000D8H.6 SFRSYM    DATA     BIT       PCA0CN0_CR
      000000A8H.2 SFRSYM    DATA     BIT       IE_EX1
      000000C8H.7 SFRSYM    DATA     BIT       SCON1_OVR
      00000098H.7 SFRSYM    DATA     BIT       SCON0_SMODE
      000000B5H   SFRSYM    DATA     BYTE      DEVICEID
      000000A9H   SFRSYM    DATA     BYTE      CLKSEL
      000000F8H   SFRSYM    DATA     BIT       SPI0CN0_SPIEN
      000000F0H   SFRSYM    DATA     BYTE      B
      000000BEH   SFRSYM    DATA     BYTE      ADC0H
      000000E8H.6 SFRSYM    DATA     BIT       ADC0CN0_ADBMEN
      000000CAH   SFRSYM    DATA     WORD      TMR2RL
      000000BDH   SFRSYM    DATA     BYTE      ADC0L
      00000092H   SFRSYM    DATA     WORD      TMR3RL
      000000A2H   SFRSYM    DATA     WORD      TMR4RL
      000000D8H   SFRSYM    DATA     BYTE      PCA0CN0
      000000E0H   SFRSYM    DATA     BYTE      ACC
      000000FBH   SFRSYM    DATA     WORD      PCA0CP0
      000000E9H   SFRSYM    DATA     WORD      PCA0CP1
      000000EBH   SFRSYM    DATA     WORD      PCA0CP2
      000000BCH   SFRSYM    DATA     BYTE      I2C0DIN
      000000CEH   SFRSYM    DATA     BYTE      CRC0CN0
      0000008CH   SFRSYM    DATA     BYTE      TH0
      00000086H   SFRSYM    DATA     BYTE      CRC0CN1
      000000B8H.4 SFRSYM    DATA     BIT       IP_PS0
      000000FAH   SFRSYM    DATA     BYTE      UART1FCT
      0000008DH   SFRSYM    DATA     BYTE      TH1
      000000FAH   SFRSYM    DATA     BYTE      PCA0H
      000000F5H   SFRSYM    DATA     BYTE      I2C0FCT
      000000B8H.1 SFRSYM    DATA     BIT       IP_PT0
      000000B8H.3 SFRSYM    DATA     BIT       IP_PT1
      000000C0H.2 SFRSYM    DATA     BIT       SMB0CN0_ARBLOST
      000000B8H.5 SFRSYM    DATA     BIT       IP_PT2
      0000008AH   SFRSYM    DATA     BYTE      TL0
      000000D0H.5 SFRSYM    DATA     BIT       PSW_F0
      000000A8H.6 SFRSYM    DATA     BIT       IE_ESPI0
      0000008BH   SFRSYM    DATA     BYTE      TL1
      000000F9H   SFRSYM    DATA     BYTE      PCA0L
      000000C0H   SFRSYM    DATA     BIT       SMB0CN0_SI
      000000D0H.1 SFRSYM    DATA     BIT       PSW_F1
      00000080H   SFRSYM    DATA     BIT       P0_B0
      000000B8H   SFRSYM    DATA     BIT       IP_PX0
      00000090H   SFRSYM    DATA     BIT       P1_B0
      00000080H.1 SFRSYM    DATA     BIT       P0_B1
LX51 LINKER/LOCATER V4.66.30.0                                                        08/12/2020  16:38:44  PAGE 52


      000000B8H.2 SFRSYM    DATA     BIT       IP_PX1
      0000009EH   SFRSYM    DATA     BYTE      UART1LIN
      0000009BH   SFRSYM    DATA     BYTE      CMP0CN0
      00000088H.1 SFRSYM    DATA     BIT       TCON_IE0
      000000A0H   SFRSYM    DATA     BIT       P2_B0
      00000090H.1 SFRSYM    DATA     BIT       P1_B1
      00000080H.2 SFRSYM    DATA     BIT       P0_B2
      000000BFH   SFRSYM    DATA     BYTE      CMP1CN0
      00000099H   SFRSYM    DATA     BYTE      CMP0CN1
      00000088H.3 SFRSYM    DATA     BIT       TCON_IE1
      000000B0H   SFRSYM    DATA     BIT       P3_B0
      000000A0H.1 SFRSYM    DATA     BIT       P2_B1
      00000090H.2 SFRSYM    DATA     BIT       P1_B2
      00000080H.3 SFRSYM    DATA     BIT       P0_B3
      000000C0H   SFRSYM    DATA     BYTE      SMB0CN0
      000000ACH   SFRSYM    DATA     BYTE      CMP1CN1
      000000B0H.1 SFRSYM    DATA     BIT       P3_B1
      000000A0H.2 SFRSYM    DATA     BIT       P2_B2
      00000090H.3 SFRSYM    DATA     BIT       P1_B3
      00000080H.4 SFRSYM    DATA     BIT       P0_B4
      000000A0H.3 SFRSYM    DATA     BIT       P2_B3
      00000090H.4 SFRSYM    DATA     BIT       P1_B4
      00000080H.5 SFRSYM    DATA     BIT       P0_B5
      000000D8H.1 SFRSYM    DATA     BIT       UART1FCN1_RXTO0
      00000090H.5 SFRSYM    DATA     BIT       P1_B5
      00000080H.6 SFRSYM    DATA     BIT       P0_B6
      000000F5H   SFRSYM    DATA     BYTE      EIP1H
      000000D8H.2 SFRSYM    DATA     BIT       UART1FCN1_RXTO1
      00000090H.6 SFRSYM    DATA     BIT       P1_B6
      00000080H.7 SFRSYM    DATA     BIT       P0_B7
      000000C5H   SFRSYM    DATA     BYTE      SMB0RXLN
      000000F6H   SFRSYM    DATA     BYTE      EIP2H
      00000090H.7 SFRSYM    DATA     BIT       P1_B7
      00000083H   SFRSYM    DATA     BYTE      DPH
      000000C4H   SFRSYM    DATA     BYTE      ADC0GTH
      000000C8H.7 SFRSYM    DATA     BIT       TMR2CN0_TF2H
      000000C8H.3 SFRSYM    DATA     BIT       TMR2CN0_T2SPLIT
      000000D0H.6 SFRSYM    DATA     BIT       PSW_AC
      000000F8H   SFRSYM    DATA     BYTE      SPI0CN0
      000000C7H   SFRSYM    DATA     BYTE      HFO0CAL
      00000088H.5 SFRSYM    DATA     BIT       TCON_TF0
      00000098H   SFRSYM    DATA     BIT       SCON0_RI
      000000D6H   SFRSYM    DATA     BYTE      HFO1CAL
      00000082H   SFRSYM    DATA     BYTE      DPL
      00000088H.7 SFRSYM    DATA     BIT       TCON_TF1
      000000C8H   SFRSYM    DATA     BIT       SCON1_RI
      00000099H   SFRSYM    DATA     BYTE      SBUF0
      00000087H   SFRSYM    DATA     BYTE      PCON0
      000000F2H   SFRSYM    DATA     BYTE      IPH
      000000C3H   SFRSYM    DATA     BYTE      ADC0GTL
      00000098H.7 SFRSYM    DATA     BIT       TMR4CN0_TF4H
      00000098H.3 SFRSYM    DATA     BIT       TMR4CN0_T4SPLIT
      000000C8H.6 SFRSYM    DATA     BIT       TMR2CN0_TF2L
      00000098H.1 SFRSYM    DATA     BIT       SCON0_TI
      000000E8H   SFRSYM    DATA     BIT       ADC0CN0_ADCM0
      00000092H   SFRSYM    DATA     BYTE      SBUF1
      0000009AH   SFRSYM    DATA     BYTE      PCON1
      000000C6H   SFRSYM    DATA     BYTE      ADC0LTH
      00000088H   SFRSYM    DATA     BIT       TCON_IT0
      000000C8H.1 SFRSYM    DATA     BIT       SCON1_TI
      000000E8H.1 SFRSYM    DATA     BIT       ADC0CN0_ADCM1
      000000EFH   SFRSYM    DATA     BYTE      RSTSRC
LX51 LINKER/LOCATER V4.66.30.0                                                        08/12/2020  16:38:44  PAGE 53


      000000FDH   SFRSYM    DATA     BYTE      P0MAT
      000000DEH   SFRSYM    DATA     BYTE      CRC0DAT
      00000088H.2 SFRSYM    DATA     BIT       TCON_IT1
      000000E8H.2 SFRSYM    DATA     BIT       ADC0CN0_ADCM2
      000000D7H   SFRSYM    DATA     BYTE      SFRSTACK
      00000098H   SFRSYM    DATA     BYTE      SCON0
      000000F6H   SFRSYM    DATA     BYTE      PRTDRV
      000000EDH   SFRSYM    DATA     BYTE      P1MAT
      000000E8H.3 SFRSYM    DATA     BIT       ADC0CN0_ADWINT
      00000095H   SFRSYM    DATA     WORD      SBRL1
      00000093H   SFRSYM    DATA     BYTE      SMOD1
      000000C8H   SFRSYM    DATA     BYTE      SCON1
      000000FBH   SFRSYM    DATA     BYTE      P2MAT
      00000098H.6 SFRSYM    DATA     BIT       TMR4CN0_TF4L
      000000E8H.4 SFRSYM    DATA     BIT       ADC0CN0_ADBUSY
      000000D6H   SFRSYM    DATA     BYTE      SMB0ADM
      000000C5H   SFRSYM    DATA     BYTE      ADC0LTL
      000000F8H.5 SFRSYM    DATA     BIT       SPI0CN0_MODF
      000000B8H.6 SFRSYM    DATA     BIT       IP_PSPI0
      0000009CH   SFRSYM    DATA     BYTE      PCA0CLR
      000000C8H   SFRSYM    DATA     BYTE      TMR2CN0
      00000091H   SFRSYM    DATA     BYTE      TMR3CN0
      000000FDH   SFRSYM    DATA     BYTE      TMR2CN1
      00000098H   SFRSYM    DATA     BYTE      TMR4CN0
      000000FEH   SFRSYM    DATA     BYTE      TMR3CN1
      000000FFH   SFRSYM    DATA     BYTE      TMR4CN1
      000000D7H   SFRSYM    DATA     BYTE      SMB0ADR
      00000088H.4 SFRSYM    DATA     BIT       TCON_TR0
      000000C8H.4 SFRSYM    DATA     BIT       TMR2CN0_TF2CEN
      00000088H.6 SFRSYM    DATA     BIT       TCON_TR1
      000000C2H   SFRSYM    DATA     BYTE      SMB0DAT
      000000CDH   SFRSYM    DATA     BYTE      TMR2H
      000000A1H   SFRSYM    DATA     BYTE      SPI0CFG
      00000095H   SFRSYM    DATA     BYTE      TMR3H
      000000EFH   SFRSYM    DATA     BYTE      HFOCN
      000000D3H   SFRSYM    DATA     BYTE      CRC0CNT
      000000A5H   SFRSYM    DATA     BYTE      TMR4H
      00000098H.4 SFRSYM    DATA     BIT       TMR4CN0_TF4CEN
      000000EFH   SFRSYM    DATA     BYTE      SMB0FCT
      00000096H   SFRSYM    DATA     BYTE      PCA0POL
      000000CCH   SFRSYM    DATA     BYTE      TMR2L
      000000F8H.7 SFRSYM    DATA     BIT       SPI0CN0_SPIF
      00000094H   SFRSYM    DATA     BYTE      TMR3L
      000000DFH   SFRSYM    DATA     BYTE      ADC0PWR
      000000A8H.7 SFRSYM    DATA     BIT       IE_EA
      000000A4H   SFRSYM    DATA     BYTE      TMR4L
      000000C8H.5 SFRSYM    DATA     BIT       TMR2CN0_TF2LEN
      000000F8H.6 SFRSYM    DATA     BIT       SPI0CN0_WCOL
      000000F8H.2 SFRSYM    DATA     BIT       SPI0CN0_NSSMD0
      000000D0H.7 SFRSYM    DATA     BIT       PSW_CY
      0000009DH   SFRSYM    DATA     BYTE      UART1FCN0
      000000A3H   SFRSYM    DATA     BYTE      SPI0DAT
      000000ADH   SFRSYM    DATA     BYTE      I2C0FCN0
      000000F8H.3 SFRSYM    DATA     BIT       SPI0CN0_NSSMD1
      000000BDH   SFRSYM    DATA     WORD      ADC0
      000000D8H   SFRSYM    DATA     BYTE      UART1FCN1
      000000ABH   SFRSYM    DATA     BYTE      I2C0FCN1
      00000098H.5 SFRSYM    DATA     BIT       TMR4CN0_TF4LEN
      000000D0H   SFRSYM    DATA     BYTE      PSW
      000000F7H   SFRSYM    DATA     BYTE      PCA0PWM
      000000F7H   SFRSYM    DATA     BYTE      SPI0FCT
      000000B6H   SFRSYM    DATA     BYTE      REVID
LX51 LINKER/LOCATER V4.66.30.0                                                        08/12/2020  16:38:44  PAGE 54


      000000B7H   SFRSYM    DATA     BYTE      FLKEY
      000000B3H   SFRSYM    DATA     BYTE      ADC0AC
      00000007H   SYMBOL    DATA     BYTE      i
      00000002H   SYMBOL    DATA     WORD      i

      0100323DH   BLOCK     CODE     ---       LVL=0
      0100323DH   BLOCK     CODE     NEAR LAB  LVL=1
      00000007H   SYMBOL    DATA     BYTE      i
      ---         BLOCKEND  ---      ---       LVL=1
      0100323DH   LINE      CODE     ---       #243
      0100323DH   LINE      CODE     ---       #244
      0100323DH   LINE      CODE     ---       #246
      01003243H   LINE      CODE     ---       #247
      01003248H   LINE      CODE     ---       #248
      0100324EH   LINE      CODE     ---       #249
      01003250H   LINE      CODE     ---       #250
      01003250H   LINE      CODE     ---       #251
      0100325DH   LINE      CODE     ---       #252
      0100326AH   LINE      CODE     ---       #253
      01003276H   LINE      CODE     ---       #254
      0100327CH   LINE      CODE     ---       #255
      01003281H   LINE      CODE     ---       #256
      01003287H   LINE      CODE     ---       #257
      0100328CH   LINE      CODE     ---       #258
      ---         BLOCKEND  ---      ---       LVL=0

      01003592H   BLOCK     CODE     ---       LVL=0
      01003592H   LINE      CODE     ---       #261
      01003592H   LINE      CODE     ---       #262
      01003592H   LINE      CODE     ---       #263
      010035A0H   LINE      CODE     ---       #264
      010035AFH   LINE      CODE     ---       #265
      010035AFH   LINE      CODE     ---       #266
      010035BBH   LINE      CODE     ---       #267
      010035BBH   LINE      CODE     ---       #268
      ---         BLOCKEND  ---      ---       LVL=0

      01002CF7H   BLOCK     CODE     ---       LVL=0
      01002CF7H   BLOCK     CODE     NEAR LAB  LVL=1
      020003B6H   SYMBOL    XDATA    BYTE      i
      ---         BLOCKEND  ---      ---       LVL=1
      01002CF7H   LINE      CODE     ---       #346
      01002CF7H   LINE      CODE     ---       #347
      01002CF7H   LINE      CODE     ---       #350
      01002CFAH   LINE      CODE     ---       #351
      01002D00H   LINE      CODE     ---       #352
      01002D00H   LINE      CODE     ---       #353
      01002D02H   LINE      CODE     ---       #354
      01002D04H   LINE      CODE     ---       #355
      01002D0BH   LINE      CODE     ---       #356
      01002D1BH   LINE      CODE     ---       #357
      01002D2BH   LINE      CODE     ---       #358
      01002D37H   LINE      CODE     ---       #359
      01002D39H   LINE      CODE     ---       #360
      01002D3BH   LINE      CODE     ---       #361
      01002D42H   LINE      CODE     ---       #362
      01002D52H   LINE      CODE     ---       #363
      01002D62H   LINE      CODE     ---       #364
      01002D68H   LINE      CODE     ---       #365
      01002D74H   LINE      CODE     ---       #366
      01002D76H   LINE      CODE     ---       #367
      01002D78H   LINE      CODE     ---       #368
LX51 LINKER/LOCATER V4.66.30.0                                                        08/12/2020  16:38:44  PAGE 55


      01002D82H   LINE      CODE     ---       #369
      ---         BLOCKEND  ---      ---       LVL=0

      010036ADH   BLOCK     CODE     ---       LVL=0
      010036ADH   LINE      CODE     ---       #376
      010036ADH   LINE      CODE     ---       #377
      010036ADH   LINE      CODE     ---       #378
      010036BAH   LINE      CODE     ---       #379
      010036BAH   LINE      CODE     ---       #380
      010036C6H   LINE      CODE     ---       #381
      010036C7H   LINE      CODE     ---       #383
      010036C7H   LINE      CODE     ---       #384
      010036D2H   LINE      CODE     ---       #385
      010036D2H   LINE      CODE     ---       #386
      ---         BLOCKEND  ---      ---       LVL=0

      01002449H   BLOCK     CODE     ---       LVL=0
      01002449H   LINE      CODE     ---       #398
      01002449H   LINE      CODE     ---       #399
      01002449H   LINE      CODE     ---       #400
      01002456H   LINE      CODE     ---       #401
      01002456H   LINE      CODE     ---       #402
      0100247CH   LINE      CODE     ---       #404
      0100247CH   LINE      CODE     ---       #405
      01002483H   LINE      CODE     ---       #406
      010024A0H   LINE      CODE     ---       #407
      010024A9H   LINE      CODE     ---       #408
      010024A9H   LINE      CODE     ---       #409
      010024ACH   LINE      CODE     ---       #410
      010024ACH   LINE      CODE     ---       #411
      010024AEH   LINE      CODE     ---       #412
      010024D4H   LINE      CODE     ---       #414
      010024D4H   LINE      CODE     ---       #415
      010024DCH   LINE      CODE     ---       #416
      010024E6H   LINE      CODE     ---       #417
      010024E8H   LINE      CODE     ---       #419
      010024E8H   LINE      CODE     ---       #420
      010024F1H   LINE      CODE     ---       #421
      010024F1H   LINE      CODE     ---       #422
      010024F4H   LINE      CODE     ---       #423
      010024F4H   LINE      CODE     ---       #424
      010024F4H   LINE      CODE     ---       #425
      01002503H   LINE      CODE     ---       #426
      01002503H   LINE      CODE     ---       #427
      0100250AH   LINE      CODE     ---       #428
      0100250AH   LINE      CODE     ---       #429
      0100250CH   LINE      CODE     ---       #431
      0100250CH   LINE      CODE     ---       #433
      01002533H   LINE      CODE     ---       #435
      01002533H   LINE      CODE     ---       #436
      0100253CH   LINE      CODE     ---       #437
      0100253CH   LINE      CODE     ---       #438
      0100253FH   LINE      CODE     ---       #439
      0100253FH   LINE      CODE     ---       #440
      01002541H   LINE      CODE     ---       #442
      01002541H   LINE      CODE     ---       #444
      0100254AH   LINE      CODE     ---       #445
      0100254AH   LINE      CODE     ---       #446
      0100254DH   LINE      CODE     ---       #447
      0100254DH   LINE      CODE     ---       #448
      0100254DH   LINE      CODE     ---       #449
      0100254DH   LINE      CODE     ---       #450
LX51 LINKER/LOCATER V4.66.30.0                                                        08/12/2020  16:38:44  PAGE 56


      ---         BLOCKEND  ---      ---       LVL=0

      01003830H   BLOCK     CODE     ---       LVL=0
      01003830H   LINE      CODE     ---       #457
      01003830H   LINE      CODE     ---       #458
      01003830H   LINE      CODE     ---       #459
      01003833H   LINE      CODE     ---       #460
      01003836H   LINE      CODE     ---       #461
      ---         BLOCKEND  ---      ---       LVL=0

      01003839H   BLOCK     CODE     ---       LVL=0
      01003839H   LINE      CODE     ---       #464
      01003839H   LINE      CODE     ---       #465
      01003839H   LINE      CODE     ---       #466
      0100383CH   LINE      CODE     ---       #467
      ---         BLOCKEND  ---      ---       LVL=0

      0100383FH   BLOCK     CODE     ---       LVL=0
      0100383FH   LINE      CODE     ---       #470
      0100383FH   LINE      CODE     ---       #471
      0100383FH   LINE      CODE     ---       #472
      01003844H   LINE      CODE     ---       #473
      ---         BLOCKEND  ---      ---       LVL=0

      01002E0FH   BLOCK     CODE     ---       LVL=0
      01002E0FH   BLOCK     CODE     NEAR LAB  LVL=1
      00000007H   SYMBOL    DATA     BYTE      i
      ---         BLOCKEND  ---      ---       LVL=1
      01002E0FH   LINE      CODE     ---       #478
      01002E0FH   LINE      CODE     ---       #479
      01002E0FH   LINE      CODE     ---       #481
      01002E23H   LINE      CODE     ---       #482
      01002E35H   LINE      CODE     ---       #483
      01002E48H   LINE      CODE     ---       #484
      01002E58H   LINE      CODE     ---       #486
      01002E5EH   LINE      CODE     ---       #487
      01002E63H   LINE      CODE     ---       #488
      01002E69H   LINE      CODE     ---       #489
      01002E6FH   LINE      CODE     ---       #491
      01002E70H   LINE      CODE     ---       #492
      01002E70H   LINE      CODE     ---       #493
      01002E8EH   LINE      CODE     ---       #494
      01002E93H   LINE      CODE     ---       #495
      ---         BLOCKEND  ---      ---       LVL=0

      0100328FH   BLOCK     CODE     ---       LVL=0
      0100328FH   BLOCK     CODE     NEAR LAB  LVL=1
      00000007H   SYMBOL    DATA     BYTE      i
      ---         BLOCKEND  ---      ---       LVL=1
      0100328FH   LINE      CODE     ---       #500
      0100328FH   LINE      CODE     ---       #501
      0100328FH   LINE      CODE     ---       #503
      01003294H   LINE      CODE     ---       #504
      01003298H   LINE      CODE     ---       #505
      0100329EH   LINE      CODE     ---       #506
      010032A1H   LINE      CODE     ---       #507
      010032A5H   LINE      CODE     ---       #509
      010032A9H   LINE      CODE     ---       #510
      010032AEH   LINE      CODE     ---       #511
      010032B0H   LINE      CODE     ---       #512
      010032B0H   LINE      CODE     ---       #513
      010032C0H   LINE      CODE     ---       #514
LX51 LINKER/LOCATER V4.66.30.0                                                        08/12/2020  16:38:44  PAGE 57


      010032C5H   LINE      CODE     ---       #515
      010032C7H   LINE      CODE     ---       #516
      010032C7H   LINE      CODE     ---       #517
      010032D4H   LINE      CODE     ---       #518
      010032D9H   LINE      CODE     ---       #519
      ---         BLOCKEND  ---      ---       LVL=0

      010035BCH   BLOCK     CODE     ---       LVL=0
      010035BCH   BLOCK     CODE     NEAR LAB  LVL=1
      00000006H   SYMBOL    DATA     WORD      i
      ---         BLOCKEND  ---      ---       LVL=1
      010035BCH   LINE      CODE     ---       #524
      010035BCH   LINE      CODE     ---       #525
      010035BCH   LINE      CODE     ---       #527
      010035BFH   LINE      CODE     ---       #528
      010035BFH   LINE      CODE     ---       #529
      010035CBH   LINE      CODE     ---       #530
      010035D6H   LINE      CODE     ---       #531
      010035DDH   LINE      CODE     ---       #532
      010035E3H   LINE      CODE     ---       #533
      ---         BLOCKEND  ---      ---       LVL=0

      0100305FH   BLOCK     CODE     ---       LVL=0
      020003BEH   SYMBOL    XDATA    WORD      ObsTime
      00000004H   SYMBOL    DATA     WORD      EchoWidth
      00000001H   SYMBOL    DATA     BYTE      VolHeight
      01003069H   BLOCK     CODE     NEAR LAB  LVL=1
      00000003H   SYMBOL    DATA     BYTE      ret
      00000007H   SYMBOL    DATA     BYTE      Index
      ---         BLOCKEND  ---      ---       LVL=1
      0100305FH   LINE      CODE     ---       #536
      01003069H   LINE      CODE     ---       #537
      01003069H   LINE      CODE     ---       #538
      0100306BH   LINE      CODE     ---       #541
      01003072H   LINE      CODE     ---       #542
      0100309DH   LINE      CODE     ---       #543
      0100309DH   LINE      CODE     ---       #544
      010030B3H   LINE      CODE     ---       #545
      010030C1H   LINE      CODE     ---       #546
      010030C1H   LINE      CODE     ---       #547
      010030C3H   LINE      CODE     ---       #548
      ---         BLOCKEND  ---      ---       LVL=0

      01002F19H   BLOCK     CODE     ---       LVL=0
      01002F19H   LINE      CODE     ---       #553
      01002F19H   LINE      CODE     ---       #554
      01002F19H   LINE      CODE     ---       #555
      01002F2DH   LINE      CODE     ---       #556
      01002F3DH   LINE      CODE     ---       #557
      01002F4DH   LINE      CODE     ---       #558
      01002F62H   LINE      CODE     ---       #559
      01002F7BH   LINE      CODE     ---       #560
      01002F8BH   LINE      CODE     ---       #561
      ---         BLOCKEND  ---      ---       LVL=0

      01003324H   BLOCK     CODE     ---       LVL=0
      020003BDH   SYMBOL    XDATA    ---       SP
      020003C0H   SYMBOL    XDATA    ---       EP
      020003C3H   SYMBOL    XDATA    BYTE      Len
      0100332FH   BLOCK     CODE     NEAR LAB  LVL=1
      00000007H   SYMBOL    DATA     BYTE      i
      ---         BLOCKEND  ---      ---       LVL=1
LX51 LINKER/LOCATER V4.66.30.0                                                        08/12/2020  16:38:44  PAGE 58


      01003324H   LINE      CODE     ---       #563
      0100332FH   LINE      CODE     ---       #564
      0100332FH   LINE      CODE     ---       #566
      0100333BH   LINE      CODE     ---       #567
      0100333BH   LINE      CODE     ---       #568
      01003363H   LINE      CODE     ---       #569
      01003366H   LINE      CODE     ---       #570
      ---         BLOCKEND  ---      ---       LVL=0

      0100167CH   BLOCK     CODE     ---       LVL=0
      0100167CH   BLOCK     CODE     NEAR LAB  LVL=1
      00000007H   SYMBOL    DATA     BYTE      i
      00000006H   SYMBOL    DATA     BYTE      j
      020003B6H   SYMBOL    XDATA    BYTE      temp
      00000001H   SYMBOL    DATA     BYTE      add
      020003B7H   SYMBOL    XDATA    WORD      AdLow
      020003B9H   SYMBOL    XDATA    WORD      AdMid
      020003BBH   SYMBOL    XDATA    WORD      AdHigh
      ---         BLOCKEND  ---      ---       LVL=1
      0100167CH   LINE      CODE     ---       #573
      0100167CH   LINE      CODE     ---       #574
      0100167CH   LINE      CODE     ---       #580
      010016A3H   LINE      CODE     ---       #582
      010016ABH   LINE      CODE     ---       #584
      010016BFH   LINE      CODE     ---       #585
      010016BFH   LINE      CODE     ---       #586
      010016D4H   LINE      CODE     ---       #587
      010016D4H   LINE      CODE     ---       #588
      010016F0H   LINE      CODE     ---       #589
      010016F0H   LINE      CODE     ---       #590
      010016F5H   LINE      CODE     ---       #591
      01001701H   LINE      CODE     ---       #592
      0100170DH   LINE      CODE     ---       #593
      0100170DH   LINE      CODE     ---       #594
      01001710H   LINE      CODE     ---       #595
      01001713H   LINE      CODE     ---       #596
      0100171AH   LINE      CODE     ---       #597
      0100171EH   LINE      CODE     ---       #598
      01001722H   LINE      CODE     ---       #599
      01001737H   LINE      CODE     ---       #600
      01001737H   LINE      CODE     ---       #601
      01001750H   LINE      CODE     ---       #602
      01001769H   LINE      CODE     ---       #603
      01001782H   LINE      CODE     ---       #604
      01001785H   LINE      CODE     ---       #605
      01001797H   LINE      CODE     ---       #606
      010017A7H   LINE      CODE     ---       #607
      010017BFH   LINE      CODE     ---       #609
      010017DDH   LINE      CODE     ---       #611
      010017E2H   LINE      CODE     ---       #612
      010017E2H   LINE      CODE     ---       #613
      010017E9H   LINE      CODE     ---       #614
      010017EFH   LINE      CODE     ---       #615
      010017F9H   LINE      CODE     ---       #616
      010017F9H   LINE      CODE     ---       #622
      01001803H   LINE      CODE     ---       #623
      01001803H   LINE      CODE     ---       #624
      01001806H   LINE      CODE     ---       #625
      0100181AH   LINE      CODE     ---       #626
      0100181CH   LINE      CODE     ---       #627
      01001829H   LINE      CODE     ---       #628
      01001829H   LINE      CODE     ---       #629
LX51 LINKER/LOCATER V4.66.30.0                                                        08/12/2020  16:38:44  PAGE 59


      01001836H   LINE      CODE     ---       #630
      01001838H   LINE      CODE     ---       #632
      01001838H   LINE      CODE     ---       #633
      01001844H   LINE      CODE     ---       #634
      01001844H   LINE      CODE     ---       #635
      0100185CH   LINE      CODE     ---       #637
      ---         BLOCKEND  ---      ---       LVL=0

      01001A36H   BLOCK     CODE     ---       LVL=0
      01001A36H   BLOCK     CODE     NEAR LAB  LVL=1
      00000002H   SYMBOL    DATA     WORD      i
      020003BEH   SYMBOL    XDATA    WORD      j
      020003C0H   SYMBOL    XDATA    WORD      k
      00000007H   SYMBOL    DATA     BYTE      Temp
      ---         BLOCKEND  ---      ---       LVL=1
      01001A36H   LINE      CODE     ---       #642
      01001A36H   LINE      CODE     ---       #643
      01001A36H   LINE      CODE     ---       #644
      01001A39H   LINE      CODE     ---       #645
      01001A3FH   LINE      CODE     ---       #646
      01001A43H   LINE      CODE     ---       #647
      01001A44H   LINE      CODE     ---       #650
      01001A51H   LINE      CODE     ---       #651
      01001A51H   LINE      CODE     ---       #652
      01001A5EH   LINE      CODE     ---       #653
      01001A5EH   LINE      CODE     ---       #654
      01001A5FH   LINE      CODE     ---       #655
      01001A68H   LINE      CODE     ---       #656
      01001A70H   LINE      CODE     ---       #657
      01001A70H   LINE      CODE     ---       #658
      01001A76H   LINE      CODE     ---       #659
      01001A76H   LINE      CODE     ---       #660
      01001A78H   LINE      CODE     ---       #661
      01001A78H   LINE      CODE     ---       #662
      01001A7FH   LINE      CODE     ---       #663
      01001A8FH   LINE      CODE     ---       #664
      01001A8FH   LINE      CODE     ---       #665
      01001A9BH   LINE      CODE     ---       #666
      01001AA2H   LINE      CODE     ---       #670
      01001ABBH   LINE      CODE     ---       #671
      01001ABBH   LINE      CODE     ---       #672
      01001AC8H   LINE      CODE     ---       #673
      01001AC8H   LINE      CODE     ---       #676
      01001AC8H   LINE      CODE     ---       #677
      01001AE0H   LINE      CODE     ---       #678
      01001AE0H   LINE      CODE     ---       #679
      01001AE0H   LINE      CODE     ---       #680
      01001AE7H   LINE      CODE     ---       #684
      01001B03H   LINE      CODE     ---       #685
      01001B03H   LINE      CODE     ---       #686
      01001B4EH   LINE      CODE     ---       #688
      01001B4EH   LINE      CODE     ---       #689
      01001B73H   LINE      CODE     ---       #690
      01001B73H   LINE      CODE     ---       #691
      01001B9AH   LINE      CODE     ---       #692
      01001B9AH   LINE      CODE     ---       #693
      01001BAEH   LINE      CODE     ---       #694
      01001BCAH   LINE      CODE     ---       #695
      01001BCAH   LINE      CODE     ---       #696
      01001BE2H   LINE      CODE     ---       #697
      01001BF2H   LINE      CODE     ---       #698
      01001BF2H   LINE      CODE     ---       #699
LX51 LINKER/LOCATER V4.66.30.0                                                        08/12/2020  16:38:44  PAGE 60


      01001BF2H   LINE      CODE     ---       #700
      01001C03H   LINE      CODE     ---       #701
      01001C03H   LINE      CODE     ---       #702
      01001C0BH   LINE      CODE     ---       #704
      ---         BLOCKEND  ---      ---       LVL=0

      010009FEH   BLOCK     CODE     ---       LVL=0
      010009FEH   BLOCK     CODE     NEAR LAB  LVL=1
      020003B6H   SYMBOL    XDATA    WORD      i
      00000007H   SYMBOL    DATA     BYTE      Distc
      020003B8H   SYMBOL    XDATA    WORD      EchoWidth
      020003BAH   SYMBOL    XDATA    WORD      ObsStartThre
      020003BCH   SYMBOL    XDATA    WORD      ObsExitThreFixed
      ---         BLOCKEND  ---      ---       LVL=1
      010009FEH   LINE      CODE     ---       #706
      010009FEH   LINE      CODE     ---       #707
      010009FEH   LINE      CODE     ---       #716
      01000A20H   LINE      CODE     ---       #718
      01000A32H   LINE      CODE     ---       #721
      01000A35H   LINE      CODE     ---       #723
      01000A47H   LINE      CODE     ---       #726
      01000A65H   LINE      CODE     ---       #727
      01000A65H   LINE      CODE     ---       #728
      01000AAEH   LINE      CODE     ---       #729
      01000AD0H   LINE      CODE     ---       #730
      01000AD0H   LINE      CODE     ---       #731
      01000AD6H   LINE      CODE     ---       #732
      01000AD6H   LINE      CODE     ---       #735
      01000AD6H   LINE      CODE     ---       #736
      01000AD8H   LINE      CODE     ---       #737
      01000ADDH   LINE      CODE     ---       #738
      01000AF6H   LINE      CODE     ---       #739
      01000AFBH   LINE      CODE     ---       #740
      01000AFDH   LINE      CODE     ---       #741
      01000B03H   LINE      CODE     ---       #742
      01000B03H   LINE      CODE     ---       #743
      01000B03H   LINE      CODE     ---       #744
      01000B03H   LINE      CODE     ---       #746
      01000B34H   LINE      CODE     ---       #747
      01000B34H   LINE      CODE     ---       #748
      01000B3FH   LINE      CODE     ---       #749
      01000B3FH   LINE      CODE     ---       #752
      01000B3FH   LINE      CODE     ---       #753
      01000B40H   LINE      CODE     ---       #754
      01000B57H   LINE      CODE     ---       #756
      01000B57H   LINE      CODE     ---       #757
      01000B6BH   LINE      CODE     ---       #758
      01000B6BH   LINE      CODE     ---       #759
      01000B7AH   LINE      CODE     ---       #761
      01000B8FH   LINE      CODE     ---       #762
      01000B8FH   LINE      CODE     ---       #763
      01000BC6H   LINE      CODE     ---       #764
      01000BE0H   LINE      CODE     ---       #765
      01000BF1H   LINE      CODE     ---       #766
      01000BF4H   LINE      CODE     ---       #767
      01000BF4H   LINE      CODE     ---       #770
      01000C14H   LINE      CODE     ---       #774
      01000C1DH   LINE      CODE     ---       #775
      01000C1DH   LINE      CODE     ---       #776
      01000C35H   LINE      CODE     ---       #777
      01000C39H   LINE      CODE     ---       #778
      01000C39H   LINE      CODE     ---       #779
LX51 LINKER/LOCATER V4.66.30.0                                                        08/12/2020  16:38:44  PAGE 61


      01000C67H   LINE      CODE     ---       #780
      01000C7CH   LINE      CODE     ---       #781
      01000C7CH   LINE      CODE     ---       #782
      01000C8BH   LINE      CODE     ---       #783
      01000C93H   LINE      CODE     ---       #785
      01000C93H   LINE      CODE     ---       #786
      01000CA7H   LINE      CODE     ---       #787
      01000CA7H   LINE      CODE     ---       #788
      01000CA7H   LINE      CODE     ---       #789
      01000CA7H   LINE      CODE     ---       #790
      01000CA7H   LINE      CODE     ---       #791
      01000CA7H   LINE      CODE     ---       #793
      01000CAFH   LINE      CODE     ---       #794
      01000CAFH   LINE      CODE     ---       #795
      01000CBDH   LINE      CODE     ---       #796
      01000CD7H   LINE      CODE     ---       #797
      01000CD7H   LINE      CODE     ---       #798
      01000CD9H   LINE      CODE     ---       #799
      01000CD9H   LINE      CODE     ---       #802
      01000CFFH   LINE      CODE     ---       #803
      01000CFFH   LINE      CODE     ---       #804
      01000D14H   LINE      CODE     ---       #805
      01000D14H   LINE      CODE     ---       #806
      01000D19H   LINE      CODE     ---       #807
      01000D19H   LINE      CODE     ---       #808
      01000D19H   LINE      CODE     ---       #809
      01000D19H   LINE      CODE     ---       #810
      01000D2DH   LINE      CODE     ---       #812
      01000D41H   LINE      CODE     ---       #814
      ---         BLOCKEND  ---      ---       LVL=0

      010021D5H   BLOCK     CODE     ---       LVL=0
      010021D5H   BLOCK     CODE     NEAR LAB  LVL=1
      020003BDH   SYMBOL    XDATA    WORD      i
      ---         BLOCKEND  ---      ---       LVL=1
      010021D5H   LINE      CODE     ---       #816
      010021D5H   LINE      CODE     ---       #817
      010021D5H   LINE      CODE     ---       #818
      010021DCH   LINE      CODE     ---       #820
      010021EEH   LINE      CODE     ---       #823
      0100220CH   LINE      CODE     ---       #824
      0100220CH   LINE      CODE     ---       #825
      01002255H   LINE      CODE     ---       #826
      0100227CH   LINE      CODE     ---       #827
      0100227CH   LINE      CODE     ---       #828
      01002282H   LINE      CODE     ---       #829
      01002282H   LINE      CODE     ---       #832
      01002282H   LINE      CODE     ---       #833
      01002284H   LINE      CODE     ---       #834
      01002289H   LINE      CODE     ---       #835
      0100228FH   LINE      CODE     ---       #836
      0100228FH   LINE      CODE     ---       #837
      0100228FH   LINE      CODE     ---       #838
      01002291H   LINE      CODE     ---       #839
      0100229FH   LINE      CODE     ---       #840
      0100229FH   LINE      CODE     ---       #841
      010022A6H   LINE      CODE     ---       #842
      010022A6H   LINE      CODE     ---       #845
      010022A6H   LINE      CODE     ---       #846
      010022A8H   LINE      CODE     ---       #847
      010022C0H   LINE      CODE     ---       #849
      010022C0H   LINE      CODE     ---       #850
LX51 LINKER/LOCATER V4.66.30.0                                                        08/12/2020  16:38:44  PAGE 62


      010022D4H   LINE      CODE     ---       #851
      010022D4H   LINE      CODE     ---       #852
      010022D4H   LINE      CODE     ---       #853
      010022D4H   LINE      CODE     ---       #854
      010022D4H   LINE      CODE     ---       #856
      010022DBH   LINE      CODE     ---       #857
      010022DBH   LINE      CODE     ---       #858
      010022E9H   LINE      CODE     ---       #859
      01002303H   LINE      CODE     ---       #860
      01002303H   LINE      CODE     ---       #861
      01002305H   LINE      CODE     ---       #862
      01002305H   LINE      CODE     ---       #863
      01002305H   LINE      CODE     ---       #864
      01002319H   LINE      CODE     ---       #865
      ---         BLOCKEND  ---      ---       LVL=0

      01001463H   BLOCK     CODE     ---       LVL=0
      01001463H   LINE      CODE     ---       #870
      01001463H   LINE      CODE     ---       #871
      01001463H   LINE      CODE     ---       #872
      0100148EH   LINE      CODE     ---       #873
      0100148EH   LINE      CODE     ---       #874
      0100148EH   LINE      CODE     ---       #876
      01001491H   LINE      CODE     ---       #878
      0100149CH   LINE      CODE     ---       #879
      0100149CH   LINE      CODE     ---       #880
      0100149DH   LINE      CODE     ---       #881
      010014A0H   LINE      CODE     ---       #882
      010014A5H   LINE      CODE     ---       #883
      010014ABH   LINE      CODE     ---       #884
      010014B0H   LINE      CODE     ---       #885
      010014B0H   LINE      CODE     ---       #887
      010014B1H   LINE      CODE     ---       #888
      010014B1H   LINE      CODE     ---       #889
      010014BCH   LINE      CODE     ---       #891
      010014BCH   LINE      CODE     ---       #892
      010014C2H   LINE      CODE     ---       #893
      010014C2H   LINE      CODE     ---       #894
      010014C3H   LINE      CODE     ---       #895
      010014C3H   LINE      CODE     ---       #896
      010014C9H   LINE      CODE     ---       #897
      010014CCH   LINE      CODE     ---       #898
      010014CFH   LINE      CODE     ---       #899
      010014D2H   LINE      CODE     ---       #900
      010014D5H   LINE      CODE     ---       #901
      010014DBH   LINE      CODE     ---       #902
      010014DCH   LINE      CODE     ---       #903
      010014DCH   LINE      CODE     ---       #904
      010014E7H   LINE      CODE     ---       #906
      010014E7H   LINE      CODE     ---       #907
      010014EAH   LINE      CODE     ---       #908
      010014EDH   LINE      CODE     ---       #909
      010014F3H   LINE      CODE     ---       #910
      010014F3H   LINE      CODE     ---       #911
      010014F4H   LINE      CODE     ---       #912
      010014F4H   LINE      CODE     ---       #913
      010014F7H   LINE      CODE     ---       #914
      010014FAH   LINE      CODE     ---       #915
      010014FDH   LINE      CODE     ---       #916
      01001500H   LINE      CODE     ---       #917
      01001503H   LINE      CODE     ---       #918
      01001509H   LINE      CODE     ---       #919
LX51 LINKER/LOCATER V4.66.30.0                                                        08/12/2020  16:38:44  PAGE 63


      01001527H   LINE      CODE     ---       #921
      0100152AH   LINE      CODE     ---       #922
      0100152DH   LINE      CODE     ---       #923
      0100152DH   LINE      CODE     ---       #924
      0100153AH   LINE      CODE     ---       #926
      0100153AH   LINE      CODE     ---       #927
      0100153DH   LINE      CODE     ---       #928
      01001540H   LINE      CODE     ---       #929
      01001546H   LINE      CODE     ---       #930
      01001546H   LINE      CODE     ---       #931
      01001547H   LINE      CODE     ---       #932
      01001547H   LINE      CODE     ---       #933
      0100154AH   LINE      CODE     ---       #941
      010015DAH   LINE      CODE     ---       #944
      010015DAH   LINE      CODE     ---       #945
      010015DFH   LINE      CODE     ---       #946
      010015E2H   LINE      CODE     ---       #947
      010015F6H   LINE      CODE     ---       #948
      010015F8H   LINE      CODE     ---       #950
      010015F8H   LINE      CODE     ---       #951
      010015FBH   LINE      CODE     ---       #952
      010015FBH   LINE      CODE     ---       #953
      01001601H   LINE      CODE     ---       #954
      01001602H   LINE      CODE     ---       #955
      01001602H   LINE      CODE     ---       #956
      01001605H   LINE      CODE     ---       #957
      01001612H   LINE      CODE     ---       #958
      0100161BH   LINE      CODE     ---       #959
      0100161BH   LINE      CODE     ---       #960
      0100161EH   LINE      CODE     ---       #961
      0100163CH   LINE      CODE     ---       #962
      01001644H   LINE      CODE     ---       #963
      01001644H   LINE      CODE     ---       #964
      01001646H   LINE      CODE     ---       #966
      01001646H   LINE      CODE     ---       #967
      01001649H   LINE      CODE     ---       #968
      0100164EH   LINE      CODE     ---       #969
      01001653H   LINE      CODE     ---       #970
      01001653H   LINE      CODE     ---       #971
      0100165CH   LINE      CODE     ---       #972
      01001662H   LINE      CODE     ---       #973
      01001663H   LINE      CODE     ---       #975
      01001663H   LINE      CODE     ---       #976
      0100166AH   LINE      CODE     ---       #977
      0100166AH   LINE      CODE     ---       #978
      0100166DH   LINE      CODE     ---       #979
      0100166EH   LINE      CODE     ---       #981
      0100166EH   LINE      CODE     ---       #982
      01001674H   LINE      CODE     ---       #983
      01001674H   LINE      CODE     ---       #985
      01001674H   LINE      CODE     ---       #986
      01001674H   LINE      CODE     ---       #987
      01001675H   LINE      CODE     ---       #988
      01001675H   LINE      CODE     ---       #989
      0100167BH   LINE      CODE     ---       #990
      0100167BH   LINE      CODE     ---       #991
      0100167BH   LINE      CODE     ---       #992
      ---         BLOCKEND  ---      ---       LVL=0

      01003129H   BLOCK     CODE     ---       LVL=0
      01003129H   BLOCK     CODE     NEAR LAB  LVL=1
      00000007H   SYMBOL    DATA     BYTE      i
LX51 LINKER/LOCATER V4.66.30.0                                                        08/12/2020  16:38:44  PAGE 64


      ---         BLOCKEND  ---      ---       LVL=1
      01003129H   LINE      CODE     ---       #994
      01003129H   LINE      CODE     ---       #995
      01003129H   LINE      CODE     ---       #997
      0100312EH   LINE      CODE     ---       #998
      01003132H   LINE      CODE     ---       #999
      01003146H   LINE      CODE     ---       #1000
      01003150H   LINE      CODE     ---       #1001
      0100315FH   LINE      CODE     ---       #1002
      01003165H   LINE      CODE     ---       #1003
      01003177H   LINE      CODE     ---       #1004
      01003179H   LINE      CODE     ---       #1005
      01003179H   LINE      CODE     ---       #1006
      01003186H   LINE      CODE     ---       #1007
      0100318BH   LINE      CODE     ---       #1008
      ---         BLOCKEND  ---      ---       LVL=0

      01002078H   BLOCK     CODE     ---       LVL=0
      01002078H   BLOCK     CODE     NEAR LAB  LVL=1
      00000005H   SYMBOL    DATA     BYTE      i
      00000006H   SYMBOL    DATA     BYTE      bDis
      00000007H   SYMBOL    DATA     BYTE      bDiff
      00000006H   SYMBOL    DATA     BYTE      bFrockDis
      ---         BLOCKEND  ---      ---       LVL=1
      01002078H   LINE      CODE     ---       #1013
      01002078H   LINE      CODE     ---       #1014
      01002078H   LINE      CODE     ---       #1019
      0100207AH   LINE      CODE     ---       #1020
      01002086H   LINE      CODE     ---       #1021
      01002086H   LINE      CODE     ---       #1022
      01002097H   LINE      CODE     ---       #1023
      01002097H   LINE      CODE     ---       #1024
      01002099H   LINE      CODE     ---       #1025
      01002099H   LINE      CODE     ---       #1026
      0100209CH   LINE      CODE     ---       #1027
      010020A1H   LINE      CODE     ---       #1031
      010020A3H   LINE      CODE     ---       #1032
      010020AFH   LINE      CODE     ---       #1033
      010020AFH   LINE      CODE     ---       #1034
      010020CDH   LINE      CODE     ---       #1035
      010020CDH   LINE      CODE     ---       #1036
      010020DAH   LINE      CODE     ---       #1037
      010020DAH   LINE      CODE     ---       #1038
      010020DDH   LINE      CODE     ---       #1040
      010020E9H   LINE      CODE     ---       #1041
      010020E9H   LINE      CODE     ---       #1042
      010020FAH   LINE      CODE     ---       #1043
      010020FAH   LINE      CODE     ---       #1044
      010020FCH   LINE      CODE     ---       #1045
      010020FCH   LINE      CODE     ---       #1046
      010020FFH   LINE      CODE     ---       #1048
      01002105H   LINE      CODE     ---       #1049
      01002105H   LINE      CODE     ---       #1050
      0100210AH   LINE      CODE     ---       #1051
      0100210AH   LINE      CODE     ---       #1052
      0100210DH   LINE      CODE     ---       #1053
      0100210FH   LINE      CODE     ---       #1055
      0100210FH   LINE      CODE     ---       #1056
      0100211EH   LINE      CODE     ---       #1059
      0100211EH   LINE      CODE     ---       #1061
      0100212DH   LINE      CODE     ---       #1062
      0100212DH   LINE      CODE     ---       #1063
LX51 LINKER/LOCATER V4.66.30.0                                                        08/12/2020  16:38:44  PAGE 65


      0100212DH   LINE      CODE     ---       #1064
      0100212DH   LINE      CODE     ---       #1066
      01002133H   LINE      CODE     ---       #1067
      01002133H   LINE      CODE     ---       #1086
      0100213DH   LINE      CODE     ---       #1087
      0100213DH   LINE      CODE     ---       #1088
      0100214DH   LINE      CODE     ---       #1089
      0100214DH   LINE      CODE     ---       #1090
      0100214FH   LINE      CODE     ---       #1092
      0100214FH   LINE      CODE     ---       #1093
      01002155H   LINE      CODE     ---       #1094
      01002155H   LINE      CODE     ---       #1095
      0100215FH   LINE      CODE     ---       #1096
      0100216DH   LINE      CODE     ---       #1098
      01002178H   LINE      CODE     ---       #1099
      01002178H   LINE      CODE     ---       #1100
      0100217AH   LINE      CODE     ---       #1101
      0100217EH   LINE      CODE     ---       #1102
      0100217EH   LINE      CODE     ---       #1103
      0100217EH   LINE      CODE     ---       #1104
      0100217EH   LINE      CODE     ---       #1105
      0100217EH   LINE      CODE     ---       #1107
      0100217EH   LINE      CODE     ---       #1108
      0100218DH   LINE      CODE     ---       #1109
      01002197H   LINE      CODE     ---       #1110
      01002197H   LINE      CODE     ---       #1111
      01002197H   LINE      CODE     ---       #1114
      01002199H   LINE      CODE     ---       #1115
      0100219BH   LINE      CODE     ---       #1116
      0100219BH   LINE      CODE     ---       #1117
      010021ACH   LINE      CODE     ---       #1118
      010021ACH   LINE      CODE     ---       #1119
      010021AEH   LINE      CODE     ---       #1120
      010021AEH   LINE      CODE     ---       #1121
      010021B3H   LINE      CODE     ---       #1123
      010021BDH   LINE      CODE     ---       #1124
      010021BDH   LINE      CODE     ---       #1127
      010021BFH   LINE      CODE     ---       #1128
      010021C4H   LINE      CODE     ---       #1129
      010021C4H   LINE      CODE     ---       #1131
      010021C6H   LINE      CODE     ---       #1132
      010021C6H   LINE      CODE     ---       #1133
      010021C7H   LINE      CODE     ---       #1135
      010021C7H   LINE      CODE     ---       #1137
      010021CDH   LINE      CODE     ---       #1138
      010021D2H   LINE      CODE     ---       #1139
      010021D2H   LINE      CODE     ---       #1141
      010021D4H   LINE      CODE     ---       #1142
      010021D4H   LINE      CODE     ---       #1143
      010021D4H   LINE      CODE     ---       #1146
      ---         BLOCKEND  ---      ---       LVL=0

      01002B2FH   BLOCK     CODE     ---       LVL=0
      01002B2FH   BLOCK     CODE     NEAR LAB  LVL=1
      00000004H   SYMBOL    DATA     WORD      wRingTimeDiff
      ---         BLOCKEND  ---      ---       LVL=1
      01002B2FH   LINE      CODE     ---       #1152
      01002B2FH   LINE      CODE     ---       #1153
      01002B2FH   LINE      CODE     ---       #1156
      01002B48H   LINE      CODE     ---       #1157
      01002B57H   LINE      CODE     ---       #1159
      01002B5DH   LINE      CODE     ---       #1160
LX51 LINKER/LOCATER V4.66.30.0                                                        08/12/2020  16:38:44  PAGE 66


      01002B5DH   LINE      CODE     ---       #1161
      01002B6CH   LINE      CODE     ---       #1162
      01002B6CH   LINE      CODE     ---       #1164
      01002B79H   LINE      CODE     ---       #1165
      01002B82H   LINE      CODE     ---       #1166
      01002B82H   LINE      CODE     ---       #1167
      01002B8BH   LINE      CODE     ---       #1168
      01002B8BH   LINE      CODE     ---       #1169
      01002B91H   LINE      CODE     ---       #1170
      01002B99H   LINE      CODE     ---       #1171
      01002B99H   LINE      CODE     ---       #1172
      01002B99H   LINE      CODE     ---       #1173
      01002B99H   LINE      CODE     ---       #1174
      01002B9BH   LINE      CODE     ---       #1176
      01002B9BH   LINE      CODE     ---       #1177
      01002BA4H   LINE      CODE     ---       #1178
      01002BA4H   LINE      CODE     ---       #1179
      01002BAAH   LINE      CODE     ---       #1180
      01002BB2H   LINE      CODE     ---       #1181
      01002BB2H   LINE      CODE     ---       #1182
      01002BB2H   LINE      CODE     ---       #1183
      01002BB2H   LINE      CODE     ---       #1184
      01002BB4H   LINE      CODE     ---       #1186
      01002BB4H   LINE      CODE     ---       #1187
      01002BC6H   LINE      CODE     ---       #1188
      01002BCCH   LINE      CODE     ---       #1189
      01002BCCH   LINE      CODE     ---       #1190
      01002BCFH   LINE      CODE     ---       #1191
      01002BCFH   LINE      CODE     ---       #1192
      01002BCFH   LINE      CODE     ---       #1193
      01002BCFH   LINE      CODE     ---       #1194
      01002BCFH   LINE      CODE     ---       #1195
      01002BCFH   LINE      CODE     ---       #1197
      01002BCFH   LINE      CODE     ---       #1198
      01002BCFH   LINE      CODE     ---       #1199
      01002BCFH   LINE      CODE     ---       #1200
      ---         BLOCKEND  ---      ---       LVL=0

      01000D42H   BLOCK     CODE     ---       LVL=0
      01000D42H   BLOCK     CODE     NEAR LAB  LVL=1
      020003B6H   SYMBOL    XDATA    WORD      RingTimeDiff
      020003B8H   SYMBOL    XDATA    BYTE      DistanceDiff
      020003B9H   SYMBOL    XDATA    ---       bObsDistance
      020003C3H   SYMBOL    XDATA    ---       bEPDObsDistance
      00000001H   SYMBOL    DATA     BYTE      k
      00000003H   SYMBOL    DATA     BYTE      i
      00000002H   SYMBOL    DATA     BYTE      j
      ---         BLOCKEND  ---      ---       LVL=1
      01000D42H   LINE      CODE     ---       #1206
      01000D42H   LINE      CODE     ---       #1207
      01000D42H   LINE      CODE     ---       #1212
      01000D44H   LINE      CODE     ---       #1215
      01000D4FH   LINE      CODE     ---       #1216
      01000D4FH   LINE      CODE     ---       #1217
      01000D50H   LINE      CODE     ---       #1219
      01000D51H   LINE      CODE     ---       #1220
      01000D6BH   LINE      CODE     ---       #1221
      01000D6BH   LINE      CODE     ---       #1222
      01000D88H   LINE      CODE     ---       #1223
      01000D88H   LINE      CODE     ---       #1224
      01000D94H   LINE      CODE     ---       #1225
      01000D95H   LINE      CODE     ---       #1226
LX51 LINKER/LOCATER V4.66.30.0                                                        08/12/2020  16:38:44  PAGE 67


      01000D95H   LINE      CODE     ---       #1227
      01000D98H   LINE      CODE     ---       #1228
      01000D9DH   LINE      CODE     ---       #1229
      01000DBAH   LINE      CODE     ---       #1231
      01000DC3H   LINE      CODE     ---       #1232
      01000DC3H   LINE      CODE     ---       #1233
      01000DCCH   LINE      CODE     ---       #1234
      01000DCCH   LINE      CODE     ---       #1235
      01000DF7H   LINE      CODE     ---       #1236
      01000DF7H   LINE      CODE     ---       #1237
      01000DF7H   LINE      CODE     ---       #1238
      01000DF7H   LINE      CODE     ---       #1239
      01000DF7H   LINE      CODE     ---       #1240
      01000DF7H   LINE      CODE     ---       #1241
      01000DFAH   LINE      CODE     ---       #1243
      01000DFAH   LINE      CODE     ---       #1245
      01000E26H   LINE      CODE     ---       #1246
      01000E26H   LINE      CODE     ---       #1247
      01000E39H   LINE      CODE     ---       #1248
      01000E3BH   LINE      CODE     ---       #1250
      01000E3BH   LINE      CODE     ---       #1251
      01000E57H   LINE      CODE     ---       #1252
      01000E57H   LINE      CODE     ---       #1253
      01000E66H   LINE      CODE     ---       #1254
      01000E66H   LINE      CODE     ---       #1255
      01000E6BH   LINE      CODE     ---       #1256
      01000E88H   LINE      CODE     ---       #1257
      01000E8AH   LINE      CODE     ---       #1259
      01000E8AH   LINE      CODE     ---       #1261
      01000E9CH   LINE      CODE     ---       #1262
      01000EA5H   LINE      CODE     ---       #1263
      01000EA5H   LINE      CODE     ---       #1264
      01000EA8H   LINE      CODE     ---       #1265
      01000EA8H   LINE      CODE     ---       #1266
      01000EAFH   LINE      CODE     ---       #1268
      01000EAFH   LINE      CODE     ---       #1270
      01000EB1H   LINE      CODE     ---       #1271
      01000EB1H   LINE      CODE     ---       #1272
      01000EDAH   LINE      CODE     ---       #1273
      01000EDFH   LINE      CODE     ---       #1274
      01000EE1H   LINE      CODE     ---       #1275
      01000EEFH   LINE      CODE     ---       #1276
      01000EEFH   LINE      CODE     ---       #1277
      01000F09H   LINE      CODE     ---       #1278
      01000F09H   LINE      CODE     ---       #1279
      01000F18H   LINE      CODE     ---       #1280
      01000F18H   LINE      CODE     ---       #1282
      01000F28H   LINE      CODE     ---       #1283
      01000F28H   LINE      CODE     ---       #1284
      01000F29H   LINE      CODE     ---       #1285
      01000F2BH   LINE      CODE     ---       #1286
      01000F48H   LINE      CODE     ---       #1287
      01000F48H   LINE      CODE     ---       #1288
      01000F51H   LINE      CODE     ---       #1289
      01000F51H   LINE      CODE     ---       #1291
      01000F69H   LINE      CODE     ---       #1292
      01000F76H   LINE      CODE     ---       #1293
      01000F77H   LINE      CODE     ---       #1294
      01000F77H   LINE      CODE     ---       #1295
      01000F77H   LINE      CODE     ---       #1296
      01000F7BH   LINE      CODE     ---       #1297
      01000F7FH   LINE      CODE     ---       #1300
LX51 LINKER/LOCATER V4.66.30.0                                                        08/12/2020  16:38:44  PAGE 68


      01000F86H   LINE      CODE     ---       #1301
      01000F86H   LINE      CODE     ---       #1302
      01000F9EH   LINE      CODE     ---       #1303
      01000FA1H   LINE      CODE     ---       #1304
      01000FA8H   LINE      CODE     ---       #1306
      01000FC4H   LINE      CODE     ---       #1308
      01000FC4H   LINE      CODE     ---       #1310
      01000FC9H   LINE      CODE     ---       #1311
      01000FC9H   LINE      CODE     ---       #1312
      01000FC9H   LINE      CODE     ---       #1333
      ---         BLOCKEND  ---      ---       LVL=0

      ---         MODULE    ---      ---       EFM8BB2_FLASHPRIMITIVES
      000000A2H   SFRSYM    DATA     BYTE      SPI0CKR
      00000080H   SFRSYM    DATA     BYTE      P0
      000000C8H.6 SFRSYM    DATA     BIT       SCON1_PERR
      000000D0H.2 SFRSYM    DATA     BIT       PSW_OV
      00000090H   SFRSYM    DATA     BYTE      P1
      000000F8H.1 SFRSYM    DATA     BIT       SPI0CN0_TXNF
      00000097H   SFRSYM    DATA     BYTE      WDTCN
      000000A0H   SFRSYM    DATA     BYTE      P2
      000000B0H   SFRSYM    DATA     BYTE      P3
      000000BCH   SFRSYM    DATA     BYTE      ADC0CF
      000000C0H.7 SFRSYM    DATA     BIT       SMB0CN0_MASTER
      000000F9H   SFRSYM    DATA     WORD      PCA0
      000000E6H   SFRSYM    DATA     BYTE      EIE1
      000000C0H.1 SFRSYM    DATA     BIT       SMB0CN0_ACK
      000000CEH   SFRSYM    DATA     BYTE      EIE2
      0000008FH   SFRSYM    DATA     BYTE      PSCTL
      000000E4H   SFRSYM    DATA     BYTE      IT01CF
      000000C0H.6 SFRSYM    DATA     BIT       SMB0CN0_TXMODE
      000000ADH   SFRSYM    DATA     BYTE      DERIVID
      000000A7H   SFRSYM    DATA     BYTE      SFRPAGE
      000000A4H   SFRSYM    DATA     BYTE      P0MDOUT
      000000A5H   SFRSYM    DATA     BYTE      P1MDOUT
      000000E8H.5 SFRSYM    DATA     BIT       ADC0CN0_ADINT
      000000CBH   SFRSYM    DATA     BYTE      TMR2RLH
      000000A6H   SFRSYM    DATA     BYTE      P2MDOUT
      000000A8H   SFRSYM    DATA     BYTE      IE
      00000093H   SFRSYM    DATA     BYTE      TMR3RLH
      0000009CH   SFRSYM    DATA     BYTE      P3MDOUT
      000000A3H   SFRSYM    DATA     BYTE      TMR4RLH
      000000F3H   SFRSYM    DATA     BYTE      EIP1
      000000F4H   SFRSYM    DATA     BYTE      EIP2
      00000098H.2 SFRSYM    DATA     BIT       SCON0_RB8
      000000CAH   SFRSYM    DATA     BYTE      TMR2RLL
      000000FCH   SFRSYM    DATA     BYTE      PCA0CPH0
      00000092H   SFRSYM    DATA     BYTE      TMR3RLL
      000000EAH   SFRSYM    DATA     BYTE      PCA0CPH1
      00000098H.3 SFRSYM    DATA     BIT       SCON0_TB8
      000000F0H   SFRSYM    DATA     BIT       B_B0
      00000082H   SFRSYM    DATA     WORD      DP
      000000A2H   SFRSYM    DATA     BYTE      TMR4RLL
      000000ECH   SFRSYM    DATA     BYTE      PCA0CPH2
      000000F0H.1 SFRSYM    DATA     BIT       B_B1
      000000C3H   SFRSYM    DATA     WORD      ADC0GT
      000000BDH   SFRSYM    DATA     BYTE      I2C0SLAD
      000000D8H.3 SFRSYM    DATA     BIT       UART1FCN1_RFRQ
      000000F0H.2 SFRSYM    DATA     BIT       B_B2
      000000CFH   SFRSYM    DATA     BYTE      SFRPGCN
      000000FBH   SFRSYM    DATA     BYTE      PCA0CPL0
      000000F0H.3 SFRSYM    DATA     BIT       B_B3
LX51 LINKER/LOCATER V4.66.30.0                                                        08/12/2020  16:38:44  PAGE 69


      000000D9H   SFRSYM    DATA     BYTE      PCA0MD
      000000DAH   SFRSYM    DATA     BYTE      PCA0CPM0
      000000E9H   SFRSYM    DATA     BYTE      PCA0CPL1
      000000D8H.7 SFRSYM    DATA     BIT       UART1FCN1_TFRQ
      000000F0H.4 SFRSYM    DATA     BIT       B_B4
      000000DBH   SFRSYM    DATA     BYTE      PCA0CPM1
      000000EBH   SFRSYM    DATA     BYTE      PCA0CPL2
      000000F0H.5 SFRSYM    DATA     BIT       B_B5
      000000DCH   SFRSYM    DATA     BYTE      PCA0CPM2
      000000B8H   SFRSYM    DATA     BYTE      IP
      000000B9H   SFRSYM    DATA     BYTE      ADC0TK
      000000F0H.6 SFRSYM    DATA     BIT       B_B6
      000000C5H   SFRSYM    DATA     WORD      ADC0LT
      000000D8H.6 SFRSYM    DATA     BIT       UART1FCN1_TXNF
      00000098H.5 SFRSYM    DATA     BIT       SCON0_MCE
      000000F0H.7 SFRSYM    DATA     BIT       B_B7
      000000C3H   SFRSYM    DATA     BYTE      SMB0FCN0
      000000E1H   SFRSYM    DATA     BYTE      XBR0
      000000C4H   SFRSYM    DATA     BYTE      SMB0FCN1
      000000C1H   SFRSYM    DATA     BYTE      SMB0CF
      000000E2H   SFRSYM    DATA     BYTE      XBR1
      000000C1H   SFRSYM    DATA     BYTE      PFE0CN
      000000E7H   SFRSYM    DATA     BYTE      EMI0CN
      000000C0H.5 SFRSYM    DATA     BIT       SMB0CN0_STA
      000000E3H   SFRSYM    DATA     BYTE      XBR2
      000000BBH   SFRSYM    DATA     BYTE      ADC0MX
      000000E0H   SFRSYM    DATA     BIT       ACC_ACC0
      000000D1H   SFRSYM    DATA     BYTE      REF0CN
      0000008EH   SFRSYM    DATA     BYTE      CKCON0
      000000E0H.1 SFRSYM    DATA     BIT       ACC_ACC1
      000000C9H   SFRSYM    DATA     BYTE      REG0CN
      000000DDH   SFRSYM    DATA     BYTE      CRC0IN
      000000A6H   SFRSYM    DATA     BYTE      CKCON1
      000000C8H.2 SFRSYM    DATA     BIT       TMR2CN0_TR2
      000000E0H.2 SFRSYM    DATA     BIT       ACC_ACC2
      000000C6H   SFRSYM    DATA     BYTE      REG1CN
      000000E0H.3 SFRSYM    DATA     BIT       ACC_ACC3
      00000081H   SFRSYM    DATA     BYTE      SP
      0000009DH   SFRSYM    DATA     BYTE      CMP0MD
      000000E0H.4 SFRSYM    DATA     BIT       ACC_ACC4
      000000B1H   SFRSYM    DATA     BYTE      LFO0CN
      000000ABH   SFRSYM    DATA     BYTE      CMP1MD
      000000D8H   SFRSYM    DATA     BIT       PCA0CN0_CCF0
      000000E0H.5 SFRSYM    DATA     BIT       ACC_ACC5
      00000098H.2 SFRSYM    DATA     BIT       TMR4CN0_TR4
      000000D8H.1 SFRSYM    DATA     BIT       PCA0CN0_CCF1
      000000E0H.6 SFRSYM    DATA     BIT       ACC_ACC6
      000000CCH   SFRSYM    DATA     WORD      TMR2
      0000009AH   SFRSYM    DATA     BYTE      SPI0FCN0
      000000D8H.2 SFRSYM    DATA     BIT       PCA0CN0_CCF2
      000000E0H.7 SFRSYM    DATA     BIT       ACC_ACC7
      00000094H   SFRSYM    DATA     WORD      TMR3
      0000009BH   SFRSYM    DATA     BYTE      SPI0FCN1
      000000A4H   SFRSYM    DATA     WORD      TMR4
      00000094H   SFRSYM    DATA     BYTE      SBCON1
      000000C0H.3 SFRSYM    DATA     BIT       SMB0CN0_ACKRQ
      000000FFH   SFRSYM    DATA     BYTE      VDM0CN
      000000F1H   SFRSYM    DATA     BYTE      P0MDIN
      00000098H.4 SFRSYM    DATA     BIT       SCON0_REN
      000000ACH   SFRSYM    DATA     BYTE      SMB0TC
      000000F2H   SFRSYM    DATA     BYTE      P1MDIN
      000000C8H.4 SFRSYM    DATA     BIT       SCON1_REN
LX51 LINKER/LOCATER V4.66.30.0                                                        08/12/2020  16:38:44  PAGE 70


      000000F3H   SFRSYM    DATA     BYTE      P2MDIN
      000000C0H.4 SFRSYM    DATA     BIT       SMB0CN0_STO
      000000F4H   SFRSYM    DATA     BYTE      P3MDIN
      000000B9H   SFRSYM    DATA     BYTE      I2C0STAT
      000000BBH   SFRSYM    DATA     BYTE      I2C0DOUT
      00000096H   SFRSYM    DATA     BYTE      SBRLH1
      000000FEH   SFRSYM    DATA     BYTE      P0MASK
      000000D8H.5 SFRSYM    DATA     BIT       UART1FCN1_TXHOLD
      000000EEH   SFRSYM    DATA     BYTE      P1MASK
      000000FCH   SFRSYM    DATA     BYTE      P2MASK
      000000D0H.3 SFRSYM    DATA     BIT       PSW_RS0
      000000D8H.7 SFRSYM    DATA     BIT       PCA0CN0_CF
      0000009EH   SFRSYM    DATA     BYTE      PCA0CENT
      000000BAH   SFRSYM    DATA     BYTE      I2C0CN0
      000000D2H   SFRSYM    DATA     BYTE      CRC0ST
      000000F8H.4 SFRSYM    DATA     BIT       SPI0CN0_RXOVRN
      000000D0H.4 SFRSYM    DATA     BIT       PSW_RS1
      00000095H   SFRSYM    DATA     BYTE      SBRLL1
      000000C8H.2 SFRSYM    DATA     BIT       SCON1_RBX
      000000C8H   SFRSYM    DATA     BIT       TMR2CN0_T2XCLK0
      000000C8H.1 SFRSYM    DATA     BIT       TMR2CN0_T2XCLK1
      000000C8H.3 SFRSYM    DATA     BIT       SCON1_TBX
      000000E8H.7 SFRSYM    DATA     BIT       ADC0CN0_ADEN
      00000089H   SFRSYM    DATA     BYTE      TMOD
      00000088H   SFRSYM    DATA     BYTE      TCON
      000000CFH   SFRSYM    DATA     BYTE      CRC0FLIP
      000000D0H   SFRSYM    DATA     BIT       PSW_PARITY
      000000A8H.4 SFRSYM    DATA     BIT       IE_ES0
      0000009FH   SFRSYM    DATA     BYTE      CMP0MX
      00000098H   SFRSYM    DATA     BIT       TMR4CN0_T4XCLK0
      000000A8H.1 SFRSYM    DATA     BIT       IE_ET0
      000000AAH   SFRSYM    DATA     BYTE      CMP1MX
      00000098H.1 SFRSYM    DATA     BIT       TMR4CN0_T4XCLK1
      000000A8H.3 SFRSYM    DATA     BIT       IE_ET1
      000000D4H   SFRSYM    DATA     BYTE      P0SKIP
      000000D8H   SFRSYM    DATA     BIT       UART1FCN1_RIE
      000000A8H.5 SFRSYM    DATA     BIT       IE_ET2
      000000D5H   SFRSYM    DATA     BYTE      P1SKIP
      000000CCH   SFRSYM    DATA     BYTE      P2SKIP
      000000E8H   SFRSYM    DATA     BYTE      ADC0CN0
      000000D8H.4 SFRSYM    DATA     BIT       UART1FCN1_TIE
      000000A8H   SFRSYM    DATA     BIT       IE_EX0
      000000B2H   SFRSYM    DATA     BYTE      ADC0CN1
      000000D8H.6 SFRSYM    DATA     BIT       PCA0CN0_CR
      000000A8H.2 SFRSYM    DATA     BIT       IE_EX1
      000000C8H.7 SFRSYM    DATA     BIT       SCON1_OVR
      00000098H.7 SFRSYM    DATA     BIT       SCON0_SMODE
      000000B5H   SFRSYM    DATA     BYTE      DEVICEID
      000000A9H   SFRSYM    DATA     BYTE      CLKSEL
      000000F8H   SFRSYM    DATA     BIT       SPI0CN0_SPIEN
      000000F0H   SFRSYM    DATA     BYTE      B
      000000BEH   SFRSYM    DATA     BYTE      ADC0H
      000000E8H.6 SFRSYM    DATA     BIT       ADC0CN0_ADBMEN
      000000CAH   SFRSYM    DATA     WORD      TMR2RL
      000000BDH   SFRSYM    DATA     BYTE      ADC0L
      00000092H   SFRSYM    DATA     WORD      TMR3RL
      000000A2H   SFRSYM    DATA     WORD      TMR4RL
      000000D8H   SFRSYM    DATA     BYTE      PCA0CN0
      000000E0H   SFRSYM    DATA     BYTE      ACC
      000000FBH   SFRSYM    DATA     WORD      PCA0CP0
      000000E9H   SFRSYM    DATA     WORD      PCA0CP1
      000000EBH   SFRSYM    DATA     WORD      PCA0CP2
LX51 LINKER/LOCATER V4.66.30.0                                                        08/12/2020  16:38:44  PAGE 71


      000000BCH   SFRSYM    DATA     BYTE      I2C0DIN
      000000CEH   SFRSYM    DATA     BYTE      CRC0CN0
      0000008CH   SFRSYM    DATA     BYTE      TH0
      00000086H   SFRSYM    DATA     BYTE      CRC0CN1
      000000B8H.4 SFRSYM    DATA     BIT       IP_PS0
      000000FAH   SFRSYM    DATA     BYTE      UART1FCT
      0000008DH   SFRSYM    DATA     BYTE      TH1
      000000FAH   SFRSYM    DATA     BYTE      PCA0H
      000000F5H   SFRSYM    DATA     BYTE      I2C0FCT
      000000B8H.1 SFRSYM    DATA     BIT       IP_PT0
      000000B8H.3 SFRSYM    DATA     BIT       IP_PT1
      000000C0H.2 SFRSYM    DATA     BIT       SMB0CN0_ARBLOST
      000000B8H.5 SFRSYM    DATA     BIT       IP_PT2
      0000008AH   SFRSYM    DATA     BYTE      TL0
      000000D0H.5 SFRSYM    DATA     BIT       PSW_F0
      000000A8H.6 SFRSYM    DATA     BIT       IE_ESPI0
      0000008BH   SFRSYM    DATA     BYTE      TL1
      000000F9H   SFRSYM    DATA     BYTE      PCA0L
      000000C0H   SFRSYM    DATA     BIT       SMB0CN0_SI
      000000D0H.1 SFRSYM    DATA     BIT       PSW_F1
      00000080H   SFRSYM    DATA     BIT       P0_B0
      000000B8H   SFRSYM    DATA     BIT       IP_PX0
      00000090H   SFRSYM    DATA     BIT       P1_B0
      00000080H.1 SFRSYM    DATA     BIT       P0_B1
      000000B8H.2 SFRSYM    DATA     BIT       IP_PX1
      0000009EH   SFRSYM    DATA     BYTE      UART1LIN
      0000009BH   SFRSYM    DATA     BYTE      CMP0CN0
      00000088H.1 SFRSYM    DATA     BIT       TCON_IE0
      000000A0H   SFRSYM    DATA     BIT       P2_B0
      00000090H.1 SFRSYM    DATA     BIT       P1_B1
      00000080H.2 SFRSYM    DATA     BIT       P0_B2
      000000BFH   SFRSYM    DATA     BYTE      CMP1CN0
      00000099H   SFRSYM    DATA     BYTE      CMP0CN1
      00000088H.3 SFRSYM    DATA     BIT       TCON_IE1
      000000B0H   SFRSYM    DATA     BIT       P3_B0
      000000A0H.1 SFRSYM    DATA     BIT       P2_B1
      00000090H.2 SFRSYM    DATA     BIT       P1_B2
      00000080H.3 SFRSYM    DATA     BIT       P0_B3
      000000C0H   SFRSYM    DATA     BYTE      SMB0CN0
      000000ACH   SFRSYM    DATA     BYTE      CMP1CN1
      000000B0H.1 SFRSYM    DATA     BIT       P3_B1
      000000A0H.2 SFRSYM    DATA     BIT       P2_B2
      00000090H.3 SFRSYM    DATA     BIT       P1_B3
      00000080H.4 SFRSYM    DATA     BIT       P0_B4
      000000A0H.3 SFRSYM    DATA     BIT       P2_B3
      00000090H.4 SFRSYM    DATA     BIT       P1_B4
      00000080H.5 SFRSYM    DATA     BIT       P0_B5
      000000D8H.1 SFRSYM    DATA     BIT       UART1FCN1_RXTO0
      00000090H.5 SFRSYM    DATA     BIT       P1_B5
      00000080H.6 SFRSYM    DATA     BIT       P0_B6
      000000F5H   SFRSYM    DATA     BYTE      EIP1H
      000000D8H.2 SFRSYM    DATA     BIT       UART1FCN1_RXTO1
      00000090H.6 SFRSYM    DATA     BIT       P1_B6
      00000080H.7 SFRSYM    DATA     BIT       P0_B7
      000000C5H   SFRSYM    DATA     BYTE      SMB0RXLN
      000000F6H   SFRSYM    DATA     BYTE      EIP2H
      00000090H.7 SFRSYM    DATA     BIT       P1_B7
      00000083H   SFRSYM    DATA     BYTE      DPH
      000000C4H   SFRSYM    DATA     BYTE      ADC0GTH
      000000C8H.7 SFRSYM    DATA     BIT       TMR2CN0_TF2H
      000000C8H.3 SFRSYM    DATA     BIT       TMR2CN0_T2SPLIT
      000000D0H.6 SFRSYM    DATA     BIT       PSW_AC
LX51 LINKER/LOCATER V4.66.30.0                                                        08/12/2020  16:38:44  PAGE 72


      000000F8H   SFRSYM    DATA     BYTE      SPI0CN0
      000000C7H   SFRSYM    DATA     BYTE      HFO0CAL
      00000088H.5 SFRSYM    DATA     BIT       TCON_TF0
      00000098H   SFRSYM    DATA     BIT       SCON0_RI
      000000D6H   SFRSYM    DATA     BYTE      HFO1CAL
      00000082H   SFRSYM    DATA     BYTE      DPL
      00000088H.7 SFRSYM    DATA     BIT       TCON_TF1
      000000C8H   SFRSYM    DATA     BIT       SCON1_RI
      00000099H   SFRSYM    DATA     BYTE      SBUF0
      00000087H   SFRSYM    DATA     BYTE      PCON0
      000000F2H   SFRSYM    DATA     BYTE      IPH
      000000C3H   SFRSYM    DATA     BYTE      ADC0GTL
      00000098H.7 SFRSYM    DATA     BIT       TMR4CN0_TF4H
      00000098H.3 SFRSYM    DATA     BIT       TMR4CN0_T4SPLIT
      000000C8H.6 SFRSYM    DATA     BIT       TMR2CN0_TF2L
      00000098H.1 SFRSYM    DATA     BIT       SCON0_TI
      000000E8H   SFRSYM    DATA     BIT       ADC0CN0_ADCM0
      00000092H   SFRSYM    DATA     BYTE      SBUF1
      0000009AH   SFRSYM    DATA     BYTE      PCON1
      000000C6H   SFRSYM    DATA     BYTE      ADC0LTH
      00000088H   SFRSYM    DATA     BIT       TCON_IT0
      000000C8H.1 SFRSYM    DATA     BIT       SCON1_TI
      000000E8H.1 SFRSYM    DATA     BIT       ADC0CN0_ADCM1
      000000EFH   SFRSYM    DATA     BYTE      RSTSRC
      000000FDH   SFRSYM    DATA     BYTE      P0MAT
      000000DEH   SFRSYM    DATA     BYTE      CRC0DAT
      00000088H.2 SFRSYM    DATA     BIT       TCON_IT1
      000000E8H.2 SFRSYM    DATA     BIT       ADC0CN0_ADCM2
      000000D7H   SFRSYM    DATA     BYTE      SFRSTACK
      00000098H   SFRSYM    DATA     BYTE      SCON0
      000000F6H   SFRSYM    DATA     BYTE      PRTDRV
      000000EDH   SFRSYM    DATA     BYTE      P1MAT
      000000E8H.3 SFRSYM    DATA     BIT       ADC0CN0_ADWINT
      00000095H   SFRSYM    DATA     WORD      SBRL1
      00000093H   SFRSYM    DATA     BYTE      SMOD1
      000000C8H   SFRSYM    DATA     BYTE      SCON1
      000000FBH   SFRSYM    DATA     BYTE      P2MAT
      00000098H.6 SFRSYM    DATA     BIT       TMR4CN0_TF4L
      000000E8H.4 SFRSYM    DATA     BIT       ADC0CN0_ADBUSY
      000000D6H   SFRSYM    DATA     BYTE      SMB0ADM
      000000C5H   SFRSYM    DATA     BYTE      ADC0LTL
      000000F8H.5 SFRSYM    DATA     BIT       SPI0CN0_MODF
      000000B8H.6 SFRSYM    DATA     BIT       IP_PSPI0
      0000009CH   SFRSYM    DATA     BYTE      PCA0CLR
      000000C8H   SFRSYM    DATA     BYTE      TMR2CN0
      00000091H   SFRSYM    DATA     BYTE      TMR3CN0
      000000FDH   SFRSYM    DATA     BYTE      TMR2CN1
      00000098H   SFRSYM    DATA     BYTE      TMR4CN0
      000000FEH   SFRSYM    DATA     BYTE      TMR3CN1
      000000FFH   SFRSYM    DATA     BYTE      TMR4CN1
      000000D7H   SFRSYM    DATA     BYTE      SMB0ADR
      00000088H.4 SFRSYM    DATA     BIT       TCON_TR0
      000000C8H.4 SFRSYM    DATA     BIT       TMR2CN0_TF2CEN
      00000088H.6 SFRSYM    DATA     BIT       TCON_TR1
      000000C2H   SFRSYM    DATA     BYTE      SMB0DAT
      000000CDH   SFRSYM    DATA     BYTE      TMR2H
      000000A1H   SFRSYM    DATA     BYTE      SPI0CFG
      00000095H   SFRSYM    DATA     BYTE      TMR3H
      000000EFH   SFRSYM    DATA     BYTE      HFOCN
      000000D3H   SFRSYM    DATA     BYTE      CRC0CNT
      000000A5H   SFRSYM    DATA     BYTE      TMR4H
      00000098H.4 SFRSYM    DATA     BIT       TMR4CN0_TF4CEN
LX51 LINKER/LOCATER V4.66.30.0                                                        08/12/2020  16:38:44  PAGE 73


      000000EFH   SFRSYM    DATA     BYTE      SMB0FCT
      00000096H   SFRSYM    DATA     BYTE      PCA0POL
      000000CCH   SFRSYM    DATA     BYTE      TMR2L
      000000F8H.7 SFRSYM    DATA     BIT       SPI0CN0_SPIF
      00000094H   SFRSYM    DATA     BYTE      TMR3L
      000000DFH   SFRSYM    DATA     BYTE      ADC0PWR
      000000A8H.7 SFRSYM    DATA     BIT       IE_EA
      000000A4H   SFRSYM    DATA     BYTE      TMR4L
      000000C8H.5 SFRSYM    DATA     BIT       TMR2CN0_TF2LEN
      000000F8H.6 SFRSYM    DATA     BIT       SPI0CN0_WCOL
      000000F8H.2 SFRSYM    DATA     BIT       SPI0CN0_NSSMD0
      000000D0H.7 SFRSYM    DATA     BIT       PSW_CY
      0000009DH   SFRSYM    DATA     BYTE      UART1FCN0
      000000A3H   SFRSYM    DATA     BYTE      SPI0DAT
      000000ADH   SFRSYM    DATA     BYTE      I2C0FCN0
      000000F8H.3 SFRSYM    DATA     BIT       SPI0CN0_NSSMD1
      000000BDH   SFRSYM    DATA     WORD      ADC0
      000000D8H   SFRSYM    DATA     BYTE      UART1FCN1
      000000ABH   SFRSYM    DATA     BYTE      I2C0FCN1
      00000098H.5 SFRSYM    DATA     BIT       TMR4CN0_TF4LEN
      000000D0H   SFRSYM    DATA     BYTE      PSW
      000000F7H   SFRSYM    DATA     BYTE      PCA0PWM
      000000F7H   SFRSYM    DATA     BYTE      SPI0FCT
      000000B6H   SFRSYM    DATA     BYTE      REVID
      000000B7H   SFRSYM    DATA     BYTE      FLKEY
      000000B3H   SFRSYM    DATA     BYTE      ADC0AC
      00000006H   SYMBOL    DATA     WORD      addr
      00000005H   SYMBOL    DATA     BYTE      byte
      00000082H   SYMBOL    DATA     ---       pwrite
      00000006H   SYMBOL    DATA     WORD      addr
      00000082H   SYMBOL    DATA     ---       pread
      00000007H   SYMBOL    DATA     BYTE      byte
      00000006H   SYMBOL    DATA     WORD      addr
      00000082H   SYMBOL    DATA     ---       pwrite
      00000005H   SYMBOL    DATA     BYTE      mode
      00000007H   SYMBOL    DATA     BYTE      temp_byte

      ---         MODULE    ---      ---       INITDEVICE
      000000A2H   SFRSYM    DATA     BYTE      SPI0CKR
      00000080H   SFRSYM    DATA     BYTE      P0
      000000C8H.6 SFRSYM    DATA     BIT       SCON1_PERR
      000000D0H.2 SFRSYM    DATA     BIT       PSW_OV
      00000090H   SFRSYM    DATA     BYTE      P1
      000000F8H.1 SFRSYM    DATA     BIT       SPI0CN0_TXNF
      00000097H   SFRSYM    DATA     BYTE      WDTCN
      000000A0H   SFRSYM    DATA     BYTE      P2
      000000B0H   SFRSYM    DATA     BYTE      P3
      000000BCH   SFRSYM    DATA     BYTE      ADC0CF
      000000C0H.7 SFRSYM    DATA     BIT       SMB0CN0_MASTER
      000000F9H   SFRSYM    DATA     WORD      PCA0
      000000E6H   SFRSYM    DATA     BYTE      EIE1
      000000C0H.1 SFRSYM    DATA     BIT       SMB0CN0_ACK
      000000CEH   SFRSYM    DATA     BYTE      EIE2
      0000008FH   SFRSYM    DATA     BYTE      PSCTL
      000000E4H   SFRSYM    DATA     BYTE      IT01CF
      000000C0H.6 SFRSYM    DATA     BIT       SMB0CN0_TXMODE
      000000ADH   SFRSYM    DATA     BYTE      DERIVID
      000000A7H   SFRSYM    DATA     BYTE      SFRPAGE
      000000A4H   SFRSYM    DATA     BYTE      P0MDOUT
      000000A5H   SFRSYM    DATA     BYTE      P1MDOUT
      000000E8H.5 SFRSYM    DATA     BIT       ADC0CN0_ADINT
      000000CBH   SFRSYM    DATA     BYTE      TMR2RLH
LX51 LINKER/LOCATER V4.66.30.0                                                        08/12/2020  16:38:44  PAGE 74


      000000A6H   SFRSYM    DATA     BYTE      P2MDOUT
      000000A8H   SFRSYM    DATA     BYTE      IE
      00000093H   SFRSYM    DATA     BYTE      TMR3RLH
      0000009CH   SFRSYM    DATA     BYTE      P3MDOUT
      000000A3H   SFRSYM    DATA     BYTE      TMR4RLH
      000000F3H   SFRSYM    DATA     BYTE      EIP1
      000000F4H   SFRSYM    DATA     BYTE      EIP2
      00000098H.2 SFRSYM    DATA     BIT       SCON0_RB8
      000000CAH   SFRSYM    DATA     BYTE      TMR2RLL
      000000FCH   SFRSYM    DATA     BYTE      PCA0CPH0
      00000092H   SFRSYM    DATA     BYTE      TMR3RLL
      000000EAH   SFRSYM    DATA     BYTE      PCA0CPH1
      00000098H.3 SFRSYM    DATA     BIT       SCON0_TB8
      000000F0H   SFRSYM    DATA     BIT       B_B0
      00000082H   SFRSYM    DATA     WORD      DP
      000000A2H   SFRSYM    DATA     BYTE      TMR4RLL
      000000ECH   SFRSYM    DATA     BYTE      PCA0CPH2
      000000F0H.1 SFRSYM    DATA     BIT       B_B1
      000000C3H   SFRSYM    DATA     WORD      ADC0GT
      000000BDH   SFRSYM    DATA     BYTE      I2C0SLAD
      000000D8H.3 SFRSYM    DATA     BIT       UART1FCN1_RFRQ
      000000F0H.2 SFRSYM    DATA     BIT       B_B2
      000000CFH   SFRSYM    DATA     BYTE      SFRPGCN
      000000FBH   SFRSYM    DATA     BYTE      PCA0CPL0
      000000F0H.3 SFRSYM    DATA     BIT       B_B3
      000000D9H   SFRSYM    DATA     BYTE      PCA0MD
      000000DAH   SFRSYM    DATA     BYTE      PCA0CPM0
      000000E9H   SFRSYM    DATA     BYTE      PCA0CPL1
      000000D8H.7 SFRSYM    DATA     BIT       UART1FCN1_TFRQ
      000000F0H.4 SFRSYM    DATA     BIT       B_B4
      000000DBH   SFRSYM    DATA     BYTE      PCA0CPM1
      000000EBH   SFRSYM    DATA     BYTE      PCA0CPL2
      000000F0H.5 SFRSYM    DATA     BIT       B_B5
      000000DCH   SFRSYM    DATA     BYTE      PCA0CPM2
      000000B8H   SFRSYM    DATA     BYTE      IP
      000000B9H   SFRSYM    DATA     BYTE      ADC0TK
      000000F0H.6 SFRSYM    DATA     BIT       B_B6
      000000C5H   SFRSYM    DATA     WORD      ADC0LT
      000000D8H.6 SFRSYM    DATA     BIT       UART1FCN1_TXNF
      00000098H.5 SFRSYM    DATA     BIT       SCON0_MCE
      000000F0H.7 SFRSYM    DATA     BIT       B_B7
      000000C3H   SFRSYM    DATA     BYTE      SMB0FCN0
      000000E1H   SFRSYM    DATA     BYTE      XBR0
      000000C4H   SFRSYM    DATA     BYTE      SMB0FCN1
      000000C1H   SFRSYM    DATA     BYTE      SMB0CF
      000000E2H   SFRSYM    DATA     BYTE      XBR1
      000000C1H   SFRSYM    DATA     BYTE      PFE0CN
      000000E7H   SFRSYM    DATA     BYTE      EMI0CN
      000000C0H.5 SFRSYM    DATA     BIT       SMB0CN0_STA
      000000E3H   SFRSYM    DATA     BYTE      XBR2
      000000BBH   SFRSYM    DATA     BYTE      ADC0MX
      000000E0H   SFRSYM    DATA     BIT       ACC_ACC0
      000000D1H   SFRSYM    DATA     BYTE      REF0CN
      0000008EH   SFRSYM    DATA     BYTE      CKCON0
      000000E0H.1 SFRSYM    DATA     BIT       ACC_ACC1
      000000C9H   SFRSYM    DATA     BYTE      REG0CN
      000000DDH   SFRSYM    DATA     BYTE      CRC0IN
      000000A6H   SFRSYM    DATA     BYTE      CKCON1
      000000C8H.2 SFRSYM    DATA     BIT       TMR2CN0_TR2
      000000E0H.2 SFRSYM    DATA     BIT       ACC_ACC2
      000000C6H   SFRSYM    DATA     BYTE      REG1CN
      000000E0H.3 SFRSYM    DATA     BIT       ACC_ACC3
LX51 LINKER/LOCATER V4.66.30.0                                                        08/12/2020  16:38:44  PAGE 75


      00000081H   SFRSYM    DATA     BYTE      SP
      0000009DH   SFRSYM    DATA     BYTE      CMP0MD
      000000E0H.4 SFRSYM    DATA     BIT       ACC_ACC4
      000000B1H   SFRSYM    DATA     BYTE      LFO0CN
      000000ABH   SFRSYM    DATA     BYTE      CMP1MD
      000000D8H   SFRSYM    DATA     BIT       PCA0CN0_CCF0
      000000E0H.5 SFRSYM    DATA     BIT       ACC_ACC5
      00000098H.2 SFRSYM    DATA     BIT       TMR4CN0_TR4
      000000D8H.1 SFRSYM    DATA     BIT       PCA0CN0_CCF1
      000000E0H.6 SFRSYM    DATA     BIT       ACC_ACC6
      000000CCH   SFRSYM    DATA     WORD      TMR2
      0000009AH   SFRSYM    DATA     BYTE      SPI0FCN0
      000000D8H.2 SFRSYM    DATA     BIT       PCA0CN0_CCF2
      000000E0H.7 SFRSYM    DATA     BIT       ACC_ACC7
      00000094H   SFRSYM    DATA     WORD      TMR3
      0000009BH   SFRSYM    DATA     BYTE      SPI0FCN1
      000000A4H   SFRSYM    DATA     WORD      TMR4
      00000094H   SFRSYM    DATA     BYTE      SBCON1
      000000C0H.3 SFRSYM    DATA     BIT       SMB0CN0_ACKRQ
      000000FFH   SFRSYM    DATA     BYTE      VDM0CN
      000000F1H   SFRSYM    DATA     BYTE      P0MDIN
      00000098H.4 SFRSYM    DATA     BIT       SCON0_REN
      000000ACH   SFRSYM    DATA     BYTE      SMB0TC
      000000F2H   SFRSYM    DATA     BYTE      P1MDIN
      000000C8H.4 SFRSYM    DATA     BIT       SCON1_REN
      000000F3H   SFRSYM    DATA     BYTE      P2MDIN
      000000C0H.4 SFRSYM    DATA     BIT       SMB0CN0_STO
      000000F4H   SFRSYM    DATA     BYTE      P3MDIN
      000000B9H   SFRSYM    DATA     BYTE      I2C0STAT
      000000BBH   SFRSYM    DATA     BYTE      I2C0DOUT
      00000096H   SFRSYM    DATA     BYTE      SBRLH1
      000000FEH   SFRSYM    DATA     BYTE      P0MASK
      000000D8H.5 SFRSYM    DATA     BIT       UART1FCN1_TXHOLD
      000000EEH   SFRSYM    DATA     BYTE      P1MASK
      000000FCH   SFRSYM    DATA     BYTE      P2MASK
      000000D0H.3 SFRSYM    DATA     BIT       PSW_RS0
      000000D8H.7 SFRSYM    DATA     BIT       PCA0CN0_CF
      0000009EH   SFRSYM    DATA     BYTE      PCA0CENT
      000000BAH   SFRSYM    DATA     BYTE      I2C0CN0
      000000D2H   SFRSYM    DATA     BYTE      CRC0ST
      000000F8H.4 SFRSYM    DATA     BIT       SPI0CN0_RXOVRN
      000000D0H.4 SFRSYM    DATA     BIT       PSW_RS1
      00000095H   SFRSYM    DATA     BYTE      SBRLL1
      000000C8H.2 SFRSYM    DATA     BIT       SCON1_RBX
      000000C8H   SFRSYM    DATA     BIT       TMR2CN0_T2XCLK0
      000000C8H.1 SFRSYM    DATA     BIT       TMR2CN0_T2XCLK1
      000000C8H.3 SFRSYM    DATA     BIT       SCON1_TBX
      000000E8H.7 SFRSYM    DATA     BIT       ADC0CN0_ADEN
      00000089H   SFRSYM    DATA     BYTE      TMOD
      00000088H   SFRSYM    DATA     BYTE      TCON
      000000CFH   SFRSYM    DATA     BYTE      CRC0FLIP
      000000D0H   SFRSYM    DATA     BIT       PSW_PARITY
      000000A8H.4 SFRSYM    DATA     BIT       IE_ES0
      0000009FH   SFRSYM    DATA     BYTE      CMP0MX
      00000098H   SFRSYM    DATA     BIT       TMR4CN0_T4XCLK0
      000000A8H.1 SFRSYM    DATA     BIT       IE_ET0
      000000AAH   SFRSYM    DATA     BYTE      CMP1MX
      00000098H.1 SFRSYM    DATA     BIT       TMR4CN0_T4XCLK1
      000000A8H.3 SFRSYM    DATA     BIT       IE_ET1
      000000D4H   SFRSYM    DATA     BYTE      P0SKIP
      000000D8H   SFRSYM    DATA     BIT       UART1FCN1_RIE
      000000A8H.5 SFRSYM    DATA     BIT       IE_ET2
LX51 LINKER/LOCATER V4.66.30.0                                                        08/12/2020  16:38:44  PAGE 76


      000000D5H   SFRSYM    DATA     BYTE      P1SKIP
      000000CCH   SFRSYM    DATA     BYTE      P2SKIP
      000000E8H   SFRSYM    DATA     BYTE      ADC0CN0
      000000D8H.4 SFRSYM    DATA     BIT       UART1FCN1_TIE
      000000A8H   SFRSYM    DATA     BIT       IE_EX0
      000000B2H   SFRSYM    DATA     BYTE      ADC0CN1
      000000D8H.6 SFRSYM    DATA     BIT       PCA0CN0_CR
      000000A8H.2 SFRSYM    DATA     BIT       IE_EX1
      000000C8H.7 SFRSYM    DATA     BIT       SCON1_OVR
      00000098H.7 SFRSYM    DATA     BIT       SCON0_SMODE
      000000B5H   SFRSYM    DATA     BYTE      DEVICEID
      000000A9H   SFRSYM    DATA     BYTE      CLKSEL
      000000F8H   SFRSYM    DATA     BIT       SPI0CN0_SPIEN
      000000F0H   SFRSYM    DATA     BYTE      B
      000000BEH   SFRSYM    DATA     BYTE      ADC0H
      000000E8H.6 SFRSYM    DATA     BIT       ADC0CN0_ADBMEN
      000000CAH   SFRSYM    DATA     WORD      TMR2RL
      000000BDH   SFRSYM    DATA     BYTE      ADC0L
      00000092H   SFRSYM    DATA     WORD      TMR3RL
      000000A2H   SFRSYM    DATA     WORD      TMR4RL
      000000D8H   SFRSYM    DATA     BYTE      PCA0CN0
      000000E0H   SFRSYM    DATA     BYTE      ACC
      000000FBH   SFRSYM    DATA     WORD      PCA0CP0
      000000E9H   SFRSYM    DATA     WORD      PCA0CP1
      000000EBH   SFRSYM    DATA     WORD      PCA0CP2
      000000BCH   SFRSYM    DATA     BYTE      I2C0DIN
      000000CEH   SFRSYM    DATA     BYTE      CRC0CN0
      0000008CH   SFRSYM    DATA     BYTE      TH0
      00000086H   SFRSYM    DATA     BYTE      CRC0CN1
      000000B8H.4 SFRSYM    DATA     BIT       IP_PS0
      000000FAH   SFRSYM    DATA     BYTE      UART1FCT
      0000008DH   SFRSYM    DATA     BYTE      TH1
      000000FAH   SFRSYM    DATA     BYTE      PCA0H
      000000F5H   SFRSYM    DATA     BYTE      I2C0FCT
      000000B8H.1 SFRSYM    DATA     BIT       IP_PT0
      000000B8H.3 SFRSYM    DATA     BIT       IP_PT1
      000000C0H.2 SFRSYM    DATA     BIT       SMB0CN0_ARBLOST
      000000B8H.5 SFRSYM    DATA     BIT       IP_PT2
      0000008AH   SFRSYM    DATA     BYTE      TL0
      000000D0H.5 SFRSYM    DATA     BIT       PSW_F0
      000000A8H.6 SFRSYM    DATA     BIT       IE_ESPI0
      0000008BH   SFRSYM    DATA     BYTE      TL1
      000000F9H   SFRSYM    DATA     BYTE      PCA0L
      000000C0H   SFRSYM    DATA     BIT       SMB0CN0_SI
      000000D0H.1 SFRSYM    DATA     BIT       PSW_F1
      00000080H   SFRSYM    DATA     BIT       P0_B0
      000000B8H   SFRSYM    DATA     BIT       IP_PX0
      00000090H   SFRSYM    DATA     BIT       P1_B0
      00000080H.1 SFRSYM    DATA     BIT       P0_B1
      000000B8H.2 SFRSYM    DATA     BIT       IP_PX1
      0000009EH   SFRSYM    DATA     BYTE      UART1LIN
      0000009BH   SFRSYM    DATA     BYTE      CMP0CN0
      00000088H.1 SFRSYM    DATA     BIT       TCON_IE0
      000000A0H   SFRSYM    DATA     BIT       P2_B0
      00000090H.1 SFRSYM    DATA     BIT       P1_B1
      00000080H.2 SFRSYM    DATA     BIT       P0_B2
      000000BFH   SFRSYM    DATA     BYTE      CMP1CN0
      00000099H   SFRSYM    DATA     BYTE      CMP0CN1
      00000088H.3 SFRSYM    DATA     BIT       TCON_IE1
      000000B0H   SFRSYM    DATA     BIT       P3_B0
      000000A0H.1 SFRSYM    DATA     BIT       P2_B1
      00000090H.2 SFRSYM    DATA     BIT       P1_B2
LX51 LINKER/LOCATER V4.66.30.0                                                        08/12/2020  16:38:44  PAGE 77


      00000080H.3 SFRSYM    DATA     BIT       P0_B3
      000000C0H   SFRSYM    DATA     BYTE      SMB0CN0
      000000ACH   SFRSYM    DATA     BYTE      CMP1CN1
      000000B0H.1 SFRSYM    DATA     BIT       P3_B1
      000000A0H.2 SFRSYM    DATA     BIT       P2_B2
      00000090H.3 SFRSYM    DATA     BIT       P1_B3
      00000080H.4 SFRSYM    DATA     BIT       P0_B4
      000000A0H.3 SFRSYM    DATA     BIT       P2_B3
      00000090H.4 SFRSYM    DATA     BIT       P1_B4
      00000080H.5 SFRSYM    DATA     BIT       P0_B5
      000000D8H.1 SFRSYM    DATA     BIT       UART1FCN1_RXTO0
      00000090H.5 SFRSYM    DATA     BIT       P1_B5
      00000080H.6 SFRSYM    DATA     BIT       P0_B6
      000000F5H   SFRSYM    DATA     BYTE      EIP1H
      000000D8H.2 SFRSYM    DATA     BIT       UART1FCN1_RXTO1
      00000090H.6 SFRSYM    DATA     BIT       P1_B6
      00000080H.7 SFRSYM    DATA     BIT       P0_B7
      000000C5H   SFRSYM    DATA     BYTE      SMB0RXLN
      000000F6H   SFRSYM    DATA     BYTE      EIP2H
      00000090H.7 SFRSYM    DATA     BIT       P1_B7
      00000083H   SFRSYM    DATA     BYTE      DPH
      000000C4H   SFRSYM    DATA     BYTE      ADC0GTH
      000000C8H.7 SFRSYM    DATA     BIT       TMR2CN0_TF2H
      000000C8H.3 SFRSYM    DATA     BIT       TMR2CN0_T2SPLIT
      000000D0H.6 SFRSYM    DATA     BIT       PSW_AC
      000000F8H   SFRSYM    DATA     BYTE      SPI0CN0
      000000C7H   SFRSYM    DATA     BYTE      HFO0CAL
      00000088H.5 SFRSYM    DATA     BIT       TCON_TF0
      00000098H   SFRSYM    DATA     BIT       SCON0_RI
      000000D6H   SFRSYM    DATA     BYTE      HFO1CAL
      00000082H   SFRSYM    DATA     BYTE      DPL
      00000088H.7 SFRSYM    DATA     BIT       TCON_TF1
      000000C8H   SFRSYM    DATA     BIT       SCON1_RI
      00000099H   SFRSYM    DATA     BYTE      SBUF0
      00000087H   SFRSYM    DATA     BYTE      PCON0
      000000F2H   SFRSYM    DATA     BYTE      IPH
      000000C3H   SFRSYM    DATA     BYTE      ADC0GTL
      00000098H.7 SFRSYM    DATA     BIT       TMR4CN0_TF4H
      00000098H.3 SFRSYM    DATA     BIT       TMR4CN0_T4SPLIT
      000000C8H.6 SFRSYM    DATA     BIT       TMR2CN0_TF2L
      00000098H.1 SFRSYM    DATA     BIT       SCON0_TI
      000000E8H   SFRSYM    DATA     BIT       ADC0CN0_ADCM0
      00000092H   SFRSYM    DATA     BYTE      SBUF1
      0000009AH   SFRSYM    DATA     BYTE      PCON1
      000000C6H   SFRSYM    DATA     BYTE      ADC0LTH
      00000088H   SFRSYM    DATA     BIT       TCON_IT0
      000000C8H.1 SFRSYM    DATA     BIT       SCON1_TI
      000000E8H.1 SFRSYM    DATA     BIT       ADC0CN0_ADCM1
      000000EFH   SFRSYM    DATA     BYTE      RSTSRC
      000000FDH   SFRSYM    DATA     BYTE      P0MAT
      000000DEH   SFRSYM    DATA     BYTE      CRC0DAT
      00000088H.2 SFRSYM    DATA     BIT       TCON_IT1
      000000E8H.2 SFRSYM    DATA     BIT       ADC0CN0_ADCM2
      000000D7H   SFRSYM    DATA     BYTE      SFRSTACK
      00000098H   SFRSYM    DATA     BYTE      SCON0
      000000F6H   SFRSYM    DATA     BYTE      PRTDRV
      000000EDH   SFRSYM    DATA     BYTE      P1MAT
      000000E8H.3 SFRSYM    DATA     BIT       ADC0CN0_ADWINT
      00000095H   SFRSYM    DATA     WORD      SBRL1
      00000093H   SFRSYM    DATA     BYTE      SMOD1
      000000C8H   SFRSYM    DATA     BYTE      SCON1
      000000FBH   SFRSYM    DATA     BYTE      P2MAT
LX51 LINKER/LOCATER V4.66.30.0                                                        08/12/2020  16:38:44  PAGE 78


      00000098H.6 SFRSYM    DATA     BIT       TMR4CN0_TF4L
      000000E8H.4 SFRSYM    DATA     BIT       ADC0CN0_ADBUSY
      000000D6H   SFRSYM    DATA     BYTE      SMB0ADM
      000000C5H   SFRSYM    DATA     BYTE      ADC0LTL
      000000F8H.5 SFRSYM    DATA     BIT       SPI0CN0_MODF
      000000B8H.6 SFRSYM    DATA     BIT       IP_PSPI0
      0000009CH   SFRSYM    DATA     BYTE      PCA0CLR
      000000C8H   SFRSYM    DATA     BYTE      TMR2CN0
      00000091H   SFRSYM    DATA     BYTE      TMR3CN0
      000000FDH   SFRSYM    DATA     BYTE      TMR2CN1
      00000098H   SFRSYM    DATA     BYTE      TMR4CN0
      000000FEH   SFRSYM    DATA     BYTE      TMR3CN1
      000000FFH   SFRSYM    DATA     BYTE      TMR4CN1
      000000D7H   SFRSYM    DATA     BYTE      SMB0ADR
      00000088H.4 SFRSYM    DATA     BIT       TCON_TR0
      000000C8H.4 SFRSYM    DATA     BIT       TMR2CN0_TF2CEN
      00000088H.6 SFRSYM    DATA     BIT       TCON_TR1
      000000C2H   SFRSYM    DATA     BYTE      SMB0DAT
      000000CDH   SFRSYM    DATA     BYTE      TMR2H
      000000A1H   SFRSYM    DATA     BYTE      SPI0CFG
      00000095H   SFRSYM    DATA     BYTE      TMR3H
      000000EFH   SFRSYM    DATA     BYTE      HFOCN
      000000D3H   SFRSYM    DATA     BYTE      CRC0CNT
      000000A5H   SFRSYM    DATA     BYTE      TMR4H
      00000098H.4 SFRSYM    DATA     BIT       TMR4CN0_TF4CEN
      000000EFH   SFRSYM    DATA     BYTE      SMB0FCT
      00000096H   SFRSYM    DATA     BYTE      PCA0POL
      000000CCH   SFRSYM    DATA     BYTE      TMR2L
      000000F8H.7 SFRSYM    DATA     BIT       SPI0CN0_SPIF
      00000094H   SFRSYM    DATA     BYTE      TMR3L
      000000DFH   SFRSYM    DATA     BYTE      ADC0PWR
      000000A8H.7 SFRSYM    DATA     BIT       IE_EA
      000000A4H   SFRSYM    DATA     BYTE      TMR4L
      000000C8H.5 SFRSYM    DATA     BIT       TMR2CN0_TF2LEN
      000000F8H.6 SFRSYM    DATA     BIT       SPI0CN0_WCOL
      000000F8H.2 SFRSYM    DATA     BIT       SPI0CN0_NSSMD0
      000000D0H.7 SFRSYM    DATA     BIT       PSW_CY
      0000009DH   SFRSYM    DATA     BYTE      UART1FCN0
      000000A3H   SFRSYM    DATA     BYTE      SPI0DAT
      000000ADH   SFRSYM    DATA     BYTE      I2C0FCN0
      000000F8H.3 SFRSYM    DATA     BIT       SPI0CN0_NSSMD1
      000000BDH   SFRSYM    DATA     WORD      ADC0
      000000D8H   SFRSYM    DATA     BYTE      UART1FCN1
      000000ABH   SFRSYM    DATA     BYTE      I2C0FCN1
      00000098H.5 SFRSYM    DATA     BIT       TMR4CN0_TF4LEN
      000000D0H   SFRSYM    DATA     BYTE      PSW
      000000F7H   SFRSYM    DATA     BYTE      PCA0PWM
      000000F7H   SFRSYM    DATA     BYTE      SPI0FCT
      000000B6H   SFRSYM    DATA     BYTE      REVID
      000000B7H   SFRSYM    DATA     BYTE      FLKEY
      000000B3H   SFRSYM    DATA     BYTE      ADC0AC
      00000007H   SYMBOL    DATA     BYTE      SFRPAGE_save

      ---         MODULE    ---      ---       MAIN
      020003E9H   PUBLIC    XDATA    ---       buffer
      020003E5H   PUBLIC    XDATA    DWORD     errorCount
      020003E4H   PUBLIC    XDATA    BYTE      Debug_RD2
      020003E3H   PUBLIC    XDATA    BYTE      Debug_RD1
      01002BD0H   PUBLIC    CODE     ---       main
      010028FCH   PUBLIC    CODE     ---       InitGlobalVariable
      01000021H   PUBLIC    CODE     ---       SiLabs_Startup
      000000A2H   SFRSYM    DATA     BYTE      SPI0CKR
LX51 LINKER/LOCATER V4.66.30.0                                                        08/12/2020  16:38:44  PAGE 79


      00000080H   SFRSYM    DATA     BYTE      P0
      000000C8H.6 SFRSYM    DATA     BIT       SCON1_PERR
      000000D0H.2 SFRSYM    DATA     BIT       PSW_OV
      00000090H   SFRSYM    DATA     BYTE      P1
      000000F8H.1 SFRSYM    DATA     BIT       SPI0CN0_TXNF
      00000097H   SFRSYM    DATA     BYTE      WDTCN
      000000A0H   SFRSYM    DATA     BYTE      P2
      000000B0H   SFRSYM    DATA     BYTE      P3
      000000BCH   SFRSYM    DATA     BYTE      ADC0CF
      000000C0H.7 SFRSYM    DATA     BIT       SMB0CN0_MASTER
      000000F9H   SFRSYM    DATA     WORD      PCA0
      000000E6H   SFRSYM    DATA     BYTE      EIE1
      000000C0H.1 SFRSYM    DATA     BIT       SMB0CN0_ACK
      000000CEH   SFRSYM    DATA     BYTE      EIE2
      0000008FH   SFRSYM    DATA     BYTE      PSCTL
      000000E4H   SFRSYM    DATA     BYTE      IT01CF
      000000C0H.6 SFRSYM    DATA     BIT       SMB0CN0_TXMODE
      000000ADH   SFRSYM    DATA     BYTE      DERIVID
      000000A7H   SFRSYM    DATA     BYTE      SFRPAGE
      000000A4H   SFRSYM    DATA     BYTE      P0MDOUT
      000000A5H   SFRSYM    DATA     BYTE      P1MDOUT
      000000E8H.5 SFRSYM    DATA     BIT       ADC0CN0_ADINT
      000000CBH   SFRSYM    DATA     BYTE      TMR2RLH
      000000A6H   SFRSYM    DATA     BYTE      P2MDOUT
      000000A8H   SFRSYM    DATA     BYTE      IE
      00000093H   SFRSYM    DATA     BYTE      TMR3RLH
      0000009CH   SFRSYM    DATA     BYTE      P3MDOUT
      000000A3H   SFRSYM    DATA     BYTE      TMR4RLH
      000000F3H   SFRSYM    DATA     BYTE      EIP1
      000000F4H   SFRSYM    DATA     BYTE      EIP2
      00000098H.2 SFRSYM    DATA     BIT       SCON0_RB8
      000000CAH   SFRSYM    DATA     BYTE      TMR2RLL
      000000FCH   SFRSYM    DATA     BYTE      PCA0CPH0
      00000092H   SFRSYM    DATA     BYTE      TMR3RLL
      000000EAH   SFRSYM    DATA     BYTE      PCA0CPH1
      00000098H.3 SFRSYM    DATA     BIT       SCON0_TB8
      000000F0H   SFRSYM    DATA     BIT       B_B0
      00000082H   SFRSYM    DATA     WORD      DP
      000000A2H   SFRSYM    DATA     BYTE      TMR4RLL
      000000ECH   SFRSYM    DATA     BYTE      PCA0CPH2
      000000F0H.1 SFRSYM    DATA     BIT       B_B1
      000000C3H   SFRSYM    DATA     WORD      ADC0GT
      000000BDH   SFRSYM    DATA     BYTE      I2C0SLAD
      000000D8H.3 SFRSYM    DATA     BIT       UART1FCN1_RFRQ
      000000F0H.2 SFRSYM    DATA     BIT       B_B2
      000000CFH   SFRSYM    DATA     BYTE      SFRPGCN
      000000FBH   SFRSYM    DATA     BYTE      PCA0CPL0
      000000F0H.3 SFRSYM    DATA     BIT       B_B3
      000000D9H   SFRSYM    DATA     BYTE      PCA0MD
      000000DAH   SFRSYM    DATA     BYTE      PCA0CPM0
      000000E9H   SFRSYM    DATA     BYTE      PCA0CPL1
      000000D8H.7 SFRSYM    DATA     BIT       UART1FCN1_TFRQ
      000000F0H.4 SFRSYM    DATA     BIT       B_B4
      000000DBH   SFRSYM    DATA     BYTE      PCA0CPM1
      000000EBH   SFRSYM    DATA     BYTE      PCA0CPL2
      000000F0H.5 SFRSYM    DATA     BIT       B_B5
      000000DCH   SFRSYM    DATA     BYTE      PCA0CPM2
      000000B8H   SFRSYM    DATA     BYTE      IP
      000000B9H   SFRSYM    DATA     BYTE      ADC0TK
      000000F0H.6 SFRSYM    DATA     BIT       B_B6
      000000C5H   SFRSYM    DATA     WORD      ADC0LT
      000000D8H.6 SFRSYM    DATA     BIT       UART1FCN1_TXNF
LX51 LINKER/LOCATER V4.66.30.0                                                        08/12/2020  16:38:44  PAGE 80


      00000098H.5 SFRSYM    DATA     BIT       SCON0_MCE
      000000F0H.7 SFRSYM    DATA     BIT       B_B7
      000000C3H   SFRSYM    DATA     BYTE      SMB0FCN0
      000000E1H   SFRSYM    DATA     BYTE      XBR0
      000000C4H   SFRSYM    DATA     BYTE      SMB0FCN1
      000000C1H   SFRSYM    DATA     BYTE      SMB0CF
      000000E2H   SFRSYM    DATA     BYTE      XBR1
      000000C1H   SFRSYM    DATA     BYTE      PFE0CN
      000000E7H   SFRSYM    DATA     BYTE      EMI0CN
      000000C0H.5 SFRSYM    DATA     BIT       SMB0CN0_STA
      000000E3H   SFRSYM    DATA     BYTE      XBR2
      000000BBH   SFRSYM    DATA     BYTE      ADC0MX
      000000E0H   SFRSYM    DATA     BIT       ACC_ACC0
      000000D1H   SFRSYM    DATA     BYTE      REF0CN
      0000008EH   SFRSYM    DATA     BYTE      CKCON0
      000000E0H.1 SFRSYM    DATA     BIT       ACC_ACC1
      000000C9H   SFRSYM    DATA     BYTE      REG0CN
      000000DDH   SFRSYM    DATA     BYTE      CRC0IN
      000000A6H   SFRSYM    DATA     BYTE      CKCON1
      000000C8H.2 SFRSYM    DATA     BIT       TMR2CN0_TR2
      000000E0H.2 SFRSYM    DATA     BIT       ACC_ACC2
      000000C6H   SFRSYM    DATA     BYTE      REG1CN
      000000E0H.3 SFRSYM    DATA     BIT       ACC_ACC3
      00000081H   SFRSYM    DATA     BYTE      SP
      0000009DH   SFRSYM    DATA     BYTE      CMP0MD
      000000E0H.4 SFRSYM    DATA     BIT       ACC_ACC4
      000000B1H   SFRSYM    DATA     BYTE      LFO0CN
      000000ABH   SFRSYM    DATA     BYTE      CMP1MD
      000000D8H   SFRSYM    DATA     BIT       PCA0CN0_CCF0
      000000E0H.5 SFRSYM    DATA     BIT       ACC_ACC5
      00000098H.2 SFRSYM    DATA     BIT       TMR4CN0_TR4
      000000D8H.1 SFRSYM    DATA     BIT       PCA0CN0_CCF1
      000000E0H.6 SFRSYM    DATA     BIT       ACC_ACC6
      000000CCH   SFRSYM    DATA     WORD      TMR2
      0000009AH   SFRSYM    DATA     BYTE      SPI0FCN0
      000000D8H.2 SFRSYM    DATA     BIT       PCA0CN0_CCF2
      000000E0H.7 SFRSYM    DATA     BIT       ACC_ACC7
      00000094H   SFRSYM    DATA     WORD      TMR3
      0000009BH   SFRSYM    DATA     BYTE      SPI0FCN1
      000000A4H   SFRSYM    DATA     WORD      TMR4
      00000094H   SFRSYM    DATA     BYTE      SBCON1
      000000C0H.3 SFRSYM    DATA     BIT       SMB0CN0_ACKRQ
      000000FFH   SFRSYM    DATA     BYTE      VDM0CN
      000000F1H   SFRSYM    DATA     BYTE      P0MDIN
      00000098H.4 SFRSYM    DATA     BIT       SCON0_REN
      000000ACH   SFRSYM    DATA     BYTE      SMB0TC
      000000F2H   SFRSYM    DATA     BYTE      P1MDIN
      000000C8H.4 SFRSYM    DATA     BIT       SCON1_REN
      000000F3H   SFRSYM    DATA     BYTE      P2MDIN
      000000C0H.4 SFRSYM    DATA     BIT       SMB0CN0_STO
      000000F4H   SFRSYM    DATA     BYTE      P3MDIN
      000000B9H   SFRSYM    DATA     BYTE      I2C0STAT
      000000BBH   SFRSYM    DATA     BYTE      I2C0DOUT
      00000096H   SFRSYM    DATA     BYTE      SBRLH1
      000000FEH   SFRSYM    DATA     BYTE      P0MASK
      000000D8H.5 SFRSYM    DATA     BIT       UART1FCN1_TXHOLD
      000000EEH   SFRSYM    DATA     BYTE      P1MASK
      000000FCH   SFRSYM    DATA     BYTE      P2MASK
      000000D0H.3 SFRSYM    DATA     BIT       PSW_RS0
      000000D8H.7 SFRSYM    DATA     BIT       PCA0CN0_CF
      0000009EH   SFRSYM    DATA     BYTE      PCA0CENT
      000000BAH   SFRSYM    DATA     BYTE      I2C0CN0
LX51 LINKER/LOCATER V4.66.30.0                                                        08/12/2020  16:38:44  PAGE 81


      000000D2H   SFRSYM    DATA     BYTE      CRC0ST
      000000F8H.4 SFRSYM    DATA     BIT       SPI0CN0_RXOVRN
      000000D0H.4 SFRSYM    DATA     BIT       PSW_RS1
      00000095H   SFRSYM    DATA     BYTE      SBRLL1
      000000C8H.2 SFRSYM    DATA     BIT       SCON1_RBX
      000000C8H   SFRSYM    DATA     BIT       TMR2CN0_T2XCLK0
      000000C8H.1 SFRSYM    DATA     BIT       TMR2CN0_T2XCLK1
      000000C8H.3 SFRSYM    DATA     BIT       SCON1_TBX
      000000E8H.7 SFRSYM    DATA     BIT       ADC0CN0_ADEN
      00000089H   SFRSYM    DATA     BYTE      TMOD
      00000088H   SFRSYM    DATA     BYTE      TCON
      000000CFH   SFRSYM    DATA     BYTE      CRC0FLIP
      000000D0H   SFRSYM    DATA     BIT       PSW_PARITY
      000000A8H.4 SFRSYM    DATA     BIT       IE_ES0
      0000009FH   SFRSYM    DATA     BYTE      CMP0MX
      00000098H   SFRSYM    DATA     BIT       TMR4CN0_T4XCLK0
      000000A8H.1 SFRSYM    DATA     BIT       IE_ET0
      000000AAH   SFRSYM    DATA     BYTE      CMP1MX
      00000098H.1 SFRSYM    DATA     BIT       TMR4CN0_T4XCLK1
      000000A8H.3 SFRSYM    DATA     BIT       IE_ET1
      000000D4H   SFRSYM    DATA     BYTE      P0SKIP
      000000D8H   SFRSYM    DATA     BIT       UART1FCN1_RIE
      000000A8H.5 SFRSYM    DATA     BIT       IE_ET2
      000000D5H   SFRSYM    DATA     BYTE      P1SKIP
      000000CCH   SFRSYM    DATA     BYTE      P2SKIP
      000000E8H   SFRSYM    DATA     BYTE      ADC0CN0
      000000D8H.4 SFRSYM    DATA     BIT       UART1FCN1_TIE
      000000A8H   SFRSYM    DATA     BIT       IE_EX0
      000000B2H   SFRSYM    DATA     BYTE      ADC0CN1
      000000D8H.6 SFRSYM    DATA     BIT       PCA0CN0_CR
      000000A8H.2 SFRSYM    DATA     BIT       IE_EX1
      000000C8H.7 SFRSYM    DATA     BIT       SCON1_OVR
      00000098H.7 SFRSYM    DATA     BIT       SCON0_SMODE
      000000B5H   SFRSYM    DATA     BYTE      DEVICEID
      000000A9H   SFRSYM    DATA     BYTE      CLKSEL
      000000F8H   SFRSYM    DATA     BIT       SPI0CN0_SPIEN
      000000F0H   SFRSYM    DATA     BYTE      B
      000000BEH   SFRSYM    DATA     BYTE      ADC0H
      000000E8H.6 SFRSYM    DATA     BIT       ADC0CN0_ADBMEN
      000000CAH   SFRSYM    DATA     WORD      TMR2RL
      000000BDH   SFRSYM    DATA     BYTE      ADC0L
      00000092H   SFRSYM    DATA     WORD      TMR3RL
      000000A2H   SFRSYM    DATA     WORD      TMR4RL
      000000D8H   SFRSYM    DATA     BYTE      PCA0CN0
      000000E0H   SFRSYM    DATA     BYTE      ACC
      000000FBH   SFRSYM    DATA     WORD      PCA0CP0
      000000E9H   SFRSYM    DATA     WORD      PCA0CP1
      000000EBH   SFRSYM    DATA     WORD      PCA0CP2
      000000BCH   SFRSYM    DATA     BYTE      I2C0DIN
      000000CEH   SFRSYM    DATA     BYTE      CRC0CN0
      0000008CH   SFRSYM    DATA     BYTE      TH0
      00000086H   SFRSYM    DATA     BYTE      CRC0CN1
      000000B8H.4 SFRSYM    DATA     BIT       IP_PS0
      000000FAH   SFRSYM    DATA     BYTE      UART1FCT
      0000008DH   SFRSYM    DATA     BYTE      TH1
      000000FAH   SFRSYM    DATA     BYTE      PCA0H
      000000F5H   SFRSYM    DATA     BYTE      I2C0FCT
      000000B8H.1 SFRSYM    DATA     BIT       IP_PT0
      000000B8H.3 SFRSYM    DATA     BIT       IP_PT1
      000000C0H.2 SFRSYM    DATA     BIT       SMB0CN0_ARBLOST
      000000B8H.5 SFRSYM    DATA     BIT       IP_PT2
      0000008AH   SFRSYM    DATA     BYTE      TL0
LX51 LINKER/LOCATER V4.66.30.0                                                        08/12/2020  16:38:44  PAGE 82


      000000D0H.5 SFRSYM    DATA     BIT       PSW_F0
      000000A8H.6 SFRSYM    DATA     BIT       IE_ESPI0
      0000008BH   SFRSYM    DATA     BYTE      TL1
      000000F9H   SFRSYM    DATA     BYTE      PCA0L
      000000C0H   SFRSYM    DATA     BIT       SMB0CN0_SI
      000000D0H.1 SFRSYM    DATA     BIT       PSW_F1
      00000080H   SFRSYM    DATA     BIT       P0_B0
      000000B8H   SFRSYM    DATA     BIT       IP_PX0
      00000090H   SFRSYM    DATA     BIT       P1_B0
      00000080H.1 SFRSYM    DATA     BIT       P0_B1
      000000B8H.2 SFRSYM    DATA     BIT       IP_PX1
      0000009EH   SFRSYM    DATA     BYTE      UART1LIN
      0000009BH   SFRSYM    DATA     BYTE      CMP0CN0
      00000088H.1 SFRSYM    DATA     BIT       TCON_IE0
      000000A0H   SFRSYM    DATA     BIT       P2_B0
      00000090H.1 SFRSYM    DATA     BIT       P1_B1
      00000080H.2 SFRSYM    DATA     BIT       P0_B2
      000000BFH   SFRSYM    DATA     BYTE      CMP1CN0
      00000099H   SFRSYM    DATA     BYTE      CMP0CN1
      00000088H.3 SFRSYM    DATA     BIT       TCON_IE1
      000000B0H   SFRSYM    DATA     BIT       P3_B0
      000000A0H.1 SFRSYM    DATA     BIT       P2_B1
      00000090H.2 SFRSYM    DATA     BIT       P1_B2
      00000080H.3 SFRSYM    DATA     BIT       P0_B3
      000000C0H   SFRSYM    DATA     BYTE      SMB0CN0
      000000ACH   SFRSYM    DATA     BYTE      CMP1CN1
      000000B0H.1 SFRSYM    DATA     BIT       P3_B1
      000000A0H.2 SFRSYM    DATA     BIT       P2_B2
      00000090H.3 SFRSYM    DATA     BIT       P1_B3
      00000080H.4 SFRSYM    DATA     BIT       P0_B4
      000000A0H.3 SFRSYM    DATA     BIT       P2_B3
      00000090H.4 SFRSYM    DATA     BIT       P1_B4
      00000080H.5 SFRSYM    DATA     BIT       P0_B5
      000000D8H.1 SFRSYM    DATA     BIT       UART1FCN1_RXTO0
      00000090H.5 SFRSYM    DATA     BIT       P1_B5
      00000080H.6 SFRSYM    DATA     BIT       P0_B6
      000000F5H   SFRSYM    DATA     BYTE      EIP1H
      000000D8H.2 SFRSYM    DATA     BIT       UART1FCN1_RXTO1
      00000090H.6 SFRSYM    DATA     BIT       P1_B6
      00000080H.7 SFRSYM    DATA     BIT       P0_B7
      000000C5H   SFRSYM    DATA     BYTE      SMB0RXLN
      000000F6H   SFRSYM    DATA     BYTE      EIP2H
      00000090H.7 SFRSYM    DATA     BIT       P1_B7
      00000083H   SFRSYM    DATA     BYTE      DPH
      000000C4H   SFRSYM    DATA     BYTE      ADC0GTH
      000000C8H.7 SFRSYM    DATA     BIT       TMR2CN0_TF2H
      000000C8H.3 SFRSYM    DATA     BIT       TMR2CN0_T2SPLIT
      000000D0H.6 SFRSYM    DATA     BIT       PSW_AC
      000000F8H   SFRSYM    DATA     BYTE      SPI0CN0
      000000C7H   SFRSYM    DATA     BYTE      HFO0CAL
      00000088H.5 SFRSYM    DATA     BIT       TCON_TF0
      00000098H   SFRSYM    DATA     BIT       SCON0_RI
      000000D6H   SFRSYM    DATA     BYTE      HFO1CAL
      00000082H   SFRSYM    DATA     BYTE      DPL
      00000088H.7 SFRSYM    DATA     BIT       TCON_TF1
      000000C8H   SFRSYM    DATA     BIT       SCON1_RI
      00000099H   SFRSYM    DATA     BYTE      SBUF0
      00000087H   SFRSYM    DATA     BYTE      PCON0
      000000F2H   SFRSYM    DATA     BYTE      IPH
      000000C3H   SFRSYM    DATA     BYTE      ADC0GTL
      00000098H.7 SFRSYM    DATA     BIT       TMR4CN0_TF4H
      00000098H.3 SFRSYM    DATA     BIT       TMR4CN0_T4SPLIT
LX51 LINKER/LOCATER V4.66.30.0                                                        08/12/2020  16:38:44  PAGE 83


      000000C8H.6 SFRSYM    DATA     BIT       TMR2CN0_TF2L
      00000098H.1 SFRSYM    DATA     BIT       SCON0_TI
      000000E8H   SFRSYM    DATA     BIT       ADC0CN0_ADCM0
      00000092H   SFRSYM    DATA     BYTE      SBUF1
      0000009AH   SFRSYM    DATA     BYTE      PCON1
      000000C6H   SFRSYM    DATA     BYTE      ADC0LTH
      00000088H   SFRSYM    DATA     BIT       TCON_IT0
      000000C8H.1 SFRSYM    DATA     BIT       SCON1_TI
      000000E8H.1 SFRSYM    DATA     BIT       ADC0CN0_ADCM1
      000000EFH   SFRSYM    DATA     BYTE      RSTSRC
      000000FDH   SFRSYM    DATA     BYTE      P0MAT
      000000DEH   SFRSYM    DATA     BYTE      CRC0DAT
      00000088H.2 SFRSYM    DATA     BIT       TCON_IT1
      000000E8H.2 SFRSYM    DATA     BIT       ADC0CN0_ADCM2
      000000D7H   SFRSYM    DATA     BYTE      SFRSTACK
      00000098H   SFRSYM    DATA     BYTE      SCON0
      000000F6H   SFRSYM    DATA     BYTE      PRTDRV
      000000EDH   SFRSYM    DATA     BYTE      P1MAT
      000000E8H.3 SFRSYM    DATA     BIT       ADC0CN0_ADWINT
      00000095H   SFRSYM    DATA     WORD      SBRL1
      00000093H   SFRSYM    DATA     BYTE      SMOD1
      000000C8H   SFRSYM    DATA     BYTE      SCON1
      000000FBH   SFRSYM    DATA     BYTE      P2MAT
      00000098H.6 SFRSYM    DATA     BIT       TMR4CN0_TF4L
      000000E8H.4 SFRSYM    DATA     BIT       ADC0CN0_ADBUSY
      000000D6H   SFRSYM    DATA     BYTE      SMB0ADM
      000000C5H   SFRSYM    DATA     BYTE      ADC0LTL
      000000F8H.5 SFRSYM    DATA     BIT       SPI0CN0_MODF
      000000B8H.6 SFRSYM    DATA     BIT       IP_PSPI0
      0000009CH   SFRSYM    DATA     BYTE      PCA0CLR
      000000C8H   SFRSYM    DATA     BYTE      TMR2CN0
      00000091H   SFRSYM    DATA     BYTE      TMR3CN0
      000000FDH   SFRSYM    DATA     BYTE      TMR2CN1
      00000098H   SFRSYM    DATA     BYTE      TMR4CN0
      000000FEH   SFRSYM    DATA     BYTE      TMR3CN1
      000000FFH   SFRSYM    DATA     BYTE      TMR4CN1
      000000D7H   SFRSYM    DATA     BYTE      SMB0ADR
      00000088H.4 SFRSYM    DATA     BIT       TCON_TR0
      000000C8H.4 SFRSYM    DATA     BIT       TMR2CN0_TF2CEN
      00000088H.6 SFRSYM    DATA     BIT       TCON_TR1
      000000C2H   SFRSYM    DATA     BYTE      SMB0DAT
      000000CDH   SFRSYM    DATA     BYTE      TMR2H
      000000A1H   SFRSYM    DATA     BYTE      SPI0CFG
      00000095H   SFRSYM    DATA     BYTE      TMR3H
      000000EFH   SFRSYM    DATA     BYTE      HFOCN
      000000D3H   SFRSYM    DATA     BYTE      CRC0CNT
      000000A5H   SFRSYM    DATA     BYTE      TMR4H
      00000098H.4 SFRSYM    DATA     BIT       TMR4CN0_TF4CEN
      000000EFH   SFRSYM    DATA     BYTE      SMB0FCT
      00000096H   SFRSYM    DATA     BYTE      PCA0POL
      000000CCH   SFRSYM    DATA     BYTE      TMR2L
      000000F8H.7 SFRSYM    DATA     BIT       SPI0CN0_SPIF
      00000094H   SFRSYM    DATA     BYTE      TMR3L
      000000DFH   SFRSYM    DATA     BYTE      ADC0PWR
      000000A8H.7 SFRSYM    DATA     BIT       IE_EA
      000000A4H   SFRSYM    DATA     BYTE      TMR4L
      000000C8H.5 SFRSYM    DATA     BIT       TMR2CN0_TF2LEN
      000000F8H.6 SFRSYM    DATA     BIT       SPI0CN0_WCOL
      000000F8H.2 SFRSYM    DATA     BIT       SPI0CN0_NSSMD0
      000000D0H.7 SFRSYM    DATA     BIT       PSW_CY
      0000009DH   SFRSYM    DATA     BYTE      UART1FCN0
      000000A3H   SFRSYM    DATA     BYTE      SPI0DAT
LX51 LINKER/LOCATER V4.66.30.0                                                        08/12/2020  16:38:44  PAGE 84


      000000ADH   SFRSYM    DATA     BYTE      I2C0FCN0
      000000F8H.3 SFRSYM    DATA     BIT       SPI0CN0_NSSMD1
      000000BDH   SFRSYM    DATA     WORD      ADC0
      000000D8H   SFRSYM    DATA     BYTE      UART1FCN1
      000000ABH   SFRSYM    DATA     BYTE      I2C0FCN1
      00000098H.5 SFRSYM    DATA     BIT       TMR4CN0_TF4LEN
      000000D0H   SFRSYM    DATA     BYTE      PSW
      000000F7H   SFRSYM    DATA     BYTE      PCA0PWM
      000000F7H   SFRSYM    DATA     BYTE      SPI0FCT
      000000B6H   SFRSYM    DATA     BYTE      REVID
      000000B7H   SFRSYM    DATA     BYTE      FLKEY
      000000B3H   SFRSYM    DATA     BYTE      ADC0AC

      01000021H   BLOCK     CODE     ---       LVL=0
      01000021H   LINE      CODE     ---       #38
      01000021H   LINE      CODE     ---       #39
      01000021H   LINE      CODE     ---       #40
      ---         BLOCKEND  ---      ---       LVL=0

      010028FCH   BLOCK     CODE     ---       LVL=0
      010028FCH   BLOCK     CODE     NEAR LAB  LVL=1
      00000003H   SYMBOL    DATA     BYTE      i
      ---         BLOCKEND  ---      ---       LVL=1
      010028FCH   LINE      CODE     ---       #42
      010028FCH   LINE      CODE     ---       #43
      010028FCH   LINE      CODE     ---       #46
      010028FFH   LINE      CODE     ---       #48
      01002902H   LINE      CODE     ---       #49
      01002904H   LINE      CODE     ---       #50
      01002904H   LINE      CODE     ---       #51
      01002911H   LINE      CODE     ---       #52
      0100291DH   LINE      CODE     ---       #53
      01002929H   LINE      CODE     ---       #54
      0100292EH   LINE      CODE     ---       #55
      01002933H   LINE      CODE     ---       #56
      01002937H   LINE      CODE     ---       #57
      0100293BH   LINE      CODE     ---       #58
      0100293FH   LINE      CODE     ---       #59
      01002943H   LINE      CODE     ---       #60
      01002947H   LINE      CODE     ---       #61
      0100294BH   LINE      CODE     ---       #62
      01002951H   LINE      CODE     ---       #63
      01002955H   LINE      CODE     ---       #64
      01002959H   LINE      CODE     ---       #65
      0100295BH   LINE      CODE     ---       #66
      0100295DH   LINE      CODE     ---       #67
      0100295FH   LINE      CODE     ---       #68
      01002961H   LINE      CODE     ---       #69
      0100296FH   LINE      CODE     ---       #71
      01002975H   LINE      CODE     ---       #74
      0100297EH   LINE      CODE     ---       #77
      01002980H   LINE      CODE     ---       #78
      01002980H   LINE      CODE     ---       #79
      01002995H   LINE      CODE     ---       #80
      010029AAH   LINE      CODE     ---       #81
      010029AFH   LINE      CODE     ---       #82
      010029B9H   LINE      CODE     ---       #83
      010029C3H   LINE      CODE     ---       #86
      ---         BLOCKEND  ---      ---       LVL=0

      01002BD0H   BLOCK     CODE     ---       LVL=0
      01002BD0H   LINE      CODE     ---       #89
LX51 LINKER/LOCATER V4.66.30.0                                                        08/12/2020  16:38:44  PAGE 85


      01002BD0H   LINE      CODE     ---       #90
      01002BD0H   LINE      CODE     ---       #91
      01002BD3H   LINE      CODE     ---       #92
      01002BD6H   LINE      CODE     ---       #93
      01002BDBH   LINE      CODE     ---       #94
      01002BDEH   LINE      CODE     ---       #95
      01002BE1H   LINE      CODE     ---       #96
      01002BE4H   LINE      CODE     ---       #97
      01002BE7H   LINE      CODE     ---       #98
      01002BEAH   LINE      CODE     ---       #99
      01002BEDH   LINE      CODE     ---       #100
      01002BF0H   LINE      CODE     ---       #101
      01002BF3H   LINE      CODE     ---       #102
      01002BFAH   LINE      CODE     ---       #104
      01002BFAH   LINE      CODE     ---       #105
      01002BFDH   LINE      CODE     ---       #106
      01002BFDH   LINE      CODE     ---       #122
      01002C07H   LINE      CODE     ---       #123
      01002C07H   LINE      CODE     ---       #124
      01002C0DH   LINE      CODE     ---       #125
      01002C0DH   LINE      CODE     ---       #126
      01002C0FH   LINE      CODE     ---       #127
      01002C12H   LINE      CODE     ---       #128
      01002C20H   LINE      CODE     ---       #129
      01002C23H   LINE      CODE     ---       #130
      01002C23H   LINE      CODE     ---       #132
      01002C25H   LINE      CODE     ---       #134
      01002C2AH   LINE      CODE     ---       #137
      01002C31H   LINE      CODE     ---       #138
      01002C31H   LINE      CODE     ---       #139
      01002C36H   LINE      CODE     ---       #140
      01002C3FH   LINE      CODE     ---       #141
      01002C44H   LINE      CODE     ---       #142
      01002C48H   LINE      CODE     ---       #148
      01002C4AH   LINE      CODE     ---       #150
      01002C4AH   LINE      CODE     ---       #151
      01002C50H   LINE      CODE     ---       #152
      01002C55H   LINE      CODE     ---       #153
      01002C55H   LINE      CODE     ---       #154
      01002C58H   LINE      CODE     ---       #155
      01002C58H   LINE      CODE     ---       #156
      01002C58H   LINE      CODE     ---       #157
      01002C5EH   LINE      CODE     ---       #158
      01002C5EH   LINE      CODE     ---       #159
      01002C60H   LINE      CODE     ---       #160
      01002C63H   LINE      CODE     ---       #161
      01002C63H   LINE      CODE     ---       #162
      01002C63H   LINE      CODE     ---       #166
      01002C63H   LINE      CODE     ---       #201
      01002C63H   LINE      CODE     ---       #203
      01002C66H   LINE      CODE     ---       #204
      ---         BLOCKEND  ---      ---       LVL=0

      ---         MODULE    ---      ---       ?C_STARTUP
      01000000H   PUBLIC    CODE     NEAR LAB  ?C_STARTUP
      000000E0H   SFRSYM    DATA     BYTE      ACC
      000000F0H   SFRSYM    DATA     BYTE      B
      00000083H   SFRSYM    DATA     BYTE      DPH
      00000082H   SFRSYM    DATA     BYTE      DPL
      000000A0H   SFRSYM    DATA     BYTE      PPAGE_SFR
      00000081H   SFRSYM    DATA     BYTE      SP
      00000000H   SYMBOL    NUMBER   ---       IBPSTACK
LX51 LINKER/LOCATER V4.66.30.0                                                        08/12/2020  16:38:44  PAGE 86


      00000100H   SYMBOL    NUMBER   ---       IBPSTACKTOP
      00000080H   SYMBOL    NUMBER   ---       IDATALEN
      01002C6EH   SYMBOL    CODE     NEAR LAB  IDATALOOP
      00000000H   SYMBOL    NUMBER   ---       PBPSTACK
      00000100H   SYMBOL    NUMBER   ---       PBPSTACKTOP
      00000000H   SYMBOL    NUMBER   ---       PDATALEN
      00000000H   SYMBOL    NUMBER   ---       PDATASTART
      00000000H   SYMBOL    NUMBER   ---       PPAGE
      00000000H   SYMBOL    NUMBER   ---       PPAGEENABLE
      01002C68H   SYMBOL    CODE     NEAR LAB  STARTUP1
      00000000H   SYMBOL    NUMBER   ---       XBPSTACK
      00010000H   SYMBOL    NUMBER   ---       XBPSTACKTOP
      00000000H   SYMBOL    NUMBER   ---       XDATALEN
      00000000H   SYMBOL    NUMBER   ---       XDATASTART

      01000000H   BLOCK     CODE     NEAR LAB  LVL=0
      01000000H   LINE      CODE     ---       #126
      ---         BLOCKEND  ---      ---       LVL=0

      01002C68H   BLOCK     CODE     NEAR LAB  LVL=0
      01002C68H   LINE      CODE     ---       #134
      01002C6BH   LINE      CODE     ---       #138
      01002C6DH   LINE      CODE     ---       #139
      01002C6EH   LINE      CODE     ---       #140
      01002C6FH   LINE      CODE     ---       #141
      01002C71H   LINE      CODE     ---       #190
      01002C74H   LINE      CODE     ---       #201
      ---         BLOCKEND  ---      ---       LVL=0

      ---         MODULE    ---      ---       SERIAL
      0200023EH   PUBLIC    XDATA    ---       Serial
      02000237H   PUBLIC    XDATA    ---       Serial_ISP
      0100318CH   PUBLIC    CODE     ---       RxDataParity
      01002550H   PUBLIC    CODE     ---       _Srl_GetData
      01002655H   PUBLIC    CODE     ---       _Srl_GetHeader
      01001D92H   PUBLIC    CODE     ---       PCA0_ISR
      020003B8H   PUBLIC    XDATA    BYTE      ?_Srl_SendData?BYTE
      01001C0CH   PUBLIC    CODE     ---       _Srl_SendData
      0100231AH   PUBLIC    CODE     ---       SendData_Work
      0100282EH   PUBLIC    CODE     ---       SendData_SelfCheck
      010033A7H   PUBLIC    CODE     ---       Srl_InitVariable
      01003826H   PUBLIC    CODE     ---       DisableInternalCommunicaiton
      010036D3H   PUBLIC    CODE     ---       EnableInternalCommunicaiton
      0100350FH   PUBLIC    CODE     ---       _CommunicaitonMode
      000000A2H   SFRSYM    DATA     BYTE      SPI0CKR
      00000080H   SFRSYM    DATA     BYTE      P0
      000000C8H.6 SFRSYM    DATA     BIT       SCON1_PERR
      000000D0H.2 SFRSYM    DATA     BIT       PSW_OV
      00000090H   SFRSYM    DATA     BYTE      P1
      000000F8H.1 SFRSYM    DATA     BIT       SPI0CN0_TXNF
      00000097H   SFRSYM    DATA     BYTE      WDTCN
      000000A0H   SFRSYM    DATA     BYTE      P2
      000000B0H   SFRSYM    DATA     BYTE      P3
      000000BCH   SFRSYM    DATA     BYTE      ADC0CF
      000000C0H.7 SFRSYM    DATA     BIT       SMB0CN0_MASTER
      000000F9H   SFRSYM    DATA     WORD      PCA0
      000000E6H   SFRSYM    DATA     BYTE      EIE1
      000000C0H.1 SFRSYM    DATA     BIT       SMB0CN0_ACK
      000000CEH   SFRSYM    DATA     BYTE      EIE2
      0000008FH   SFRSYM    DATA     BYTE      PSCTL
      000000E4H   SFRSYM    DATA     BYTE      IT01CF
      000000C0H.6 SFRSYM    DATA     BIT       SMB0CN0_TXMODE
LX51 LINKER/LOCATER V4.66.30.0                                                        08/12/2020  16:38:44  PAGE 87


      000000ADH   SFRSYM    DATA     BYTE      DERIVID
      000000A7H   SFRSYM    DATA     BYTE      SFRPAGE
      000000A4H   SFRSYM    DATA     BYTE      P0MDOUT
      000000A5H   SFRSYM    DATA     BYTE      P1MDOUT
      000000E8H.5 SFRSYM    DATA     BIT       ADC0CN0_ADINT
      000000CBH   SFRSYM    DATA     BYTE      TMR2RLH
      000000A6H   SFRSYM    DATA     BYTE      P2MDOUT
      000000A8H   SFRSYM    DATA     BYTE      IE
      00000093H   SFRSYM    DATA     BYTE      TMR3RLH
      0000009CH   SFRSYM    DATA     BYTE      P3MDOUT
      000000A3H   SFRSYM    DATA     BYTE      TMR4RLH
      000000F3H   SFRSYM    DATA     BYTE      EIP1
      000000F4H   SFRSYM    DATA     BYTE      EIP2
      00000098H.2 SFRSYM    DATA     BIT       SCON0_RB8
      000000CAH   SFRSYM    DATA     BYTE      TMR2RLL
      000000FCH   SFRSYM    DATA     BYTE      PCA0CPH0
      00000092H   SFRSYM    DATA     BYTE      TMR3RLL
      000000EAH   SFRSYM    DATA     BYTE      PCA0CPH1
      00000098H.3 SFRSYM    DATA     BIT       SCON0_TB8
      000000F0H   SFRSYM    DATA     BIT       B_B0
      00000082H   SFRSYM    DATA     WORD      DP
      000000A2H   SFRSYM    DATA     BYTE      TMR4RLL
      000000ECH   SFRSYM    DATA     BYTE      PCA0CPH2
      000000F0H.1 SFRSYM    DATA     BIT       B_B1
      000000C3H   SFRSYM    DATA     WORD      ADC0GT
      000000BDH   SFRSYM    DATA     BYTE      I2C0SLAD
      000000D8H.3 SFRSYM    DATA     BIT       UART1FCN1_RFRQ
      000000F0H.2 SFRSYM    DATA     BIT       B_B2
      000000CFH   SFRSYM    DATA     BYTE      SFRPGCN
      000000FBH   SFRSYM    DATA     BYTE      PCA0CPL0
      000000F0H.3 SFRSYM    DATA     BIT       B_B3
      000000D9H   SFRSYM    DATA     BYTE      PCA0MD
      000000DAH   SFRSYM    DATA     BYTE      PCA0CPM0
      000000E9H   SFRSYM    DATA     BYTE      PCA0CPL1
      000000D8H.7 SFRSYM    DATA     BIT       UART1FCN1_TFRQ
      000000F0H.4 SFRSYM    DATA     BIT       B_B4
      000000DBH   SFRSYM    DATA     BYTE      PCA0CPM1
      000000EBH   SFRSYM    DATA     BYTE      PCA0CPL2
      000000F0H.5 SFRSYM    DATA     BIT       B_B5
      000000DCH   SFRSYM    DATA     BYTE      PCA0CPM2
      000000B8H   SFRSYM    DATA     BYTE      IP
      000000B9H   SFRSYM    DATA     BYTE      ADC0TK
      000000F0H.6 SFRSYM    DATA     BIT       B_B6
      000000C5H   SFRSYM    DATA     WORD      ADC0LT
      000000D8H.6 SFRSYM    DATA     BIT       UART1FCN1_TXNF
      00000098H.5 SFRSYM    DATA     BIT       SCON0_MCE
      000000F0H.7 SFRSYM    DATA     BIT       B_B7
      000000C3H   SFRSYM    DATA     BYTE      SMB0FCN0
      000000E1H   SFRSYM    DATA     BYTE      XBR0
      000000C4H   SFRSYM    DATA     BYTE      SMB0FCN1
      000000C1H   SFRSYM    DATA     BYTE      SMB0CF
      000000E2H   SFRSYM    DATA     BYTE      XBR1
      000000C1H   SFRSYM    DATA     BYTE      PFE0CN
      000000E7H   SFRSYM    DATA     BYTE      EMI0CN
      000000C0H.5 SFRSYM    DATA     BIT       SMB0CN0_STA
      000000E3H   SFRSYM    DATA     BYTE      XBR2
      000000BBH   SFRSYM    DATA     BYTE      ADC0MX
      000000E0H   SFRSYM    DATA     BIT       ACC_ACC0
      000000D1H   SFRSYM    DATA     BYTE      REF0CN
      0000008EH   SFRSYM    DATA     BYTE      CKCON0
      000000E0H.1 SFRSYM    DATA     BIT       ACC_ACC1
      000000C9H   SFRSYM    DATA     BYTE      REG0CN
LX51 LINKER/LOCATER V4.66.30.0                                                        08/12/2020  16:38:44  PAGE 88


      000000DDH   SFRSYM    DATA     BYTE      CRC0IN
      000000A6H   SFRSYM    DATA     BYTE      CKCON1
      000000C8H.2 SFRSYM    DATA     BIT       TMR2CN0_TR2
      000000E0H.2 SFRSYM    DATA     BIT       ACC_ACC2
      000000C6H   SFRSYM    DATA     BYTE      REG1CN
      000000E0H.3 SFRSYM    DATA     BIT       ACC_ACC3
      00000081H   SFRSYM    DATA     BYTE      SP
      0000009DH   SFRSYM    DATA     BYTE      CMP0MD
      000000E0H.4 SFRSYM    DATA     BIT       ACC_ACC4
      000000B1H   SFRSYM    DATA     BYTE      LFO0CN
      000000ABH   SFRSYM    DATA     BYTE      CMP1MD
      000000D8H   SFRSYM    DATA     BIT       PCA0CN0_CCF0
      000000E0H.5 SFRSYM    DATA     BIT       ACC_ACC5
      00000098H.2 SFRSYM    DATA     BIT       TMR4CN0_TR4
      000000D8H.1 SFRSYM    DATA     BIT       PCA0CN0_CCF1
      000000E0H.6 SFRSYM    DATA     BIT       ACC_ACC6
      000000CCH   SFRSYM    DATA     WORD      TMR2
      0000009AH   SFRSYM    DATA     BYTE      SPI0FCN0
      000000D8H.2 SFRSYM    DATA     BIT       PCA0CN0_CCF2
      000000E0H.7 SFRSYM    DATA     BIT       ACC_ACC7
      00000094H   SFRSYM    DATA     WORD      TMR3
      0000009BH   SFRSYM    DATA     BYTE      SPI0FCN1
      000000A4H   SFRSYM    DATA     WORD      TMR4
      00000094H   SFRSYM    DATA     BYTE      SBCON1
      000000C0H.3 SFRSYM    DATA     BIT       SMB0CN0_ACKRQ
      000000FFH   SFRSYM    DATA     BYTE      VDM0CN
      000000F1H   SFRSYM    DATA     BYTE      P0MDIN
      00000098H.4 SFRSYM    DATA     BIT       SCON0_REN
      000000ACH   SFRSYM    DATA     BYTE      SMB0TC
      000000F2H   SFRSYM    DATA     BYTE      P1MDIN
      000000C8H.4 SFRSYM    DATA     BIT       SCON1_REN
      000000F3H   SFRSYM    DATA     BYTE      P2MDIN
      000000C0H.4 SFRSYM    DATA     BIT       SMB0CN0_STO
      000000F4H   SFRSYM    DATA     BYTE      P3MDIN
      000000B9H   SFRSYM    DATA     BYTE      I2C0STAT
      000000BBH   SFRSYM    DATA     BYTE      I2C0DOUT
      00000096H   SFRSYM    DATA     BYTE      SBRLH1
      000000FEH   SFRSYM    DATA     BYTE      P0MASK
      000000D8H.5 SFRSYM    DATA     BIT       UART1FCN1_TXHOLD
      000000EEH   SFRSYM    DATA     BYTE      P1MASK
      000000FCH   SFRSYM    DATA     BYTE      P2MASK
      000000D0H.3 SFRSYM    DATA     BIT       PSW_RS0
      000000D8H.7 SFRSYM    DATA     BIT       PCA0CN0_CF
      0000009EH   SFRSYM    DATA     BYTE      PCA0CENT
      000000BAH   SFRSYM    DATA     BYTE      I2C0CN0
      000000D2H   SFRSYM    DATA     BYTE      CRC0ST
      000000F8H.4 SFRSYM    DATA     BIT       SPI0CN0_RXOVRN
      000000D0H.4 SFRSYM    DATA     BIT       PSW_RS1
      00000095H   SFRSYM    DATA     BYTE      SBRLL1
      000000C8H.2 SFRSYM    DATA     BIT       SCON1_RBX
      000000C8H   SFRSYM    DATA     BIT       TMR2CN0_T2XCLK0
      000000C8H.1 SFRSYM    DATA     BIT       TMR2CN0_T2XCLK1
      000000C8H.3 SFRSYM    DATA     BIT       SCON1_TBX
      000000E8H.7 SFRSYM    DATA     BIT       ADC0CN0_ADEN
      00000089H   SFRSYM    DATA     BYTE      TMOD
      00000088H   SFRSYM    DATA     BYTE      TCON
      000000CFH   SFRSYM    DATA     BYTE      CRC0FLIP
      000000D0H   SFRSYM    DATA     BIT       PSW_PARITY
      000000A8H.4 SFRSYM    DATA     BIT       IE_ES0
      0000009FH   SFRSYM    DATA     BYTE      CMP0MX
      00000098H   SFRSYM    DATA     BIT       TMR4CN0_T4XCLK0
      000000A8H.1 SFRSYM    DATA     BIT       IE_ET0
LX51 LINKER/LOCATER V4.66.30.0                                                        08/12/2020  16:38:44  PAGE 89


      000000AAH   SFRSYM    DATA     BYTE      CMP1MX
      00000098H.1 SFRSYM    DATA     BIT       TMR4CN0_T4XCLK1
      000000A8H.3 SFRSYM    DATA     BIT       IE_ET1
      000000D4H   SFRSYM    DATA     BYTE      P0SKIP
      000000D8H   SFRSYM    DATA     BIT       UART1FCN1_RIE
      000000A8H.5 SFRSYM    DATA     BIT       IE_ET2
      000000D5H   SFRSYM    DATA     BYTE      P1SKIP
      000000CCH   SFRSYM    DATA     BYTE      P2SKIP
      000000E8H   SFRSYM    DATA     BYTE      ADC0CN0
      000000D8H.4 SFRSYM    DATA     BIT       UART1FCN1_TIE
      000000A8H   SFRSYM    DATA     BIT       IE_EX0
      000000B2H   SFRSYM    DATA     BYTE      ADC0CN1
      000000D8H.6 SFRSYM    DATA     BIT       PCA0CN0_CR
      000000A8H.2 SFRSYM    DATA     BIT       IE_EX1
      000000C8H.7 SFRSYM    DATA     BIT       SCON1_OVR
      00000098H.7 SFRSYM    DATA     BIT       SCON0_SMODE
      000000B5H   SFRSYM    DATA     BYTE      DEVICEID
      000000A9H   SFRSYM    DATA     BYTE      CLKSEL
      000000F8H   SFRSYM    DATA     BIT       SPI0CN0_SPIEN
      000000F0H   SFRSYM    DATA     BYTE      B
      000000BEH   SFRSYM    DATA     BYTE      ADC0H
      000000E8H.6 SFRSYM    DATA     BIT       ADC0CN0_ADBMEN
      000000CAH   SFRSYM    DATA     WORD      TMR2RL
      000000BDH   SFRSYM    DATA     BYTE      ADC0L
      00000092H   SFRSYM    DATA     WORD      TMR3RL
      000000A2H   SFRSYM    DATA     WORD      TMR4RL
      000000D8H   SFRSYM    DATA     BYTE      PCA0CN0
      000000E0H   SFRSYM    DATA     BYTE      ACC
      000000FBH   SFRSYM    DATA     WORD      PCA0CP0
      000000E9H   SFRSYM    DATA     WORD      PCA0CP1
      000000EBH   SFRSYM    DATA     WORD      PCA0CP2
      000000BCH   SFRSYM    DATA     BYTE      I2C0DIN
      000000CEH   SFRSYM    DATA     BYTE      CRC0CN0
      0000008CH   SFRSYM    DATA     BYTE      TH0
      00000086H   SFRSYM    DATA     BYTE      CRC0CN1
      000000B8H.4 SFRSYM    DATA     BIT       IP_PS0
      000000FAH   SFRSYM    DATA     BYTE      UART1FCT
      0000008DH   SFRSYM    DATA     BYTE      TH1
      000000FAH   SFRSYM    DATA     BYTE      PCA0H
      000000F5H   SFRSYM    DATA     BYTE      I2C0FCT
      000000B8H.1 SFRSYM    DATA     BIT       IP_PT0
      000000B8H.3 SFRSYM    DATA     BIT       IP_PT1
      000000C0H.2 SFRSYM    DATA     BIT       SMB0CN0_ARBLOST
      000000B8H.5 SFRSYM    DATA     BIT       IP_PT2
      0000008AH   SFRSYM    DATA     BYTE      TL0
      000000D0H.5 SFRSYM    DATA     BIT       PSW_F0
      000000A8H.6 SFRSYM    DATA     BIT       IE_ESPI0
      0000008BH   SFRSYM    DATA     BYTE      TL1
      000000F9H   SFRSYM    DATA     BYTE      PCA0L
      000000C0H   SFRSYM    DATA     BIT       SMB0CN0_SI
      000000D0H.1 SFRSYM    DATA     BIT       PSW_F1
      00000080H   SFRSYM    DATA     BIT       P0_B0
      000000B8H   SFRSYM    DATA     BIT       IP_PX0
      00000090H   SFRSYM    DATA     BIT       P1_B0
      00000080H.1 SFRSYM    DATA     BIT       P0_B1
      000000B8H.2 SFRSYM    DATA     BIT       IP_PX1
      0000009EH   SFRSYM    DATA     BYTE      UART1LIN
      0000009BH   SFRSYM    DATA     BYTE      CMP0CN0
      00000088H.1 SFRSYM    DATA     BIT       TCON_IE0
      000000A0H   SFRSYM    DATA     BIT       P2_B0
      00000090H.1 SFRSYM    DATA     BIT       P1_B1
      00000080H.2 SFRSYM    DATA     BIT       P0_B2
LX51 LINKER/LOCATER V4.66.30.0                                                        08/12/2020  16:38:44  PAGE 90


      000000BFH   SFRSYM    DATA     BYTE      CMP1CN0
      00000099H   SFRSYM    DATA     BYTE      CMP0CN1
      00000088H.3 SFRSYM    DATA     BIT       TCON_IE1
      000000B0H   SFRSYM    DATA     BIT       P3_B0
      000000A0H.1 SFRSYM    DATA     BIT       P2_B1
      00000090H.2 SFRSYM    DATA     BIT       P1_B2
      00000080H.3 SFRSYM    DATA     BIT       P0_B3
      000000C0H   SFRSYM    DATA     BYTE      SMB0CN0
      000000ACH   SFRSYM    DATA     BYTE      CMP1CN1
      000000B0H.1 SFRSYM    DATA     BIT       P3_B1
      000000A0H.2 SFRSYM    DATA     BIT       P2_B2
      00000090H.3 SFRSYM    DATA     BIT       P1_B3
      00000080H.4 SFRSYM    DATA     BIT       P0_B4
      000000A0H.3 SFRSYM    DATA     BIT       P2_B3
      00000090H.4 SFRSYM    DATA     BIT       P1_B4
      00000080H.5 SFRSYM    DATA     BIT       P0_B5
      000000D8H.1 SFRSYM    DATA     BIT       UART1FCN1_RXTO0
      00000090H.5 SFRSYM    DATA     BIT       P1_B5
      00000080H.6 SFRSYM    DATA     BIT       P0_B6
      000000F5H   SFRSYM    DATA     BYTE      EIP1H
      000000D8H.2 SFRSYM    DATA     BIT       UART1FCN1_RXTO1
      00000090H.6 SFRSYM    DATA     BIT       P1_B6
      00000080H.7 SFRSYM    DATA     BIT       P0_B7
      000000C5H   SFRSYM    DATA     BYTE      SMB0RXLN
      000000F6H   SFRSYM    DATA     BYTE      EIP2H
      00000090H.7 SFRSYM    DATA     BIT       P1_B7
      00000083H   SFRSYM    DATA     BYTE      DPH
      000000C4H   SFRSYM    DATA     BYTE      ADC0GTH
      000000C8H.7 SFRSYM    DATA     BIT       TMR2CN0_TF2H
      000000C8H.3 SFRSYM    DATA     BIT       TMR2CN0_T2SPLIT
      000000D0H.6 SFRSYM    DATA     BIT       PSW_AC
      000000F8H   SFRSYM    DATA     BYTE      SPI0CN0
      000000C7H   SFRSYM    DATA     BYTE      HFO0CAL
      00000088H.5 SFRSYM    DATA     BIT       TCON_TF0
      00000098H   SFRSYM    DATA     BIT       SCON0_RI
      000000D6H   SFRSYM    DATA     BYTE      HFO1CAL
      00000082H   SFRSYM    DATA     BYTE      DPL
      00000088H.7 SFRSYM    DATA     BIT       TCON_TF1
      000000C8H   SFRSYM    DATA     BIT       SCON1_RI
      00000099H   SFRSYM    DATA     BYTE      SBUF0
      00000087H   SFRSYM    DATA     BYTE      PCON0
      000000F2H   SFRSYM    DATA     BYTE      IPH
      000000C3H   SFRSYM    DATA     BYTE      ADC0GTL
      00000098H.7 SFRSYM    DATA     BIT       TMR4CN0_TF4H
      00000098H.3 SFRSYM    DATA     BIT       TMR4CN0_T4SPLIT
      000000C8H.6 SFRSYM    DATA     BIT       TMR2CN0_TF2L
      00000098H.1 SFRSYM    DATA     BIT       SCON0_TI
      000000E8H   SFRSYM    DATA     BIT       ADC0CN0_ADCM0
      00000092H   SFRSYM    DATA     BYTE      SBUF1
      0000009AH   SFRSYM    DATA     BYTE      PCON1
      000000C6H   SFRSYM    DATA     BYTE      ADC0LTH
      00000088H   SFRSYM    DATA     BIT       TCON_IT0
      000000C8H.1 SFRSYM    DATA     BIT       SCON1_TI
      000000E8H.1 SFRSYM    DATA     BIT       ADC0CN0_ADCM1
      000000EFH   SFRSYM    DATA     BYTE      RSTSRC
      000000FDH   SFRSYM    DATA     BYTE      P0MAT
      000000DEH   SFRSYM    DATA     BYTE      CRC0DAT
      00000088H.2 SFRSYM    DATA     BIT       TCON_IT1
      000000E8H.2 SFRSYM    DATA     BIT       ADC0CN0_ADCM2
      000000D7H   SFRSYM    DATA     BYTE      SFRSTACK
      00000098H   SFRSYM    DATA     BYTE      SCON0
      000000F6H   SFRSYM    DATA     BYTE      PRTDRV
LX51 LINKER/LOCATER V4.66.30.0                                                        08/12/2020  16:38:44  PAGE 91


      000000EDH   SFRSYM    DATA     BYTE      P1MAT
      000000E8H.3 SFRSYM    DATA     BIT       ADC0CN0_ADWINT
      00000095H   SFRSYM    DATA     WORD      SBRL1
      00000093H   SFRSYM    DATA     BYTE      SMOD1
      000000C8H   SFRSYM    DATA     BYTE      SCON1
      000000FBH   SFRSYM    DATA     BYTE      P2MAT
      00000098H.6 SFRSYM    DATA     BIT       TMR4CN0_TF4L
      000000E8H.4 SFRSYM    DATA     BIT       ADC0CN0_ADBUSY
      000000D6H   SFRSYM    DATA     BYTE      SMB0ADM
      000000C5H   SFRSYM    DATA     BYTE      ADC0LTL
      000000F8H.5 SFRSYM    DATA     BIT       SPI0CN0_MODF
      000000B8H.6 SFRSYM    DATA     BIT       IP_PSPI0
      0000009CH   SFRSYM    DATA     BYTE      PCA0CLR
      000000C8H   SFRSYM    DATA     BYTE      TMR2CN0
      00000091H   SFRSYM    DATA     BYTE      TMR3CN0
      000000FDH   SFRSYM    DATA     BYTE      TMR2CN1
      00000098H   SFRSYM    DATA     BYTE      TMR4CN0
      000000FEH   SFRSYM    DATA     BYTE      TMR3CN1
      000000FFH   SFRSYM    DATA     BYTE      TMR4CN1
      000000D7H   SFRSYM    DATA     BYTE      SMB0ADR
      00000088H.4 SFRSYM    DATA     BIT       TCON_TR0
      000000C8H.4 SFRSYM    DATA     BIT       TMR2CN0_TF2CEN
      00000088H.6 SFRSYM    DATA     BIT       TCON_TR1
      000000C2H   SFRSYM    DATA     BYTE      SMB0DAT
      000000CDH   SFRSYM    DATA     BYTE      TMR2H
      000000A1H   SFRSYM    DATA     BYTE      SPI0CFG
      00000095H   SFRSYM    DATA     BYTE      TMR3H
      000000EFH   SFRSYM    DATA     BYTE      HFOCN
      000000D3H   SFRSYM    DATA     BYTE      CRC0CNT
      000000A5H   SFRSYM    DATA     BYTE      TMR4H
      00000098H.4 SFRSYM    DATA     BIT       TMR4CN0_TF4CEN
      000000EFH   SFRSYM    DATA     BYTE      SMB0FCT
      00000096H   SFRSYM    DATA     BYTE      PCA0POL
      000000CCH   SFRSYM    DATA     BYTE      TMR2L
      000000F8H.7 SFRSYM    DATA     BIT       SPI0CN0_SPIF
      00000094H   SFRSYM    DATA     BYTE      TMR3L
      000000DFH   SFRSYM    DATA     BYTE      ADC0PWR
      000000A8H.7 SFRSYM    DATA     BIT       IE_EA
      000000A4H   SFRSYM    DATA     BYTE      TMR4L
      000000C8H.5 SFRSYM    DATA     BIT       TMR2CN0_TF2LEN
      000000F8H.6 SFRSYM    DATA     BIT       SPI0CN0_WCOL
      000000F8H.2 SFRSYM    DATA     BIT       SPI0CN0_NSSMD0
      000000D0H.7 SFRSYM    DATA     BIT       PSW_CY
      0000009DH   SFRSYM    DATA     BYTE      UART1FCN0
      000000A3H   SFRSYM    DATA     BYTE      SPI0DAT
      000000ADH   SFRSYM    DATA     BYTE      I2C0FCN0
      000000F8H.3 SFRSYM    DATA     BIT       SPI0CN0_NSSMD1
      000000BDH   SFRSYM    DATA     WORD      ADC0
      000000D8H   SFRSYM    DATA     BYTE      UART1FCN1
      000000ABH   SFRSYM    DATA     BYTE      I2C0FCN1
      00000098H.5 SFRSYM    DATA     BIT       TMR4CN0_TF4LEN
      000000D0H   SFRSYM    DATA     BYTE      PSW
      000000F7H   SFRSYM    DATA     BYTE      PCA0PWM
      000000F7H   SFRSYM    DATA     BYTE      SPI0FCT
      000000B6H   SFRSYM    DATA     BYTE      REVID
      000000B7H   SFRSYM    DATA     BYTE      FLKEY
      000000B3H   SFRSYM    DATA     BYTE      ADC0AC
      0200023AH   SYMBOL    XDATA    WORD      CapTime0
      0200023CH   SYMBOL    XDATA    WORD      CapTime1

      0100350FH   BLOCK     CODE     ---       LVL=0
      020003B8H   SYMBOL    XDATA    BYTE      commode
LX51 LINKER/LOCATER V4.66.30.0                                                        08/12/2020  16:38:44  PAGE 92


      0100350FH   LINE      CODE     ---       #23
      01003514H   LINE      CODE     ---       #24
      01003514H   LINE      CODE     ---       #25
      01003517H   LINE      CODE     ---       #26
      01003517H   LINE      CODE     ---       #27
      0100351AH   LINE      CODE     ---       #28
      0100351DH   LINE      CODE     ---       #29
      0100351DH   LINE      CODE     ---       #30
      01003524H   LINE      CODE     ---       #31
      01003524H   LINE      CODE     ---       #32
      01003529H   LINE      CODE     ---       #33
      0100352CH   LINE      CODE     ---       #34
      01003531H   LINE      CODE     ---       #35
      01003532H   LINE      CODE     ---       #37
      01003532H   LINE      CODE     ---       #38
      01003535H   LINE      CODE     ---       #39
      01003538H   LINE      CODE     ---       #40
      0100353BH   LINE      CODE     ---       #41
      0100353BH   LINE      CODE     ---       #42
      ---         BLOCKEND  ---      ---       LVL=0

      010036D3H   BLOCK     CODE     ---       LVL=0
      010036D3H   LINE      CODE     ---       #47
      010036D3H   LINE      CODE     ---       #48
      010036D3H   LINE      CODE     ---       #49
      010036D9H   LINE      CODE     ---       #50
      010036DCH   LINE      CODE     ---       #51
      010036DFH   LINE      CODE     ---       #52
      010036E2H   LINE      CODE     ---       #53
      010036E5H   LINE      CODE     ---       #59
      010036E8H   LINE      CODE     ---       #60
      010036EBH   LINE      CODE     ---       #61
      010036EEH   LINE      CODE     ---       #62
      010036F1H   LINE      CODE     ---       #63
      010036F4H   LINE      CODE     ---       #65
      ---         BLOCKEND  ---      ---       LVL=0

      01003826H   BLOCK     CODE     ---       LVL=0
      01003826H   LINE      CODE     ---       #67
      01003826H   LINE      CODE     ---       #68
      01003826H   LINE      CODE     ---       #69
      0100382BH   LINE      CODE     ---       #70
      ---         BLOCKEND  ---      ---       LVL=0

      010033A7H   BLOCK     CODE     ---       LVL=0
      010033A7H   BLOCK     CODE     NEAR LAB  LVL=1
      00000007H   SYMBOL    DATA     BYTE      i
      ---         BLOCKEND  ---      ---       LVL=1
      010033A7H   LINE      CODE     ---       #73
      010033A7H   LINE      CODE     ---       #74
      010033A7H   LINE      CODE     ---       #76
      010033ACH   LINE      CODE     ---       #77
      010033B0H   LINE      CODE     ---       #78
      010033B2H   LINE      CODE     ---       #80
      010033B4H   LINE      CODE     ---       #81
      010033B6H   LINE      CODE     ---       #82
      010033B7H   LINE      CODE     ---       #83
      010033B7H   LINE      CODE     ---       #84
      010033C7H   LINE      CODE     ---       #85
      010033CCH   LINE      CODE     ---       #86
      010033D1H   LINE      CODE     ---       #87
      010033DFH   LINE      CODE     ---       #88
LX51 LINKER/LOCATER V4.66.30.0                                                        08/12/2020  16:38:44  PAGE 93


      ---         BLOCKEND  ---      ---       LVL=0

      0100282EH   BLOCK     CODE     ---       LVL=0
      0100282EH   BLOCK     CODE     NEAR LAB  LVL=1
      00000004H   SYMBOL    DATA     BYTE      i
      00000005H   SYMBOL    DATA     BYTE      CheckSum
      00000001H   SYMBOL    DATA     BYTE      byData
      00000007H   SYMBOL    DATA     BYTE      temp
      ---         BLOCKEND  ---      ---       LVL=1
      0100282EH   LINE      CODE     ---       #90
      0100282EH   LINE      CODE     ---       #91
      0100282EH   LINE      CODE     ---       #93
      01002830H   LINE      CODE     ---       #94
      01002830H   LINE      CODE     ---       #95
      01002831H   LINE      CODE     ---       #97
      0100283DH   LINE      CODE     ---       #99
      0100283DH   LINE      CODE     ---       #100
      0100283EH   LINE      CODE     ---       #101
      0100283EH   LINE      CODE     ---       #103
      01002843H   LINE      CODE     ---       #104
      01002843H   LINE      CODE     ---       #105
      01002845H   LINE      CODE     ---       #106
      01002845H   LINE      CODE     ---       #108
      01002845H   LINE      CODE     ---       #109
      01002845H   LINE      CODE     ---       #110
      01002845H   LINE      CODE     ---       #114
      0100284FH   LINE      CODE     ---       #116
      01002851H   LINE      CODE     ---       #117
      01002851H   LINE      CODE     ---       #118
      01002868H   LINE      CODE     ---       #119
      01002868H   LINE      CODE     ---       #120
      0100287DH   LINE      CODE     ---       #121
      01002892H   LINE      CODE     ---       #122
      01002893H   LINE      CODE     ---       #123
      01002895H   LINE      CODE     ---       #125
      01002895H   LINE      CODE     ---       #126
      010028AAH   LINE      CODE     ---       #127
      010028BFH   LINE      CODE     ---       #128
      010028BFH   LINE      CODE     ---       #129
      010028C5H   LINE      CODE     ---       #130
      010028C9H   LINE      CODE     ---       #132
      010028CEH   LINE      CODE     ---       #133
      010028CEH   LINE      CODE     ---       #134
      010028D5H   LINE      CODE     ---       #135
      010028DDH   LINE      CODE     ---       #136
      010028DFH   LINE      CODE     ---       #138
      010028DFH   LINE      CODE     ---       #139
      010028E6H   LINE      CODE     ---       #140
      010028EEH   LINE      CODE     ---       #141
      010028EEH   LINE      CODE     ---       #146
      010028F3H   LINE      CODE     ---       #147
      010028F9H   LINE      CODE     ---       #148
      ---         BLOCKEND  ---      ---       LVL=0

      0100231AH   BLOCK     CODE     ---       LVL=0
      0100231AH   BLOCK     CODE     NEAR LAB  LVL=1
      020003B8H   SYMBOL    XDATA    BYTE      i
      020003B9H   SYMBOL    XDATA    BYTE      CheckSum
      020003BAH   SYMBOL    XDATA    DWORD     byData
      00000007H   SYMBOL    DATA     BYTE      eve_temp
      ---         BLOCKEND  ---      ---       LVL=1
      0100231AH   LINE      CODE     ---       #152
LX51 LINKER/LOCATER V4.66.30.0                                                        08/12/2020  16:38:44  PAGE 94


      0100231AH   LINE      CODE     ---       #153
      0100231AH   LINE      CODE     ---       #155
      0100231FH   LINE      CODE     ---       #156
      01002327H   LINE      CODE     ---       #159
      0100232CH   LINE      CODE     ---       #161
      0100232EH   LINE      CODE     ---       #162
      0100232EH   LINE      CODE     ---       #163
      01002338H   LINE      CODE     ---       #164
      0100233EH   LINE      CODE     ---       #165
      0100233EH   LINE      CODE     ---       #166
      01002348H   LINE      CODE     ---       #167
      01002351H   LINE      CODE     ---       #168
      01002351H   LINE      CODE     ---       #169
      01002358H   LINE      CODE     ---       #170
      0100235AH   LINE      CODE     ---       #171
      0100235AH   LINE      CODE     ---       #172
      01002361H   LINE      CODE     ---       #173
      01002361H   LINE      CODE     ---       #176
      0100236BH   LINE      CODE     ---       #178
      0100237DH   LINE      CODE     ---       #179
      0100237DH   LINE      CODE     ---       #180
      010023A8H   LINE      CODE     ---       #181
      010023A8H   LINE      CODE     ---       #182
      010023BEH   LINE      CODE     ---       #183
      010023D3H   LINE      CODE     ---       #184
      010023D9H   LINE      CODE     ---       #185
      010023DBH   LINE      CODE     ---       #187
      010023DBH   LINE      CODE     ---       #188
      010023F1H   LINE      CODE     ---       #189
      01002406H   LINE      CODE     ---       #190
      01002406H   LINE      CODE     ---       #191
      0100240FH   LINE      CODE     ---       #192
      01002416H   LINE      CODE     ---       #194
      0100241BH   LINE      CODE     ---       #195
      0100241BH   LINE      CODE     ---       #196
      01002422H   LINE      CODE     ---       #197
      0100242AH   LINE      CODE     ---       #198
      0100242CH   LINE      CODE     ---       #200
      0100242CH   LINE      CODE     ---       #201
      01002433H   LINE      CODE     ---       #202
      0100243BH   LINE      CODE     ---       #203
      0100243BH   LINE      CODE     ---       #208
      01002440H   LINE      CODE     ---       #209
      01002446H   LINE      CODE     ---       #210
      ---         BLOCKEND  ---      ---       LVL=0

      01001C0CH   BLOCK     CODE     ---       LVL=0
      020003B8H   SYMBOL    XDATA    WORD      Head
      00000005H   SYMBOL    DATA     BYTE      byId
      00000003H   SYMBOL    DATA     BYTE      byIdLen
      020003BCH   SYMBOL    XDATA    WORD      byData
      020003BEH   SYMBOL    XDATA    BYTE      byDataLen
      01001C14H   BLOCK     CODE     NEAR LAB  LVL=1
      00000005H   SYMBOL    DATA     BYTE      i
      020003BFH   SYMBOL    XDATA    WORD      Data
      00000001H   SYMBOL    DATA     BYTE      CheckSum
      ---         BLOCKEND  ---      ---       LVL=1
      01001C0CH   LINE      CODE     ---       #218
      01001C14H   LINE      CODE     ---       #219
      01001C14H   LINE      CODE     ---       #222
      01001C16H   LINE      CODE     ---       #224
      01001C35H   LINE      CODE     ---       #226
LX51 LINKER/LOCATER V4.66.30.0                                                        08/12/2020  16:38:44  PAGE 95


      01001C43H   LINE      CODE     ---       #227
      01001C43H   LINE      CODE     ---       #228
      01001C49H   LINE      CODE     ---       #229
      01001C4BH   LINE      CODE     ---       #231
      01001C4BH   LINE      CODE     ---       #232
      01001C50H   LINE      CODE     ---       #233
      01001C50H   LINE      CODE     ---       #234
      01001C5EH   LINE      CODE     ---       #235
      01001C77H   LINE      CODE     ---       #236
      01001C77H   LINE      CODE     ---       #237
      01001C94H   LINE      CODE     ---       #238
      01001C94H   LINE      CODE     ---       #239
      01001CA9H   LINE      CODE     ---       #240
      01001CBEH   LINE      CODE     ---       #241
      01001CBFH   LINE      CODE     ---       #242
      01001CC1H   LINE      CODE     ---       #244
      01001CC1H   LINE      CODE     ---       #245
      01001CD6H   LINE      CODE     ---       #246
      01001CEBH   LINE      CODE     ---       #247
      01001CEBH   LINE      CODE     ---       #248
      01001CEFH   LINE      CODE     ---       #249
      01001CF3H   LINE      CODE     ---       #250
      01001CF8H   LINE      CODE     ---       #251
      01001CF8H   LINE      CODE     ---       #252
      01001D0FH   LINE      CODE     ---       #253
      01001D24H   LINE      CODE     ---       #254
      01001D26H   LINE      CODE     ---       #256
      01001D26H   LINE      CODE     ---       #257
      01001D3DH   LINE      CODE     ---       #258
      01001D52H   LINE      CODE     ---       #259
      01001D52H   LINE      CODE     ---       #260
      01001D6CH   LINE      CODE     ---       #261
      01001D81H   LINE      CODE     ---       #263
      01001D86H   LINE      CODE     ---       #264
      01001D8FH   LINE      CODE     ---       #265
      ---         BLOCKEND  ---      ---       LVL=0

      01001D92H   BLOCK     CODE     ---       LVL=0
      01001D92H   LINE      CODE     ---       #273
      01001DAFH   LINE      CODE     ---       #275
      01001DB5H   LINE      CODE     ---       #276
      01001DB5H   LINE      CODE     ---       #277
      01001DBDH   LINE      CODE     ---       #278
      01001DCCH   LINE      CODE     ---       #279
      01001DD4H   LINE      CODE     ---       #280
      01001DE8H   LINE      CODE     ---       #281
      01001DE8H   LINE      CODE     ---       #282
      01001DEDH   LINE      CODE     ---       #283
      01001DEFH   LINE      CODE     ---       #285
      01001DEFH   LINE      CODE     ---       #286
      01001E0AH   LINE      CODE     ---       #287
      01001E0AH   LINE      CODE     ---       #288
      01001E2AH   LINE      CODE     ---       #289
      01001E33H   LINE      CODE     ---       #290
      01001E47H   LINE      CODE     ---       #291
      01001E49H   LINE      CODE     ---       #292
      01001E49H   LINE      CODE     ---       #293
      01001E4CH   LINE      CODE     ---       #294
      01001E4CH   LINE      CODE     ---       #296
      01001E5BH   LINE      CODE     ---       #297
      01001E63H   LINE      CODE     ---       #298
      01001E77H   LINE      CODE     ---       #299
LX51 LINKER/LOCATER V4.66.30.0                                                        08/12/2020  16:38:44  PAGE 96


      01001E77H   LINE      CODE     ---       #300
      01001E7CH   LINE      CODE     ---       #301
      01001E7EH   LINE      CODE     ---       #303
      01001E7EH   LINE      CODE     ---       #304
      01001E99H   LINE      CODE     ---       #305
      01001E99H   LINE      CODE     ---       #308
      01001EB5H   LINE      CODE     ---       #309
      01001EB7H   LINE      CODE     ---       #310
      01001EB7H   LINE      CODE     ---       #311
      01001EBAH   LINE      CODE     ---       #312
      01001EBAH   LINE      CODE     ---       #314
      01001EBCH   LINE      CODE     ---       #315
      01001EBCH   LINE      CODE     ---       #316
      01001EBFH   LINE      CODE     ---       #317
      01001EBFH   LINE      CODE     ---       #318
      01001EC6H   LINE      CODE     ---       #319
      01001EC6H   LINE      CODE     ---       #328
      01001EC8H   LINE      CODE     ---       #329
      01001EDFH   LINE      CODE     ---       #330
      01001EE5H   LINE      CODE     ---       #331
      01001EEFH   LINE      CODE     ---       #332
      01001EEFH   LINE      CODE     ---       #333
      01001EF2H   LINE      CODE     ---       #334
      01001EF2H   LINE      CODE     ---       #335
      01001EF2H   LINE      CODE     ---       #336
      01001EF4H   LINE      CODE     ---       #337
      01001EF4H   LINE      CODE     ---       #338
      ---         BLOCKEND  ---      ---       LVL=0

      01002655H   BLOCK     CODE     ---       LVL=0
      00000007H   SYMBOL    DATA     BYTE      bLevel
      00000004H   SYMBOL    DATA     WORD      wTime
      01002655H   LINE      CODE     ---       #340
      01002655H   LINE      CODE     ---       #341
      01002655H   LINE      CODE     ---       #342
      0100265BH   LINE      CODE     ---       #343
      0100265BH   LINE      CODE     ---       #344
      0100266AH   LINE      CODE     ---       #345
      0100267BH   LINE      CODE     ---       #346
      0100267BH   LINE      CODE     ---       #347
      0100267EH   LINE      CODE     ---       #348
      0100268CH   LINE      CODE     ---       #349
      0100268CH   LINE      CODE     ---       #350
      0100269DH   LINE      CODE     ---       #351
      0100269DH   LINE      CODE     ---       #352
      010026A3H   LINE      CODE     ---       #353
      010026B1H   LINE      CODE     ---       #354
      010026B1H   LINE      CODE     ---       #355
      010026C2H   LINE      CODE     ---       #356
      010026C2H   LINE      CODE     ---       #357
      010026C8H   LINE      CODE     ---       #358
      010026D6H   LINE      CODE     ---       #359
      010026D6H   LINE      CODE     ---       #360
      010026E7H   LINE      CODE     ---       #361
      010026E7H   LINE      CODE     ---       #362
      010026EDH   LINE      CODE     ---       #363
      010026FBH   LINE      CODE     ---       #364
      010026FBH   LINE      CODE     ---       #365
      0100270CH   LINE      CODE     ---       #366
      0100270CH   LINE      CODE     ---       #367
      01002712H   LINE      CODE     ---       #368
      01002720H   LINE      CODE     ---       #369
LX51 LINKER/LOCATER V4.66.30.0                                                        08/12/2020  16:38:44  PAGE 97


      01002720H   LINE      CODE     ---       #370
      01002731H   LINE      CODE     ---       #371
      01002731H   LINE      CODE     ---       #372
      01002737H   LINE      CODE     ---       #373
      01002745H   LINE      CODE     ---       #374
      01002745H   LINE      CODE     ---       #375
      01002745H   LINE      CODE     ---       #376
      ---         BLOCKEND  ---      ---       LVL=0

      01002550H   BLOCK     CODE     ---       LVL=0
      020003B6H   SYMBOL    XDATA    BYTE      bLevel
      020003B7H   SYMBOL    XDATA    WORD      wTime
      01002550H   LINE      CODE     ---       #379
      0100255BH   LINE      CODE     ---       #380
      0100255BH   LINE      CODE     ---       #381
      0100257CH   LINE      CODE     ---       #383
      01002585H   LINE      CODE     ---       #384
      01002585H   LINE      CODE     ---       #385
      0100259BH   LINE      CODE     ---       #386
      0100259BH   LINE      CODE     ---       #387
      010025A1H   LINE      CODE     ---       #388
      010025A1H   LINE      CODE     ---       #389
      010025C3H   LINE      CODE     ---       #390
      010025C9H   LINE      CODE     ---       #391
      010025CEH   LINE      CODE     ---       #392
      010025D0H   LINE      CODE     ---       #394
      010025D0H   LINE      CODE     ---       #396
      010025D9H   LINE      CODE     ---       #397
      010025D9H   LINE      CODE     ---       #398
      010025DFH   LINE      CODE     ---       #399
      010025E5H   LINE      CODE     ---       #400
      010025E5H   LINE      CODE     ---       #401
      010025E7H   LINE      CODE     ---       #404
      010025E7H   LINE      CODE     ---       #405
      010025E7H   LINE      CODE     ---       #406
      010025FFH   LINE      CODE     ---       #407
      010025FFH   LINE      CODE     ---       #408
      01002605H   LINE      CODE     ---       #409
      01002605H   LINE      CODE     ---       #410
      01002613H   LINE      CODE     ---       #411
      01002614H   LINE      CODE     ---       #413
      01002614H   LINE      CODE     ---       #414
      0100261AH   LINE      CODE     ---       #415
      0100261FH   LINE      CODE     ---       #416
      0100261FH   LINE      CODE     ---       #417
      0100261FH   LINE      CODE     ---       #418
      01002620H   LINE      CODE     ---       #420
      01002620H   LINE      CODE     ---       #421
      01002638H   LINE      CODE     ---       #422
      01002638H   LINE      CODE     ---       #423
      0100263DH   LINE      CODE     ---       #424
      0100263DH   LINE      CODE     ---       #425
      0100264EH   LINE      CODE     ---       #426
      0100264EH   LINE      CODE     ---       #427
      01002654H   LINE      CODE     ---       #428
      01002654H   LINE      CODE     ---       #429
      01002654H   LINE      CODE     ---       #430
      ---         BLOCKEND  ---      ---       LVL=0

      0100318CH   BLOCK     CODE     ---       LVL=0
      0100318CH   BLOCK     CODE     NEAR LAB  LVL=1
      00000004H   SYMBOL    DATA     BYTE      i
LX51 LINKER/LOCATER V4.66.30.0                                                        08/12/2020  16:38:44  PAGE 98


      00000001H   SYMBOL    DATA     BYTE      RET
      00000005H   SYMBOL    DATA     BYTE      CheckSum
      ---         BLOCKEND  ---      ---       LVL=1
      0100318CH   LINE      CODE     ---       #432
      0100318CH   LINE      CODE     ---       #433
      0100318CH   LINE      CODE     ---       #434
      0100318EH   LINE      CODE     ---       #435
      0100318FH   LINE      CODE     ---       #437
      0100319BH   LINE      CODE     ---       #438
      0100319BH   LINE      CODE     ---       #439
      010031B8H   LINE      CODE     ---       #440
      010031B8H   LINE      CODE     ---       #441
      010031B9H   LINE      CODE     ---       #442
      010031B9H   LINE      CODE     ---       #443
      010031BCH   LINE      CODE     ---       #444
      010031C0H   LINE      CODE     ---       #445
      010031E2H   LINE      CODE     ---       #446
      010031E2H   LINE      CODE     ---       #447
      010031E4H   LINE      CODE     ---       #448
      010031E4H   LINE      CODE     ---       #449
      010031E6H   LINE      CODE     ---       #450
      ---         BLOCKEND  ---      ---       LVL=0

      ---         MODULE    ---      ---       SPEAKER
      020003EEH   PUBLIC    XDATA    ---       Speaker
      000000A2H   SFRSYM    DATA     BYTE      SPI0CKR
      00000080H   SFRSYM    DATA     BYTE      P0
      000000C8H.6 SFRSYM    DATA     BIT       SCON1_PERR
      000000D0H.2 SFRSYM    DATA     BIT       PSW_OV
      00000090H   SFRSYM    DATA     BYTE      P1
      000000F8H.1 SFRSYM    DATA     BIT       SPI0CN0_TXNF
      00000097H   SFRSYM    DATA     BYTE      WDTCN
      000000A0H   SFRSYM    DATA     BYTE      P2
      000000B0H   SFRSYM    DATA     BYTE      P3
      000000BCH   SFRSYM    DATA     BYTE      ADC0CF
      000000C0H.7 SFRSYM    DATA     BIT       SMB0CN0_MASTER
      000000F9H   SFRSYM    DATA     WORD      PCA0
      000000E6H   SFRSYM    DATA     BYTE      EIE1
      000000C0H.1 SFRSYM    DATA     BIT       SMB0CN0_ACK
      000000CEH   SFRSYM    DATA     BYTE      EIE2
      0000008FH   SFRSYM    DATA     BYTE      PSCTL
      000000E4H   SFRSYM    DATA     BYTE      IT01CF
      000000C0H.6 SFRSYM    DATA     BIT       SMB0CN0_TXMODE
      000000ADH   SFRSYM    DATA     BYTE      DERIVID
      000000A7H   SFRSYM    DATA     BYTE      SFRPAGE
      000000A4H   SFRSYM    DATA     BYTE      P0MDOUT
      000000A5H   SFRSYM    DATA     BYTE      P1MDOUT
      000000E8H.5 SFRSYM    DATA     BIT       ADC0CN0_ADINT
      000000CBH   SFRSYM    DATA     BYTE      TMR2RLH
      000000A6H   SFRSYM    DATA     BYTE      P2MDOUT
      000000A8H   SFRSYM    DATA     BYTE      IE
      00000093H   SFRSYM    DATA     BYTE      TMR3RLH
      0000009CH   SFRSYM    DATA     BYTE      P3MDOUT
      000000A3H   SFRSYM    DATA     BYTE      TMR4RLH
      000000F3H   SFRSYM    DATA     BYTE      EIP1
      000000F4H   SFRSYM    DATA     BYTE      EIP2
      00000098H.2 SFRSYM    DATA     BIT       SCON0_RB8
      000000CAH   SFRSYM    DATA     BYTE      TMR2RLL
      000000FCH   SFRSYM    DATA     BYTE      PCA0CPH0
      00000092H   SFRSYM    DATA     BYTE      TMR3RLL
      000000EAH   SFRSYM    DATA     BYTE      PCA0CPH1
      00000098H.3 SFRSYM    DATA     BIT       SCON0_TB8
LX51 LINKER/LOCATER V4.66.30.0                                                        08/12/2020  16:38:44  PAGE 99


      000000F0H   SFRSYM    DATA     BIT       B_B0
      00000082H   SFRSYM    DATA     WORD      DP
      000000A2H   SFRSYM    DATA     BYTE      TMR4RLL
      000000ECH   SFRSYM    DATA     BYTE      PCA0CPH2
      000000F0H.1 SFRSYM    DATA     BIT       B_B1
      000000C3H   SFRSYM    DATA     WORD      ADC0GT
      000000BDH   SFRSYM    DATA     BYTE      I2C0SLAD
      000000D8H.3 SFRSYM    DATA     BIT       UART1FCN1_RFRQ
      000000F0H.2 SFRSYM    DATA     BIT       B_B2
      000000CFH   SFRSYM    DATA     BYTE      SFRPGCN
      000000FBH   SFRSYM    DATA     BYTE      PCA0CPL0
      000000F0H.3 SFRSYM    DATA     BIT       B_B3
      000000D9H   SFRSYM    DATA     BYTE      PCA0MD
      000000DAH   SFRSYM    DATA     BYTE      PCA0CPM0
      000000E9H   SFRSYM    DATA     BYTE      PCA0CPL1
      000000D8H.7 SFRSYM    DATA     BIT       UART1FCN1_TFRQ
      000000F0H.4 SFRSYM    DATA     BIT       B_B4
      000000DBH   SFRSYM    DATA     BYTE      PCA0CPM1
      000000EBH   SFRSYM    DATA     BYTE      PCA0CPL2
      000000F0H.5 SFRSYM    DATA     BIT       B_B5
      000000DCH   SFRSYM    DATA     BYTE      PCA0CPM2
      000000B8H   SFRSYM    DATA     BYTE      IP
      000000B9H   SFRSYM    DATA     BYTE      ADC0TK
      000000F0H.6 SFRSYM    DATA     BIT       B_B6
      000000C5H   SFRSYM    DATA     WORD      ADC0LT
      000000D8H.6 SFRSYM    DATA     BIT       UART1FCN1_TXNF
      00000098H.5 SFRSYM    DATA     BIT       SCON0_MCE
      000000F0H.7 SFRSYM    DATA     BIT       B_B7
      000000C3H   SFRSYM    DATA     BYTE      SMB0FCN0
      000000E1H   SFRSYM    DATA     BYTE      XBR0
      000000C4H   SFRSYM    DATA     BYTE      SMB0FCN1
      000000C1H   SFRSYM    DATA     BYTE      SMB0CF
      000000E2H   SFRSYM    DATA     BYTE      XBR1
      000000C1H   SFRSYM    DATA     BYTE      PFE0CN
      000000E7H   SFRSYM    DATA     BYTE      EMI0CN
      000000C0H.5 SFRSYM    DATA     BIT       SMB0CN0_STA
      000000E3H   SFRSYM    DATA     BYTE      XBR2
      000000BBH   SFRSYM    DATA     BYTE      ADC0MX
      000000E0H   SFRSYM    DATA     BIT       ACC_ACC0
      000000D1H   SFRSYM    DATA     BYTE      REF0CN
      0000008EH   SFRSYM    DATA     BYTE      CKCON0
      000000E0H.1 SFRSYM    DATA     BIT       ACC_ACC1
      000000C9H   SFRSYM    DATA     BYTE      REG0CN
      000000DDH   SFRSYM    DATA     BYTE      CRC0IN
      000000A6H   SFRSYM    DATA     BYTE      CKCON1
      000000C8H.2 SFRSYM    DATA     BIT       TMR2CN0_TR2
      000000E0H.2 SFRSYM    DATA     BIT       ACC_ACC2
      000000C6H   SFRSYM    DATA     BYTE      REG1CN
      000000E0H.3 SFRSYM    DATA     BIT       ACC_ACC3
      00000081H   SFRSYM    DATA     BYTE      SP
      0000009DH   SFRSYM    DATA     BYTE      CMP0MD
      000000E0H.4 SFRSYM    DATA     BIT       ACC_ACC4
      000000B1H   SFRSYM    DATA     BYTE      LFO0CN
      000000ABH   SFRSYM    DATA     BYTE      CMP1MD
      000000D8H   SFRSYM    DATA     BIT       PCA0CN0_CCF0
      000000E0H.5 SFRSYM    DATA     BIT       ACC_ACC5
      00000098H.2 SFRSYM    DATA     BIT       TMR4CN0_TR4
      000000D8H.1 SFRSYM    DATA     BIT       PCA0CN0_CCF1
      000000E0H.6 SFRSYM    DATA     BIT       ACC_ACC6
      000000CCH   SFRSYM    DATA     WORD      TMR2
      0000009AH   SFRSYM    DATA     BYTE      SPI0FCN0
      000000D8H.2 SFRSYM    DATA     BIT       PCA0CN0_CCF2
LX51 LINKER/LOCATER V4.66.30.0                                                        08/12/2020  16:38:44  PAGE 100


      000000E0H.7 SFRSYM    DATA     BIT       ACC_ACC7
      00000094H   SFRSYM    DATA     WORD      TMR3
      0000009BH   SFRSYM    DATA     BYTE      SPI0FCN1
      000000A4H   SFRSYM    DATA     WORD      TMR4
      00000094H   SFRSYM    DATA     BYTE      SBCON1
      000000C0H.3 SFRSYM    DATA     BIT       SMB0CN0_ACKRQ
      000000FFH   SFRSYM    DATA     BYTE      VDM0CN
      000000F1H   SFRSYM    DATA     BYTE      P0MDIN
      00000098H.4 SFRSYM    DATA     BIT       SCON0_REN
      000000ACH   SFRSYM    DATA     BYTE      SMB0TC
      000000F2H   SFRSYM    DATA     BYTE      P1MDIN
      000000C8H.4 SFRSYM    DATA     BIT       SCON1_REN
      000000F3H   SFRSYM    DATA     BYTE      P2MDIN
      000000C0H.4 SFRSYM    DATA     BIT       SMB0CN0_STO
      000000F4H   SFRSYM    DATA     BYTE      P3MDIN
      000000B9H   SFRSYM    DATA     BYTE      I2C0STAT
      000000BBH   SFRSYM    DATA     BYTE      I2C0DOUT
      00000096H   SFRSYM    DATA     BYTE      SBRLH1
      000000FEH   SFRSYM    DATA     BYTE      P0MASK
      000000D8H.5 SFRSYM    DATA     BIT       UART1FCN1_TXHOLD
      000000EEH   SFRSYM    DATA     BYTE      P1MASK
      000000FCH   SFRSYM    DATA     BYTE      P2MASK
      000000D0H.3 SFRSYM    DATA     BIT       PSW_RS0
      000000D8H.7 SFRSYM    DATA     BIT       PCA0CN0_CF
      0000009EH   SFRSYM    DATA     BYTE      PCA0CENT
      000000BAH   SFRSYM    DATA     BYTE      I2C0CN0
      000000D2H   SFRSYM    DATA     BYTE      CRC0ST
      000000F8H.4 SFRSYM    DATA     BIT       SPI0CN0_RXOVRN
      000000D0H.4 SFRSYM    DATA     BIT       PSW_RS1
      00000095H   SFRSYM    DATA     BYTE      SBRLL1
      000000C8H.2 SFRSYM    DATA     BIT       SCON1_RBX
      000000C8H   SFRSYM    DATA     BIT       TMR2CN0_T2XCLK0
      000000C8H.1 SFRSYM    DATA     BIT       TMR2CN0_T2XCLK1
      000000C8H.3 SFRSYM    DATA     BIT       SCON1_TBX
      000000E8H.7 SFRSYM    DATA     BIT       ADC0CN0_ADEN
      00000089H   SFRSYM    DATA     BYTE      TMOD
      00000088H   SFRSYM    DATA     BYTE      TCON
      000000CFH   SFRSYM    DATA     BYTE      CRC0FLIP
      000000D0H   SFRSYM    DATA     BIT       PSW_PARITY
      000000A8H.4 SFRSYM    DATA     BIT       IE_ES0
      0000009FH   SFRSYM    DATA     BYTE      CMP0MX
      00000098H   SFRSYM    DATA     BIT       TMR4CN0_T4XCLK0
      000000A8H.1 SFRSYM    DATA     BIT       IE_ET0
      000000AAH   SFRSYM    DATA     BYTE      CMP1MX
      00000098H.1 SFRSYM    DATA     BIT       TMR4CN0_T4XCLK1
      000000A8H.3 SFRSYM    DATA     BIT       IE_ET1
      000000D4H   SFRSYM    DATA     BYTE      P0SKIP
      000000D8H   SFRSYM    DATA     BIT       UART1FCN1_RIE
      000000A8H.5 SFRSYM    DATA     BIT       IE_ET2
      000000D5H   SFRSYM    DATA     BYTE      P1SKIP
      000000CCH   SFRSYM    DATA     BYTE      P2SKIP
      000000E8H   SFRSYM    DATA     BYTE      ADC0CN0
      000000D8H.4 SFRSYM    DATA     BIT       UART1FCN1_TIE
      000000A8H   SFRSYM    DATA     BIT       IE_EX0
      000000B2H   SFRSYM    DATA     BYTE      ADC0CN1
      000000D8H.6 SFRSYM    DATA     BIT       PCA0CN0_CR
      000000A8H.2 SFRSYM    DATA     BIT       IE_EX1
      000000C8H.7 SFRSYM    DATA     BIT       SCON1_OVR
      00000098H.7 SFRSYM    DATA     BIT       SCON0_SMODE
      000000B5H   SFRSYM    DATA     BYTE      DEVICEID
      000000A9H   SFRSYM    DATA     BYTE      CLKSEL
      000000F8H   SFRSYM    DATA     BIT       SPI0CN0_SPIEN
LX51 LINKER/LOCATER V4.66.30.0                                                        08/12/2020  16:38:44  PAGE 101


      000000F0H   SFRSYM    DATA     BYTE      B
      000000BEH   SFRSYM    DATA     BYTE      ADC0H
      000000E8H.6 SFRSYM    DATA     BIT       ADC0CN0_ADBMEN
      000000CAH   SFRSYM    DATA     WORD      TMR2RL
      000000BDH   SFRSYM    DATA     BYTE      ADC0L
      00000092H   SFRSYM    DATA     WORD      TMR3RL
      000000A2H   SFRSYM    DATA     WORD      TMR4RL
      000000D8H   SFRSYM    DATA     BYTE      PCA0CN0
      000000E0H   SFRSYM    DATA     BYTE      ACC
      000000FBH   SFRSYM    DATA     WORD      PCA0CP0
      000000E9H   SFRSYM    DATA     WORD      PCA0CP1
      000000EBH   SFRSYM    DATA     WORD      PCA0CP2
      000000BCH   SFRSYM    DATA     BYTE      I2C0DIN
      000000CEH   SFRSYM    DATA     BYTE      CRC0CN0
      0000008CH   SFRSYM    DATA     BYTE      TH0
      00000086H   SFRSYM    DATA     BYTE      CRC0CN1
      000000B8H.4 SFRSYM    DATA     BIT       IP_PS0
      000000FAH   SFRSYM    DATA     BYTE      UART1FCT
      0000008DH   SFRSYM    DATA     BYTE      TH1
      000000FAH   SFRSYM    DATA     BYTE      PCA0H
      000000F5H   SFRSYM    DATA     BYTE      I2C0FCT
      000000B8H.1 SFRSYM    DATA     BIT       IP_PT0
      000000B8H.3 SFRSYM    DATA     BIT       IP_PT1
      000000C0H.2 SFRSYM    DATA     BIT       SMB0CN0_ARBLOST
      000000B8H.5 SFRSYM    DATA     BIT       IP_PT2
      0000008AH   SFRSYM    DATA     BYTE      TL0
      000000D0H.5 SFRSYM    DATA     BIT       PSW_F0
      000000A8H.6 SFRSYM    DATA     BIT       IE_ESPI0
      0000008BH   SFRSYM    DATA     BYTE      TL1
      000000F9H   SFRSYM    DATA     BYTE      PCA0L
      000000C0H   SFRSYM    DATA     BIT       SMB0CN0_SI
      000000D0H.1 SFRSYM    DATA     BIT       PSW_F1
      00000080H   SFRSYM    DATA     BIT       P0_B0
      000000B8H   SFRSYM    DATA     BIT       IP_PX0
      00000090H   SFRSYM    DATA     BIT       P1_B0
      00000080H.1 SFRSYM    DATA     BIT       P0_B1
      000000B8H.2 SFRSYM    DATA     BIT       IP_PX1
      0000009EH   SFRSYM    DATA     BYTE      UART1LIN
      0000009BH   SFRSYM    DATA     BYTE      CMP0CN0
      00000088H.1 SFRSYM    DATA     BIT       TCON_IE0
      000000A0H   SFRSYM    DATA     BIT       P2_B0
      00000090H.1 SFRSYM    DATA     BIT       P1_B1
      00000080H.2 SFRSYM    DATA     BIT       P0_B2
      000000BFH   SFRSYM    DATA     BYTE      CMP1CN0
      00000099H   SFRSYM    DATA     BYTE      CMP0CN1
      00000088H.3 SFRSYM    DATA     BIT       TCON_IE1
      000000B0H   SFRSYM    DATA     BIT       P3_B0
      000000A0H.1 SFRSYM    DATA     BIT       P2_B1
      00000090H.2 SFRSYM    DATA     BIT       P1_B2
      00000080H.3 SFRSYM    DATA     BIT       P0_B3
      000000C0H   SFRSYM    DATA     BYTE      SMB0CN0
      000000ACH   SFRSYM    DATA     BYTE      CMP1CN1
      000000B0H.1 SFRSYM    DATA     BIT       P3_B1
      000000A0H.2 SFRSYM    DATA     BIT       P2_B2
      00000090H.3 SFRSYM    DATA     BIT       P1_B3
      00000080H.4 SFRSYM    DATA     BIT       P0_B4
      000000A0H.3 SFRSYM    DATA     BIT       P2_B3
      00000090H.4 SFRSYM    DATA     BIT       P1_B4
      00000080H.5 SFRSYM    DATA     BIT       P0_B5
      000000D8H.1 SFRSYM    DATA     BIT       UART1FCN1_RXTO0
      00000090H.5 SFRSYM    DATA     BIT       P1_B5
      00000080H.6 SFRSYM    DATA     BIT       P0_B6
LX51 LINKER/LOCATER V4.66.30.0                                                        08/12/2020  16:38:44  PAGE 102


      000000F5H   SFRSYM    DATA     BYTE      EIP1H
      000000D8H.2 SFRSYM    DATA     BIT       UART1FCN1_RXTO1
      00000090H.6 SFRSYM    DATA     BIT       P1_B6
      00000080H.7 SFRSYM    DATA     BIT       P0_B7
      000000C5H   SFRSYM    DATA     BYTE      SMB0RXLN
      000000F6H   SFRSYM    DATA     BYTE      EIP2H
      00000090H.7 SFRSYM    DATA     BIT       P1_B7
      00000083H   SFRSYM    DATA     BYTE      DPH
      000000C4H   SFRSYM    DATA     BYTE      ADC0GTH
      000000C8H.7 SFRSYM    DATA     BIT       TMR2CN0_TF2H
      000000C8H.3 SFRSYM    DATA     BIT       TMR2CN0_T2SPLIT
      000000D0H.6 SFRSYM    DATA     BIT       PSW_AC
      000000F8H   SFRSYM    DATA     BYTE      SPI0CN0
      000000C7H   SFRSYM    DATA     BYTE      HFO0CAL
      00000088H.5 SFRSYM    DATA     BIT       TCON_TF0
      00000098H   SFRSYM    DATA     BIT       SCON0_RI
      000000D6H   SFRSYM    DATA     BYTE      HFO1CAL
      00000082H   SFRSYM    DATA     BYTE      DPL
      00000088H.7 SFRSYM    DATA     BIT       TCON_TF1
      000000C8H   SFRSYM    DATA     BIT       SCON1_RI
      00000099H   SFRSYM    DATA     BYTE      SBUF0
      00000087H   SFRSYM    DATA     BYTE      PCON0
      000000F2H   SFRSYM    DATA     BYTE      IPH
      000000C3H   SFRSYM    DATA     BYTE      ADC0GTL
      00000098H.7 SFRSYM    DATA     BIT       TMR4CN0_TF4H
      00000098H.3 SFRSYM    DATA     BIT       TMR4CN0_T4SPLIT
      000000C8H.6 SFRSYM    DATA     BIT       TMR2CN0_TF2L
      00000098H.1 SFRSYM    DATA     BIT       SCON0_TI
      000000E8H   SFRSYM    DATA     BIT       ADC0CN0_ADCM0
      00000092H   SFRSYM    DATA     BYTE      SBUF1
      0000009AH   SFRSYM    DATA     BYTE      PCON1
      000000C6H   SFRSYM    DATA     BYTE      ADC0LTH
      00000088H   SFRSYM    DATA     BIT       TCON_IT0
      000000C8H.1 SFRSYM    DATA     BIT       SCON1_TI
      000000E8H.1 SFRSYM    DATA     BIT       ADC0CN0_ADCM1
      000000EFH   SFRSYM    DATA     BYTE      RSTSRC
      000000FDH   SFRSYM    DATA     BYTE      P0MAT
      000000DEH   SFRSYM    DATA     BYTE      CRC0DAT
      00000088H.2 SFRSYM    DATA     BIT       TCON_IT1
      000000E8H.2 SFRSYM    DATA     BIT       ADC0CN0_ADCM2
      000000D7H   SFRSYM    DATA     BYTE      SFRSTACK
      00000098H   SFRSYM    DATA     BYTE      SCON0
      000000F6H   SFRSYM    DATA     BYTE      PRTDRV
      000000EDH   SFRSYM    DATA     BYTE      P1MAT
      000000E8H.3 SFRSYM    DATA     BIT       ADC0CN0_ADWINT
      00000095H   SFRSYM    DATA     WORD      SBRL1
      00000093H   SFRSYM    DATA     BYTE      SMOD1
      000000C8H   SFRSYM    DATA     BYTE      SCON1
      000000FBH   SFRSYM    DATA     BYTE      P2MAT
      00000098H.6 SFRSYM    DATA     BIT       TMR4CN0_TF4L
      000000E8H.4 SFRSYM    DATA     BIT       ADC0CN0_ADBUSY
      000000D6H   SFRSYM    DATA     BYTE      SMB0ADM
      000000C5H   SFRSYM    DATA     BYTE      ADC0LTL
      000000F8H.5 SFRSYM    DATA     BIT       SPI0CN0_MODF
      000000B8H.6 SFRSYM    DATA     BIT       IP_PSPI0
      0000009CH   SFRSYM    DATA     BYTE      PCA0CLR
      000000C8H   SFRSYM    DATA     BYTE      TMR2CN0
      00000091H   SFRSYM    DATA     BYTE      TMR3CN0
      000000FDH   SFRSYM    DATA     BYTE      TMR2CN1
      00000098H   SFRSYM    DATA     BYTE      TMR4CN0
      000000FEH   SFRSYM    DATA     BYTE      TMR3CN1
      000000FFH   SFRSYM    DATA     BYTE      TMR4CN1
LX51 LINKER/LOCATER V4.66.30.0                                                        08/12/2020  16:38:44  PAGE 103


      000000D7H   SFRSYM    DATA     BYTE      SMB0ADR
      00000088H.4 SFRSYM    DATA     BIT       TCON_TR0
      000000C8H.4 SFRSYM    DATA     BIT       TMR2CN0_TF2CEN
      00000088H.6 SFRSYM    DATA     BIT       TCON_TR1
      000000C2H   SFRSYM    DATA     BYTE      SMB0DAT
      000000CDH   SFRSYM    DATA     BYTE      TMR2H
      000000A1H   SFRSYM    DATA     BYTE      SPI0CFG
      00000095H   SFRSYM    DATA     BYTE      TMR3H
      000000EFH   SFRSYM    DATA     BYTE      HFOCN
      000000D3H   SFRSYM    DATA     BYTE      CRC0CNT
      000000A5H   SFRSYM    DATA     BYTE      TMR4H
      00000098H.4 SFRSYM    DATA     BIT       TMR4CN0_TF4CEN
      000000EFH   SFRSYM    DATA     BYTE      SMB0FCT
      00000096H   SFRSYM    DATA     BYTE      PCA0POL
      000000CCH   SFRSYM    DATA     BYTE      TMR2L
      000000F8H.7 SFRSYM    DATA     BIT       SPI0CN0_SPIF
      00000094H   SFRSYM    DATA     BYTE      TMR3L
      000000DFH   SFRSYM    DATA     BYTE      ADC0PWR
      000000A8H.7 SFRSYM    DATA     BIT       IE_EA
      000000A4H   SFRSYM    DATA     BYTE      TMR4L
      000000C8H.5 SFRSYM    DATA     BIT       TMR2CN0_TF2LEN
      000000F8H.6 SFRSYM    DATA     BIT       SPI0CN0_WCOL
      000000F8H.2 SFRSYM    DATA     BIT       SPI0CN0_NSSMD0
      000000D0H.7 SFRSYM    DATA     BIT       PSW_CY
      0000009DH   SFRSYM    DATA     BYTE      UART1FCN0
      000000A3H   SFRSYM    DATA     BYTE      SPI0DAT
      000000ADH   SFRSYM    DATA     BYTE      I2C0FCN0
      000000F8H.3 SFRSYM    DATA     BIT       SPI0CN0_NSSMD1
      000000BDH   SFRSYM    DATA     WORD      ADC0
      000000D8H   SFRSYM    DATA     BYTE      UART1FCN1
      000000ABH   SFRSYM    DATA     BYTE      I2C0FCN1
      00000098H.5 SFRSYM    DATA     BIT       TMR4CN0_TF4LEN
      000000D0H   SFRSYM    DATA     BYTE      PSW
      000000F7H   SFRSYM    DATA     BYTE      PCA0PWM
      000000F7H   SFRSYM    DATA     BYTE      SPI0FCT
      000000B6H   SFRSYM    DATA     BYTE      REVID
      000000B7H   SFRSYM    DATA     BYTE      FLKEY
      000000B3H   SFRSYM    DATA     BYTE      ADC0AC
      00000007H   SYMBOL    DATA     BYTE      WarningClass

      ---         MODULE    ---      ---       TIMER
      020003E2H   PUBLIC    XDATA    BYTE      bTimeFlag
      020003E0H   PUBLIC    XDATA    WORD      wSensorCheckTime
      020003DEH   PUBLIC    XDATA    WORD      w50msCnt
      020003DCH   PUBLIC    XDATA    WORD      w20msCnt
      020003DBH   PUBLIC    XDATA    BYTE      bLevel
      020003D9H   PUBLIC    XDATA    WORD      wTimeMs
      020003D8H   PUBLIC    XDATA    BYTE      bSensorCheckFlag
      020003D7H   PUBLIC    XDATA    BYTE      b50msFlag
      020003D6H   PUBLIC    XDATA    BYTE      b20msFlag
      020003D4H   PUBLIC    XDATA    WORD      wTime
      010034E0H   PUBLIC    CODE     ---       TIMER3_ISR
      010037D0H   PUBLIC    CODE     ---       TIMER4_ISR
      01000022H   PUBLIC    CODE     ---       TIMER0_ISR
      01002E94H   PUBLIC    CODE     ---       TIMER2_ISR
      0100002EH   PUBLIC    CODE     ---       _Delay1ms
      010033E0H   PUBLIC    CODE     ---       _Delay1us
      0100000EH   PUBLIC    CODE     ---       Time_StopAdcTrigger
      010037B4H   PUBLIC    CODE     ---       Time_StartAdcTrigger
      0100365FH   PUBLIC    CODE     ---       Time_InitAdcTriggerTimer
      01003567H   PUBLIC    CODE     ---       Time_InitTheDelayTimer
      01000026H   PUBLIC    CODE     ---       StartTheUart0Timer
LX51 LINKER/LOCATER V4.66.30.0                                                        08/12/2020  16:38:44  PAGE 104


      010035E6H   PUBLIC    CODE     ---       Time_InitUart0Timer
      01003798H   PUBLIC    CODE     ---       Time_Init32msTimer
      0100353CH   PUBLIC    CODE     ---       Time_Init1msTimer
      01003637H   PUBLIC    CODE     ---       _Stop_PCA0_Capture
      0100360FH   PUBLIC    CODE     ---       _Start_PCA0_Capture
      01000003H   PUBLIC    CODE     ---       Stop_PCA0_Comparator
      0100380FH   PUBLIC    CODE     ---       Start_PCA0_Comparator
      01003418H   PUBLIC    CODE     ---       Time_InitPCA0
      000000A2H   SFRSYM    DATA     BYTE      SPI0CKR
      00000080H   SFRSYM    DATA     BYTE      P0
      000000C8H.6 SFRSYM    DATA     BIT       SCON1_PERR
      000000D0H.2 SFRSYM    DATA     BIT       PSW_OV
      00000090H   SFRSYM    DATA     BYTE      P1
      000000F8H.1 SFRSYM    DATA     BIT       SPI0CN0_TXNF
      00000097H   SFRSYM    DATA     BYTE      WDTCN
      000000A0H   SFRSYM    DATA     BYTE      P2
      000000B0H   SFRSYM    DATA     BYTE      P3
      000000BCH   SFRSYM    DATA     BYTE      ADC0CF
      000000C0H.7 SFRSYM    DATA     BIT       SMB0CN0_MASTER
      000000F9H   SFRSYM    DATA     WORD      PCA0
      000000E6H   SFRSYM    DATA     BYTE      EIE1
      000000C0H.1 SFRSYM    DATA     BIT       SMB0CN0_ACK
      000000CEH   SFRSYM    DATA     BYTE      EIE2
      0000008FH   SFRSYM    DATA     BYTE      PSCTL
      000000E4H   SFRSYM    DATA     BYTE      IT01CF
      000000C0H.6 SFRSYM    DATA     BIT       SMB0CN0_TXMODE
      000000ADH   SFRSYM    DATA     BYTE      DERIVID
      000000A7H   SFRSYM    DATA     BYTE      SFRPAGE
      000000A4H   SFRSYM    DATA     BYTE      P0MDOUT
      000000A5H   SFRSYM    DATA     BYTE      P1MDOUT
      000000E8H.5 SFRSYM    DATA     BIT       ADC0CN0_ADINT
      000000CBH   SFRSYM    DATA     BYTE      TMR2RLH
      000000A6H   SFRSYM    DATA     BYTE      P2MDOUT
      000000A8H   SFRSYM    DATA     BYTE      IE
      00000093H   SFRSYM    DATA     BYTE      TMR3RLH
      0000009CH   SFRSYM    DATA     BYTE      P3MDOUT
      000000A3H   SFRSYM    DATA     BYTE      TMR4RLH
      000000F3H   SFRSYM    DATA     BYTE      EIP1
      000000F4H   SFRSYM    DATA     BYTE      EIP2
      00000098H.2 SFRSYM    DATA     BIT       SCON0_RB8
      000000CAH   SFRSYM    DATA     BYTE      TMR2RLL
      000000FCH   SFRSYM    DATA     BYTE      PCA0CPH0
      00000092H   SFRSYM    DATA     BYTE      TMR3RLL
      000000EAH   SFRSYM    DATA     BYTE      PCA0CPH1
      00000098H.3 SFRSYM    DATA     BIT       SCON0_TB8
      000000F0H   SFRSYM    DATA     BIT       B_B0
      00000082H   SFRSYM    DATA     WORD      DP
      000000A2H   SFRSYM    DATA     BYTE      TMR4RLL
      000000ECH   SFRSYM    DATA     BYTE      PCA0CPH2
      000000F0H.1 SFRSYM    DATA     BIT       B_B1
      000000C3H   SFRSYM    DATA     WORD      ADC0GT
      000000BDH   SFRSYM    DATA     BYTE      I2C0SLAD
      000000D8H.3 SFRSYM    DATA     BIT       UART1FCN1_RFRQ
      000000F0H.2 SFRSYM    DATA     BIT       B_B2
      000000CFH   SFRSYM    DATA     BYTE      SFRPGCN
      000000FBH   SFRSYM    DATA     BYTE      PCA0CPL0
      000000F0H.3 SFRSYM    DATA     BIT       B_B3
      000000D9H   SFRSYM    DATA     BYTE      PCA0MD
      000000DAH   SFRSYM    DATA     BYTE      PCA0CPM0
      000000E9H   SFRSYM    DATA     BYTE      PCA0CPL1
      000000D8H.7 SFRSYM    DATA     BIT       UART1FCN1_TFRQ
      000000F0H.4 SFRSYM    DATA     BIT       B_B4
LX51 LINKER/LOCATER V4.66.30.0                                                        08/12/2020  16:38:44  PAGE 105


      000000DBH   SFRSYM    DATA     BYTE      PCA0CPM1
      000000EBH   SFRSYM    DATA     BYTE      PCA0CPL2
      000000F0H.5 SFRSYM    DATA     BIT       B_B5
      000000DCH   SFRSYM    DATA     BYTE      PCA0CPM2
      000000B8H   SFRSYM    DATA     BYTE      IP
      000000B9H   SFRSYM    DATA     BYTE      ADC0TK
      000000F0H.6 SFRSYM    DATA     BIT       B_B6
      000000C5H   SFRSYM    DATA     WORD      ADC0LT
      000000D8H.6 SFRSYM    DATA     BIT       UART1FCN1_TXNF
      00000098H.5 SFRSYM    DATA     BIT       SCON0_MCE
      000000F0H.7 SFRSYM    DATA     BIT       B_B7
      000000C3H   SFRSYM    DATA     BYTE      SMB0FCN0
      000000E1H   SFRSYM    DATA     BYTE      XBR0
      000000C4H   SFRSYM    DATA     BYTE      SMB0FCN1
      000000C1H   SFRSYM    DATA     BYTE      SMB0CF
      000000E2H   SFRSYM    DATA     BYTE      XBR1
      000000C1H   SFRSYM    DATA     BYTE      PFE0CN
      000000E7H   SFRSYM    DATA     BYTE      EMI0CN
      000000C0H.5 SFRSYM    DATA     BIT       SMB0CN0_STA
      000000E3H   SFRSYM    DATA     BYTE      XBR2
      000000BBH   SFRSYM    DATA     BYTE      ADC0MX
      000000E0H   SFRSYM    DATA     BIT       ACC_ACC0
      000000D1H   SFRSYM    DATA     BYTE      REF0CN
      0000008EH   SFRSYM    DATA     BYTE      CKCON0
      000000E0H.1 SFRSYM    DATA     BIT       ACC_ACC1
      000000C9H   SFRSYM    DATA     BYTE      REG0CN
      000000DDH   SFRSYM    DATA     BYTE      CRC0IN
      000000A6H   SFRSYM    DATA     BYTE      CKCON1
      000000C8H.2 SFRSYM    DATA     BIT       TMR2CN0_TR2
      000000E0H.2 SFRSYM    DATA     BIT       ACC_ACC2
      000000C6H   SFRSYM    DATA     BYTE      REG1CN
      000000E0H.3 SFRSYM    DATA     BIT       ACC_ACC3
      00000081H   SFRSYM    DATA     BYTE      SP
      0000009DH   SFRSYM    DATA     BYTE      CMP0MD
      000000E0H.4 SFRSYM    DATA     BIT       ACC_ACC4
      000000B1H   SFRSYM    DATA     BYTE      LFO0CN
      000000ABH   SFRSYM    DATA     BYTE      CMP1MD
      000000D8H   SFRSYM    DATA     BIT       PCA0CN0_CCF0
      000000E0H.5 SFRSYM    DATA     BIT       ACC_ACC5
      00000098H.2 SFRSYM    DATA     BIT       TMR4CN0_TR4
      000000D8H.1 SFRSYM    DATA     BIT       PCA0CN0_CCF1
      000000E0H.6 SFRSYM    DATA     BIT       ACC_ACC6
      000000CCH   SFRSYM    DATA     WORD      TMR2
      0000009AH   SFRSYM    DATA     BYTE      SPI0FCN0
      000000D8H.2 SFRSYM    DATA     BIT       PCA0CN0_CCF2
      000000E0H.7 SFRSYM    DATA     BIT       ACC_ACC7
      00000094H   SFRSYM    DATA     WORD      TMR3
      0000009BH   SFRSYM    DATA     BYTE      SPI0FCN1
      000000A4H   SFRSYM    DATA     WORD      TMR4
      00000094H   SFRSYM    DATA     BYTE      SBCON1
      000000C0H.3 SFRSYM    DATA     BIT       SMB0CN0_ACKRQ
      000000FFH   SFRSYM    DATA     BYTE      VDM0CN
      000000F1H   SFRSYM    DATA     BYTE      P0MDIN
      00000098H.4 SFRSYM    DATA     BIT       SCON0_REN
      000000ACH   SFRSYM    DATA     BYTE      SMB0TC
      000000F2H   SFRSYM    DATA     BYTE      P1MDIN
      000000C8H.4 SFRSYM    DATA     BIT       SCON1_REN
      000000F3H   SFRSYM    DATA     BYTE      P2MDIN
      000000C0H.4 SFRSYM    DATA     BIT       SMB0CN0_STO
      000000F4H   SFRSYM    DATA     BYTE      P3MDIN
      000000B9H   SFRSYM    DATA     BYTE      I2C0STAT
      000000BBH   SFRSYM    DATA     BYTE      I2C0DOUT
LX51 LINKER/LOCATER V4.66.30.0                                                        08/12/2020  16:38:44  PAGE 106


      00000096H   SFRSYM    DATA     BYTE      SBRLH1
      000000FEH   SFRSYM    DATA     BYTE      P0MASK
      000000D8H.5 SFRSYM    DATA     BIT       UART1FCN1_TXHOLD
      000000EEH   SFRSYM    DATA     BYTE      P1MASK
      000000FCH   SFRSYM    DATA     BYTE      P2MASK
      000000D0H.3 SFRSYM    DATA     BIT       PSW_RS0
      000000D8H.7 SFRSYM    DATA     BIT       PCA0CN0_CF
      0000009EH   SFRSYM    DATA     BYTE      PCA0CENT
      000000BAH   SFRSYM    DATA     BYTE      I2C0CN0
      000000D2H   SFRSYM    DATA     BYTE      CRC0ST
      000000F8H.4 SFRSYM    DATA     BIT       SPI0CN0_RXOVRN
      000000D0H.4 SFRSYM    DATA     BIT       PSW_RS1
      00000095H   SFRSYM    DATA     BYTE      SBRLL1
      000000C8H.2 SFRSYM    DATA     BIT       SCON1_RBX
      000000C8H   SFRSYM    DATA     BIT       TMR2CN0_T2XCLK0
      000000C8H.1 SFRSYM    DATA     BIT       TMR2CN0_T2XCLK1
      000000C8H.3 SFRSYM    DATA     BIT       SCON1_TBX
      000000E8H.7 SFRSYM    DATA     BIT       ADC0CN0_ADEN
      00000089H   SFRSYM    DATA     BYTE      TMOD
      00000088H   SFRSYM    DATA     BYTE      TCON
      000000CFH   SFRSYM    DATA     BYTE      CRC0FLIP
      000000D0H   SFRSYM    DATA     BIT       PSW_PARITY
      000000A8H.4 SFRSYM    DATA     BIT       IE_ES0
      0000009FH   SFRSYM    DATA     BYTE      CMP0MX
      00000098H   SFRSYM    DATA     BIT       TMR4CN0_T4XCLK0
      000000A8H.1 SFRSYM    DATA     BIT       IE_ET0
      000000AAH   SFRSYM    DATA     BYTE      CMP1MX
      00000098H.1 SFRSYM    DATA     BIT       TMR4CN0_T4XCLK1
      000000A8H.3 SFRSYM    DATA     BIT       IE_ET1
      000000D4H   SFRSYM    DATA     BYTE      P0SKIP
      000000D8H   SFRSYM    DATA     BIT       UART1FCN1_RIE
      000000A8H.5 SFRSYM    DATA     BIT       IE_ET2
      000000D5H   SFRSYM    DATA     BYTE      P1SKIP
      000000CCH   SFRSYM    DATA     BYTE      P2SKIP
      000000E8H   SFRSYM    DATA     BYTE      ADC0CN0
      000000D8H.4 SFRSYM    DATA     BIT       UART1FCN1_TIE
      000000A8H   SFRSYM    DATA     BIT       IE_EX0
      000000B2H   SFRSYM    DATA     BYTE      ADC0CN1
      000000D8H.6 SFRSYM    DATA     BIT       PCA0CN0_CR
      000000A8H.2 SFRSYM    DATA     BIT       IE_EX1
      000000C8H.7 SFRSYM    DATA     BIT       SCON1_OVR
      00000098H.7 SFRSYM    DATA     BIT       SCON0_SMODE
      000000B5H   SFRSYM    DATA     BYTE      DEVICEID
      000000A9H   SFRSYM    DATA     BYTE      CLKSEL
      000000F8H   SFRSYM    DATA     BIT       SPI0CN0_SPIEN
      000000F0H   SFRSYM    DATA     BYTE      B
      000000BEH   SFRSYM    DATA     BYTE      ADC0H
      000000E8H.6 SFRSYM    DATA     BIT       ADC0CN0_ADBMEN
      000000CAH   SFRSYM    DATA     WORD      TMR2RL
      000000BDH   SFRSYM    DATA     BYTE      ADC0L
      00000092H   SFRSYM    DATA     WORD      TMR3RL
      000000A2H   SFRSYM    DATA     WORD      TMR4RL
      000000D8H   SFRSYM    DATA     BYTE      PCA0CN0
      000000E0H   SFRSYM    DATA     BYTE      ACC
      000000FBH   SFRSYM    DATA     WORD      PCA0CP0
      000000E9H   SFRSYM    DATA     WORD      PCA0CP1
      000000EBH   SFRSYM    DATA     WORD      PCA0CP2
      000000BCH   SFRSYM    DATA     BYTE      I2C0DIN
      000000CEH   SFRSYM    DATA     BYTE      CRC0CN0
      0000008CH   SFRSYM    DATA     BYTE      TH0
      00000086H   SFRSYM    DATA     BYTE      CRC0CN1
      000000B8H.4 SFRSYM    DATA     BIT       IP_PS0
LX51 LINKER/LOCATER V4.66.30.0                                                        08/12/2020  16:38:44  PAGE 107


      000000FAH   SFRSYM    DATA     BYTE      UART1FCT
      0000008DH   SFRSYM    DATA     BYTE      TH1
      000000FAH   SFRSYM    DATA     BYTE      PCA0H
      000000F5H   SFRSYM    DATA     BYTE      I2C0FCT
      000000B8H.1 SFRSYM    DATA     BIT       IP_PT0
      000000B8H.3 SFRSYM    DATA     BIT       IP_PT1
      000000C0H.2 SFRSYM    DATA     BIT       SMB0CN0_ARBLOST
      000000B8H.5 SFRSYM    DATA     BIT       IP_PT2
      0000008AH   SFRSYM    DATA     BYTE      TL0
      000000D0H.5 SFRSYM    DATA     BIT       PSW_F0
      000000A8H.6 SFRSYM    DATA     BIT       IE_ESPI0
      0000008BH   SFRSYM    DATA     BYTE      TL1
      000000F9H   SFRSYM    DATA     BYTE      PCA0L
      000000C0H   SFRSYM    DATA     BIT       SMB0CN0_SI
      000000D0H.1 SFRSYM    DATA     BIT       PSW_F1
      00000080H   SFRSYM    DATA     BIT       P0_B0
      000000B8H   SFRSYM    DATA     BIT       IP_PX0
      00000090H   SFRSYM    DATA     BIT       P1_B0
      00000080H.1 SFRSYM    DATA     BIT       P0_B1
      000000B8H.2 SFRSYM    DATA     BIT       IP_PX1
      0000009EH   SFRSYM    DATA     BYTE      UART1LIN
      0000009BH   SFRSYM    DATA     BYTE      CMP0CN0
      00000088H.1 SFRSYM    DATA     BIT       TCON_IE0
      000000A0H   SFRSYM    DATA     BIT       P2_B0
      00000090H.1 SFRSYM    DATA     BIT       P1_B1
      00000080H.2 SFRSYM    DATA     BIT       P0_B2
      000000BFH   SFRSYM    DATA     BYTE      CMP1CN0
      00000099H   SFRSYM    DATA     BYTE      CMP0CN1
      00000088H.3 SFRSYM    DATA     BIT       TCON_IE1
      000000B0H   SFRSYM    DATA     BIT       P3_B0
      000000A0H.1 SFRSYM    DATA     BIT       P2_B1
      00000090H.2 SFRSYM    DATA     BIT       P1_B2
      00000080H.3 SFRSYM    DATA     BIT       P0_B3
      000000C0H   SFRSYM    DATA     BYTE      SMB0CN0
      000000ACH   SFRSYM    DATA     BYTE      CMP1CN1
      000000B0H.1 SFRSYM    DATA     BIT       P3_B1
      000000A0H.2 SFRSYM    DATA     BIT       P2_B2
      00000090H.3 SFRSYM    DATA     BIT       P1_B3
      00000080H.4 SFRSYM    DATA     BIT       P0_B4
      000000A0H.3 SFRSYM    DATA     BIT       P2_B3
      00000090H.4 SFRSYM    DATA     BIT       P1_B4
      00000080H.5 SFRSYM    DATA     BIT       P0_B5
      000000D8H.1 SFRSYM    DATA     BIT       UART1FCN1_RXTO0
      00000090H.5 SFRSYM    DATA     BIT       P1_B5
      00000080H.6 SFRSYM    DATA     BIT       P0_B6
      000000F5H   SFRSYM    DATA     BYTE      EIP1H
      000000D8H.2 SFRSYM    DATA     BIT       UART1FCN1_RXTO1
      00000090H.6 SFRSYM    DATA     BIT       P1_B6
      00000080H.7 SFRSYM    DATA     BIT       P0_B7
      000000C5H   SFRSYM    DATA     BYTE      SMB0RXLN
      000000F6H   SFRSYM    DATA     BYTE      EIP2H
      00000090H.7 SFRSYM    DATA     BIT       P1_B7
      00000083H   SFRSYM    DATA     BYTE      DPH
      000000C4H   SFRSYM    DATA     BYTE      ADC0GTH
      000000C8H.7 SFRSYM    DATA     BIT       TMR2CN0_TF2H
      000000C8H.3 SFRSYM    DATA     BIT       TMR2CN0_T2SPLIT
      000000D0H.6 SFRSYM    DATA     BIT       PSW_AC
      000000F8H   SFRSYM    DATA     BYTE      SPI0CN0
      000000C7H   SFRSYM    DATA     BYTE      HFO0CAL
      00000088H.5 SFRSYM    DATA     BIT       TCON_TF0
      00000098H   SFRSYM    DATA     BIT       SCON0_RI
      000000D6H   SFRSYM    DATA     BYTE      HFO1CAL
LX51 LINKER/LOCATER V4.66.30.0                                                        08/12/2020  16:38:44  PAGE 108


      00000082H   SFRSYM    DATA     BYTE      DPL
      00000088H.7 SFRSYM    DATA     BIT       TCON_TF1
      000000C8H   SFRSYM    DATA     BIT       SCON1_RI
      00000099H   SFRSYM    DATA     BYTE      SBUF0
      00000087H   SFRSYM    DATA     BYTE      PCON0
      000000F2H   SFRSYM    DATA     BYTE      IPH
      000000C3H   SFRSYM    DATA     BYTE      ADC0GTL
      00000098H.7 SFRSYM    DATA     BIT       TMR4CN0_TF4H
      00000098H.3 SFRSYM    DATA     BIT       TMR4CN0_T4SPLIT
      000000C8H.6 SFRSYM    DATA     BIT       TMR2CN0_TF2L
      00000098H.1 SFRSYM    DATA     BIT       SCON0_TI
      000000E8H   SFRSYM    DATA     BIT       ADC0CN0_ADCM0
      00000092H   SFRSYM    DATA     BYTE      SBUF1
      0000009AH   SFRSYM    DATA     BYTE      PCON1
      000000C6H   SFRSYM    DATA     BYTE      ADC0LTH
      00000088H   SFRSYM    DATA     BIT       TCON_IT0
      000000C8H.1 SFRSYM    DATA     BIT       SCON1_TI
      000000E8H.1 SFRSYM    DATA     BIT       ADC0CN0_ADCM1
      000000EFH   SFRSYM    DATA     BYTE      RSTSRC
      000000FDH   SFRSYM    DATA     BYTE      P0MAT
      000000DEH   SFRSYM    DATA     BYTE      CRC0DAT
      00000088H.2 SFRSYM    DATA     BIT       TCON_IT1
      000000E8H.2 SFRSYM    DATA     BIT       ADC0CN0_ADCM2
      000000D7H   SFRSYM    DATA     BYTE      SFRSTACK
      00000098H   SFRSYM    DATA     BYTE      SCON0
      000000F6H   SFRSYM    DATA     BYTE      PRTDRV
      000000EDH   SFRSYM    DATA     BYTE      P1MAT
      000000E8H.3 SFRSYM    DATA     BIT       ADC0CN0_ADWINT
      00000095H   SFRSYM    DATA     WORD      SBRL1
      00000093H   SFRSYM    DATA     BYTE      SMOD1
      000000C8H   SFRSYM    DATA     BYTE      SCON1
      000000FBH   SFRSYM    DATA     BYTE      P2MAT
      00000098H.6 SFRSYM    DATA     BIT       TMR4CN0_TF4L
      000000E8H.4 SFRSYM    DATA     BIT       ADC0CN0_ADBUSY
      000000D6H   SFRSYM    DATA     BYTE      SMB0ADM
      000000C5H   SFRSYM    DATA     BYTE      ADC0LTL
      000000F8H.5 SFRSYM    DATA     BIT       SPI0CN0_MODF
      000000B8H.6 SFRSYM    DATA     BIT       IP_PSPI0
      0000009CH   SFRSYM    DATA     BYTE      PCA0CLR
      000000C8H   SFRSYM    DATA     BYTE      TMR2CN0
      00000091H   SFRSYM    DATA     BYTE      TMR3CN0
      000000FDH   SFRSYM    DATA     BYTE      TMR2CN1
      00000098H   SFRSYM    DATA     BYTE      TMR4CN0
      000000FEH   SFRSYM    DATA     BYTE      TMR3CN1
      000000FFH   SFRSYM    DATA     BYTE      TMR4CN1
      000000D7H   SFRSYM    DATA     BYTE      SMB0ADR
      00000088H.4 SFRSYM    DATA     BIT       TCON_TR0
      000000C8H.4 SFRSYM    DATA     BIT       TMR2CN0_TF2CEN
      00000088H.6 SFRSYM    DATA     BIT       TCON_TR1
      000000C2H   SFRSYM    DATA     BYTE      SMB0DAT
      000000CDH   SFRSYM    DATA     BYTE      TMR2H
      000000A1H   SFRSYM    DATA     BYTE      SPI0CFG
      00000095H   SFRSYM    DATA     BYTE      TMR3H
      000000EFH   SFRSYM    DATA     BYTE      HFOCN
      000000D3H   SFRSYM    DATA     BYTE      CRC0CNT
      000000A5H   SFRSYM    DATA     BYTE      TMR4H
      00000098H.4 SFRSYM    DATA     BIT       TMR4CN0_TF4CEN
      000000EFH   SFRSYM    DATA     BYTE      SMB0FCT
      00000096H   SFRSYM    DATA     BYTE      PCA0POL
      000000CCH   SFRSYM    DATA     BYTE      TMR2L
      000000F8H.7 SFRSYM    DATA     BIT       SPI0CN0_SPIF
      00000094H   SFRSYM    DATA     BYTE      TMR3L
LX51 LINKER/LOCATER V4.66.30.0                                                        08/12/2020  16:38:44  PAGE 109


      000000DFH   SFRSYM    DATA     BYTE      ADC0PWR
      000000A8H.7 SFRSYM    DATA     BIT       IE_EA
      000000A4H   SFRSYM    DATA     BYTE      TMR4L
      000000C8H.5 SFRSYM    DATA     BIT       TMR2CN0_TF2LEN
      000000F8H.6 SFRSYM    DATA     BIT       SPI0CN0_WCOL
      000000F8H.2 SFRSYM    DATA     BIT       SPI0CN0_NSSMD0
      000000D0H.7 SFRSYM    DATA     BIT       PSW_CY
      0000009DH   SFRSYM    DATA     BYTE      UART1FCN0
      000000A3H   SFRSYM    DATA     BYTE      SPI0DAT
      000000ADH   SFRSYM    DATA     BYTE      I2C0FCN0
      000000F8H.3 SFRSYM    DATA     BIT       SPI0CN0_NSSMD1
      000000BDH   SFRSYM    DATA     WORD      ADC0
      000000D8H   SFRSYM    DATA     BYTE      UART1FCN1
      000000ABH   SFRSYM    DATA     BYTE      I2C0FCN1
      00000098H.5 SFRSYM    DATA     BIT       TMR4CN0_TF4LEN
      000000D0H   SFRSYM    DATA     BYTE      PSW
      000000F7H   SFRSYM    DATA     BYTE      PCA0PWM
      000000F7H   SFRSYM    DATA     BYTE      SPI0FCT
      000000B6H   SFRSYM    DATA     BYTE      REVID
      000000B7H   SFRSYM    DATA     BYTE      FLKEY
      000000B3H   SFRSYM    DATA     BYTE      ADC0AC

      01003418H   BLOCK     CODE     ---       LVL=0
      01003418H   LINE      CODE     ---       #48
      01003418H   LINE      CODE     ---       #49
      01003418H   LINE      CODE     ---       #50
      0100341EH   LINE      CODE     ---       #51
      01003421H   LINE      CODE     ---       #53
      01003423H   LINE      CODE     ---       #54
      01003425H   LINE      CODE     ---       #55
      01003427H   LINE      CODE     ---       #56
      01003429H   LINE      CODE     ---       #58
      0100342CH   LINE      CODE     ---       #62
      0100342EH   LINE      CODE     ---       #63
      01003430H   LINE      CODE     ---       #64
      01003432H   LINE      CODE     ---       #65
      01003434H   LINE      CODE     ---       #66
      01003436H   LINE      CODE     ---       #67
      01003438H   LINE      CODE     ---       #69
      0100343BH   LINE      CODE     ---       #78
      0100343EH   LINE      CODE     ---       #80
      01003440H   LINE      CODE     ---       #82
      01003443H   LINE      CODE     ---       #83
      01003446H   LINE      CODE     ---       #84
      01003449H   LINE      CODE     ---       #85
      0100344BH   LINE      CODE     ---       #87
      0100344EH   LINE      CODE     ---       #88
      ---         BLOCKEND  ---      ---       LVL=0

      0100380FH   BLOCK     CODE     ---       LVL=0
      0100380FH   LINE      CODE     ---       #90
      0100380FH   LINE      CODE     ---       #91
      0100380FH   LINE      CODE     ---       #92
      01003815H   LINE      CODE     ---       #93
      0100381BH   LINE      CODE     ---       #94
      ---         BLOCKEND  ---      ---       LVL=0

      01000003H   BLOCK     CODE     ---       LVL=0
      01000003H   LINE      CODE     ---       #95
      01000003H   LINE      CODE     ---       #96
      01000003H   LINE      CODE     ---       #97
      01000005H   LINE      CODE     ---       #98
LX51 LINKER/LOCATER V4.66.30.0                                                        08/12/2020  16:38:44  PAGE 110


      0100000AH   LINE      CODE     ---       #99
      ---         BLOCKEND  ---      ---       LVL=0

      0100360FH   BLOCK     CODE     ---       LVL=0
      00000007H   SYMBOL    DATA     BYTE      CH
      0100360FH   LINE      CODE     ---       #101
      0100360FH   LINE      CODE     ---       #102
      0100360FH   LINE      CODE     ---       #103
      01003615H   LINE      CODE     ---       #104
      01003618H   LINE      CODE     ---       #105
      0100361AH   LINE      CODE     ---       #106
      0100361DH   LINE      CODE     ---       #107
      0100361DH   LINE      CODE     ---       #108
      01003620H   LINE      CODE     ---       #109
      01003620H   LINE      CODE     ---       #110
      01003624H   LINE      CODE     ---       #111
      01003624H   LINE      CODE     ---       #112
      01003627H   LINE      CODE     ---       #113
      01003627H   LINE      CODE     ---       #114
      0100362BH   LINE      CODE     ---       #115
      0100362BH   LINE      CODE     ---       #116
      0100362EH   LINE      CODE     ---       #117
      0100362EH   LINE      CODE     ---       #118
      01003630H   LINE      CODE     ---       #119
      01003636H   LINE      CODE     ---       #120
      ---         BLOCKEND  ---      ---       LVL=0

      01003637H   BLOCK     CODE     ---       LVL=0
      00000007H   SYMBOL    DATA     BYTE      CH
      01003637H   LINE      CODE     ---       #122
      01003637H   LINE      CODE     ---       #123
      01003637H   LINE      CODE     ---       #124
      0100363DH   LINE      CODE     ---       #125
      01003640H   LINE      CODE     ---       #126
      01003642H   LINE      CODE     ---       #127
      01003645H   LINE      CODE     ---       #128
      01003645H   LINE      CODE     ---       #129
      01003648H   LINE      CODE     ---       #130
      01003648H   LINE      CODE     ---       #131
      0100364CH   LINE      CODE     ---       #132
      0100364CH   LINE      CODE     ---       #133
      0100364FH   LINE      CODE     ---       #134
      0100364FH   LINE      CODE     ---       #135
      01003653H   LINE      CODE     ---       #136
      01003653H   LINE      CODE     ---       #137
      01003656H   LINE      CODE     ---       #138
      01003656H   LINE      CODE     ---       #139
      01003658H   LINE      CODE     ---       #140
      0100365EH   LINE      CODE     ---       #148
      ---         BLOCKEND  ---      ---       LVL=0

      0100353CH   BLOCK     CODE     ---       LVL=0
      0100353CH   LINE      CODE     ---       #152
      0100353CH   LINE      CODE     ---       #153
      0100353CH   LINE      CODE     ---       #154
      01003542H   LINE      CODE     ---       #155
      01003545H   LINE      CODE     ---       #157
      01003547H   LINE      CODE     ---       #158
      01003549H   LINE      CODE     ---       #159
      0100354BH   LINE      CODE     ---       #160
      0100354DH   LINE      CODE     ---       #161
      01003550H   LINE      CODE     ---       #162
LX51 LINKER/LOCATER V4.66.30.0                                                        08/12/2020  16:38:44  PAGE 111


      01003553H   LINE      CODE     ---       #163
      01003556H   LINE      CODE     ---       #164
      01003559H   LINE      CODE     ---       #165
      0100355BH   LINE      CODE     ---       #166
      0100355EH   LINE      CODE     ---       #167
      01003561H   LINE      CODE     ---       #168
      01003563H   LINE      CODE     ---       #170
      01003566H   LINE      CODE     ---       #171
      ---         BLOCKEND  ---      ---       LVL=0

      01003798H   BLOCK     CODE     ---       LVL=0
      01003798H   LINE      CODE     ---       #177
      01003798H   LINE      CODE     ---       #178
      01003798H   LINE      CODE     ---       #179
      0100379BH   LINE      CODE     ---       #180
      0100379EH   LINE      CODE     ---       #181
      010037A1H   LINE      CODE     ---       #182
      010037A4H   LINE      CODE     ---       #183
      010037A7H   LINE      CODE     ---       #184
      010037A9H   LINE      CODE     ---       #185
      010037ABH   LINE      CODE     ---       #186
      010037AEH   LINE      CODE     ---       #187
      010037B1H   LINE      CODE     ---       #189
      010037B3H   LINE      CODE     ---       #190
      ---         BLOCKEND  ---      ---       LVL=0

      010035E6H   BLOCK     CODE     ---       LVL=0
      010035E6H   LINE      CODE     ---       #214
      010035E6H   LINE      CODE     ---       #215
      010035E6H   LINE      CODE     ---       #216
      010035ECH   LINE      CODE     ---       #220
      010035EFH   LINE      CODE     ---       #221
      010035F2H   LINE      CODE     ---       #222
      010035F5H   LINE      CODE     ---       #223
      010035F8H   LINE      CODE     ---       #225
      010035FBH   LINE      CODE     ---       #226
      010035FEH   LINE      CODE     ---       #228
      01003601H   LINE      CODE     ---       #229
      01003603H   LINE      CODE     ---       #230
      01003606H   LINE      CODE     ---       #231
      01003609H   LINE      CODE     ---       #232
      0100360CH   LINE      CODE     ---       #234
      0100360EH   LINE      CODE     ---       #235
      ---         BLOCKEND  ---      ---       LVL=0

      01000026H   BLOCK     CODE     ---       LVL=0
      01000026H   LINE      CODE     ---       #237
      01000026H   LINE      CODE     ---       #238
      01000026H   LINE      CODE     ---       #239
      01000028H   LINE      CODE     ---       #240
      0100002AH   LINE      CODE     ---       #241
      ---         BLOCKEND  ---      ---       LVL=0

      01003567H   BLOCK     CODE     ---       LVL=0
      01003567H   LINE      CODE     ---       #251
      01003567H   LINE      CODE     ---       #252
      01003567H   LINE      CODE     ---       #253
      0100356DH   LINE      CODE     ---       #254
      01003570H   LINE      CODE     ---       #255
      01003572H   LINE      CODE     ---       #256
      01003574H   LINE      CODE     ---       #257
      01003576H   LINE      CODE     ---       #258
LX51 LINKER/LOCATER V4.66.30.0                                                        08/12/2020  16:38:44  PAGE 112


      01003578H   LINE      CODE     ---       #259
      0100357BH   LINE      CODE     ---       #260
      0100357EH   LINE      CODE     ---       #261
      01003581H   LINE      CODE     ---       #262
      01003583H   LINE      CODE     ---       #263
      01003586H   LINE      CODE     ---       #264
      01003589H   LINE      CODE     ---       #265
      0100358CH   LINE      CODE     ---       #267
      0100358EH   LINE      CODE     ---       #269
      01003591H   LINE      CODE     ---       #270
      ---         BLOCKEND  ---      ---       LVL=0

      0100365FH   BLOCK     CODE     ---       LVL=0
      0100365FH   LINE      CODE     ---       #272
      0100365FH   LINE      CODE     ---       #273
      0100365FH   LINE      CODE     ---       #274
      01003665H   LINE      CODE     ---       #275
      01003668H   LINE      CODE     ---       #277
      0100366AH   LINE      CODE     ---       #281
      0100366DH   LINE      CODE     ---       #282
      01003670H   LINE      CODE     ---       #283
      01003673H   LINE      CODE     ---       #284
      01003676H   LINE      CODE     ---       #285
      01003679H   LINE      CODE     ---       #286
      0100367CH   LINE      CODE     ---       #287
      0100367FH   LINE      CODE     ---       #288
      01003682H   LINE      CODE     ---       #290
      01003685H   LINE      CODE     ---       #291
      ---         BLOCKEND  ---      ---       LVL=0

      010037B4H   BLOCK     CODE     ---       LVL=0
      010037B4H   LINE      CODE     ---       #293
      010037B4H   LINE      CODE     ---       #294
      010037B4H   LINE      CODE     ---       #295
      010037BAH   LINE      CODE     ---       #296
      010037BDH   LINE      CODE     ---       #298
      010037C0H   LINE      CODE     ---       #299
      010037C3H   LINE      CODE     ---       #300
      010037C6H   LINE      CODE     ---       #301
      010037C9H   LINE      CODE     ---       #302
      010037CCH   LINE      CODE     ---       #304
      010037CFH   LINE      CODE     ---       #305
      ---         BLOCKEND  ---      ---       LVL=0

      0100000EH   BLOCK     CODE     ---       LVL=0
      0100000EH   LINE      CODE     ---       #307
      0100000EH   LINE      CODE     ---       #308
      0100000EH   LINE      CODE     ---       #309
      01000014H   LINE      CODE     ---       #310
      01000017H   LINE      CODE     ---       #312
      0100001AH   LINE      CODE     ---       #313
      0100001DH   LINE      CODE     ---       #315
      01000020H   LINE      CODE     ---       #316
      ---         BLOCKEND  ---      ---       LVL=0

      010033E0H   BLOCK     CODE     ---       LVL=0
      00000006H   SYMBOL    DATA     WORD      byTime
      010033E0H   BLOCK     CODE     NEAR LAB  LVL=1
      00000006H   SYMBOL    DATA     WORD      Temp
      ---         BLOCKEND  ---      ---       LVL=1
      010033E0H   LINE      CODE     ---       #366
      010033E0H   LINE      CODE     ---       #367
LX51 LINKER/LOCATER V4.66.30.0                                                        08/12/2020  16:38:44  PAGE 113


      010033E0H   LINE      CODE     ---       #370
      010033E6H   LINE      CODE     ---       #371
      010033E9H   LINE      CODE     ---       #373
      010033F4H   LINE      CODE     ---       #374
      010033FDH   LINE      CODE     ---       #375
      01003400H   LINE      CODE     ---       #376
      01003403H   LINE      CODE     ---       #377
      01003405H   LINE      CODE     ---       #378
      01003408H   LINE      CODE     ---       #379
      01003408H   LINE      CODE     ---       #380
      0100340BH   LINE      CODE     ---       #381
      0100340DH   LINE      CODE     ---       #382
      0100340FH   LINE      CODE     ---       #383
      01003411H   LINE      CODE     ---       #385
      01003417H   LINE      CODE     ---       #386
      ---         BLOCKEND  ---      ---       LVL=0

      0100002EH   BLOCK     CODE     ---       LVL=0
      00000004H   SYMBOL    DATA     WORD      byTime
      01000032H   BLOCK     CODE     NEAR LAB  LVL=1
      00000002H   SYMBOL    DATA     WORD      i
      ---         BLOCKEND  ---      ---       LVL=1
      0100002EH   LINE      CODE     ---       #391
      01000032H   LINE      CODE     ---       #392
      01000032H   LINE      CODE     ---       #394
      0100003CH   LINE      CODE     ---       #395
      0100003CH   LINE      CODE     ---       #396
      01000043H   LINE      CODE     ---       #397
      0100004AH   LINE      CODE     ---       #398
      ---         BLOCKEND  ---      ---       LVL=0

      01002E94H   BLOCK     CODE     ---       LVL=0
      01002E94H   LINE      CODE     ---       #404
      01002EB1H   LINE      CODE     ---       #406
      01002EB7H   LINE      CODE     ---       #407
      01002ECCH   LINE      CODE     ---       #408
      01002ECCH   LINE      CODE     ---       #409
      01002ED3H   LINE      CODE     ---       #410
      01002ED8H   LINE      CODE     ---       #411
      01002ED8H   LINE      CODE     ---       #412
      01002EEDH   LINE      CODE     ---       #413
      01002EEDH   LINE      CODE     ---       #414
      01002EF4H   LINE      CODE     ---       #415
      01002EF9H   LINE      CODE     ---       #416
      01002EF9H   LINE      CODE     ---       #417
      01002EFCH   LINE      CODE     ---       #418
      01002EFEH   LINE      CODE     ---       #419
      ---         BLOCKEND  ---      ---       LVL=0

      01000022H   BLOCK     CODE     ---       LVL=0
      01000022H   LINE      CODE     ---       #424
      01000022H   LINE      CODE     ---       #427
      ---         BLOCKEND  ---      ---       LVL=0

      010037D0H   BLOCK     CODE     ---       LVL=0
      010037D0H   LINE      CODE     ---       #433
      010037D6H   LINE      CODE     ---       #435
      010037DCH   LINE      CODE     ---       #436
      010037DFH   LINE      CODE     ---       #437
      010037E1H   LINE      CODE     ---       #438
      010037E4H   LINE      CODE     ---       #439
      ---         BLOCKEND  ---      ---       LVL=0
LX51 LINKER/LOCATER V4.66.30.0                                                        08/12/2020  16:38:44  PAGE 114



      010034E0H   BLOCK     CODE     ---       LVL=0
      010034E0H   LINE      CODE     ---       #445
      010034E8H   LINE      CODE     ---       #447
      010034F7H   LINE      CODE     ---       #448
      01003503H   LINE      CODE     ---       #449
      01003506H   LINE      CODE     ---       #450
      ---         BLOCKEND  ---      ---       LVL=0

      ---         MODULE    ---      ---       UART
      020003B2H   PUBLIC    XDATA    BYTE      Uart0RX_OK_Flag
      020003B1H   PUBLIC    XDATA    BYTE      Uart0TX_NOTOK_Flag
      02000399H   PUBLIC    XDATA    ---       gUart0ReceivePduInfo
      02000398H   PUBLIC    XDATA    BYTE      Uart0TX_ALL_Flag
      02000390H   PUBLIC    XDATA    ---       gslinContext
      010030C4H   PUBLIC    CODE     ---       UART0_ISR
      01001235H   PUBLIC    CODE     ---       _UART0_RXData
      01000076H   PUBLIC    CODE     ---       UART0_Moudle_Dis
      01003686H   PUBLIC    CODE     ---       Uart0_Init
      000000A2H   SFRSYM    DATA     BYTE      SPI0CKR
      00000080H   SFRSYM    DATA     BYTE      P0
      000000C8H.6 SFRSYM    DATA     BIT       SCON1_PERR
      000000D0H.2 SFRSYM    DATA     BIT       PSW_OV
      00000090H   SFRSYM    DATA     BYTE      P1
      000000F8H.1 SFRSYM    DATA     BIT       SPI0CN0_TXNF
      00000097H   SFRSYM    DATA     BYTE      WDTCN
      000000A0H   SFRSYM    DATA     BYTE      P2
      000000B0H   SFRSYM    DATA     BYTE      P3
      000000BCH   SFRSYM    DATA     BYTE      ADC0CF
      000000C0H.7 SFRSYM    DATA     BIT       SMB0CN0_MASTER
      000000F9H   SFRSYM    DATA     WORD      PCA0
      000000E6H   SFRSYM    DATA     BYTE      EIE1
      000000C0H.1 SFRSYM    DATA     BIT       SMB0CN0_ACK
      000000CEH   SFRSYM    DATA     BYTE      EIE2
      0000008FH   SFRSYM    DATA     BYTE      PSCTL
      000000E4H   SFRSYM    DATA     BYTE      IT01CF
      000000C0H.6 SFRSYM    DATA     BIT       SMB0CN0_TXMODE
      000000ADH   SFRSYM    DATA     BYTE      DERIVID
      000000A7H   SFRSYM    DATA     BYTE      SFRPAGE
      000000A4H   SFRSYM    DATA     BYTE      P0MDOUT
      000000A5H   SFRSYM    DATA     BYTE      P1MDOUT
      000000E8H.5 SFRSYM    DATA     BIT       ADC0CN0_ADINT
      000000CBH   SFRSYM    DATA     BYTE      TMR2RLH
      000000A6H   SFRSYM    DATA     BYTE      P2MDOUT
      000000A8H   SFRSYM    DATA     BYTE      IE
      00000093H   SFRSYM    DATA     BYTE      TMR3RLH
      0000009CH   SFRSYM    DATA     BYTE      P3MDOUT
      000000A3H   SFRSYM    DATA     BYTE      TMR4RLH
      000000F3H   SFRSYM    DATA     BYTE      EIP1
      000000F4H   SFRSYM    DATA     BYTE      EIP2
      00000098H.2 SFRSYM    DATA     BIT       SCON0_RB8
      000000CAH   SFRSYM    DATA     BYTE      TMR2RLL
      000000FCH   SFRSYM    DATA     BYTE      PCA0CPH0
      00000092H   SFRSYM    DATA     BYTE      TMR3RLL
      000000EAH   SFRSYM    DATA     BYTE      PCA0CPH1
      00000098H.3 SFRSYM    DATA     BIT       SCON0_TB8
      000000F0H   SFRSYM    DATA     BIT       B_B0
      00000082H   SFRSYM    DATA     WORD      DP
      000000A2H   SFRSYM    DATA     BYTE      TMR4RLL
      000000ECH   SFRSYM    DATA     BYTE      PCA0CPH2
      000000F0H.1 SFRSYM    DATA     BIT       B_B1
      000000C3H   SFRSYM    DATA     WORD      ADC0GT
LX51 LINKER/LOCATER V4.66.30.0                                                        08/12/2020  16:38:44  PAGE 115


      000000BDH   SFRSYM    DATA     BYTE      I2C0SLAD
      000000D8H.3 SFRSYM    DATA     BIT       UART1FCN1_RFRQ
      000000F0H.2 SFRSYM    DATA     BIT       B_B2
      000000CFH   SFRSYM    DATA     BYTE      SFRPGCN
      000000FBH   SFRSYM    DATA     BYTE      PCA0CPL0
      000000F0H.3 SFRSYM    DATA     BIT       B_B3
      000000D9H   SFRSYM    DATA     BYTE      PCA0MD
      000000DAH   SFRSYM    DATA     BYTE      PCA0CPM0
      000000E9H   SFRSYM    DATA     BYTE      PCA0CPL1
      000000D8H.7 SFRSYM    DATA     BIT       UART1FCN1_TFRQ
      000000F0H.4 SFRSYM    DATA     BIT       B_B4
      000000DBH   SFRSYM    DATA     BYTE      PCA0CPM1
      000000EBH   SFRSYM    DATA     BYTE      PCA0CPL2
      000000F0H.5 SFRSYM    DATA     BIT       B_B5
      000000DCH   SFRSYM    DATA     BYTE      PCA0CPM2
      000000B8H   SFRSYM    DATA     BYTE      IP
      000000B9H   SFRSYM    DATA     BYTE      ADC0TK
      000000F0H.6 SFRSYM    DATA     BIT       B_B6
      000000C5H   SFRSYM    DATA     WORD      ADC0LT
      000000D8H.6 SFRSYM    DATA     BIT       UART1FCN1_TXNF
      00000098H.5 SFRSYM    DATA     BIT       SCON0_MCE
      000000F0H.7 SFRSYM    DATA     BIT       B_B7
      000000C3H   SFRSYM    DATA     BYTE      SMB0FCN0
      000000E1H   SFRSYM    DATA     BYTE      XBR0
      000000C4H   SFRSYM    DATA     BYTE      SMB0FCN1
      000000C1H   SFRSYM    DATA     BYTE      SMB0CF
      000000E2H   SFRSYM    DATA     BYTE      XBR1
      000000C1H   SFRSYM    DATA     BYTE      PFE0CN
      000000E7H   SFRSYM    DATA     BYTE      EMI0CN
      000000C0H.5 SFRSYM    DATA     BIT       SMB0CN0_STA
      000000E3H   SFRSYM    DATA     BYTE      XBR2
      000000BBH   SFRSYM    DATA     BYTE      ADC0MX
      000000E0H   SFRSYM    DATA     BIT       ACC_ACC0
      000000D1H   SFRSYM    DATA     BYTE      REF0CN
      0000008EH   SFRSYM    DATA     BYTE      CKCON0
      000000E0H.1 SFRSYM    DATA     BIT       ACC_ACC1
      000000C9H   SFRSYM    DATA     BYTE      REG0CN
      000000DDH   SFRSYM    DATA     BYTE      CRC0IN
      000000A6H   SFRSYM    DATA     BYTE      CKCON1
      000000C8H.2 SFRSYM    DATA     BIT       TMR2CN0_TR2
      000000E0H.2 SFRSYM    DATA     BIT       ACC_ACC2
      000000C6H   SFRSYM    DATA     BYTE      REG1CN
      000000E0H.3 SFRSYM    DATA     BIT       ACC_ACC3
      00000081H   SFRSYM    DATA     BYTE      SP
      0000009DH   SFRSYM    DATA     BYTE      CMP0MD
      000000E0H.4 SFRSYM    DATA     BIT       ACC_ACC4
      000000B1H   SFRSYM    DATA     BYTE      LFO0CN
      000000ABH   SFRSYM    DATA     BYTE      CMP1MD
      000000D8H   SFRSYM    DATA     BIT       PCA0CN0_CCF0
      000000E0H.5 SFRSYM    DATA     BIT       ACC_ACC5
      00000098H.2 SFRSYM    DATA     BIT       TMR4CN0_TR4
      000000D8H.1 SFRSYM    DATA     BIT       PCA0CN0_CCF1
      000000E0H.6 SFRSYM    DATA     BIT       ACC_ACC6
      000000CCH   SFRSYM    DATA     WORD      TMR2
      0000009AH   SFRSYM    DATA     BYTE      SPI0FCN0
      000000D8H.2 SFRSYM    DATA     BIT       PCA0CN0_CCF2
      000000E0H.7 SFRSYM    DATA     BIT       ACC_ACC7
      00000094H   SFRSYM    DATA     WORD      TMR3
      0000009BH   SFRSYM    DATA     BYTE      SPI0FCN1
      000000A4H   SFRSYM    DATA     WORD      TMR4
      00000094H   SFRSYM    DATA     BYTE      SBCON1
      000000C0H.3 SFRSYM    DATA     BIT       SMB0CN0_ACKRQ
LX51 LINKER/LOCATER V4.66.30.0                                                        08/12/2020  16:38:44  PAGE 116


      000000FFH   SFRSYM    DATA     BYTE      VDM0CN
      000000F1H   SFRSYM    DATA     BYTE      P0MDIN
      00000098H.4 SFRSYM    DATA     BIT       SCON0_REN
      000000ACH   SFRSYM    DATA     BYTE      SMB0TC
      000000F2H   SFRSYM    DATA     BYTE      P1MDIN
      000000C8H.4 SFRSYM    DATA     BIT       SCON1_REN
      000000F3H   SFRSYM    DATA     BYTE      P2MDIN
      000000C0H.4 SFRSYM    DATA     BIT       SMB0CN0_STO
      000000F4H   SFRSYM    DATA     BYTE      P3MDIN
      000000B9H   SFRSYM    DATA     BYTE      I2C0STAT
      000000BBH   SFRSYM    DATA     BYTE      I2C0DOUT
      00000096H   SFRSYM    DATA     BYTE      SBRLH1
      000000FEH   SFRSYM    DATA     BYTE      P0MASK
      000000D8H.5 SFRSYM    DATA     BIT       UART1FCN1_TXHOLD
      000000EEH   SFRSYM    DATA     BYTE      P1MASK
      000000FCH   SFRSYM    DATA     BYTE      P2MASK
      000000D0H.3 SFRSYM    DATA     BIT       PSW_RS0
      000000D8H.7 SFRSYM    DATA     BIT       PCA0CN0_CF
      0000009EH   SFRSYM    DATA     BYTE      PCA0CENT
      000000BAH   SFRSYM    DATA     BYTE      I2C0CN0
      000000D2H   SFRSYM    DATA     BYTE      CRC0ST
      000000F8H.4 SFRSYM    DATA     BIT       SPI0CN0_RXOVRN
      000000D0H.4 SFRSYM    DATA     BIT       PSW_RS1
      00000095H   SFRSYM    DATA     BYTE      SBRLL1
      000000C8H.2 SFRSYM    DATA     BIT       SCON1_RBX
      000000C8H   SFRSYM    DATA     BIT       TMR2CN0_T2XCLK0
      000000C8H.1 SFRSYM    DATA     BIT       TMR2CN0_T2XCLK1
      000000C8H.3 SFRSYM    DATA     BIT       SCON1_TBX
      000000E8H.7 SFRSYM    DATA     BIT       ADC0CN0_ADEN
      00000089H   SFRSYM    DATA     BYTE      TMOD
      00000088H   SFRSYM    DATA     BYTE      TCON
      000000CFH   SFRSYM    DATA     BYTE      CRC0FLIP
      000000D0H   SFRSYM    DATA     BIT       PSW_PARITY
      000000A8H.4 SFRSYM    DATA     BIT       IE_ES0
      0000009FH   SFRSYM    DATA     BYTE      CMP0MX
      00000098H   SFRSYM    DATA     BIT       TMR4CN0_T4XCLK0
      000000A8H.1 SFRSYM    DATA     BIT       IE_ET0
      000000AAH   SFRSYM    DATA     BYTE      CMP1MX
      00000098H.1 SFRSYM    DATA     BIT       TMR4CN0_T4XCLK1
      000000A8H.3 SFRSYM    DATA     BIT       IE_ET1
      000000D4H   SFRSYM    DATA     BYTE      P0SKIP
      000000D8H   SFRSYM    DATA     BIT       UART1FCN1_RIE
      000000A8H.5 SFRSYM    DATA     BIT       IE_ET2
      000000D5H   SFRSYM    DATA     BYTE      P1SKIP
      000000CCH   SFRSYM    DATA     BYTE      P2SKIP
      000000E8H   SFRSYM    DATA     BYTE      ADC0CN0
      000000D8H.4 SFRSYM    DATA     BIT       UART1FCN1_TIE
      000000A8H   SFRSYM    DATA     BIT       IE_EX0
      000000B2H   SFRSYM    DATA     BYTE      ADC0CN1
      000000D8H.6 SFRSYM    DATA     BIT       PCA0CN0_CR
      000000A8H.2 SFRSYM    DATA     BIT       IE_EX1
      000000C8H.7 SFRSYM    DATA     BIT       SCON1_OVR
      00000098H.7 SFRSYM    DATA     BIT       SCON0_SMODE
      000000B5H   SFRSYM    DATA     BYTE      DEVICEID
      000000A9H   SFRSYM    DATA     BYTE      CLKSEL
      000000F8H   SFRSYM    DATA     BIT       SPI0CN0_SPIEN
      000000F0H   SFRSYM    DATA     BYTE      B
      000000BEH   SFRSYM    DATA     BYTE      ADC0H
      000000E8H.6 SFRSYM    DATA     BIT       ADC0CN0_ADBMEN
      000000CAH   SFRSYM    DATA     WORD      TMR2RL
      000000BDH   SFRSYM    DATA     BYTE      ADC0L
      00000092H   SFRSYM    DATA     WORD      TMR3RL
LX51 LINKER/LOCATER V4.66.30.0                                                        08/12/2020  16:38:44  PAGE 117


      000000A2H   SFRSYM    DATA     WORD      TMR4RL
      000000D8H   SFRSYM    DATA     BYTE      PCA0CN0
      000000E0H   SFRSYM    DATA     BYTE      ACC
      000000FBH   SFRSYM    DATA     WORD      PCA0CP0
      000000E9H   SFRSYM    DATA     WORD      PCA0CP1
      000000EBH   SFRSYM    DATA     WORD      PCA0CP2
      000000BCH   SFRSYM    DATA     BYTE      I2C0DIN
      000000CEH   SFRSYM    DATA     BYTE      CRC0CN0
      0000008CH   SFRSYM    DATA     BYTE      TH0
      00000086H   SFRSYM    DATA     BYTE      CRC0CN1
      000000B8H.4 SFRSYM    DATA     BIT       IP_PS0
      000000FAH   SFRSYM    DATA     BYTE      UART1FCT
      0000008DH   SFRSYM    DATA     BYTE      TH1
      000000FAH   SFRSYM    DATA     BYTE      PCA0H
      000000F5H   SFRSYM    DATA     BYTE      I2C0FCT
      000000B8H.1 SFRSYM    DATA     BIT       IP_PT0
      000000B8H.3 SFRSYM    DATA     BIT       IP_PT1
      000000C0H.2 SFRSYM    DATA     BIT       SMB0CN0_ARBLOST
      000000B8H.5 SFRSYM    DATA     BIT       IP_PT2
      0000008AH   SFRSYM    DATA     BYTE      TL0
      000000D0H.5 SFRSYM    DATA     BIT       PSW_F0
      000000A8H.6 SFRSYM    DATA     BIT       IE_ESPI0
      0000008BH   SFRSYM    DATA     BYTE      TL1
      000000F9H   SFRSYM    DATA     BYTE      PCA0L
      000000C0H   SFRSYM    DATA     BIT       SMB0CN0_SI
      000000D0H.1 SFRSYM    DATA     BIT       PSW_F1
      00000080H   SFRSYM    DATA     BIT       P0_B0
      000000B8H   SFRSYM    DATA     BIT       IP_PX0
      00000090H   SFRSYM    DATA     BIT       P1_B0
      00000080H.1 SFRSYM    DATA     BIT       P0_B1
      000000B8H.2 SFRSYM    DATA     BIT       IP_PX1
      0000009EH   SFRSYM    DATA     BYTE      UART1LIN
      0000009BH   SFRSYM    DATA     BYTE      CMP0CN0
      00000088H.1 SFRSYM    DATA     BIT       TCON_IE0
      000000A0H   SFRSYM    DATA     BIT       P2_B0
      00000090H.1 SFRSYM    DATA     BIT       P1_B1
      00000080H.2 SFRSYM    DATA     BIT       P0_B2
      000000BFH   SFRSYM    DATA     BYTE      CMP1CN0
      00000099H   SFRSYM    DATA     BYTE      CMP0CN1
      00000088H.3 SFRSYM    DATA     BIT       TCON_IE1
      000000B0H   SFRSYM    DATA     BIT       P3_B0
      000000A0H.1 SFRSYM    DATA     BIT       P2_B1
      00000090H.2 SFRSYM    DATA     BIT       P1_B2
      00000080H.3 SFRSYM    DATA     BIT       P0_B3
      000000C0H   SFRSYM    DATA     BYTE      SMB0CN0
      000000ACH   SFRSYM    DATA     BYTE      CMP1CN1
      000000B0H.1 SFRSYM    DATA     BIT       P3_B1
      000000A0H.2 SFRSYM    DATA     BIT       P2_B2
      00000090H.3 SFRSYM    DATA     BIT       P1_B3
      00000080H.4 SFRSYM    DATA     BIT       P0_B4
      000000A0H.3 SFRSYM    DATA     BIT       P2_B3
      00000090H.4 SFRSYM    DATA     BIT       P1_B4
      00000080H.5 SFRSYM    DATA     BIT       P0_B5
      000000D8H.1 SFRSYM    DATA     BIT       UART1FCN1_RXTO0
      00000090H.5 SFRSYM    DATA     BIT       P1_B5
      00000080H.6 SFRSYM    DATA     BIT       P0_B6
      000000F5H   SFRSYM    DATA     BYTE      EIP1H
      000000D8H.2 SFRSYM    DATA     BIT       UART1FCN1_RXTO1
      00000090H.6 SFRSYM    DATA     BIT       P1_B6
      00000080H.7 SFRSYM    DATA     BIT       P0_B7
      000000C5H   SFRSYM    DATA     BYTE      SMB0RXLN
      000000F6H   SFRSYM    DATA     BYTE      EIP2H
LX51 LINKER/LOCATER V4.66.30.0                                                        08/12/2020  16:38:44  PAGE 118


      00000090H.7 SFRSYM    DATA     BIT       P1_B7
      00000083H   SFRSYM    DATA     BYTE      DPH
      000000C4H   SFRSYM    DATA     BYTE      ADC0GTH
      000000C8H.7 SFRSYM    DATA     BIT       TMR2CN0_TF2H
      000000C8H.3 SFRSYM    DATA     BIT       TMR2CN0_T2SPLIT
      000000D0H.6 SFRSYM    DATA     BIT       PSW_AC
      000000F8H   SFRSYM    DATA     BYTE      SPI0CN0
      000000C7H   SFRSYM    DATA     BYTE      HFO0CAL
      00000088H.5 SFRSYM    DATA     BIT       TCON_TF0
      00000098H   SFRSYM    DATA     BIT       SCON0_RI
      000000D6H   SFRSYM    DATA     BYTE      HFO1CAL
      00000082H   SFRSYM    DATA     BYTE      DPL
      00000088H.7 SFRSYM    DATA     BIT       TCON_TF1
      000000C8H   SFRSYM    DATA     BIT       SCON1_RI
      00000099H   SFRSYM    DATA     BYTE      SBUF0
      00000087H   SFRSYM    DATA     BYTE      PCON0
      000000F2H   SFRSYM    DATA     BYTE      IPH
      000000C3H   SFRSYM    DATA     BYTE      ADC0GTL
      00000098H.7 SFRSYM    DATA     BIT       TMR4CN0_TF4H
      00000098H.3 SFRSYM    DATA     BIT       TMR4CN0_T4SPLIT
      000000C8H.6 SFRSYM    DATA     BIT       TMR2CN0_TF2L
      00000098H.1 SFRSYM    DATA     BIT       SCON0_TI
      000000E8H   SFRSYM    DATA     BIT       ADC0CN0_ADCM0
      00000092H   SFRSYM    DATA     BYTE      SBUF1
      0000009AH   SFRSYM    DATA     BYTE      PCON1
      000000C6H   SFRSYM    DATA     BYTE      ADC0LTH
      00000088H   SFRSYM    DATA     BIT       TCON_IT0
      000000C8H.1 SFRSYM    DATA     BIT       SCON1_TI
      000000E8H.1 SFRSYM    DATA     BIT       ADC0CN0_ADCM1
      000000EFH   SFRSYM    DATA     BYTE      RSTSRC
      000000FDH   SFRSYM    DATA     BYTE      P0MAT
      000000DEH   SFRSYM    DATA     BYTE      CRC0DAT
      00000088H.2 SFRSYM    DATA     BIT       TCON_IT1
      000000E8H.2 SFRSYM    DATA     BIT       ADC0CN0_ADCM2
      000000D7H   SFRSYM    DATA     BYTE      SFRSTACK
      00000098H   SFRSYM    DATA     BYTE      SCON0
      000000F6H   SFRSYM    DATA     BYTE      PRTDRV
      000000EDH   SFRSYM    DATA     BYTE      P1MAT
      000000E8H.3 SFRSYM    DATA     BIT       ADC0CN0_ADWINT
      00000095H   SFRSYM    DATA     WORD      SBRL1
      00000093H   SFRSYM    DATA     BYTE      SMOD1
      000000C8H   SFRSYM    DATA     BYTE      SCON1
      000000FBH   SFRSYM    DATA     BYTE      P2MAT
      00000098H.6 SFRSYM    DATA     BIT       TMR4CN0_TF4L
      000000E8H.4 SFRSYM    DATA     BIT       ADC0CN0_ADBUSY
      000000D6H   SFRSYM    DATA     BYTE      SMB0ADM
      000000C5H   SFRSYM    DATA     BYTE      ADC0LTL
      000000F8H.5 SFRSYM    DATA     BIT       SPI0CN0_MODF
      000000B8H.6 SFRSYM    DATA     BIT       IP_PSPI0
      0000009CH   SFRSYM    DATA     BYTE      PCA0CLR
      000000C8H   SFRSYM    DATA     BYTE      TMR2CN0
      00000091H   SFRSYM    DATA     BYTE      TMR3CN0
      000000FDH   SFRSYM    DATA     BYTE      TMR2CN1
      00000098H   SFRSYM    DATA     BYTE      TMR4CN0
      000000FEH   SFRSYM    DATA     BYTE      TMR3CN1
      000000FFH   SFRSYM    DATA     BYTE      TMR4CN1
      000000D7H   SFRSYM    DATA     BYTE      SMB0ADR
      00000088H.4 SFRSYM    DATA     BIT       TCON_TR0
      000000C8H.4 SFRSYM    DATA     BIT       TMR2CN0_TF2CEN
      00000088H.6 SFRSYM    DATA     BIT       TCON_TR1
      000000C2H   SFRSYM    DATA     BYTE      SMB0DAT
      000000CDH   SFRSYM    DATA     BYTE      TMR2H
LX51 LINKER/LOCATER V4.66.30.0                                                        08/12/2020  16:38:44  PAGE 119


      000000A1H   SFRSYM    DATA     BYTE      SPI0CFG
      00000095H   SFRSYM    DATA     BYTE      TMR3H
      000000EFH   SFRSYM    DATA     BYTE      HFOCN
      000000D3H   SFRSYM    DATA     BYTE      CRC0CNT
      000000A5H   SFRSYM    DATA     BYTE      TMR4H
      00000098H.4 SFRSYM    DATA     BIT       TMR4CN0_TF4CEN
      000000EFH   SFRSYM    DATA     BYTE      SMB0FCT
      00000096H   SFRSYM    DATA     BYTE      PCA0POL
      000000CCH   SFRSYM    DATA     BYTE      TMR2L
      000000F8H.7 SFRSYM    DATA     BIT       SPI0CN0_SPIF
      00000094H   SFRSYM    DATA     BYTE      TMR3L
      000000DFH   SFRSYM    DATA     BYTE      ADC0PWR
      000000A8H.7 SFRSYM    DATA     BIT       IE_EA
      000000A4H   SFRSYM    DATA     BYTE      TMR4L
      000000C8H.5 SFRSYM    DATA     BIT       TMR2CN0_TF2LEN
      000000F8H.6 SFRSYM    DATA     BIT       SPI0CN0_WCOL
      000000F8H.2 SFRSYM    DATA     BIT       SPI0CN0_NSSMD0
      000000D0H.7 SFRSYM    DATA     BIT       PSW_CY
      0000009DH   SFRSYM    DATA     BYTE      UART1FCN0
      000000A3H   SFRSYM    DATA     BYTE      SPI0DAT
      000000ADH   SFRSYM    DATA     BYTE      I2C0FCN0
      000000F8H.3 SFRSYM    DATA     BIT       SPI0CN0_NSSMD1
      000000BDH   SFRSYM    DATA     WORD      ADC0
      000000D8H   SFRSYM    DATA     BYTE      UART1FCN1
      000000ABH   SFRSYM    DATA     BYTE      I2C0FCN1
      00000098H.5 SFRSYM    DATA     BIT       TMR4CN0_TF4LEN
      000000D0H   SFRSYM    DATA     BYTE      PSW
      000000F7H   SFRSYM    DATA     BYTE      PCA0PWM
      000000F7H   SFRSYM    DATA     BYTE      SPI0FCT
      000000B6H   SFRSYM    DATA     BYTE      REVID
      000000B7H   SFRSYM    DATA     BYTE      FLKEY
      000000B3H   SFRSYM    DATA     BYTE      ADC0AC

      01003686H   BLOCK     CODE     ---       LVL=0
      01003686H   LINE      CODE     ---       #14
      01003686H   LINE      CODE     ---       #15
      01003686H   LINE      CODE     ---       #16
      0100368CH   LINE      CODE     ---       #17
      0100368FH   LINE      CODE     ---       #18
      01003692H   LINE      CODE     ---       #19
      01003695H   LINE      CODE     ---       #20
      01003698H   LINE      CODE     ---       #22
      0100369BH   LINE      CODE     ---       #24
      0100369EH   LINE      CODE     ---       #25
      010036A1H   LINE      CODE     ---       #26
      010036A4H   LINE      CODE     ---       #27
      010036A7H   LINE      CODE     ---       #28
      010036AAH   LINE      CODE     ---       #30
      ---         BLOCKEND  ---      ---       LVL=0
      00000007H   SYMBOL    DATA     BYTE      savedPage
      00000007H   SYMBOL    DATA     BYTE      savedPage

      01000076H   BLOCK     CODE     ---       LVL=0
      01000076H   LINE      CODE     ---       #57
      01000076H   LINE      CODE     ---       #58
      01000076H   LINE      CODE     ---       #59
      0100007CH   LINE      CODE     ---       #60
      0100007FH   LINE      CODE     ---       #61
      01000082H   LINE      CODE     ---       #62
      01000085H   LINE      CODE     ---       #63
      01000088H   LINE      CODE     ---       #65
      0100008BH   LINE      CODE     ---       #67
LX51 LINKER/LOCATER V4.66.30.0                                                        08/12/2020  16:38:44  PAGE 120


      0100008EH   LINE      CODE     ---       #68
      01000091H   LINE      CODE     ---       #69
      01000094H   LINE      CODE     ---       #70
      01000097H   LINE      CODE     ---       #71
      0100009AH   LINE      CODE     ---       #72
      ---         BLOCKEND  ---      ---       LVL=0
      00000002H   SYMBOL    DATA     WORD      dataTx
      00000005H   SYMBOL    DATA     BYTE      savedPage

      01001235H   BLOCK     CODE     ---       LVL=0
      00000006H   SYMBOL    DATA     WORD      rxdata
      01001235H   BLOCK     CODE     NEAR LAB  LVL=1
      020003CEH   SYMBOL    XDATA    BYTE      i
      020003CFH   SYMBOL    XDATA    ---       pCtt
      ---         BLOCKEND  ---      ---       LVL=1
      01001235H   LINE      CODE     ---       #113
      01001235H   LINE      CODE     ---       #114
      01001235H   LINE      CODE     ---       #117
      01001243H   LINE      CODE     ---       #188
      0100124FH   LINE      CODE     ---       #190
      0100124FH   LINE      CODE     ---       #191
      0100126CH   LINE      CODE     ---       #192
      01001280H   LINE      CODE     ---       #193
      01001288H   LINE      CODE     ---       #194
      0100128FH   LINE      CODE     ---       #195
      0100129BH   LINE      CODE     ---       #196
      0100129BH   LINE      CODE     ---       #197
      010012BAH   LINE      CODE     ---       #199
      010012BAH   LINE      CODE     ---       #200
      010012DFH   LINE      CODE     ---       #201
      010012F2H   LINE      CODE     ---       #203
      01001305H   LINE      CODE     ---       #204
      01001305H   LINE      CODE     ---       #205
      01001322H   LINE      CODE     ---       #206
      01001343H   LINE      CODE     ---       #207
      01001343H   LINE      CODE     ---       #208
      01001362H   LINE      CODE     ---       #209
      01001362H   LINE      CODE     ---       #210
      01001397H   LINE      CODE     ---       #211
      01001397H   LINE      CODE     ---       #212
      0100139FH   LINE      CODE     ---       #213
      010013A1H   LINE      CODE     ---       #215
      010013A1H   LINE      CODE     ---       #216
      010013B1H   LINE      CODE     ---       #217
      010013B3H   LINE      CODE     ---       #218
      010013B3H   LINE      CODE     ---       #219
      010013BBH   LINE      CODE     ---       #220
      010013BBH   LINE      CODE     ---       #222
      010013BBH   LINE      CODE     ---       #223
      010013CEH   LINE      CODE     ---       #224
      010013CEH   LINE      CODE     ---       #226
      010013E3H   LINE      CODE     ---       #227
      010013E3H   LINE      CODE     ---       #228
      010013EAH   LINE      CODE     ---       #229
      010013F3H   LINE      CODE     ---       #230
      01001409H   LINE      CODE     ---       #231
      01001409H   LINE      CODE     ---       #232
      0100140FH   LINE      CODE     ---       #233
      0100140FH   LINE      CODE     ---       #234
      01001415H   LINE      CODE     ---       #235
      01001415H   LINE      CODE     ---       #236
      0100141BH   LINE      CODE     ---       #237
LX51 LINKER/LOCATER V4.66.30.0                                                        08/12/2020  16:38:44  PAGE 121


      0100141DH   LINE      CODE     ---       #244
      0100141DH   LINE      CODE     ---       #245
      01001422H   LINE      CODE     ---       #246
      01001425H   LINE      CODE     ---       #247
      01001425H   LINE      CODE     ---       #248
      01001425H   LINE      CODE     ---       #250
      0100143BH   LINE      CODE     ---       #251
      0100143BH   LINE      CODE     ---       #252
      0100143EH   LINE      CODE     ---       #253
      0100143EH   LINE      CODE     ---       #254
      0100143EH   LINE      CODE     ---       #256
      0100145FH   LINE      CODE     ---       #258
      0100145FH   LINE      CODE     ---       #259
      01001462H   LINE      CODE     ---       #260
      01001462H   LINE      CODE     ---       #263
      ---         BLOCKEND  ---      ---       LVL=0

      010030C4H   BLOCK     CODE     ---       LVL=0
      010030E1H   BLOCK     CODE     NEAR LAB  LVL=1
      020003CDH   SYMBOL    XDATA    BYTE      scon0_buff
      00000004H   SYMBOL    DATA     BYTE      sbuf0_buff
      00000006H   SYMBOL    DATA     WORD      data_9bit
      ---         BLOCKEND  ---      ---       LVL=1
      010030C4H   LINE      CODE     ---       #266
      010030E1H   LINE      CODE     ---       #270
      010030E1H   LINE      CODE     ---       #271
      010030E7H   LINE      CODE     ---       #273
      010030EBH   LINE      CODE     ---       #274
      010030EBH   LINE      CODE     ---       #275
      010030EDH   LINE      CODE     ---       #276
      010030EFH   LINE      CODE     ---       #277
      010030FDH   LINE      CODE     ---       #278
      01003100H   LINE      CODE     ---       #279
      01003100H   LINE      CODE     ---       #281
      01003107H   LINE      CODE     ---       #282
      01003107H   LINE      CODE     ---       #283
      01003109H   LINE      CODE     ---       #284
      0100310EH   LINE      CODE     ---       #285
      0100310EH   LINE      CODE     ---       #286
      ---         BLOCKEND  ---      ---       LVL=0

      ---         MODULE    ---      ---       UARTCFG
      02000325H   PUBLIC    XDATA    ---       MsgRadar_Self_Init
      0200031DH   PUBLIC    XDATA    ---       MsgBCM_Info
      02000315H   PUBLIC    XDATA    ---       MsgBCM_Mode
      0200030DH   PUBLIC    XDATA    ---       MsgBCM_Info_Init
      02000305H   PUBLIC    XDATA    ---       MsgBCM_Mode_Init
      020002FDH   PUBLIC    XDATA    ---       MsgRadar_ReqMode
      020002EDH   PUBLIC    XDATA    ---       MsgRadar_Distance
      020002E5H   PUBLIC    XDATA    ---       MsgRadar_ReqMode_Init
      020002D5H   PUBLIC    XDATA    ---       MsgRadar_Distance_Init
      020002CDH   PUBLIC    XDATA    ---       MsgRadar_Self
      010032DAH   PUBLIC    CODE     ---       InitUart0ReceiveVar
      01000FCAH   PUBLIC    CODE     ---       _ReceiveFramereCorresponding
      01002A83H   PUBLIC    CODE     ---       _CalcFrameChecksum
      01003367H   PUBLIC    CODE     ---       _CalcByteEVEN
      000000A2H   SFRSYM    DATA     BYTE      SPI0CKR
      00000080H   SFRSYM    DATA     BYTE      P0
      000000C8H.6 SFRSYM    DATA     BIT       SCON1_PERR
      000000D0H.2 SFRSYM    DATA     BIT       PSW_OV
      00000090H   SFRSYM    DATA     BYTE      P1
      000000F8H.1 SFRSYM    DATA     BIT       SPI0CN0_TXNF
LX51 LINKER/LOCATER V4.66.30.0                                                        08/12/2020  16:38:44  PAGE 122


      00000097H   SFRSYM    DATA     BYTE      WDTCN
      000000A0H   SFRSYM    DATA     BYTE      P2
      000000B0H   SFRSYM    DATA     BYTE      P3
      000000BCH   SFRSYM    DATA     BYTE      ADC0CF
      000000C0H.7 SFRSYM    DATA     BIT       SMB0CN0_MASTER
      000000F9H   SFRSYM    DATA     WORD      PCA0
      000000E6H   SFRSYM    DATA     BYTE      EIE1
      000000C0H.1 SFRSYM    DATA     BIT       SMB0CN0_ACK
      000000CEH   SFRSYM    DATA     BYTE      EIE2
      0000008FH   SFRSYM    DATA     BYTE      PSCTL
      000000E4H   SFRSYM    DATA     BYTE      IT01CF
      000000C0H.6 SFRSYM    DATA     BIT       SMB0CN0_TXMODE
      000000ADH   SFRSYM    DATA     BYTE      DERIVID
      000000A7H   SFRSYM    DATA     BYTE      SFRPAGE
      000000A4H   SFRSYM    DATA     BYTE      P0MDOUT
      000000A5H   SFRSYM    DATA     BYTE      P1MDOUT
      000000E8H.5 SFRSYM    DATA     BIT       ADC0CN0_ADINT
      000000CBH   SFRSYM    DATA     BYTE      TMR2RLH
      000000A6H   SFRSYM    DATA     BYTE      P2MDOUT
      000000A8H   SFRSYM    DATA     BYTE      IE
      00000093H   SFRSYM    DATA     BYTE      TMR3RLH
      0000009CH   SFRSYM    DATA     BYTE      P3MDOUT
      000000A3H   SFRSYM    DATA     BYTE      TMR4RLH
      000000F3H   SFRSYM    DATA     BYTE      EIP1
      000000F4H   SFRSYM    DATA     BYTE      EIP2
      00000098H.2 SFRSYM    DATA     BIT       SCON0_RB8
      000000CAH   SFRSYM    DATA     BYTE      TMR2RLL
      000000FCH   SFRSYM    DATA     BYTE      PCA0CPH0
      00000092H   SFRSYM    DATA     BYTE      TMR3RLL
      000000EAH   SFRSYM    DATA     BYTE      PCA0CPH1
      00000098H.3 SFRSYM    DATA     BIT       SCON0_TB8
      000000F0H   SFRSYM    DATA     BIT       B_B0
      00000082H   SFRSYM    DATA     WORD      DP
      000000A2H   SFRSYM    DATA     BYTE      TMR4RLL
      000000ECH   SFRSYM    DATA     BYTE      PCA0CPH2
      000000F0H.1 SFRSYM    DATA     BIT       B_B1
      000000C3H   SFRSYM    DATA     WORD      ADC0GT
      000000BDH   SFRSYM    DATA     BYTE      I2C0SLAD
      000000D8H.3 SFRSYM    DATA     BIT       UART1FCN1_RFRQ
      000000F0H.2 SFRSYM    DATA     BIT       B_B2
      000000CFH   SFRSYM    DATA     BYTE      SFRPGCN
      000000FBH   SFRSYM    DATA     BYTE      PCA0CPL0
      000000F0H.3 SFRSYM    DATA     BIT       B_B3
      000000D9H   SFRSYM    DATA     BYTE      PCA0MD
      000000DAH   SFRSYM    DATA     BYTE      PCA0CPM0
      000000E9H   SFRSYM    DATA     BYTE      PCA0CPL1
      000000D8H.7 SFRSYM    DATA     BIT       UART1FCN1_TFRQ
      000000F0H.4 SFRSYM    DATA     BIT       B_B4
      000000DBH   SFRSYM    DATA     BYTE      PCA0CPM1
      000000EBH   SFRSYM    DATA     BYTE      PCA0CPL2
      000000F0H.5 SFRSYM    DATA     BIT       B_B5
      000000DCH   SFRSYM    DATA     BYTE      PCA0CPM2
      000000B8H   SFRSYM    DATA     BYTE      IP
      000000B9H   SFRSYM    DATA     BYTE      ADC0TK
      000000F0H.6 SFRSYM    DATA     BIT       B_B6
      000000C5H   SFRSYM    DATA     WORD      ADC0LT
      000000D8H.6 SFRSYM    DATA     BIT       UART1FCN1_TXNF
      00000098H.5 SFRSYM    DATA     BIT       SCON0_MCE
      000000F0H.7 SFRSYM    DATA     BIT       B_B7
      000000C3H   SFRSYM    DATA     BYTE      SMB0FCN0
      000000E1H   SFRSYM    DATA     BYTE      XBR0
      000000C4H   SFRSYM    DATA     BYTE      SMB0FCN1
LX51 LINKER/LOCATER V4.66.30.0                                                        08/12/2020  16:38:44  PAGE 123


      000000C1H   SFRSYM    DATA     BYTE      SMB0CF
      000000E2H   SFRSYM    DATA     BYTE      XBR1
      000000C1H   SFRSYM    DATA     BYTE      PFE0CN
      000000E7H   SFRSYM    DATA     BYTE      EMI0CN
      000000C0H.5 SFRSYM    DATA     BIT       SMB0CN0_STA
      000000E3H   SFRSYM    DATA     BYTE      XBR2
      000000BBH   SFRSYM    DATA     BYTE      ADC0MX
      000000E0H   SFRSYM    DATA     BIT       ACC_ACC0
      000000D1H   SFRSYM    DATA     BYTE      REF0CN
      0000008EH   SFRSYM    DATA     BYTE      CKCON0
      000000E0H.1 SFRSYM    DATA     BIT       ACC_ACC1
      000000C9H   SFRSYM    DATA     BYTE      REG0CN
      000000DDH   SFRSYM    DATA     BYTE      CRC0IN
      000000A6H   SFRSYM    DATA     BYTE      CKCON1
      000000C8H.2 SFRSYM    DATA     BIT       TMR2CN0_TR2
      000000E0H.2 SFRSYM    DATA     BIT       ACC_ACC2
      000000C6H   SFRSYM    DATA     BYTE      REG1CN
      000000E0H.3 SFRSYM    DATA     BIT       ACC_ACC3
      00000081H   SFRSYM    DATA     BYTE      SP
      0000009DH   SFRSYM    DATA     BYTE      CMP0MD
      000000E0H.4 SFRSYM    DATA     BIT       ACC_ACC4
      000000B1H   SFRSYM    DATA     BYTE      LFO0CN
      000000ABH   SFRSYM    DATA     BYTE      CMP1MD
      000000D8H   SFRSYM    DATA     BIT       PCA0CN0_CCF0
      000000E0H.5 SFRSYM    DATA     BIT       ACC_ACC5
      00000098H.2 SFRSYM    DATA     BIT       TMR4CN0_TR4
      000000D8H.1 SFRSYM    DATA     BIT       PCA0CN0_CCF1
      000000E0H.6 SFRSYM    DATA     BIT       ACC_ACC6
      000000CCH   SFRSYM    DATA     WORD      TMR2
      0000009AH   SFRSYM    DATA     BYTE      SPI0FCN0
      000000D8H.2 SFRSYM    DATA     BIT       PCA0CN0_CCF2
      000000E0H.7 SFRSYM    DATA     BIT       ACC_ACC7
      00000094H   SFRSYM    DATA     WORD      TMR3
      0000009BH   SFRSYM    DATA     BYTE      SPI0FCN1
      000000A4H   SFRSYM    DATA     WORD      TMR4
      00000094H   SFRSYM    DATA     BYTE      SBCON1
      000000C0H.3 SFRSYM    DATA     BIT       SMB0CN0_ACKRQ
      000000FFH   SFRSYM    DATA     BYTE      VDM0CN
      000000F1H   SFRSYM    DATA     BYTE      P0MDIN
      00000098H.4 SFRSYM    DATA     BIT       SCON0_REN
      000000ACH   SFRSYM    DATA     BYTE      SMB0TC
      000000F2H   SFRSYM    DATA     BYTE      P1MDIN
      000000C8H.4 SFRSYM    DATA     BIT       SCON1_REN
      000000F3H   SFRSYM    DATA     BYTE      P2MDIN
      000000C0H.4 SFRSYM    DATA     BIT       SMB0CN0_STO
      000000F4H   SFRSYM    DATA     BYTE      P3MDIN
      000000B9H   SFRSYM    DATA     BYTE      I2C0STAT
      000000BBH   SFRSYM    DATA     BYTE      I2C0DOUT
      00000096H   SFRSYM    DATA     BYTE      SBRLH1
      000000FEH   SFRSYM    DATA     BYTE      P0MASK
      000000D8H.5 SFRSYM    DATA     BIT       UART1FCN1_TXHOLD
      000000EEH   SFRSYM    DATA     BYTE      P1MASK
      000000FCH   SFRSYM    DATA     BYTE      P2MASK
      000000D0H.3 SFRSYM    DATA     BIT       PSW_RS0
      000000D8H.7 SFRSYM    DATA     BIT       PCA0CN0_CF
      0000009EH   SFRSYM    DATA     BYTE      PCA0CENT
      000000BAH   SFRSYM    DATA     BYTE      I2C0CN0
      000000D2H   SFRSYM    DATA     BYTE      CRC0ST
      000000F8H.4 SFRSYM    DATA     BIT       SPI0CN0_RXOVRN
      000000D0H.4 SFRSYM    DATA     BIT       PSW_RS1
      00000095H   SFRSYM    DATA     BYTE      SBRLL1
      000000C8H.2 SFRSYM    DATA     BIT       SCON1_RBX
LX51 LINKER/LOCATER V4.66.30.0                                                        08/12/2020  16:38:44  PAGE 124


      000000C8H   SFRSYM    DATA     BIT       TMR2CN0_T2XCLK0
      000000C8H.1 SFRSYM    DATA     BIT       TMR2CN0_T2XCLK1
      000000C8H.3 SFRSYM    DATA     BIT       SCON1_TBX
      000000E8H.7 SFRSYM    DATA     BIT       ADC0CN0_ADEN
      00000089H   SFRSYM    DATA     BYTE      TMOD
      00000088H   SFRSYM    DATA     BYTE      TCON
      000000CFH   SFRSYM    DATA     BYTE      CRC0FLIP
      000000D0H   SFRSYM    DATA     BIT       PSW_PARITY
      000000A8H.4 SFRSYM    DATA     BIT       IE_ES0
      0000009FH   SFRSYM    DATA     BYTE      CMP0MX
      00000098H   SFRSYM    DATA     BIT       TMR4CN0_T4XCLK0
      000000A8H.1 SFRSYM    DATA     BIT       IE_ET0
      000000AAH   SFRSYM    DATA     BYTE      CMP1MX
      00000098H.1 SFRSYM    DATA     BIT       TMR4CN0_T4XCLK1
      000000A8H.3 SFRSYM    DATA     BIT       IE_ET1
      000000D4H   SFRSYM    DATA     BYTE      P0SKIP
      000000D8H   SFRSYM    DATA     BIT       UART1FCN1_RIE
      000000A8H.5 SFRSYM    DATA     BIT       IE_ET2
      000000D5H   SFRSYM    DATA     BYTE      P1SKIP
      000000CCH   SFRSYM    DATA     BYTE      P2SKIP
      000000E8H   SFRSYM    DATA     BYTE      ADC0CN0
      000000D8H.4 SFRSYM    DATA     BIT       UART1FCN1_TIE
      000000A8H   SFRSYM    DATA     BIT       IE_EX0
      000000B2H   SFRSYM    DATA     BYTE      ADC0CN1
      000000D8H.6 SFRSYM    DATA     BIT       PCA0CN0_CR
      000000A8H.2 SFRSYM    DATA     BIT       IE_EX1
      000000C8H.7 SFRSYM    DATA     BIT       SCON1_OVR
      00000098H.7 SFRSYM    DATA     BIT       SCON0_SMODE
      000000B5H   SFRSYM    DATA     BYTE      DEVICEID
      000000A9H   SFRSYM    DATA     BYTE      CLKSEL
      000000F8H   SFRSYM    DATA     BIT       SPI0CN0_SPIEN
      000000F0H   SFRSYM    DATA     BYTE      B
      000000BEH   SFRSYM    DATA     BYTE      ADC0H
      000000E8H.6 SFRSYM    DATA     BIT       ADC0CN0_ADBMEN
      000000CAH   SFRSYM    DATA     WORD      TMR2RL
      000000BDH   SFRSYM    DATA     BYTE      ADC0L
      00000092H   SFRSYM    DATA     WORD      TMR3RL
      000000A2H   SFRSYM    DATA     WORD      TMR4RL
      000000D8H   SFRSYM    DATA     BYTE      PCA0CN0
      000000E0H   SFRSYM    DATA     BYTE      ACC
      000000FBH   SFRSYM    DATA     WORD      PCA0CP0
      000000E9H   SFRSYM    DATA     WORD      PCA0CP1
      000000EBH   SFRSYM    DATA     WORD      PCA0CP2
      000000BCH   SFRSYM    DATA     BYTE      I2C0DIN
      000000CEH   SFRSYM    DATA     BYTE      CRC0CN0
      0000008CH   SFRSYM    DATA     BYTE      TH0
      00000086H   SFRSYM    DATA     BYTE      CRC0CN1
      000000B8H.4 SFRSYM    DATA     BIT       IP_PS0
      000000FAH   SFRSYM    DATA     BYTE      UART1FCT
      0000008DH   SFRSYM    DATA     BYTE      TH1
      000000FAH   SFRSYM    DATA     BYTE      PCA0H
      000000F5H   SFRSYM    DATA     BYTE      I2C0FCT
      000000B8H.1 SFRSYM    DATA     BIT       IP_PT0
      000000B8H.3 SFRSYM    DATA     BIT       IP_PT1
      000000C0H.2 SFRSYM    DATA     BIT       SMB0CN0_ARBLOST
      000000B8H.5 SFRSYM    DATA     BIT       IP_PT2
      0000008AH   SFRSYM    DATA     BYTE      TL0
      000000D0H.5 SFRSYM    DATA     BIT       PSW_F0
      000000A8H.6 SFRSYM    DATA     BIT       IE_ESPI0
      0000008BH   SFRSYM    DATA     BYTE      TL1
      000000F9H   SFRSYM    DATA     BYTE      PCA0L
      000000C0H   SFRSYM    DATA     BIT       SMB0CN0_SI
LX51 LINKER/LOCATER V4.66.30.0                                                        08/12/2020  16:38:44  PAGE 125


      000000D0H.1 SFRSYM    DATA     BIT       PSW_F1
      00000080H   SFRSYM    DATA     BIT       P0_B0
      000000B8H   SFRSYM    DATA     BIT       IP_PX0
      00000090H   SFRSYM    DATA     BIT       P1_B0
      00000080H.1 SFRSYM    DATA     BIT       P0_B1
      000000B8H.2 SFRSYM    DATA     BIT       IP_PX1
      0000009EH   SFRSYM    DATA     BYTE      UART1LIN
      0000009BH   SFRSYM    DATA     BYTE      CMP0CN0
      00000088H.1 SFRSYM    DATA     BIT       TCON_IE0
      000000A0H   SFRSYM    DATA     BIT       P2_B0
      00000090H.1 SFRSYM    DATA     BIT       P1_B1
      00000080H.2 SFRSYM    DATA     BIT       P0_B2
      000000BFH   SFRSYM    DATA     BYTE      CMP1CN0
      00000099H   SFRSYM    DATA     BYTE      CMP0CN1
      00000088H.3 SFRSYM    DATA     BIT       TCON_IE1
      000000B0H   SFRSYM    DATA     BIT       P3_B0
      000000A0H.1 SFRSYM    DATA     BIT       P2_B1
      00000090H.2 SFRSYM    DATA     BIT       P1_B2
      00000080H.3 SFRSYM    DATA     BIT       P0_B3
      000000C0H   SFRSYM    DATA     BYTE      SMB0CN0
      000000ACH   SFRSYM    DATA     BYTE      CMP1CN1
      000000B0H.1 SFRSYM    DATA     BIT       P3_B1
      000000A0H.2 SFRSYM    DATA     BIT       P2_B2
      00000090H.3 SFRSYM    DATA     BIT       P1_B3
      00000080H.4 SFRSYM    DATA     BIT       P0_B4
      000000A0H.3 SFRSYM    DATA     BIT       P2_B3
      00000090H.4 SFRSYM    DATA     BIT       P1_B4
      00000080H.5 SFRSYM    DATA     BIT       P0_B5
      000000D8H.1 SFRSYM    DATA     BIT       UART1FCN1_RXTO0
      00000090H.5 SFRSYM    DATA     BIT       P1_B5
      00000080H.6 SFRSYM    DATA     BIT       P0_B6
      000000F5H   SFRSYM    DATA     BYTE      EIP1H
      000000D8H.2 SFRSYM    DATA     BIT       UART1FCN1_RXTO1
      00000090H.6 SFRSYM    DATA     BIT       P1_B6
      00000080H.7 SFRSYM    DATA     BIT       P0_B7
      000000C5H   SFRSYM    DATA     BYTE      SMB0RXLN
      000000F6H   SFRSYM    DATA     BYTE      EIP2H
      00000090H.7 SFRSYM    DATA     BIT       P1_B7
      00000083H   SFRSYM    DATA     BYTE      DPH
      000000C4H   SFRSYM    DATA     BYTE      ADC0GTH
      000000C8H.7 SFRSYM    DATA     BIT       TMR2CN0_TF2H
      000000C8H.3 SFRSYM    DATA     BIT       TMR2CN0_T2SPLIT
      000000D0H.6 SFRSYM    DATA     BIT       PSW_AC
      000000F8H   SFRSYM    DATA     BYTE      SPI0CN0
      000000C7H   SFRSYM    DATA     BYTE      HFO0CAL
      00000088H.5 SFRSYM    DATA     BIT       TCON_TF0
      00000098H   SFRSYM    DATA     BIT       SCON0_RI
      000000D6H   SFRSYM    DATA     BYTE      HFO1CAL
      00000082H   SFRSYM    DATA     BYTE      DPL
      00000088H.7 SFRSYM    DATA     BIT       TCON_TF1
      000000C8H   SFRSYM    DATA     BIT       SCON1_RI
      00000099H   SFRSYM    DATA     BYTE      SBUF0
      00000087H   SFRSYM    DATA     BYTE      PCON0
      000000F2H   SFRSYM    DATA     BYTE      IPH
      000000C3H   SFRSYM    DATA     BYTE      ADC0GTL
      00000098H.7 SFRSYM    DATA     BIT       TMR4CN0_TF4H
      00000098H.3 SFRSYM    DATA     BIT       TMR4CN0_T4SPLIT
      000000C8H.6 SFRSYM    DATA     BIT       TMR2CN0_TF2L
      00000098H.1 SFRSYM    DATA     BIT       SCON0_TI
      000000E8H   SFRSYM    DATA     BIT       ADC0CN0_ADCM0
      00000092H   SFRSYM    DATA     BYTE      SBUF1
      0000009AH   SFRSYM    DATA     BYTE      PCON1
LX51 LINKER/LOCATER V4.66.30.0                                                        08/12/2020  16:38:44  PAGE 126


      000000C6H   SFRSYM    DATA     BYTE      ADC0LTH
      00000088H   SFRSYM    DATA     BIT       TCON_IT0
      000000C8H.1 SFRSYM    DATA     BIT       SCON1_TI
      000000E8H.1 SFRSYM    DATA     BIT       ADC0CN0_ADCM1
      000000EFH   SFRSYM    DATA     BYTE      RSTSRC
      000000FDH   SFRSYM    DATA     BYTE      P0MAT
      000000DEH   SFRSYM    DATA     BYTE      CRC0DAT
      00000088H.2 SFRSYM    DATA     BIT       TCON_IT1
      000000E8H.2 SFRSYM    DATA     BIT       ADC0CN0_ADCM2
      000000D7H   SFRSYM    DATA     BYTE      SFRSTACK
      00000098H   SFRSYM    DATA     BYTE      SCON0
      000000F6H   SFRSYM    DATA     BYTE      PRTDRV
      000000EDH   SFRSYM    DATA     BYTE      P1MAT
      000000E8H.3 SFRSYM    DATA     BIT       ADC0CN0_ADWINT
      00000095H   SFRSYM    DATA     WORD      SBRL1
      00000093H   SFRSYM    DATA     BYTE      SMOD1
      000000C8H   SFRSYM    DATA     BYTE      SCON1
      000000FBH   SFRSYM    DATA     BYTE      P2MAT
      00000098H.6 SFRSYM    DATA     BIT       TMR4CN0_TF4L
      000000E8H.4 SFRSYM    DATA     BIT       ADC0CN0_ADBUSY
      000000D6H   SFRSYM    DATA     BYTE      SMB0ADM
      000000C5H   SFRSYM    DATA     BYTE      ADC0LTL
      000000F8H.5 SFRSYM    DATA     BIT       SPI0CN0_MODF
      000000B8H.6 SFRSYM    DATA     BIT       IP_PSPI0
      0000009CH   SFRSYM    DATA     BYTE      PCA0CLR
      000000C8H   SFRSYM    DATA     BYTE      TMR2CN0
      00000091H   SFRSYM    DATA     BYTE      TMR3CN0
      000000FDH   SFRSYM    DATA     BYTE      TMR2CN1
      00000098H   SFRSYM    DATA     BYTE      TMR4CN0
      000000FEH   SFRSYM    DATA     BYTE      TMR3CN1
      000000FFH   SFRSYM    DATA     BYTE      TMR4CN1
      000000D7H   SFRSYM    DATA     BYTE      SMB0ADR
      00000088H.4 SFRSYM    DATA     BIT       TCON_TR0
      000000C8H.4 SFRSYM    DATA     BIT       TMR2CN0_TF2CEN
      00000088H.6 SFRSYM    DATA     BIT       TCON_TR1
      000000C2H   SFRSYM    DATA     BYTE      SMB0DAT
      000000CDH   SFRSYM    DATA     BYTE      TMR2H
      000000A1H   SFRSYM    DATA     BYTE      SPI0CFG
      00000095H   SFRSYM    DATA     BYTE      TMR3H
      000000EFH   SFRSYM    DATA     BYTE      HFOCN
      000000D3H   SFRSYM    DATA     BYTE      CRC0CNT
      000000A5H   SFRSYM    DATA     BYTE      TMR4H
      00000098H.4 SFRSYM    DATA     BIT       TMR4CN0_TF4CEN
      000000EFH   SFRSYM    DATA     BYTE      SMB0FCT
      00000096H   SFRSYM    DATA     BYTE      PCA0POL
      000000CCH   SFRSYM    DATA     BYTE      TMR2L
      000000F8H.7 SFRSYM    DATA     BIT       SPI0CN0_SPIF
      00000094H   SFRSYM    DATA     BYTE      TMR3L
      000000DFH   SFRSYM    DATA     BYTE      ADC0PWR
      000000A8H.7 SFRSYM    DATA     BIT       IE_EA
      000000A4H   SFRSYM    DATA     BYTE      TMR4L
      000000C8H.5 SFRSYM    DATA     BIT       TMR2CN0_TF2LEN
      000000F8H.6 SFRSYM    DATA     BIT       SPI0CN0_WCOL
      000000F8H.2 SFRSYM    DATA     BIT       SPI0CN0_NSSMD0
      000000D0H.7 SFRSYM    DATA     BIT       PSW_CY
      0000009DH   SFRSYM    DATA     BYTE      UART1FCN0
      000000A3H   SFRSYM    DATA     BYTE      SPI0DAT
      000000ADH   SFRSYM    DATA     BYTE      I2C0FCN0
      000000F8H.3 SFRSYM    DATA     BIT       SPI0CN0_NSSMD1
      000000BDH   SFRSYM    DATA     WORD      ADC0
      000000D8H   SFRSYM    DATA     BYTE      UART1FCN1
      000000ABH   SFRSYM    DATA     BYTE      I2C0FCN1
LX51 LINKER/LOCATER V4.66.30.0                                                        08/12/2020  16:38:44  PAGE 127


      00000098H.5 SFRSYM    DATA     BIT       TMR4CN0_TF4LEN
      000000D0H   SFRSYM    DATA     BYTE      PSW
      000000F7H   SFRSYM    DATA     BYTE      PCA0PWM
      000000F7H   SFRSYM    DATA     BYTE      SPI0FCT
      000000B6H   SFRSYM    DATA     BYTE      REVID
      000000B7H   SFRSYM    DATA     BYTE      FLKEY
      000000B3H   SFRSYM    DATA     BYTE      ADC0AC
      00000007H   SYMBOL    DATA     BYTE      i

      01003367H   BLOCK     CODE     ---       LVL=0
      020003D2H   SYMBOL    XDATA    BYTE      value
      0100336CH   BLOCK     CODE     NEAR LAB  LVL=1
      00000004H   SYMBOL    DATA     BYTE      i
      00000001H   SYMBOL    DATA     BYTE      evensum
      00000005H   SYMBOL    DATA     BYTE      ret
      ---         BLOCKEND  ---      ---       LVL=1
      01003367H   LINE      CODE     ---       #46
      0100336CH   LINE      CODE     ---       #47
      0100336CH   LINE      CODE     ---       #49
      0100336EH   LINE      CODE     ---       #50
      0100336FH   LINE      CODE     ---       #51
      01003370H   LINE      CODE     ---       #52
      01003370H   LINE      CODE     ---       #53
      0100339CH   LINE      CODE     ---       #54
      0100339CH   LINE      CODE     ---       #55
      0100339DH   LINE      CODE     ---       #56
      0100339DH   LINE      CODE     ---       #57
      010033A2H   LINE      CODE     ---       #58
      010033A5H   LINE      CODE     ---       #59
      010033A6H   LINE      CODE     ---       #60
      ---         BLOCKEND  ---      ---       LVL=0

      01002A83H   BLOCK     CODE     ---       LVL=0
      00000007H   SYMBOL    DATA     BYTE      mode
      01002A83H   BLOCK     CODE     NEAR LAB  LVL=1
      00000006H   SYMBOL    DATA     BYTE      i
      00000001H   SYMBOL    DATA     BYTE      ret
      00000004H   SYMBOL    DATA     WORD      checksum
      ---         BLOCKEND  ---      ---       LVL=1
      01002A83H   LINE      CODE     ---       #62
      01002A83H   LINE      CODE     ---       #63
      01002A83H   LINE      CODE     ---       #66
      01002A86H   LINE      CODE     ---       #67
      01002A87H   LINE      CODE     ---       #68
      01002A9BH   LINE      CODE     ---       #69
      01002A9BH   LINE      CODE     ---       #70
      01002A9BH   LINE      CODE     ---       #71
      01002A9BH   LINE      CODE     ---       #72
      01002A9DH   LINE      CODE     ---       #73
      01002A9DH   LINE      CODE     ---       #74
      01002AB1H   LINE      CODE     ---       #75
      01002AB6H   LINE      CODE     ---       #76
      01002AB6H   LINE      CODE     ---       #77
      01002AB8H   LINE      CODE     ---       #78
      01002AB8H   LINE      CODE     ---       #79
      01002AB8H   LINE      CODE     ---       #80
      01002AB8H   LINE      CODE     ---       #81
      01002ABAH   LINE      CODE     ---       #82
      01002ABAH   LINE      CODE     ---       #83
      01002ACEH   LINE      CODE     ---       #84
      01002AD3H   LINE      CODE     ---       #85
      01002AD3H   LINE      CODE     ---       #86
LX51 LINKER/LOCATER V4.66.30.0                                                        08/12/2020  16:38:44  PAGE 128


      01002AD5H   LINE      CODE     ---       #87
      01002AD5H   LINE      CODE     ---       #88
      01002AD5H   LINE      CODE     ---       #89
      01002AD5H   LINE      CODE     ---       #90
      01002AD7H   LINE      CODE     ---       #91
      01002AD7H   LINE      CODE     ---       #92
      01002AEBH   LINE      CODE     ---       #93
      01002AF0H   LINE      CODE     ---       #94
      01002AF0H   LINE      CODE     ---       #95
      01002AF2H   LINE      CODE     ---       #96
      01002AF2H   LINE      CODE     ---       #98
      01002AF2H   LINE      CODE     ---       #99
      01002AF2H   LINE      CODE     ---       #100
      01002AF4H   LINE      CODE     ---       #101
      01002AF4H   LINE      CODE     ---       #102
      01002B08H   LINE      CODE     ---       #103
      01002B0DH   LINE      CODE     ---       #104
      01002B0DH   LINE      CODE     ---       #105
      01002B0FH   LINE      CODE     ---       #106
      01002B0FH   LINE      CODE     ---       #108
      01002B0FH   LINE      CODE     ---       #109
      01002B0FH   LINE      CODE     ---       #110
      01002B11H   LINE      CODE     ---       #111
      01002B11H   LINE      CODE     ---       #112
      01002B25H   LINE      CODE     ---       #113
      01002B2AH   LINE      CODE     ---       #114
      01002B2AH   LINE      CODE     ---       #115
      01002B2AH   LINE      CODE     ---       #116
      01002B2AH   LINE      CODE     ---       #117
      01002B2AH   LINE      CODE     ---       #118
      01002B2CH   LINE      CODE     ---       #119
      01002B2EH   LINE      CODE     ---       #120
      ---         BLOCKEND  ---      ---       LVL=0

      01000FCAH   BLOCK     CODE     ---       LVL=0
      020003D2H   SYMBOL    XDATA    WORD      start
      01000FD2H   BLOCK     CODE     NEAR LAB  LVL=1
      00000001H   SYMBOL    DATA     ---       pCtt
      ---         BLOCKEND  ---      ---       LVL=1
      01000FCAH   LINE      CODE     ---       #122
      01000FD2H   LINE      CODE     ---       #123
      01000FD2H   LINE      CODE     ---       #125
      01000FD8H   LINE      CODE     ---       #127
      01000FE0H   LINE      CODE     ---       #128
      01000FE0H   LINE      CODE     ---       #129
      01000FF1H   LINE      CODE     ---       #130
      0100100FH   LINE      CODE     ---       #131
      01001023H   LINE      CODE     ---       #132
      01001044H   LINE      CODE     ---       #133
      01001058H   LINE      CODE     ---       #134
      01001079H   LINE      CODE     ---       #135
      0100108DH   LINE      CODE     ---       #136
      010010A9H   LINE      CODE     ---       #137
      010010ACH   LINE      CODE     ---       #138
      010010BBH   LINE      CODE     ---       #139
      010010BBH   LINE      CODE     ---       #140
      010010CCH   LINE      CODE     ---       #141
      010010EAH   LINE      CODE     ---       #142
      0100110AH   LINE      CODE     ---       #143
      01001137H   LINE      CODE     ---       #144
      0100116EH   LINE      CODE     ---       #145
      010011A5H   LINE      CODE     ---       #146
LX51 LINKER/LOCATER V4.66.30.0                                                        08/12/2020  16:38:44  PAGE 129


      010011C6H   LINE      CODE     ---       #147
      010011DAH   LINE      CODE     ---       #148
      010011FBH   LINE      CODE     ---       #149
      0100120FH   LINE      CODE     ---       #150
      01001230H   LINE      CODE     ---       #151
      01001231H   LINE      CODE     ---       #153
      01001231H   LINE      CODE     ---       #154
      01001234H   LINE      CODE     ---       #155
      01001234H   LINE      CODE     ---       #157
      ---         BLOCKEND  ---      ---       LVL=0

      010032DAH   BLOCK     CODE     ---       LVL=0
      010032DAH   BLOCK     CODE     NEAR LAB  LVL=1
      00000007H   SYMBOL    DATA     BYTE      i
      ---         BLOCKEND  ---      ---       LVL=1
      010032DAH   LINE      CODE     ---       #159
      010032DAH   LINE      CODE     ---       #160
      010032DAH   LINE      CODE     ---       #163
      010032DCH   LINE      CODE     ---       #164
      010032DCH   LINE      CODE     ---       #165
      010032ECH   LINE      CODE     ---       #166
      010032FCH   LINE      CODE     ---       #167
      01003301H   LINE      CODE     ---       #168
      0100330FH   LINE      CODE     ---       #169
      01003314H   LINE      CODE     ---       #170
      01003318H   LINE      CODE     ---       #171
      0100331EH   LINE      CODE     ---       #172
      01003323H   LINE      CODE     ---       #175
      ---         BLOCKEND  ---      ---       LVL=0

      ---         MODULE    ---      ---       ?C_INIT
      01002CB2H   PUBLIC    CODE     ---       ?C_START

      ---         MODULE    ---      ---       ?C?CLDOPTR
      010005C8H   PUBLIC    CODE     ---       ?C?CLDOPTR

      ---         MODULE    ---      ---       ?C?CILDOPTR
      010005F5H   PUBLIC    CODE     ---       ?C?CILDOPTR

      ---         MODULE    ---      ---       ?C?CSTOPTR
      01000628H   PUBLIC    CODE     ---       ?C?CSTOPTR

      ---         MODULE    ---      ---       ?C?IMUL
      0100064AH   PUBLIC    CODE     ---       ?C?IMUL

      ---         MODULE    ---      ---       ?C?UIDIV
      0100065CH   PUBLIC    CODE     ---       ?C?UIDIV

      ---         MODULE    ---      ---       ?C?IILDX
      010006B1H   PUBLIC    CODE     ---       ?C?IILDX

      ---         MODULE    ---      ---       ?C?ILDPTR
      010006C7H   PUBLIC    CODE     ---       ?C?ILDPTR

      ---         MODULE    ---      ---       ?C?ILDOPTR
      010006F2H   PUBLIC    CODE     ---       ?C?ILDOPTR

      ---         MODULE    ---      ---       ?C?ISTPTR
      0100072AH   PUBLIC    CODE     ---       ?C?ISTPTR

      ---         MODULE    ---      ---       ?C?ISTOPTR
      01000749H   PUBLIC    CODE     ---       ?C?ISTOPTR
LX51 LINKER/LOCATER V4.66.30.0                                                        08/12/2020  16:38:44  PAGE 130



      ---         MODULE    ---      ---       ?C?LMUL
      01000776H   PUBLIC    CODE     ---       ?C?LMUL

      ---         MODULE    ---      ---       ?C?ULDIV
      01000801H   PUBLIC    CODE     ---       ?C?ULDIV

      ---         MODULE    ---      ---       ?C?ULCMP
      01000893H   PUBLIC    CODE     ---       ?C?ULCMP

      ---         MODULE    ---      ---       ?C?LSHL
      010008A4H   PUBLIC    CODE     ---       ?C?LSHL

      ---         MODULE    ---      ---       ?C?LSTXDATA
      010008B7H   PUBLIC    CODE     ---       ?C?LSTXDATA

      ---         MODULE    ---      ---       ?C?LSTKXDATA
      010008C3H   PUBLIC    CODE     ---       ?C?LSTKXDATA

      ---         MODULE    ---      ---       ?C?OFFXADD
      010008F4H   PUBLIC    CODE     ---       ?C?OFFXADD

      ---         MODULE    ---      ---       ?C?PLDOPTR
      01000900H   PUBLIC    CODE     ---       ?C?PLDOPTR

      ---         MODULE    ---      ---       ?C?PSTOPTR
      01000930H   PUBLIC    CODE     ---       ?C?PSTOPTR

      ---         MODULE    ---      ---       ?C?ICALL
      01000989H   PUBLIC    CODE     ---       ?C?ICALL
      0100098DH   PUBLIC    CODE     ---       ?C?ICALL2

      ---         MODULE    ---      ---       ?C?LIMUL
      0100098FH   PUBLIC    CODE     ---       ?C?LIMUL

      ---         MODULE    ---      ---       ?C?PLDIDATA
      010009BCH   PUBLIC    CODE     ---       ?C?PLDIDATA

      ---         MODULE    ---      ---       ?C?PSTIDATA
      010009C5H   PUBLIC    CODE     ---       ?C?PSTIDATA

      ---         MODULE    ---      ---       ?C?PLDXDATA
      010009CEH   PUBLIC    CODE     ---       ?C?PLDXDATA

      ---         MODULE    ---      ---       ?C?PSTXDATA
      010009D7H   PUBLIC    CODE     ---       ?C?PSTXDATA

      ---         MODULE    ---      ---       ?C?PLDPDATA
      010009E0H   PUBLIC    CODE     ---       ?C?PLDPDATA

      ---         MODULE    ---      ---       ?C?PSTPDATA
      010009E9H   PUBLIC    CODE     ---       ?C?PSTPDATA

      ---         MODULE    ---      ---       ?C?PLDCODE
      010009F2H   PUBLIC    CODE     ---       ?C?PLDCODE



*** WARNING L13: RECURSIVE CALL TO FUNCTION
    CALLED:  _SRL_GETHEADER/SERIAL
    CALLER:  _SRL_GETDATA/SERIAL

LX51 LINKER/LOCATER V4.66.30.0                                                        08/12/2020  16:38:44  PAGE 131


*** WARNING L15: MULTIPLE CALL TO FUNCTION
    NAME:    _CALCBYTEEVEN/UARTCFG
    CALLER1: ?C_C51STARTUP
    CALLER2: UART0_ISR/UART

Program Size: data=9.0 xdata=1013 const=0 code=14399
LX51 RUN COMPLETE.  2 WARNING(S),  0 ERROR(S)
